
SAMSEPTRKR.elf:     file format elf32-littlearm

Sections:
Idx Name          Size      VMA       LMA       File off  Algn
  0 .text         00007d34  00400000  00400000  00010000  2**3
                  CONTENTS, ALLOC, LOAD, READONLY, CODE
  1 .relocate     00000464  20000000  00407d34  00020000  2**3
                  CONTENTS, ALLOC, LOAD, CODE
  2 .bss          000022c4  20000468  004081a0  00020468  2**3
                  ALLOC
  3 .stack        00003004  2000272c  0040a464  00020468  2**0
                  ALLOC
  4 .ARM.attributes 0000002a  00000000  00000000  00020464  2**0
                  CONTENTS, READONLY
  5 .comment      00000059  00000000  00000000  0002048e  2**0
                  CONTENTS, READONLY
  6 .debug_frame  000006ec  00000000  00000000  000204e8  2**2
                  CONTENTS, READONLY, DEBUGGING

Disassembly of section .text:

00400000 <_sfixed>:
  400000:	20005730 	.word	0x20005730
  400004:	0040244d 	.word	0x0040244d
  400008:	00402449 	.word	0x00402449
  40000c:	00402449 	.word	0x00402449
  400010:	00402449 	.word	0x00402449
  400014:	00402449 	.word	0x00402449
  400018:	00402449 	.word	0x00402449
	...
  40002c:	004026b5 	.word	0x004026b5
  400030:	00402449 	.word	0x00402449
  400034:	00000000 	.word	0x00000000
  400038:	0040272d 	.word	0x0040272d
  40003c:	00402769 	.word	0x00402769
  400040:	00402449 	.word	0x00402449
  400044:	00402449 	.word	0x00402449
  400048:	00402449 	.word	0x00402449
  40004c:	00402449 	.word	0x00402449
  400050:	00402449 	.word	0x00402449
  400054:	00402449 	.word	0x00402449
  400058:	00402449 	.word	0x00402449
  40005c:	00000000 	.word	0x00000000
  400060:	00402449 	.word	0x00402449
  400064:	00402449 	.word	0x00402449
  400068:	00000000 	.word	0x00000000
  40006c:	004022a1 	.word	0x004022a1
  400070:	004022b1 	.word	0x004022b1
  400074:	00000000 	.word	0x00000000
  400078:	00401a3d 	.word	0x00401a3d
  40007c:	00401a49 	.word	0x00401a49
	...
  400088:	00402449 	.word	0x00402449
  40008c:	0040186d 	.word	0x0040186d
  400090:	00401879 	.word	0x00401879
  400094:	00402449 	.word	0x00402449
  400098:	00402449 	.word	0x00402449
  40009c:	00402449 	.word	0x00402449
  4000a0:	00402449 	.word	0x00402449
  4000a4:	00402449 	.word	0x00402449
	...
  4000b4:	00402449 	.word	0x00402449
  4000b8:	00402449 	.word	0x00402449
  4000bc:	00402449 	.word	0x00402449
  4000c0:	00402449 	.word	0x00402449
  4000c4:	00402449 	.word	0x00402449
  4000c8:	00402449 	.word	0x00402449

004000cc <__do_global_dtors_aux>:
  4000cc:	b510      	push	{r4, lr}
  4000ce:	4c05      	ldr	r4, [pc, #20]	; (4000e4 <__do_global_dtors_aux+0x18>)
  4000d0:	7823      	ldrb	r3, [r4, #0]
  4000d2:	b933      	cbnz	r3, 4000e2 <__do_global_dtors_aux+0x16>
  4000d4:	4b04      	ldr	r3, [pc, #16]	; (4000e8 <__do_global_dtors_aux+0x1c>)
  4000d6:	b113      	cbz	r3, 4000de <__do_global_dtors_aux+0x12>
  4000d8:	4804      	ldr	r0, [pc, #16]	; (4000ec <__do_global_dtors_aux+0x20>)
  4000da:	f3af 8000 	nop.w
  4000de:	2301      	movs	r3, #1
  4000e0:	7023      	strb	r3, [r4, #0]
  4000e2:	bd10      	pop	{r4, pc}
  4000e4:	20000468 	.word	0x20000468
  4000e8:	00000000 	.word	0x00000000
  4000ec:	00407d34 	.word	0x00407d34

004000f0 <frame_dummy>:
  4000f0:	4b08      	ldr	r3, [pc, #32]	; (400114 <frame_dummy+0x24>)
  4000f2:	b510      	push	{r4, lr}
  4000f4:	b11b      	cbz	r3, 4000fe <frame_dummy+0xe>
  4000f6:	4908      	ldr	r1, [pc, #32]	; (400118 <frame_dummy+0x28>)
  4000f8:	4808      	ldr	r0, [pc, #32]	; (40011c <frame_dummy+0x2c>)
  4000fa:	f3af 8000 	nop.w
  4000fe:	4808      	ldr	r0, [pc, #32]	; (400120 <frame_dummy+0x30>)
  400100:	6803      	ldr	r3, [r0, #0]
  400102:	b903      	cbnz	r3, 400106 <frame_dummy+0x16>
  400104:	bd10      	pop	{r4, pc}
  400106:	4b07      	ldr	r3, [pc, #28]	; (400124 <frame_dummy+0x34>)
  400108:	2b00      	cmp	r3, #0
  40010a:	d0fb      	beq.n	400104 <frame_dummy+0x14>
  40010c:	e8bd 4010 	ldmia.w	sp!, {r4, lr}
  400110:	4718      	bx	r3
  400112:	bf00      	nop
  400114:	00000000 	.word	0x00000000
  400118:	2000046c 	.word	0x2000046c
  40011c:	00407d34 	.word	0x00407d34
  400120:	00407d34 	.word	0x00407d34
  400124:	00000000 	.word	0x00000000

00400128 <WriteEEPROM>:
  400128:	b510      	push	{r4, lr}
  40012a:	b086      	sub	sp, #24
  40012c:	f3c2 2401 	ubfx	r4, r2, #8, #2
  400130:	f001 01fc 	and.w	r1, r1, #252	; 0xfc
  400134:	4321      	orrs	r1, r4
  400136:	9303      	str	r3, [sp, #12]
  400138:	f89d 3020 	ldrb.w	r3, [sp, #32]
  40013c:	f88d 1014 	strb.w	r1, [sp, #20]
  400140:	f88d 2004 	strb.w	r2, [sp, #4]
  400144:	9304      	str	r3, [sp, #16]
  400146:	2201      	movs	r2, #1
  400148:	a901      	add	r1, sp, #4
  40014a:	4b04      	ldr	r3, [pc, #16]	; (40015c <WriteEEPROM+0x34>)
  40014c:	9202      	str	r2, [sp, #8]
  40014e:	4798      	blx	r3
  400150:	f24a 706a 	movw	r0, #42858	; 0xa76a
  400154:	4b02      	ldr	r3, [pc, #8]	; (400160 <WriteEEPROM+0x38>)
  400156:	4798      	blx	r3
  400158:	b006      	add	sp, #24
  40015a:	bd10      	pop	{r4, pc}
  40015c:	00401c41 	.word	0x00401c41
  400160:	20000001 	.word	0x20000001

00400164 <ReadEEPROM>:
  400164:	b510      	push	{r4, lr}
  400166:	b086      	sub	sp, #24
  400168:	f3c2 2401 	ubfx	r4, r2, #8, #2
  40016c:	f001 01fc 	and.w	r1, r1, #252	; 0xfc
  400170:	4321      	orrs	r1, r4
  400172:	9303      	str	r3, [sp, #12]
  400174:	f8bd 3020 	ldrh.w	r3, [sp, #32]
  400178:	f88d 1014 	strb.w	r1, [sp, #20]
  40017c:	f88d 2004 	strb.w	r2, [sp, #4]
  400180:	9304      	str	r3, [sp, #16]
  400182:	2201      	movs	r2, #1
  400184:	a901      	add	r1, sp, #4
  400186:	4b02      	ldr	r3, [pc, #8]	; (400190 <ReadEEPROM+0x2c>)
  400188:	9202      	str	r2, [sp, #8]
  40018a:	4798      	blx	r3
  40018c:	b006      	add	sp, #24
  40018e:	bd10      	pop	{r4, pc}
  400190:	00401ba5 	.word	0x00401ba5

00400194 <DSGetTime>:
  400194:	b510      	push	{r4, lr}
  400196:	b086      	sub	sp, #24
  400198:	2368      	movs	r3, #104	; 0x68
  40019a:	f88d 3014 	strb.w	r3, [sp, #20]
  40019e:	2300      	movs	r3, #0
  4001a0:	f88d 3004 	strb.w	r3, [sp, #4]
  4001a4:	2301      	movs	r3, #1
  4001a6:	9302      	str	r3, [sp, #8]
  4001a8:	2303      	movs	r3, #3
  4001aa:	460c      	mov	r4, r1
  4001ac:	9304      	str	r3, [sp, #16]
  4001ae:	a901      	add	r1, sp, #4
  4001b0:	4b07      	ldr	r3, [pc, #28]	; (4001d0 <DSGetTime+0x3c>)
  4001b2:	f8cd d00c 	str.w	sp, [sp, #12]
  4001b6:	4798      	blx	r3
  4001b8:	f89d 3000 	ldrb.w	r3, [sp]
  4001bc:	8023      	strh	r3, [r4, #0]
  4001be:	f89d 3001 	ldrb.w	r3, [sp, #1]
  4001c2:	8063      	strh	r3, [r4, #2]
  4001c4:	f89d 3002 	ldrb.w	r3, [sp, #2]
  4001c8:	80a3      	strh	r3, [r4, #4]
  4001ca:	b006      	add	sp, #24
  4001cc:	bd10      	pop	{r4, pc}
  4001ce:	bf00      	nop
  4001d0:	00401ba5 	.word	0x00401ba5

004001d4 <DSGetFullDate>:
  4001d4:	b510      	push	{r4, lr}
  4001d6:	b086      	sub	sp, #24
  4001d8:	2368      	movs	r3, #104	; 0x68
  4001da:	f88d 3014 	strb.w	r3, [sp, #20]
  4001de:	2303      	movs	r3, #3
  4001e0:	f88d 3004 	strb.w	r3, [sp, #4]
  4001e4:	2301      	movs	r3, #1
  4001e6:	9302      	str	r3, [sp, #8]
  4001e8:	2304      	movs	r3, #4
  4001ea:	460c      	mov	r4, r1
  4001ec:	9304      	str	r3, [sp, #16]
  4001ee:	eb0d 0103 	add.w	r1, sp, r3
  4001f2:	4b09      	ldr	r3, [pc, #36]	; (400218 <DSGetFullDate+0x44>)
  4001f4:	f8cd d00c 	str.w	sp, [sp, #12]
  4001f8:	4798      	blx	r3
  4001fa:	f89d 3000 	ldrb.w	r3, [sp]
  4001fe:	8023      	strh	r3, [r4, #0]
  400200:	f89d 3001 	ldrb.w	r3, [sp, #1]
  400204:	8063      	strh	r3, [r4, #2]
  400206:	f89d 3002 	ldrb.w	r3, [sp, #2]
  40020a:	80a3      	strh	r3, [r4, #4]
  40020c:	f89d 3003 	ldrb.w	r3, [sp, #3]
  400210:	80e3      	strh	r3, [r4, #6]
  400212:	b006      	add	sp, #24
  400214:	bd10      	pop	{r4, pc}
  400216:	bf00      	nop
  400218:	00401ba5 	.word	0x00401ba5

0040021c <DSWriteByte>:
  40021c:	b500      	push	{lr}
  40021e:	b089      	sub	sp, #36	; 0x24
  400220:	2368      	movs	r3, #104	; 0x68
  400222:	f88d 301c 	strb.w	r3, [sp, #28]
  400226:	2301      	movs	r3, #1
  400228:	f88d 2007 	strb.w	r2, [sp, #7]
  40022c:	f88d 100c 	strb.w	r1, [sp, #12]
  400230:	9304      	str	r3, [sp, #16]
  400232:	f10d 0207 	add.w	r2, sp, #7
  400236:	9306      	str	r3, [sp, #24]
  400238:	a903      	add	r1, sp, #12
  40023a:	4b03      	ldr	r3, [pc, #12]	; (400248 <DSWriteByte+0x2c>)
  40023c:	9205      	str	r2, [sp, #20]
  40023e:	4798      	blx	r3
  400240:	b009      	add	sp, #36	; 0x24
  400242:	f85d fb04 	ldr.w	pc, [sp], #4
  400246:	bf00      	nop
  400248:	00401c41 	.word	0x00401c41

0040024c <DSSetSecs>:
  40024c:	460a      	mov	r2, r1
  40024e:	4b01      	ldr	r3, [pc, #4]	; (400254 <DSSetSecs+0x8>)
  400250:	2100      	movs	r1, #0
  400252:	4718      	bx	r3
  400254:	0040021d 	.word	0x0040021d

00400258 <DSSetMins>:
  400258:	460a      	mov	r2, r1
  40025a:	4b01      	ldr	r3, [pc, #4]	; (400260 <DSSetMins+0x8>)
  40025c:	2101      	movs	r1, #1
  40025e:	4718      	bx	r3
  400260:	0040021d 	.word	0x0040021d

00400264 <DSSetHrs>:
  400264:	460a      	mov	r2, r1
  400266:	4b01      	ldr	r3, [pc, #4]	; (40026c <DSSetHrs+0x8>)
  400268:	2102      	movs	r1, #2
  40026a:	4718      	bx	r3
  40026c:	0040021d 	.word	0x0040021d

00400270 <DSSetDay>:
  400270:	460a      	mov	r2, r1
  400272:	4b01      	ldr	r3, [pc, #4]	; (400278 <DSSetDay+0x8>)
  400274:	2103      	movs	r1, #3
  400276:	4718      	bx	r3
  400278:	0040021d 	.word	0x0040021d

0040027c <DSSetDate>:
  40027c:	460a      	mov	r2, r1
  40027e:	4b01      	ldr	r3, [pc, #4]	; (400284 <DSSetDate+0x8>)
  400280:	2104      	movs	r1, #4
  400282:	4718      	bx	r3
  400284:	0040021d 	.word	0x0040021d

00400288 <DSSetMonth>:
  400288:	460a      	mov	r2, r1
  40028a:	4b01      	ldr	r3, [pc, #4]	; (400290 <DSSetMonth+0x8>)
  40028c:	2105      	movs	r1, #5
  40028e:	4718      	bx	r3
  400290:	0040021d 	.word	0x0040021d

00400294 <DSSetYear>:
  400294:	460a      	mov	r2, r1
  400296:	4b01      	ldr	r3, [pc, #4]	; (40029c <DSSetYear+0x8>)
  400298:	2106      	movs	r1, #6
  40029a:	4718      	bx	r3
  40029c:	0040021d 	.word	0x0040021d

004002a0 <DSEnAL2>:
  4002a0:	b570      	push	{r4, r5, r6, lr}
  4002a2:	4606      	mov	r6, r0
  4002a4:	b086      	sub	sp, #24
  4002a6:	4d12      	ldr	r5, [pc, #72]	; (4002f0 <DSEnAL2+0x50>)
  4002a8:	b1e9      	cbz	r1, 4002e6 <DSEnAL2+0x46>
  4002aa:	2368      	movs	r3, #104	; 0x68
  4002ac:	f88d 3014 	strb.w	r3, [sp, #20]
  4002b0:	230b      	movs	r3, #11
  4002b2:	f88d 3004 	strb.w	r3, [sp, #4]
  4002b6:	2301      	movs	r3, #1
  4002b8:	9302      	str	r3, [sp, #8]
  4002ba:	2303      	movs	r3, #3
  4002bc:	2480      	movs	r4, #128	; 0x80
  4002be:	9304      	str	r3, [sp, #16]
  4002c0:	a901      	add	r1, sp, #4
  4002c2:	4b0c      	ldr	r3, [pc, #48]	; (4002f4 <DSEnAL2+0x54>)
  4002c4:	f8cd d00c 	str.w	sp, [sp, #12]
  4002c8:	f88d 4000 	strb.w	r4, [sp]
  4002cc:	f88d 4001 	strb.w	r4, [sp, #1]
  4002d0:	f88d 4002 	strb.w	r4, [sp, #2]
  4002d4:	4798      	blx	r3
  4002d6:	2206      	movs	r2, #6
  4002d8:	210e      	movs	r1, #14
  4002da:	4630      	mov	r0, r6
  4002dc:	47a8      	blx	r5
  4002de:	4622      	mov	r2, r4
  4002e0:	210f      	movs	r1, #15
  4002e2:	4630      	mov	r0, r6
  4002e4:	e001      	b.n	4002ea <DSEnAL2+0x4a>
  4002e6:	2204      	movs	r2, #4
  4002e8:	210e      	movs	r1, #14
  4002ea:	47a8      	blx	r5
  4002ec:	b006      	add	sp, #24
  4002ee:	bd70      	pop	{r4, r5, r6, pc}
  4002f0:	0040021d 	.word	0x0040021d
  4002f4:	00401c41 	.word	0x00401c41

004002f8 <DSReadByte>:
  4002f8:	b57f      	push	{r0, r1, r2, r3, r4, r5, r6, lr}
  4002fa:	2368      	movs	r3, #104	; 0x68
  4002fc:	f88d 3014 	strb.w	r3, [sp, #20]
  400300:	2301      	movs	r3, #1
  400302:	f88d 1004 	strb.w	r1, [sp, #4]
  400306:	9302      	str	r3, [sp, #8]
  400308:	9304      	str	r3, [sp, #16]
  40030a:	a901      	add	r1, sp, #4
  40030c:	4b02      	ldr	r3, [pc, #8]	; (400318 <DSReadByte+0x20>)
  40030e:	9203      	str	r2, [sp, #12]
  400310:	4798      	blx	r3
  400312:	b007      	add	sp, #28
  400314:	f85d fb04 	ldr.w	pc, [sp], #4
  400318:	00401ba5 	.word	0x00401ba5

0040031c <ICMWriteByte>:
  40031c:	b500      	push	{lr}
  40031e:	b089      	sub	sp, #36	; 0x24
  400320:	f88d 3007 	strb.w	r3, [sp, #7]
  400324:	2301      	movs	r3, #1
  400326:	f88d 101c 	strb.w	r1, [sp, #28]
  40032a:	f88d 200c 	strb.w	r2, [sp, #12]
  40032e:	9304      	str	r3, [sp, #16]
  400330:	f10d 0207 	add.w	r2, sp, #7
  400334:	9306      	str	r3, [sp, #24]
  400336:	a903      	add	r1, sp, #12
  400338:	4b02      	ldr	r3, [pc, #8]	; (400344 <ICMWriteByte+0x28>)
  40033a:	9205      	str	r2, [sp, #20]
  40033c:	4798      	blx	r3
  40033e:	b009      	add	sp, #36	; 0x24
  400340:	f85d fb04 	ldr.w	pc, [sp], #4
  400344:	00401c41 	.word	0x00401c41

00400348 <ICMInitialize>:
  400348:	b570      	push	{r4, r5, r6, lr}
  40034a:	2300      	movs	r3, #0
  40034c:	4605      	mov	r5, r0
  40034e:	460e      	mov	r6, r1
  400350:	4c0f      	ldr	r4, [pc, #60]	; (400390 <ICMInitialize+0x48>)
  400352:	227f      	movs	r2, #127	; 0x7f
  400354:	47a0      	blx	r4
  400356:	4631      	mov	r1, r6
  400358:	4628      	mov	r0, r5
  40035a:	2301      	movs	r3, #1
  40035c:	2206      	movs	r2, #6
  40035e:	47a0      	blx	r4
  400360:	4631      	mov	r1, r6
  400362:	4628      	mov	r0, r5
  400364:	2320      	movs	r3, #32
  400366:	227f      	movs	r2, #127	; 0x7f
  400368:	47a0      	blx	r4
  40036a:	4631      	mov	r1, r6
  40036c:	4628      	mov	r0, r5
  40036e:	2331      	movs	r3, #49	; 0x31
  400370:	2214      	movs	r2, #20
  400372:	47a0      	blx	r4
  400374:	4631      	mov	r1, r6
  400376:	4628      	mov	r0, r5
  400378:	2300      	movs	r3, #0
  40037a:	2210      	movs	r2, #16
  40037c:	47a0      	blx	r4
  40037e:	4631      	mov	r1, r6
  400380:	4628      	mov	r0, r5
  400382:	46a4      	mov	ip, r4
  400384:	233f      	movs	r3, #63	; 0x3f
  400386:	2211      	movs	r2, #17
  400388:	e8bd 4070 	ldmia.w	sp!, {r4, r5, r6, lr}
  40038c:	4760      	bx	ip
  40038e:	bf00      	nop
  400390:	0040031d 	.word	0x0040031d

00400394 <ICMReadByte>:
  400394:	b57f      	push	{r0, r1, r2, r3, r4, r5, r6, lr}
  400396:	f88d 1014 	strb.w	r1, [sp, #20]
  40039a:	f88d 2004 	strb.w	r2, [sp, #4]
  40039e:	9303      	str	r3, [sp, #12]
  4003a0:	2201      	movs	r2, #1
  4003a2:	a901      	add	r1, sp, #4
  4003a4:	4b03      	ldr	r3, [pc, #12]	; (4003b4 <ICMReadByte+0x20>)
  4003a6:	9202      	str	r2, [sp, #8]
  4003a8:	9204      	str	r2, [sp, #16]
  4003aa:	4798      	blx	r3
  4003ac:	b007      	add	sp, #28
  4003ae:	f85d fb04 	ldr.w	pc, [sp], #4
  4003b2:	bf00      	nop
  4003b4:	00401ba5 	.word	0x00401ba5

004003b8 <ICMReadAccDataAll>:
  4003b8:	e92d 41f0 	stmdb	sp!, {r4, r5, r6, r7, r8, lr}
  4003bc:	2300      	movs	r3, #0
  4003be:	4605      	mov	r5, r0
  4003c0:	460e      	mov	r6, r1
  4003c2:	4617      	mov	r7, r2
  4003c4:	4c12      	ldr	r4, [pc, #72]	; (400410 <ICMReadAccDataAll+0x58>)
  4003c6:	227f      	movs	r2, #127	; 0x7f
  4003c8:	47a0      	blx	r4
  4003ca:	4c12      	ldr	r4, [pc, #72]	; (400414 <ICMReadAccDataAll+0x5c>)
  4003cc:	1c7b      	adds	r3, r7, #1
  4003ce:	4631      	mov	r1, r6
  4003d0:	4628      	mov	r0, r5
  4003d2:	222d      	movs	r2, #45	; 0x2d
  4003d4:	47a0      	blx	r4
  4003d6:	463b      	mov	r3, r7
  4003d8:	4631      	mov	r1, r6
  4003da:	4628      	mov	r0, r5
  4003dc:	222e      	movs	r2, #46	; 0x2e
  4003de:	47a0      	blx	r4
  4003e0:	1cfb      	adds	r3, r7, #3
  4003e2:	4631      	mov	r1, r6
  4003e4:	4628      	mov	r0, r5
  4003e6:	222f      	movs	r2, #47	; 0x2f
  4003e8:	47a0      	blx	r4
  4003ea:	1cbb      	adds	r3, r7, #2
  4003ec:	4631      	mov	r1, r6
  4003ee:	4628      	mov	r0, r5
  4003f0:	2230      	movs	r2, #48	; 0x30
  4003f2:	47a0      	blx	r4
  4003f4:	1d7b      	adds	r3, r7, #5
  4003f6:	4631      	mov	r1, r6
  4003f8:	4628      	mov	r0, r5
  4003fa:	2231      	movs	r2, #49	; 0x31
  4003fc:	47a0      	blx	r4
  4003fe:	1d3b      	adds	r3, r7, #4
  400400:	4631      	mov	r1, r6
  400402:	4628      	mov	r0, r5
  400404:	46a4      	mov	ip, r4
  400406:	2232      	movs	r2, #50	; 0x32
  400408:	e8bd 41f0 	ldmia.w	sp!, {r4, r5, r6, r7, r8, lr}
  40040c:	4760      	bx	ip
  40040e:	bf00      	nop
  400410:	0040031d 	.word	0x0040031d
  400414:	00400395 	.word	0x00400395

00400418 <calcCRC>:
  400418:	b530      	push	{r4, r5, lr}
  40041a:	4605      	mov	r5, r0
  40041c:	4604      	mov	r4, r0
  40041e:	f64f 70ff 	movw	r0, #65535	; 0xffff
  400422:	1b63      	subs	r3, r4, r5
  400424:	b2db      	uxtb	r3, r3
  400426:	4299      	cmp	r1, r3
  400428:	d915      	bls.n	400456 <calcCRC+0x3e>
  40042a:	f814 3b01 	ldrb.w	r3, [r4], #1
  40042e:	2208      	movs	r2, #8
  400430:	4058      	eors	r0, r3
  400432:	f010 0f01 	tst.w	r0, #1
  400436:	ea4f 0350 	mov.w	r3, r0, lsr #1
  40043a:	bf1a      	itte	ne
  40043c:	b29b      	uxthne	r3, r3
  40043e:	f483 4020 	eorne.w	r0, r3, #40960	; 0xa000
  400442:	b298      	uxtheq	r0, r3
  400444:	f102 33ff 	add.w	r3, r2, #4294967295
  400448:	bf18      	it	ne
  40044a:	f080 0001 	eorne.w	r0, r0, #1
  40044e:	f013 02ff 	ands.w	r2, r3, #255	; 0xff
  400452:	d1ee      	bne.n	400432 <calcCRC+0x1a>
  400454:	e7e5      	b.n	400422 <calcCRC+0xa>
  400456:	bd30      	pop	{r4, r5, pc}

00400458 <ParseMbusPkt>:
  400458:	e92d 47f0 	stmdb	sp!, {r4, r5, r6, r7, r8, r9, sl, lr}
  40045c:	461c      	mov	r4, r3
  40045e:	780b      	ldrb	r3, [r1, #0]
  400460:	9e08      	ldr	r6, [sp, #32]
  400462:	4283      	cmp	r3, r0
  400464:	4607      	mov	r7, r0
  400466:	460d      	mov	r5, r1
  400468:	4690      	mov	r8, r2
  40046a:	d002      	beq.n	400472 <ParseMbusPkt+0x1a>
  40046c:	2b00      	cmp	r3, #0
  40046e:	f040 80cf 	bne.w	400610 <ParseMbusPkt+0x1b8>
  400472:	f1a8 0102 	sub.w	r1, r8, #2
  400476:	44a8      	add	r8, r5
  400478:	f8df a1d0 	ldr.w	sl, [pc, #464]	; 40064c <ParseMbusPkt+0x1f4>
  40047c:	b2c9      	uxtb	r1, r1
  40047e:	4628      	mov	r0, r5
  400480:	47d0      	blx	sl
  400482:	f818 2c01 	ldrb.w	r2, [r8, #-1]
  400486:	f818 3c02 	ldrb.w	r3, [r8, #-2]
  40048a:	ea43 2302 	orr.w	r3, r3, r2, lsl #8
  40048e:	4283      	cmp	r3, r0
  400490:	4652      	mov	r2, sl
  400492:	f040 80d4 	bne.w	40063e <ParseMbusPkt+0x1e6>
  400496:	7869      	ldrb	r1, [r5, #1]
  400498:	2906      	cmp	r1, #6
  40049a:	d042      	beq.n	400522 <ParseMbusPkt+0xca>
  40049c:	2910      	cmp	r1, #16
  40049e:	d06d      	beq.n	40057c <ParseMbusPkt+0x124>
  4004a0:	2903      	cmp	r1, #3
  4004a2:	f040 80b1 	bne.w	400608 <ParseMbusPkt+0x1b0>
  4004a6:	7928      	ldrb	r0, [r5, #4]
  4004a8:	796b      	ldrb	r3, [r5, #5]
  4004aa:	ea43 2300 	orr.w	r3, r3, r0, lsl #8
  4004ae:	b21b      	sxth	r3, r3
  4004b0:	fa1f fe83 	uxth.w	lr, r3
  4004b4:	f10e 30ff 	add.w	r0, lr, #4294967295
  4004b8:	287c      	cmp	r0, #124	; 0x7c
  4004ba:	f200 80ac 	bhi.w	400616 <ParseMbusPkt+0x1be>
  4004be:	f895 c002 	ldrb.w	ip, [r5, #2]
  4004c2:	78e8      	ldrb	r0, [r5, #3]
  4004c4:	ea40 200c 	orr.w	r0, r0, ip, lsl #8
  4004c8:	eb0e 0500 	add.w	r5, lr, r0
  4004cc:	2d26      	cmp	r5, #38	; 0x26
  4004ce:	f300 80a1 	bgt.w	400614 <ParseMbusPkt+0x1bc>
  4004d2:	005b      	lsls	r3, r3, #1
  4004d4:	f8df c170 	ldr.w	ip, [pc, #368]	; 400648 <ParseMbusPkt+0x1f0>
  4004d8:	7027      	strb	r7, [r4, #0]
  4004da:	70a3      	strb	r3, [r4, #2]
  4004dc:	7061      	strb	r1, [r4, #1]
  4004de:	2300      	movs	r3, #0
  4004e0:	460f      	mov	r7, r1
  4004e2:	459e      	cmp	lr, r3
  4004e4:	f107 0501 	add.w	r5, r7, #1
  4004e8:	f107 0802 	add.w	r8, r7, #2
  4004ec:	d90e      	bls.n	40050c <ParseMbusPkt+0xb4>
  4004ee:	eb03 0900 	add.w	r9, r3, r0
  4004f2:	b2ed      	uxtb	r5, r5
  4004f4:	f83c 1019 	ldrh.w	r1, [ip, r9, lsl #1]
  4004f8:	0a09      	lsrs	r1, r1, #8
  4004fa:	55e1      	strb	r1, [r4, r7]
  4004fc:	3301      	adds	r3, #1
  4004fe:	f83c 1019 	ldrh.w	r1, [ip, r9, lsl #1]
  400502:	5561      	strb	r1, [r4, r5]
  400504:	fa5f f788 	uxtb.w	r7, r8
  400508:	b2db      	uxtb	r3, r3
  40050a:	e7ea      	b.n	4004e2 <ParseMbusPkt+0x8a>
  40050c:	4639      	mov	r1, r7
  40050e:	4620      	mov	r0, r4
  400510:	4790      	blx	r2
  400512:	b2ed      	uxtb	r5, r5
  400514:	55e0      	strb	r0, [r4, r7]
  400516:	0a00      	lsrs	r0, r0, #8
  400518:	5560      	strb	r0, [r4, r5]
  40051a:	f886 8000 	strb.w	r8, [r6]
  40051e:	e8bd 87f0 	ldmia.w	sp!, {r4, r5, r6, r7, r8, r9, sl, pc}
  400522:	f895 8002 	ldrb.w	r8, [r5, #2]
  400526:	78eb      	ldrb	r3, [r5, #3]
  400528:	ea43 2808 	orr.w	r8, r3, r8, lsl #8
  40052c:	fa0f f888 	sxth.w	r8, r8
  400530:	fa1f f088 	uxth.w	r0, r8
  400534:	2826      	cmp	r0, #38	; 0x26
  400536:	d870      	bhi.n	40061a <ParseMbusPkt+0x1c2>
  400538:	792a      	ldrb	r2, [r5, #4]
  40053a:	796b      	ldrb	r3, [r5, #5]
  40053c:	f8df 9108 	ldr.w	r9, [pc, #264]	; 400648 <ParseMbusPkt+0x1f0>
  400540:	ea43 2302 	orr.w	r3, r3, r2, lsl #8
  400544:	f829 3010 	strh.w	r3, [r9, r0, lsl #1]
  400548:	7027      	strb	r7, [r4, #0]
  40054a:	7061      	strb	r1, [r4, #1]
  40054c:	78ab      	ldrb	r3, [r5, #2]
  40054e:	70a3      	strb	r3, [r4, #2]
  400550:	78eb      	ldrb	r3, [r5, #3]
  400552:	70e3      	strb	r3, [r4, #3]
  400554:	792b      	ldrb	r3, [r5, #4]
  400556:	7123      	strb	r3, [r4, #4]
  400558:	796b      	ldrb	r3, [r5, #5]
  40055a:	7163      	strb	r3, [r4, #5]
  40055c:	4620      	mov	r0, r4
  40055e:	47d0      	blx	sl
  400560:	2308      	movs	r3, #8
  400562:	71a0      	strb	r0, [r4, #6]
  400564:	0a00      	lsrs	r0, r0, #8
  400566:	71e0      	strb	r0, [r4, #7]
  400568:	7033      	strb	r3, [r6, #0]
  40056a:	4b36      	ldr	r3, [pc, #216]	; (400644 <ParseMbusPkt+0x1ec>)
  40056c:	681b      	ldr	r3, [r3, #0]
  40056e:	2b00      	cmp	r3, #0
  400570:	d065      	beq.n	40063e <ParseMbusPkt+0x1e6>
  400572:	2201      	movs	r2, #1
  400574:	fa5f f188 	uxtb.w	r1, r8
  400578:	4648      	mov	r0, r9
  40057a:	e042      	b.n	400602 <ParseMbusPkt+0x1aa>
  40057c:	7928      	ldrb	r0, [r5, #4]
  40057e:	796b      	ldrb	r3, [r5, #5]
  400580:	ea43 2300 	orr.w	r3, r3, r0, lsl #8
  400584:	1e58      	subs	r0, r3, #1
  400586:	287c      	cmp	r0, #124	; 0x7c
  400588:	d84a      	bhi.n	400620 <ParseMbusPkt+0x1c8>
  40058a:	f895 8002 	ldrb.w	r8, [r5, #2]
  40058e:	78e8      	ldrb	r0, [r5, #3]
  400590:	ea40 2808 	orr.w	r8, r0, r8, lsl #8
  400594:	fa0f f888 	sxth.w	r8, r8
  400598:	fa1f f988 	uxth.w	r9, r8
  40059c:	444b      	add	r3, r9
  40059e:	2b26      	cmp	r3, #38	; 0x26
  4005a0:	dc40      	bgt.n	400624 <ParseMbusPkt+0x1cc>
  4005a2:	7061      	strb	r1, [r4, #1]
  4005a4:	7027      	strb	r7, [r4, #0]
  4005a6:	78ab      	ldrb	r3, [r5, #2]
  4005a8:	70a3      	strb	r3, [r4, #2]
  4005aa:	78eb      	ldrb	r3, [r5, #3]
  4005ac:	70e3      	strb	r3, [r4, #3]
  4005ae:	792b      	ldrb	r3, [r5, #4]
  4005b0:	7123      	strb	r3, [r4, #4]
  4005b2:	796b      	ldrb	r3, [r5, #5]
  4005b4:	7163      	strb	r3, [r4, #5]
  4005b6:	2106      	movs	r1, #6
  4005b8:	4620      	mov	r0, r4
  4005ba:	47d0      	blx	sl
  4005bc:	2308      	movs	r3, #8
  4005be:	71a0      	strb	r0, [r4, #6]
  4005c0:	0a00      	lsrs	r0, r0, #8
  4005c2:	71e0      	strb	r0, [r4, #7]
  4005c4:	7033      	strb	r3, [r6, #0]
  4005c6:	79a8      	ldrb	r0, [r5, #6]
  4005c8:	4c1f      	ldr	r4, [pc, #124]	; (400648 <ParseMbusPkt+0x1f0>)
  4005ca:	2200      	movs	r2, #0
  4005cc:	3007      	adds	r0, #7
  4005ce:	2307      	movs	r3, #7
  4005d0:	4611      	mov	r1, r2
  4005d2:	4298      	cmp	r0, r3
  4005d4:	d910      	bls.n	4005f8 <ParseMbusPkt+0x1a0>
  4005d6:	07de      	lsls	r6, r3, #31
  4005d8:	bf57      	itett	pl
  4005da:	5cee      	ldrbpl	r6, [r5, r3]
  4005dc:	5ce9      	ldrbmi	r1, [r5, r3]
  4005de:	4331      	orrpl	r1, r6
  4005e0:	eb02 0609 	addpl.w	r6, r2, r9
  4005e4:	f103 0301 	add.w	r3, r3, #1
  4005e8:	bf57      	itett	pl
  4005ea:	3201      	addpl	r2, #1
  4005ec:	0209      	lslmi	r1, r1, #8
  4005ee:	f824 1016 	strhpl.w	r1, [r4, r6, lsl #1]
  4005f2:	b2d2      	uxtbpl	r2, r2
  4005f4:	b2db      	uxtb	r3, r3
  4005f6:	e7ec      	b.n	4005d2 <ParseMbusPkt+0x17a>
  4005f8:	4b12      	ldr	r3, [pc, #72]	; (400644 <ParseMbusPkt+0x1ec>)
  4005fa:	4813      	ldr	r0, [pc, #76]	; (400648 <ParseMbusPkt+0x1f0>)
  4005fc:	681b      	ldr	r3, [r3, #0]
  4005fe:	fa5f f188 	uxtb.w	r1, r8
  400602:	e8bd 47f0 	ldmia.w	sp!, {r4, r5, r6, r7, r8, r9, sl, lr}
  400606:	4718      	bx	r3
  400608:	f041 0380 	orr.w	r3, r1, #128	; 0x80
  40060c:	2101      	movs	r1, #1
  40060e:	e00b      	b.n	400628 <ParseMbusPkt+0x1d0>
  400610:	2300      	movs	r3, #0
  400612:	e013      	b.n	40063c <ParseMbusPkt+0x1e4>
  400614:	2102      	movs	r1, #2
  400616:	2383      	movs	r3, #131	; 0x83
  400618:	e006      	b.n	400628 <ParseMbusPkt+0x1d0>
  40061a:	2102      	movs	r1, #2
  40061c:	2386      	movs	r3, #134	; 0x86
  40061e:	e003      	b.n	400628 <ParseMbusPkt+0x1d0>
  400620:	2103      	movs	r1, #3
  400622:	e000      	b.n	400626 <ParseMbusPkt+0x1ce>
  400624:	2102      	movs	r1, #2
  400626:	2390      	movs	r3, #144	; 0x90
  400628:	7063      	strb	r3, [r4, #1]
  40062a:	70a1      	strb	r1, [r4, #2]
  40062c:	7027      	strb	r7, [r4, #0]
  40062e:	2103      	movs	r1, #3
  400630:	4620      	mov	r0, r4
  400632:	4790      	blx	r2
  400634:	70e0      	strb	r0, [r4, #3]
  400636:	0a00      	lsrs	r0, r0, #8
  400638:	7120      	strb	r0, [r4, #4]
  40063a:	2305      	movs	r3, #5
  40063c:	7033      	strb	r3, [r6, #0]
  40063e:	e8bd 87f0 	ldmia.w	sp!, {r4, r5, r6, r7, r8, r9, sl, pc}
  400642:	bf00      	nop
  400644:	2000270c 	.word	0x2000270c
  400648:	20000484 	.word	0x20000484
  40064c:	00400419 	.word	0x00400419

00400650 <RTCIntHandler>:
  400650:	280b      	cmp	r0, #11
  400652:	d10c      	bne.n	40066e <RTCIntHandler+0x1e>
  400654:	2901      	cmp	r1, #1
  400656:	d10a      	bne.n	40066e <RTCIntHandler+0x1e>
  400658:	4b05      	ldr	r3, [pc, #20]	; (400670 <RTCIntHandler+0x20>)
  40065a:	8e1b      	ldrh	r3, [r3, #48]	; 0x30
  40065c:	b93b      	cbnz	r3, 40066e <RTCIntHandler+0x1e>
  40065e:	4a05      	ldr	r2, [pc, #20]	; (400674 <RTCIntHandler+0x24>)
  400660:	7813      	ldrb	r3, [r2, #0]
  400662:	2b02      	cmp	r3, #2
  400664:	bf9f      	itttt	ls
  400666:	7813      	ldrbls	r3, [r2, #0]
  400668:	3301      	addls	r3, #1
  40066a:	b2db      	uxtbls	r3, r3
  40066c:	7013      	strbls	r3, [r2, #0]
  40066e:	4770      	bx	lr
  400670:	20000484 	.word	0x20000484
  400674:	200004d1 	.word	0x200004d1

00400678 <InitVars>:
  400678:	e92d 4ff0 	stmdb	sp!, {r4, r5, r6, r7, r8, r9, sl, fp, lr}
  40067c:	b091      	sub	sp, #68	; 0x44
  40067e:	2321      	movs	r3, #33	; 0x21
  400680:	9300      	str	r3, [sp, #0]
  400682:	2150      	movs	r1, #80	; 0x50
  400684:	ab07      	add	r3, sp, #28
  400686:	2200      	movs	r2, #0
  400688:	489e      	ldr	r0, [pc, #632]	; (400904 <InitVars+0x28c>)
  40068a:	4c9f      	ldr	r4, [pc, #636]	; (400908 <InitVars+0x290>)
  40068c:	47a0      	blx	r4
  40068e:	f89d 303c 	ldrb.w	r3, [sp, #60]	; 0x3c
  400692:	499e      	ldr	r1, [pc, #632]	; (40090c <InitVars+0x294>)
  400694:	2bab      	cmp	r3, #171	; 0xab
  400696:	f040 80af 	bne.w	4007f8 <InitVars+0x180>
  40069a:	f89d 301c 	ldrb.w	r3, [sp, #28]
  40069e:	f89d 901d 	ldrb.w	r9, [sp, #29]
  4006a2:	f89d a01f 	ldrb.w	sl, [sp, #31]
  4006a6:	f89d c021 	ldrb.w	ip, [sp, #33]	; 0x21
  4006aa:	f89d 8023 	ldrb.w	r8, [sp, #35]	; 0x23
  4006ae:	f89d 7025 	ldrb.w	r7, [sp, #37]	; 0x25
  4006b2:	f89d e027 	ldrb.w	lr, [sp, #39]	; 0x27
  4006b6:	f89d 2029 	ldrb.w	r2, [sp, #41]	; 0x29
  4006ba:	f89d 502d 	ldrb.w	r5, [sp, #45]	; 0x2d
  4006be:	f89d 602f 	ldrb.w	r6, [sp, #47]	; 0x2f
  4006c2:	ea43 2909 	orr.w	r9, r3, r9, lsl #8
  4006c6:	f89d 301e 	ldrb.w	r3, [sp, #30]
  4006ca:	f8a1 9010 	strh.w	r9, [r1, #16]
  4006ce:	ea43 2a0a 	orr.w	sl, r3, sl, lsl #8
  4006d2:	f89d 3020 	ldrb.w	r3, [sp, #32]
  4006d6:	f8a1 a012 	strh.w	sl, [r1, #18]
  4006da:	ea43 2c0c 	orr.w	ip, r3, ip, lsl #8
  4006de:	f89d 3022 	ldrb.w	r3, [sp, #34]	; 0x22
  4006e2:	f8a1 c014 	strh.w	ip, [r1, #20]
  4006e6:	ea43 2808 	orr.w	r8, r3, r8, lsl #8
  4006ea:	f89d 3024 	ldrb.w	r3, [sp, #36]	; 0x24
  4006ee:	f8a1 8016 	strh.w	r8, [r1, #22]
  4006f2:	ea43 2707 	orr.w	r7, r3, r7, lsl #8
  4006f6:	f89d 3026 	ldrb.w	r3, [sp, #38]	; 0x26
  4006fa:	830f      	strh	r7, [r1, #24]
  4006fc:	ea43 2e0e 	orr.w	lr, r3, lr, lsl #8
  400700:	f89d 3028 	ldrb.w	r3, [sp, #40]	; 0x28
  400704:	f8a1 e01a 	strh.w	lr, [r1, #26]
  400708:	ea43 2302 	orr.w	r3, r3, r2, lsl #8
  40070c:	9302      	str	r3, [sp, #8]
  40070e:	f8bd 3008 	ldrh.w	r3, [sp, #8]
  400712:	878b      	strh	r3, [r1, #60]	; 0x3c
  400714:	f89d 202b 	ldrb.w	r2, [sp, #43]	; 0x2b
  400718:	f89d 302a 	ldrb.w	r3, [sp, #42]	; 0x2a
  40071c:	ea43 2302 	orr.w	r3, r3, r2, lsl #8
  400720:	9303      	str	r3, [sp, #12]
  400722:	f8bd 300c 	ldrh.w	r3, [sp, #12]
  400726:	87cb      	strh	r3, [r1, #62]	; 0x3e
  400728:	f89d 302c 	ldrb.w	r3, [sp, #44]	; 0x2c
  40072c:	ea43 2505 	orr.w	r5, r3, r5, lsl #8
  400730:	f8a1 5040 	strh.w	r5, [r1, #64]	; 0x40
  400734:	f89d 302e 	ldrb.w	r3, [sp, #46]	; 0x2e
  400738:	f89d 2031 	ldrb.w	r2, [sp, #49]	; 0x31
  40073c:	f89d 0035 	ldrb.w	r0, [sp, #53]	; 0x35
  400740:	f89d 4037 	ldrb.w	r4, [sp, #55]	; 0x37
  400744:	ea43 2606 	orr.w	r6, r3, r6, lsl #8
  400748:	f89d 3030 	ldrb.w	r3, [sp, #48]	; 0x30
  40074c:	f8a1 6042 	strh.w	r6, [r1, #66]	; 0x42
  400750:	ea43 2b02 	orr.w	fp, r3, r2, lsl #8
  400754:	f89d 2033 	ldrb.w	r2, [sp, #51]	; 0x33
  400758:	f89d 3032 	ldrb.w	r3, [sp, #50]	; 0x32
  40075c:	f8a1 b024 	strh.w	fp, [r1, #36]	; 0x24
  400760:	ea43 2302 	orr.w	r3, r3, r2, lsl #8
  400764:	9304      	str	r3, [sp, #16]
  400766:	f8bd 3010 	ldrh.w	r3, [sp, #16]
  40076a:	84cb      	strh	r3, [r1, #38]	; 0x26
  40076c:	f89d 3034 	ldrb.w	r3, [sp, #52]	; 0x34
  400770:	f89d 2039 	ldrb.w	r2, [sp, #57]	; 0x39
  400774:	ea43 2000 	orr.w	r0, r3, r0, lsl #8
  400778:	f89d 3036 	ldrb.w	r3, [sp, #54]	; 0x36
  40077c:	f8a1 0044 	strh.w	r0, [r1, #68]	; 0x44
  400780:	ea43 2404 	orr.w	r4, r3, r4, lsl #8
  400784:	f89d 3038 	ldrb.w	r3, [sp, #56]	; 0x38
  400788:	f8a1 4046 	strh.w	r4, [r1, #70]	; 0x46
  40078c:	ea43 2302 	orr.w	r3, r3, r2, lsl #8
  400790:	9305      	str	r3, [sp, #20]
  400792:	f8bd 3014 	ldrh.w	r3, [sp, #20]
  400796:	f8a1 3048 	strh.w	r3, [r1, #72]	; 0x48
  40079a:	f89d 203b 	ldrb.w	r2, [sp, #59]	; 0x3b
  40079e:	f89d 303a 	ldrb.w	r3, [sp, #58]	; 0x3a
  4007a2:	ea43 2202 	orr.w	r2, r3, r2, lsl #8
  4007a6:	f8a1 204a 	strh.w	r2, [r1, #74]	; 0x4a
  4007aa:	4959      	ldr	r1, [pc, #356]	; (400910 <InitVars+0x298>)
  4007ac:	f8a1 a002 	strh.w	sl, [r1, #2]
  4007b0:	f8a1 9000 	strh.w	r9, [r1]
  4007b4:	4957      	ldr	r1, [pc, #348]	; (400914 <InitVars+0x29c>)
  4007b6:	f8a1 8002 	strh.w	r8, [r1, #2]
  4007ba:	f8a1 c000 	strh.w	ip, [r1]
  4007be:	4956      	ldr	r1, [pc, #344]	; (400918 <InitVars+0x2a0>)
  4007c0:	f8a1 e002 	strh.w	lr, [r1, #2]
  4007c4:	800f      	strh	r7, [r1, #0]
  4007c6:	4955      	ldr	r1, [pc, #340]	; (40091c <InitVars+0x2a4>)
  4007c8:	804e      	strh	r6, [r1, #2]
  4007ca:	800d      	strh	r5, [r1, #0]
  4007cc:	4954      	ldr	r1, [pc, #336]	; (400920 <InitVars+0x2a8>)
  4007ce:	f8bd 500c 	ldrh.w	r5, [sp, #12]
  4007d2:	804d      	strh	r5, [r1, #2]
  4007d4:	f8bd 5008 	ldrh.w	r5, [sp, #8]
  4007d8:	800d      	strh	r5, [r1, #0]
  4007da:	4952      	ldr	r1, [pc, #328]	; (400924 <InitVars+0x2ac>)
  4007dc:	f8bd 5010 	ldrh.w	r5, [sp, #16]
  4007e0:	804d      	strh	r5, [r1, #2]
  4007e2:	f8a1 b000 	strh.w	fp, [r1]
  4007e6:	4950      	ldr	r1, [pc, #320]	; (400928 <InitVars+0x2b0>)
  4007e8:	f8bd 3014 	ldrh.w	r3, [sp, #20]
  4007ec:	804c      	strh	r4, [r1, #2]
  4007ee:	8008      	strh	r0, [r1, #0]
  4007f0:	494e      	ldr	r1, [pc, #312]	; (40092c <InitVars+0x2b4>)
  4007f2:	804a      	strh	r2, [r1, #2]
  4007f4:	800b      	strh	r3, [r1, #0]
  4007f6:	e081      	b.n	4008fc <InitVars+0x284>
  4007f8:	4b45      	ldr	r3, [pc, #276]	; (400910 <InitVars+0x298>)
  4007fa:	4a4d      	ldr	r2, [pc, #308]	; (400930 <InitVars+0x2b8>)
  4007fc:	f8df b114 	ldr.w	fp, [pc, #276]	; 400914 <InitVars+0x29c>
  400800:	601a      	str	r2, [r3, #0]
  400802:	f8df a114 	ldr.w	sl, [pc, #276]	; 400918 <InitVars+0x2a0>
  400806:	4a4b      	ldr	r2, [pc, #300]	; (400934 <InitVars+0x2bc>)
  400808:	f8cb 2000 	str.w	r2, [fp]
  40080c:	f8df 8110 	ldr.w	r8, [pc, #272]	; 400920 <InitVars+0x2a8>
  400810:	4a49      	ldr	r2, [pc, #292]	; (400938 <InitVars+0x2c0>)
  400812:	f8ca 2000 	str.w	r2, [sl]
  400816:	f8df 9104 	ldr.w	r9, [pc, #260]	; 40091c <InitVars+0x2a4>
  40081a:	4a48      	ldr	r2, [pc, #288]	; (40093c <InitVars+0x2c4>)
  40081c:	f8c8 2000 	str.w	r2, [r8]
  400820:	4f40      	ldr	r7, [pc, #256]	; (400924 <InitVars+0x2ac>)
  400822:	4841      	ldr	r0, [pc, #260]	; (400928 <InitVars+0x2b0>)
  400824:	4e41      	ldr	r6, [pc, #260]	; (40092c <InitVars+0x2b4>)
  400826:	4c46      	ldr	r4, [pc, #280]	; (400940 <InitVars+0x2c8>)
  400828:	f04f 4280 	mov.w	r2, #1073741824	; 0x40000000
  40082c:	f8c9 2000 	str.w	r2, [r9]
  400830:	4a44      	ldr	r2, [pc, #272]	; (400944 <InitVars+0x2cc>)
  400832:	603a      	str	r2, [r7, #0]
  400834:	2200      	movs	r2, #0
  400836:	6002      	str	r2, [r0, #0]
  400838:	f244 128b 	movw	r2, #16779	; 0x418b
  40083c:	824a      	strh	r2, [r1, #18]
  40083e:	f44f 4080 	mov.w	r0, #16384	; 0x4000
  400842:	f64b 2288 	movw	r2, #47752	; 0xba88
  400846:	820a      	strh	r2, [r1, #16]
  400848:	f8a1 0042 	strh.w	r0, [r1, #66]	; 0x42
  40084c:	f244 229c 	movw	r2, #17052	; 0x429c
  400850:	f244 00a0 	movw	r0, #16544	; 0x40a0
  400854:	82ca      	strh	r2, [r1, #22]
  400856:	87c8      	strh	r0, [r1, #62]	; 0x3e
  400858:	f24e 1253 	movw	r2, #57683	; 0xe153
  40085c:	f244 202c 	movw	r0, #16940	; 0x422c
  400860:	828a      	strh	r2, [r1, #20]
  400862:	84c8      	strh	r0, [r1, #38]	; 0x26
  400864:	f244 02b0 	movw	r2, #16560	; 0x40b0
  400868:	8870      	ldrh	r0, [r6, #2]
  40086a:	834a      	strh	r2, [r1, #26]
  40086c:	2504      	movs	r5, #4
  40086e:	2200      	movs	r2, #0
  400870:	f8a1 004a 	strh.w	r0, [r1, #74]	; 0x4a
  400874:	8830      	ldrh	r0, [r6, #0]
  400876:	830a      	strh	r2, [r1, #24]
  400878:	f8a1 2040 	strh.w	r2, [r1, #64]	; 0x40
  40087c:	878a      	strh	r2, [r1, #60]	; 0x3c
  40087e:	848a      	strh	r2, [r1, #36]	; 0x24
  400880:	f8a1 2046 	strh.w	r2, [r1, #70]	; 0x46
  400884:	f8a1 2044 	strh.w	r2, [r1, #68]	; 0x44
  400888:	f8a1 0048 	strh.w	r0, [r1, #72]	; 0x48
  40088c:	2150      	movs	r1, #80	; 0x50
  40088e:	481d      	ldr	r0, [pc, #116]	; (400904 <InitVars+0x28c>)
  400890:	9500      	str	r5, [sp, #0]
  400892:	47a0      	blx	r4
  400894:	465b      	mov	r3, fp
  400896:	462a      	mov	r2, r5
  400898:	2150      	movs	r1, #80	; 0x50
  40089a:	481a      	ldr	r0, [pc, #104]	; (400904 <InitVars+0x28c>)
  40089c:	9500      	str	r5, [sp, #0]
  40089e:	47a0      	blx	r4
  4008a0:	4653      	mov	r3, sl
  4008a2:	2208      	movs	r2, #8
  4008a4:	2150      	movs	r1, #80	; 0x50
  4008a6:	4817      	ldr	r0, [pc, #92]	; (400904 <InitVars+0x28c>)
  4008a8:	9500      	str	r5, [sp, #0]
  4008aa:	47a0      	blx	r4
  4008ac:	464b      	mov	r3, r9
  4008ae:	2210      	movs	r2, #16
  4008b0:	2150      	movs	r1, #80	; 0x50
  4008b2:	4814      	ldr	r0, [pc, #80]	; (400904 <InitVars+0x28c>)
  4008b4:	9500      	str	r5, [sp, #0]
  4008b6:	47a0      	blx	r4
  4008b8:	4643      	mov	r3, r8
  4008ba:	220c      	movs	r2, #12
  4008bc:	2150      	movs	r1, #80	; 0x50
  4008be:	4811      	ldr	r0, [pc, #68]	; (400904 <InitVars+0x28c>)
  4008c0:	9500      	str	r5, [sp, #0]
  4008c2:	47a0      	blx	r4
  4008c4:	463b      	mov	r3, r7
  4008c6:	2214      	movs	r2, #20
  4008c8:	2150      	movs	r1, #80	; 0x50
  4008ca:	480e      	ldr	r0, [pc, #56]	; (400904 <InitVars+0x28c>)
  4008cc:	9500      	str	r5, [sp, #0]
  4008ce:	47a0      	blx	r4
  4008d0:	4b15      	ldr	r3, [pc, #84]	; (400928 <InitVars+0x2b0>)
  4008d2:	480c      	ldr	r0, [pc, #48]	; (400904 <InitVars+0x28c>)
  4008d4:	9500      	str	r5, [sp, #0]
  4008d6:	2218      	movs	r2, #24
  4008d8:	2150      	movs	r1, #80	; 0x50
  4008da:	47a0      	blx	r4
  4008dc:	4633      	mov	r3, r6
  4008de:	221c      	movs	r2, #28
  4008e0:	2150      	movs	r1, #80	; 0x50
  4008e2:	4808      	ldr	r0, [pc, #32]	; (400904 <InitVars+0x28c>)
  4008e4:	9500      	str	r5, [sp, #0]
  4008e6:	47a0      	blx	r4
  4008e8:	23ab      	movs	r3, #171	; 0xab
  4008ea:	f88d 301c 	strb.w	r3, [sp, #28]
  4008ee:	2301      	movs	r3, #1
  4008f0:	9300      	str	r3, [sp, #0]
  4008f2:	2220      	movs	r2, #32
  4008f4:	ab07      	add	r3, sp, #28
  4008f6:	2150      	movs	r1, #80	; 0x50
  4008f8:	4802      	ldr	r0, [pc, #8]	; (400904 <InitVars+0x28c>)
  4008fa:	47a0      	blx	r4
  4008fc:	b011      	add	sp, #68	; 0x44
  4008fe:	e8bd 8ff0 	ldmia.w	sp!, {r4, r5, r6, r7, r8, r9, sl, fp, pc}
  400902:	bf00      	nop
  400904:	40018000 	.word	0x40018000
  400908:	00400165 	.word	0x00400165
  40090c:	20000484 	.word	0x20000484
  400910:	20000018 	.word	0x20000018
  400914:	2000001c 	.word	0x2000001c
  400918:	2000000c 	.word	0x2000000c
  40091c:	20000020 	.word	0x20000020
  400920:	20000010 	.word	0x20000010
  400924:	20000014 	.word	0x20000014
  400928:	20002714 	.word	0x20002714
  40092c:	20002718 	.word	0x20002718
  400930:	418bba88 	.word	0x418bba88
  400934:	429ce153 	.word	0x429ce153
  400938:	40b00000 	.word	0x40b00000
  40093c:	40a00000 	.word	0x40a00000
  400940:	00400129 	.word	0x00400129
  400944:	422c0000 	.word	0x422c0000

00400948 <vPvTrackerInit>:
  400948:	b51f      	push	{r0, r1, r2, r3, r4, lr}
  40094a:	4b0d      	ldr	r3, [pc, #52]	; (400980 <vPvTrackerInit+0x38>)
  40094c:	9301      	str	r3, [sp, #4]
  40094e:	4b0d      	ldr	r3, [pc, #52]	; (400984 <vPvTrackerInit+0x3c>)
  400950:	9302      	str	r3, [sp, #8]
  400952:	4c0d      	ldr	r4, [pc, #52]	; (400988 <vPvTrackerInit+0x40>)
  400954:	2300      	movs	r3, #0
  400956:	f88d 300c 	strb.w	r3, [sp, #12]
  40095a:	f88d 300d 	strb.w	r3, [sp, #13]
  40095e:	2013      	movs	r0, #19
  400960:	4b0a      	ldr	r3, [pc, #40]	; (40098c <vPvTrackerInit+0x44>)
  400962:	4798      	blx	r3
  400964:	4620      	mov	r0, r4
  400966:	4b0a      	ldr	r3, [pc, #40]	; (400990 <vPvTrackerInit+0x48>)
  400968:	4798      	blx	r3
  40096a:	a901      	add	r1, sp, #4
  40096c:	4620      	mov	r0, r4
  40096e:	4b09      	ldr	r3, [pc, #36]	; (400994 <vPvTrackerInit+0x4c>)
  400970:	4798      	blx	r3
  400972:	4b09      	ldr	r3, [pc, #36]	; (400998 <vPvTrackerInit+0x50>)
  400974:	4798      	blx	r3
  400976:	2022      	movs	r0, #34	; 0x22
  400978:	4b08      	ldr	r3, [pc, #32]	; (40099c <vPvTrackerInit+0x54>)
  40097a:	4798      	blx	r3
  40097c:	b004      	add	sp, #16
  40097e:	bd10      	pop	{r4, pc}
  400980:	07270e00 	.word	0x07270e00
  400984:	00061a80 	.word	0x00061a80
  400988:	40018000 	.word	0x40018000
  40098c:	00402409 	.word	0x00402409
  400990:	00401aa1 	.word	0x00401aa1
  400994:	00401b41 	.word	0x00401b41
  400998:	00400679 	.word	0x00400679
  40099c:	0040205f 	.word	0x0040205f

004009a0 <GetOrientation>:
  4009a0:	e92d 4ff7 	stmdb	sp!, {r0, r1, r2, r4, r5, r6, r7, r8, r9, sl, fp, lr}
  4009a4:	4607      	mov	r7, r0
  4009a6:	4d27      	ldr	r5, [pc, #156]	; (400a44 <GetOrientation+0xa4>)
  4009a8:	f9b0 0000 	ldrsh.w	r0, [r0]
  4009ac:	4c26      	ldr	r4, [pc, #152]	; (400a48 <GetOrientation+0xa8>)
  4009ae:	460e      	mov	r6, r1
  4009b0:	47a8      	blx	r5
  4009b2:	f04f 5160 	mov.w	r1, #939524096	; 0x38000000
  4009b6:	47a0      	blx	r4
  4009b8:	9001      	str	r0, [sp, #4]
  4009ba:	f9b7 0002 	ldrsh.w	r0, [r7, #2]
  4009be:	47a8      	blx	r5
  4009c0:	f04f 5160 	mov.w	r1, #939524096	; 0x38000000
  4009c4:	47a0      	blx	r4
  4009c6:	4682      	mov	sl, r0
  4009c8:	f9b7 0004 	ldrsh.w	r0, [r7, #4]
  4009cc:	4f1f      	ldr	r7, [pc, #124]	; (400a4c <GetOrientation+0xac>)
  4009ce:	47a8      	blx	r5
  4009d0:	f04f 5160 	mov.w	r1, #939524096	; 0x38000000
  4009d4:	47a0      	blx	r4
  4009d6:	4d1e      	ldr	r5, [pc, #120]	; (400a50 <GetOrientation+0xb0>)
  4009d8:	4683      	mov	fp, r0
  4009da:	47a8      	blx	r5
  4009dc:	4680      	mov	r8, r0
  4009de:	4689      	mov	r9, r1
  4009e0:	4650      	mov	r0, sl
  4009e2:	47a8      	blx	r5
  4009e4:	4642      	mov	r2, r8
  4009e6:	464b      	mov	r3, r9
  4009e8:	f8df 9078 	ldr.w	r9, [pc, #120]	; 400a64 <GetOrientation+0xc4>
  4009ec:	f8df 8078 	ldr.w	r8, [pc, #120]	; 400a68 <GetOrientation+0xc8>
  4009f0:	47c8      	blx	r9
  4009f2:	47b8      	blx	r7
  4009f4:	4917      	ldr	r1, [pc, #92]	; (400a54 <GetOrientation+0xb4>)
  4009f6:	47a0      	blx	r4
  4009f8:	4917      	ldr	r1, [pc, #92]	; (400a58 <GetOrientation+0xb8>)
  4009fa:	47c0      	blx	r8
  4009fc:	4651      	mov	r1, sl
  4009fe:	6030      	str	r0, [r6, #0]
  400a00:	4650      	mov	r0, sl
  400a02:	47a0      	blx	r4
  400a04:	4659      	mov	r1, fp
  400a06:	4682      	mov	sl, r0
  400a08:	4658      	mov	r0, fp
  400a0a:	47a0      	blx	r4
  400a0c:	4b13      	ldr	r3, [pc, #76]	; (400a5c <GetOrientation+0xbc>)
  400a0e:	4601      	mov	r1, r0
  400a10:	4650      	mov	r0, sl
  400a12:	4798      	blx	r3
  400a14:	47a8      	blx	r5
  400a16:	4b12      	ldr	r3, [pc, #72]	; (400a60 <GetOrientation+0xc0>)
  400a18:	4798      	blx	r3
  400a1a:	47b8      	blx	r7
  400a1c:	6070      	str	r0, [r6, #4]
  400a1e:	47a8      	blx	r5
  400a20:	9b01      	ldr	r3, [sp, #4]
  400a22:	4682      	mov	sl, r0
  400a24:	468b      	mov	fp, r1
  400a26:	f103 4000 	add.w	r0, r3, #2147483648	; 0x80000000
  400a2a:	47a8      	blx	r5
  400a2c:	4652      	mov	r2, sl
  400a2e:	465b      	mov	r3, fp
  400a30:	47c8      	blx	r9
  400a32:	47b8      	blx	r7
  400a34:	4907      	ldr	r1, [pc, #28]	; (400a54 <GetOrientation+0xb4>)
  400a36:	47a0      	blx	r4
  400a38:	4907      	ldr	r1, [pc, #28]	; (400a58 <GetOrientation+0xb8>)
  400a3a:	47c0      	blx	r8
  400a3c:	6070      	str	r0, [r6, #4]
  400a3e:	b003      	add	sp, #12
  400a40:	e8bd 8ff0 	ldmia.w	sp!, {r4, r5, r6, r7, r8, r9, sl, fp, pc}
  400a44:	004071e9 	.word	0x004071e9
  400a48:	00407291 	.word	0x00407291
  400a4c:	00406fd5 	.word	0x00406fd5
  400a50:	0040697d 	.word	0x0040697d
  400a54:	43340000 	.word	0x43340000
  400a58:	40490fdb 	.word	0x40490fdb
  400a5c:	00407081 	.word	0x00407081
  400a60:	004040dd 	.word	0x004040dd
  400a64:	004040d9 	.word	0x004040d9
  400a68:	004073f9 	.word	0x004073f9

00400a6c <GotoAngle>:
  400a6c:	e92d 4ff0 	stmdb	sp!, {r4, r5, r6, r7, r8, r9, sl, fp, lr}
  400a70:	b087      	sub	sp, #28
  400a72:	2300      	movs	r3, #0
  400a74:	aa01      	add	r2, sp, #4
  400a76:	4682      	mov	sl, r0
  400a78:	2169      	movs	r1, #105	; 0x69
  400a7a:	483f      	ldr	r0, [pc, #252]	; (400b78 <GotoAngle+0x10c>)
  400a7c:	4e3f      	ldr	r6, [pc, #252]	; (400b7c <GotoAngle+0x110>)
  400a7e:	9301      	str	r3, [sp, #4]
  400a80:	f8ad 3008 	strh.w	r3, [sp, #8]
  400a84:	4f3e      	ldr	r7, [pc, #248]	; (400b80 <GotoAngle+0x114>)
  400a86:	f8df 8128 	ldr.w	r8, [pc, #296]	; 400bb0 <GotoAngle+0x144>
  400a8a:	4d3e      	ldr	r5, [pc, #248]	; (400b84 <GotoAngle+0x118>)
  400a8c:	f8df b104 	ldr.w	fp, [pc, #260]	; 400b94 <GotoAngle+0x128>
  400a90:	47b0      	blx	r6
  400a92:	a903      	add	r1, sp, #12
  400a94:	a801      	add	r0, sp, #4
  400a96:	47b8      	blx	r7
  400a98:	9903      	ldr	r1, [sp, #12]
  400a9a:	4650      	mov	r0, sl
  400a9c:	47c0      	blx	r8
  400a9e:	2100      	movs	r1, #0
  400aa0:	4604      	mov	r4, r0
  400aa2:	47a8      	blx	r5
  400aa4:	46a9      	mov	r9, r5
  400aa6:	4d38      	ldr	r5, [pc, #224]	; (400b88 <GotoAngle+0x11c>)
  400aa8:	b120      	cbz	r0, 400ab4 <GotoAngle+0x48>
  400aaa:	2020      	movs	r0, #32
  400aac:	47d8      	blx	fp
  400aae:	2021      	movs	r0, #33	; 0x21
  400ab0:	47a8      	blx	r5
  400ab2:	e003      	b.n	400abc <GotoAngle+0x50>
  400ab4:	2020      	movs	r0, #32
  400ab6:	47a8      	blx	r5
  400ab8:	2021      	movs	r0, #33	; 0x21
  400aba:	47d8      	blx	fp
  400abc:	f04f 413f 	mov.w	r1, #3204448256	; 0xbf000000
  400ac0:	4620      	mov	r0, r4
  400ac2:	4b32      	ldr	r3, [pc, #200]	; (400b8c <GotoAngle+0x120>)
  400ac4:	4798      	blx	r3
  400ac6:	b190      	cbz	r0, 400aee <GotoAngle+0x82>
  400ac8:	f04f 517c 	mov.w	r1, #1056964608	; 0x3f000000
  400acc:	4620      	mov	r0, r4
  400ace:	4b30      	ldr	r3, [pc, #192]	; (400b90 <GotoAngle+0x124>)
  400ad0:	4798      	blx	r3
  400ad2:	b160      	cbz	r0, 400aee <GotoAngle+0x82>
  400ad4:	2022      	movs	r0, #34	; 0x22
  400ad6:	4b2f      	ldr	r3, [pc, #188]	; (400b94 <GotoAngle+0x128>)
  400ad8:	4798      	blx	r3
  400ada:	4b2f      	ldr	r3, [pc, #188]	; (400b98 <GotoAngle+0x12c>)
  400adc:	f8bd 200e 	ldrh.w	r2, [sp, #14]
  400ae0:	83da      	strh	r2, [r3, #30]
  400ae2:	f8bd 200c 	ldrh.w	r2, [sp, #12]
  400ae6:	839a      	strh	r2, [r3, #28]
  400ae8:	b007      	add	sp, #28
  400aea:	e8bd 8ff0 	ldmia.w	sp!, {r4, r5, r6, r7, r8, r9, sl, fp, pc}
  400aee:	2022      	movs	r0, #34	; 0x22
  400af0:	47a8      	blx	r5
  400af2:	f04f 413f 	mov.w	r1, #3204448256	; 0xbf000000
  400af6:	4620      	mov	r0, r4
  400af8:	4b24      	ldr	r3, [pc, #144]	; (400b8c <GotoAngle+0x120>)
  400afa:	4798      	blx	r3
  400afc:	2800      	cmp	r0, #0
  400afe:	d133      	bne.n	400b68 <GotoAngle+0xfc>
  400b00:	2501      	movs	r5, #1
  400b02:	2400      	movs	r4, #0
  400b04:	aa01      	add	r2, sp, #4
  400b06:	2169      	movs	r1, #105	; 0x69
  400b08:	481b      	ldr	r0, [pc, #108]	; (400b78 <GotoAngle+0x10c>)
  400b0a:	47b0      	blx	r6
  400b0c:	a903      	add	r1, sp, #12
  400b0e:	a801      	add	r0, sp, #4
  400b10:	47b8      	blx	r7
  400b12:	4621      	mov	r1, r4
  400b14:	9803      	ldr	r0, [sp, #12]
  400b16:	47c0      	blx	r8
  400b18:	4b20      	ldr	r3, [pc, #128]	; (400b9c <GotoAngle+0x130>)
  400b1a:	4683      	mov	fp, r0
  400b1c:	4628      	mov	r0, r5
  400b1e:	4798      	blx	r3
  400b20:	4b1f      	ldr	r3, [pc, #124]	; (400ba0 <GotoAngle+0x134>)
  400b22:	4601      	mov	r1, r0
  400b24:	4658      	mov	r0, fp
  400b26:	4798      	blx	r3
  400b28:	4b1e      	ldr	r3, [pc, #120]	; (400ba4 <GotoAngle+0x138>)
  400b2a:	4601      	mov	r1, r0
  400b2c:	4620      	mov	r0, r4
  400b2e:	4798      	blx	r3
  400b30:	3501      	adds	r5, #1
  400b32:	4604      	mov	r4, r0
  400b34:	4b1c      	ldr	r3, [pc, #112]	; (400ba8 <GotoAngle+0x13c>)
  400b36:	481d      	ldr	r0, [pc, #116]	; (400bac <GotoAngle+0x140>)
  400b38:	4798      	blx	r3
  400b3a:	2d09      	cmp	r5, #9
  400b3c:	d1e2      	bne.n	400b04 <GotoAngle+0x98>
  400b3e:	4621      	mov	r1, r4
  400b40:	9403      	str	r4, [sp, #12]
  400b42:	4b1b      	ldr	r3, [pc, #108]	; (400bb0 <GotoAngle+0x144>)
  400b44:	4d13      	ldr	r5, [pc, #76]	; (400b94 <GotoAngle+0x128>)
  400b46:	f8df b040 	ldr.w	fp, [pc, #64]	; 400b88 <GotoAngle+0x11c>
  400b4a:	4650      	mov	r0, sl
  400b4c:	4798      	blx	r3
  400b4e:	2100      	movs	r1, #0
  400b50:	4604      	mov	r4, r0
  400b52:	47c8      	blx	r9
  400b54:	b120      	cbz	r0, 400b60 <GotoAngle+0xf4>
  400b56:	2020      	movs	r0, #32
  400b58:	47a8      	blx	r5
  400b5a:	2021      	movs	r0, #33	; 0x21
  400b5c:	47d8      	blx	fp
  400b5e:	e7c8      	b.n	400af2 <GotoAngle+0x86>
  400b60:	2020      	movs	r0, #32
  400b62:	47d8      	blx	fp
  400b64:	2021      	movs	r0, #33	; 0x21
  400b66:	e7c3      	b.n	400af0 <GotoAngle+0x84>
  400b68:	f04f 517c 	mov.w	r1, #1056964608	; 0x3f000000
  400b6c:	4620      	mov	r0, r4
  400b6e:	4b08      	ldr	r3, [pc, #32]	; (400b90 <GotoAngle+0x124>)
  400b70:	4798      	blx	r3
  400b72:	2800      	cmp	r0, #0
  400b74:	d0c4      	beq.n	400b00 <GotoAngle+0x94>
  400b76:	e7ad      	b.n	400ad4 <GotoAngle+0x68>
  400b78:	40018000 	.word	0x40018000
  400b7c:	004003b9 	.word	0x004003b9
  400b80:	004009a1 	.word	0x004009a1
  400b84:	00407609 	.word	0x00407609
  400b88:	00402045 	.word	0x00402045
  400b8c:	004075f5 	.word	0x004075f5
  400b90:	004075cd 	.word	0x004075cd
  400b94:	0040205f 	.word	0x0040205f
  400b98:	20000484 	.word	0x20000484
  400b9c:	004071e9 	.word	0x004071e9
  400ba0:	004073f9 	.word	0x004073f9
  400ba4:	00407081 	.word	0x00407081
  400ba8:	20000001 	.word	0x20000001
  400bac:	00053b4a 	.word	0x00053b4a
  400bb0:	0040707d 	.word	0x0040707d
  400bb4:	00000000 	.word	0x00000000

00400bb8 <GetPvAngle>:
  400bb8:	e92d 4ff0 	stmdb	sp!, {r4, r5, r6, r7, r8, r9, sl, fp, lr}
  400bbc:	4a94      	ldr	r2, [pc, #592]	; (400e10 <GetPvAngle+0x258>)
  400bbe:	f8df b2dc 	ldr.w	fp, [pc, #732]	; 400e9c <GetPvAngle+0x2e4>
  400bc2:	8891      	ldrh	r1, [r2, #4]
  400bc4:	8953      	ldrh	r3, [r2, #10]
  400bc6:	f8b2 8008 	ldrh.w	r8, [r2, #8]
  400bca:	f8df a2d4 	ldr.w	sl, [pc, #724]	; 400ea0 <GetPvAngle+0x2e8>
  400bce:	f8df 92d4 	ldr.w	r9, [pc, #724]	; 400ea4 <GetPvAngle+0x2ec>
  400bd2:	0908      	lsrs	r0, r1, #4
  400bd4:	eb00 0080 	add.w	r0, r0, r0, lsl #2
  400bd8:	f001 010f 	and.w	r1, r1, #15
  400bdc:	b097      	sub	sp, #92	; 0x5c
  400bde:	eb01 0040 	add.w	r0, r1, r0, lsl #1
  400be2:	b201      	sxth	r1, r0
  400be4:	9105      	str	r1, [sp, #20]
  400be6:	8851      	ldrh	r1, [r2, #2]
  400be8:	091c      	lsrs	r4, r3, #4
  400bea:	0908      	lsrs	r0, r1, #4
  400bec:	f003 030f 	and.w	r3, r3, #15
  400bf0:	eb00 0080 	add.w	r0, r0, r0, lsl #2
  400bf4:	eb04 0484 	add.w	r4, r4, r4, lsl #2
  400bf8:	f001 010f 	and.w	r1, r1, #15
  400bfc:	eb03 0444 	add.w	r4, r3, r4, lsl #1
  400c00:	eb01 0140 	add.w	r1, r1, r0, lsl #1
  400c04:	8993      	ldrh	r3, [r2, #12]
  400c06:	8812      	ldrh	r2, [r2, #0]
  400c08:	b224      	sxth	r4, r4
  400c0a:	b209      	sxth	r1, r1
  400c0c:	2c02      	cmp	r4, #2
  400c0e:	9106      	str	r1, [sp, #24]
  400c10:	f003 070f 	and.w	r7, r3, #15
  400c14:	ea4f 1112 	mov.w	r1, r2, lsr #4
  400c18:	ea4f 1313 	mov.w	r3, r3, lsr #4
  400c1c:	bfcc      	ite	gt
  400c1e:	2500      	movgt	r5, #0
  400c20:	2501      	movle	r5, #1
  400c22:	eb01 0181 	add.w	r1, r1, r1, lsl #2
  400c26:	f507 67fa 	add.w	r7, r7, #2000	; 0x7d0
  400c2a:	f002 020f 	and.w	r2, r2, #15
  400c2e:	eb03 0383 	add.w	r3, r3, r3, lsl #2
  400c32:	eb02 0241 	add.w	r2, r2, r1, lsl #1
  400c36:	eb07 0343 	add.w	r3, r7, r3, lsl #1
  400c3a:	f5c5 5796 	rsb	r7, r5, #4800	; 0x12c0
  400c3e:	b212      	sxth	r2, r2
  400c40:	fa07 f783 	sxtah	r7, r7, r3
  400c44:	9207      	str	r2, [sp, #28]
  400c46:	4638      	mov	r0, r7
  400c48:	4b72      	ldr	r3, [pc, #456]	; (400e14 <GetPvAngle+0x25c>)
  400c4a:	4798      	blx	r3
  400c4c:	4606      	mov	r6, r0
  400c4e:	200c      	movs	r0, #12
  400c50:	fb00 4405 	mla	r4, r0, r5, r4
  400c54:	3c03      	subs	r4, #3
  400c56:	2099      	movs	r0, #153	; 0x99
  400c58:	4360      	muls	r0, r4
  400c5a:	4b6e      	ldr	r3, [pc, #440]	; (400e14 <GetPvAngle+0x25c>)
  400c5c:	4d6e      	ldr	r5, [pc, #440]	; (400e18 <GetPvAngle+0x260>)
  400c5e:	3002      	adds	r0, #2
  400c60:	4798      	blx	r3
  400c62:	496e      	ldr	r1, [pc, #440]	; (400e1c <GetPvAngle+0x264>)
  400c64:	47a8      	blx	r5
  400c66:	4604      	mov	r4, r0
  400c68:	ea4f 1018 	mov.w	r0, r8, lsr #4
  400c6c:	eb00 0080 	add.w	r0, r0, r0, lsl #2
  400c70:	f008 080f 	and.w	r8, r8, #15
  400c74:	eb08 0040 	add.w	r0, r8, r0, lsl #1
  400c78:	4b66      	ldr	r3, [pc, #408]	; (400e14 <GetPvAngle+0x25c>)
  400c7a:	b200      	sxth	r0, r0
  400c7c:	4798      	blx	r3
  400c7e:	4601      	mov	r1, r0
  400c80:	4620      	mov	r0, r4
  400c82:	47d8      	blx	fp
  400c84:	4604      	mov	r4, r0
  400c86:	f240 106d 	movw	r0, #365	; 0x16d
  400c8a:	4b62      	ldr	r3, [pc, #392]	; (400e14 <GetPvAngle+0x25c>)
  400c8c:	4378      	muls	r0, r7
  400c8e:	4798      	blx	r3
  400c90:	4601      	mov	r1, r0
  400c92:	4620      	mov	r0, r4
  400c94:	47d8      	blx	fp
  400c96:	4c62      	ldr	r4, [pc, #392]	; (400e20 <GetPvAngle+0x268>)
  400c98:	4607      	mov	r7, r0
  400c9a:	f04f 517a 	mov.w	r1, #1048576000	; 0x3e800000
  400c9e:	4630      	mov	r0, r6
  400ca0:	47a0      	blx	r4
  400ca2:	4601      	mov	r1, r0
  400ca4:	4638      	mov	r0, r7
  400ca6:	47d8      	blx	fp
  400ca8:	495e      	ldr	r1, [pc, #376]	; (400e24 <GetPvAngle+0x26c>)
  400caa:	4607      	mov	r7, r0
  400cac:	4630      	mov	r0, r6
  400cae:	47a8      	blx	r5
  400cb0:	4b5d      	ldr	r3, [pc, #372]	; (400e28 <GetPvAngle+0x270>)
  400cb2:	4601      	mov	r1, r0
  400cb4:	4638      	mov	r0, r7
  400cb6:	4798      	blx	r3
  400cb8:	495c      	ldr	r1, [pc, #368]	; (400e2c <GetPvAngle+0x274>)
  400cba:	4607      	mov	r7, r0
  400cbc:	4630      	mov	r0, r6
  400cbe:	47a8      	blx	r5
  400cc0:	4601      	mov	r1, r0
  400cc2:	4638      	mov	r0, r7
  400cc4:	47d8      	blx	fp
  400cc6:	495a      	ldr	r1, [pc, #360]	; (400e30 <GetPvAngle+0x278>)
  400cc8:	4b57      	ldr	r3, [pc, #348]	; (400e28 <GetPvAngle+0x270>)
  400cca:	4798      	blx	r3
  400ccc:	9b05      	ldr	r3, [sp, #20]
  400cce:	4606      	mov	r6, r0
  400cd0:	f1a3 000c 	sub.w	r0, r3, #12
  400cd4:	4b4f      	ldr	r3, [pc, #316]	; (400e14 <GetPvAngle+0x25c>)
  400cd6:	4798      	blx	r3
  400cd8:	4956      	ldr	r1, [pc, #344]	; (400e34 <GetPvAngle+0x27c>)
  400cda:	47a8      	blx	r5
  400cdc:	4b4d      	ldr	r3, [pc, #308]	; (400e14 <GetPvAngle+0x25c>)
  400cde:	4607      	mov	r7, r0
  400ce0:	9806      	ldr	r0, [sp, #24]
  400ce2:	4798      	blx	r3
  400ce4:	4954      	ldr	r1, [pc, #336]	; (400e38 <GetPvAngle+0x280>)
  400ce6:	47a8      	blx	r5
  400ce8:	4601      	mov	r1, r0
  400cea:	4638      	mov	r0, r7
  400cec:	47d8      	blx	fp
  400cee:	4b49      	ldr	r3, [pc, #292]	; (400e14 <GetPvAngle+0x25c>)
  400cf0:	4607      	mov	r7, r0
  400cf2:	9807      	ldr	r0, [sp, #28]
  400cf4:	4798      	blx	r3
  400cf6:	4951      	ldr	r1, [pc, #324]	; (400e3c <GetPvAngle+0x284>)
  400cf8:	47a8      	blx	r5
  400cfa:	4601      	mov	r1, r0
  400cfc:	4638      	mov	r0, r7
  400cfe:	47d8      	blx	fp
  400d00:	4601      	mov	r1, r0
  400d02:	4630      	mov	r0, r6
  400d04:	47d8      	blx	fp
  400d06:	4b48      	ldr	r3, [pc, #288]	; (400e28 <GetPvAngle+0x270>)
  400d08:	494d      	ldr	r1, [pc, #308]	; (400e40 <GetPvAngle+0x288>)
  400d0a:	4f4e      	ldr	r7, [pc, #312]	; (400e44 <GetPvAngle+0x28c>)
  400d0c:	4798      	blx	r3
  400d0e:	494e      	ldr	r1, [pc, #312]	; (400e48 <GetPvAngle+0x290>)
  400d10:	47a8      	blx	r5
  400d12:	494e      	ldr	r1, [pc, #312]	; (400e4c <GetPvAngle+0x294>)
  400d14:	4680      	mov	r8, r0
  400d16:	47a0      	blx	r4
  400d18:	494d      	ldr	r1, [pc, #308]	; (400e50 <GetPvAngle+0x298>)
  400d1a:	47d8      	blx	fp
  400d1c:	4641      	mov	r1, r8
  400d1e:	47a0      	blx	r4
  400d20:	494c      	ldr	r1, [pc, #304]	; (400e54 <GetPvAngle+0x29c>)
  400d22:	47d8      	blx	fp
  400d24:	4b4c      	ldr	r3, [pc, #304]	; (400e58 <GetPvAngle+0x2a0>)
  400d26:	4798      	blx	r3
  400d28:	f44f 73b4 	mov.w	r3, #360	; 0x168
  400d2c:	fb90 f2f3 	sdiv	r2, r0, r3
  400d30:	fb02 0013 	mls	r0, r2, r3, r0
  400d34:	4b37      	ldr	r3, [pc, #220]	; (400e14 <GetPvAngle+0x25c>)
  400d36:	4798      	blx	r3
  400d38:	4948      	ldr	r1, [pc, #288]	; (400e5c <GetPvAngle+0x2a4>)
  400d3a:	9008      	str	r0, [sp, #32]
  400d3c:	4640      	mov	r0, r8
  400d3e:	47a0      	blx	r4
  400d40:	4b39      	ldr	r3, [pc, #228]	; (400e28 <GetPvAngle+0x270>)
  400d42:	4601      	mov	r1, r0
  400d44:	4846      	ldr	r0, [pc, #280]	; (400e60 <GetPvAngle+0x2a8>)
  400d46:	4798      	blx	r3
  400d48:	4641      	mov	r1, r8
  400d4a:	47a0      	blx	r4
  400d4c:	4945      	ldr	r1, [pc, #276]	; (400e64 <GetPvAngle+0x2ac>)
  400d4e:	47d8      	blx	fp
  400d50:	4945      	ldr	r1, [pc, #276]	; (400e68 <GetPvAngle+0x2b0>)
  400d52:	4606      	mov	r6, r0
  400d54:	4640      	mov	r0, r8
  400d56:	47a0      	blx	r4
  400d58:	4944      	ldr	r1, [pc, #272]	; (400e6c <GetPvAngle+0x2b4>)
  400d5a:	47d8      	blx	fp
  400d5c:	4641      	mov	r1, r8
  400d5e:	47a0      	blx	r4
  400d60:	4b31      	ldr	r3, [pc, #196]	; (400e28 <GetPvAngle+0x270>)
  400d62:	4601      	mov	r1, r0
  400d64:	4842      	ldr	r0, [pc, #264]	; (400e70 <GetPvAngle+0x2b8>)
  400d66:	4798      	blx	r3
  400d68:	4942      	ldr	r1, [pc, #264]	; (400e74 <GetPvAngle+0x2bc>)
  400d6a:	9004      	str	r0, [sp, #16]
  400d6c:	4630      	mov	r0, r6
  400d6e:	47a0      	blx	r4
  400d70:	4941      	ldr	r1, [pc, #260]	; (400e78 <GetPvAngle+0x2c0>)
  400d72:	47a8      	blx	r5
  400d74:	9010      	str	r0, [sp, #64]	; 0x40
  400d76:	47d0      	blx	sl
  400d78:	4b40      	ldr	r3, [pc, #256]	; (400e7c <GetPvAngle+0x2c4>)
  400d7a:	4798      	blx	r3
  400d7c:	e9cd 0102 	strd	r0, r1, [sp, #8]
  400d80:	4631      	mov	r1, r6
  400d82:	4630      	mov	r0, r6
  400d84:	47d8      	blx	fp
  400d86:	493b      	ldr	r1, [pc, #236]	; (400e74 <GetPvAngle+0x2bc>)
  400d88:	47a0      	blx	r4
  400d8a:	493b      	ldr	r1, [pc, #236]	; (400e78 <GetPvAngle+0x2c0>)
  400d8c:	47a8      	blx	r5
  400d8e:	47d0      	blx	sl
  400d90:	4b3a      	ldr	r3, [pc, #232]	; (400e7c <GetPvAngle+0x2c4>)
  400d92:	4798      	blx	r3
  400d94:	e9cd 0100 	strd	r0, r1, [sp]
  400d98:	4939      	ldr	r1, [pc, #228]	; (400e80 <GetPvAngle+0x2c8>)
  400d9a:	4640      	mov	r0, r8
  400d9c:	47a0      	blx	r4
  400d9e:	4939      	ldr	r1, [pc, #228]	; (400e84 <GetPvAngle+0x2cc>)
  400da0:	47d8      	blx	fp
  400da2:	4641      	mov	r1, r8
  400da4:	47a0      	blx	r4
  400da6:	4b20      	ldr	r3, [pc, #128]	; (400e28 <GetPvAngle+0x270>)
  400da8:	4601      	mov	r1, r0
  400daa:	4837      	ldr	r0, [pc, #220]	; (400e88 <GetPvAngle+0x2d0>)
  400dac:	4798      	blx	r3
  400dae:	47d0      	blx	sl
  400db0:	e9dd 2302 	ldrd	r2, r3, [sp, #8]
  400db4:	47c8      	blx	r9
  400db6:	4b35      	ldr	r3, [pc, #212]	; (400e8c <GetPvAngle+0x2d4>)
  400db8:	4798      	blx	r3
  400dba:	47d0      	blx	sl
  400dbc:	e9cd 010a 	strd	r0, r1, [sp, #40]	; 0x28
  400dc0:	4933      	ldr	r1, [pc, #204]	; (400e90 <GetPvAngle+0x2d8>)
  400dc2:	4640      	mov	r0, r8
  400dc4:	47a0      	blx	r4
  400dc6:	4b18      	ldr	r3, [pc, #96]	; (400e28 <GetPvAngle+0x270>)
  400dc8:	4601      	mov	r1, r0
  400dca:	4832      	ldr	r0, [pc, #200]	; (400e94 <GetPvAngle+0x2dc>)
  400dcc:	4798      	blx	r3
  400dce:	47d0      	blx	sl
  400dd0:	e9dd 2300 	ldrd	r2, r3, [sp]
  400dd4:	47c8      	blx	r9
  400dd6:	4602      	mov	r2, r0
  400dd8:	460b      	mov	r3, r1
  400dda:	e9dd 010a 	ldrd	r0, r1, [sp, #40]	; 0x28
  400dde:	47b8      	blx	r7
  400de0:	e9cd 0100 	strd	r0, r1, [sp]
  400de4:	492c      	ldr	r1, [pc, #176]	; (400e98 <GetPvAngle+0x2e0>)
  400de6:	4630      	mov	r0, r6
  400de8:	47a0      	blx	r4
  400dea:	4922      	ldr	r1, [pc, #136]	; (400e74 <GetPvAngle+0x2bc>)
  400dec:	47a0      	blx	r4
  400dee:	4922      	ldr	r1, [pc, #136]	; (400e78 <GetPvAngle+0x2c0>)
  400df0:	47a8      	blx	r5
  400df2:	47d0      	blx	sl
  400df4:	4b21      	ldr	r3, [pc, #132]	; (400e7c <GetPvAngle+0x2c4>)
  400df6:	4798      	blx	r3
  400df8:	a303      	add	r3, pc, #12	; (adr r3, 400e08 <GetPvAngle+0x250>)
  400dfa:	e9d3 2300 	ldrd	r2, r3, [r3]
  400dfe:	47c8      	blx	r9
  400e00:	4b22      	ldr	r3, [pc, #136]	; (400e8c <GetPvAngle+0x2d4>)
  400e02:	4606      	mov	r6, r0
  400e04:	460f      	mov	r7, r1
  400e06:	e04f      	b.n	400ea8 <GetPvAngle+0x2f0>
  400e08:	80000000 	.word	0x80000000
  400e0c:	3f32f09d 	.word	0x3f32f09d
  400e10:	20000484 	.word	0x20000484
  400e14:	004071e9 	.word	0x004071e9
  400e18:	004073f9 	.word	0x004073f9
  400e1c:	40a00000 	.word	0x40a00000
  400e20:	00407291 	.word	0x00407291
  400e24:	42c80000 	.word	0x42c80000
  400e28:	0040707d 	.word	0x0040707d
  400e2c:	43c80000 	.word	0x43c80000
  400e30:	46fa5a00 	.word	0x46fa5a00
  400e34:	41c00000 	.word	0x41c00000
  400e38:	44b40000 	.word	0x44b40000
  400e3c:	47a8c000 	.word	0x47a8c000
  400e40:	4a15a164 	.word	0x4a15a164
  400e44:	004066c1 	.word	0x004066c1
  400e48:	470ead00 	.word	0x470ead00
  400e4c:	399ef6d1 	.word	0x399ef6d1
  400e50:	470ca0c5 	.word	0x470ca0c5
  400e54:	438c3bb5 	.word	0x438c3bb5
  400e58:	0040761d 	.word	0x0040761d
  400e5c:	39212a88 	.word	0x39212a88
  400e60:	470c9f0d 	.word	0x470c9f0d
  400e64:	43b2c3ba 	.word	0x43b2c3ba
  400e68:	34080b08 	.word	0x34080b08
  400e6c:	383050e3 	.word	0x383050e3
  400e70:	3c88e08c 	.word	0x3c88e08c
  400e74:	40490fdb 	.word	0x40490fdb
  400e78:	43340000 	.word	0x43340000
  400e7c:	00403e95 	.word	0x00403e95
  400e80:	376ae18b 	.word	0x376ae18b
  400e84:	3b9dd7ed 	.word	0x3b9dd7ed
  400e88:	3ff511ae 	.word	0x3ff511ae
  400e8c:	00406fd5 	.word	0x00406fd5
  400e90:	38d3cff6 	.word	0x38d3cff6
  400e94:	3ca3c85c 	.word	0x3ca3c85c
  400e98:	40400000 	.word	0x40400000
  400e9c:	00407081 	.word	0x00407081
  400ea0:	0040697d 	.word	0x0040697d
  400ea4:	00406a25 	.word	0x00406a25
  400ea8:	e9dd 0100 	ldrd	r0, r1, [sp]
  400eac:	4798      	blx	r3
  400eae:	47d0      	blx	sl
  400eb0:	4602      	mov	r2, r0
  400eb2:	460b      	mov	r3, r1
  400eb4:	4630      	mov	r0, r6
  400eb6:	4639      	mov	r1, r7
  400eb8:	4e8f      	ldr	r6, [pc, #572]	; (4010f8 <GetPvAngle+0x540>)
  400eba:	47b0      	blx	r6
  400ebc:	e9cd 010c 	strd	r0, r1, [sp, #48]	; 0x30
  400ec0:	498e      	ldr	r1, [pc, #568]	; (4010fc <GetPvAngle+0x544>)
  400ec2:	4640      	mov	r0, r8
  400ec4:	47a0      	blx	r4
  400ec6:	4b8e      	ldr	r3, [pc, #568]	; (401100 <GetPvAngle+0x548>)
  400ec8:	4601      	mov	r1, r0
  400eca:	488e      	ldr	r0, [pc, #568]	; (401104 <GetPvAngle+0x54c>)
  400ecc:	4798      	blx	r3
  400ece:	498e      	ldr	r1, [pc, #568]	; (401108 <GetPvAngle+0x550>)
  400ed0:	47a0      	blx	r4
  400ed2:	498e      	ldr	r1, [pc, #568]	; (40110c <GetPvAngle+0x554>)
  400ed4:	47a8      	blx	r5
  400ed6:	47d0      	blx	sl
  400ed8:	4b8d      	ldr	r3, [pc, #564]	; (401110 <GetPvAngle+0x558>)
  400eda:	4606      	mov	r6, r0
  400edc:	460f      	mov	r7, r1
  400ede:	4798      	blx	r3
  400ee0:	4b8c      	ldr	r3, [pc, #560]	; (401114 <GetPvAngle+0x55c>)
  400ee2:	e9cd 0100 	strd	r0, r1, [sp]
  400ee6:	4630      	mov	r0, r6
  400ee8:	4639      	mov	r1, r7
  400eea:	4798      	blx	r3
  400eec:	e9cd 010a 	strd	r0, r1, [sp, #40]	; 0x28
  400ef0:	4989      	ldr	r1, [pc, #548]	; (401118 <GetPvAngle+0x560>)
  400ef2:	4640      	mov	r0, r8
  400ef4:	47a0      	blx	r4
  400ef6:	4b82      	ldr	r3, [pc, #520]	; (401100 <GetPvAngle+0x548>)
  400ef8:	4601      	mov	r1, r0
  400efa:	4888      	ldr	r0, [pc, #544]	; (40111c <GetPvAngle+0x564>)
  400efc:	4798      	blx	r3
  400efe:	4641      	mov	r1, r8
  400f00:	47a0      	blx	r4
  400f02:	4987      	ldr	r1, [pc, #540]	; (401120 <GetPvAngle+0x568>)
  400f04:	47d8      	blx	fp
  400f06:	4641      	mov	r1, r8
  400f08:	47a0      	blx	r4
  400f0a:	4b7d      	ldr	r3, [pc, #500]	; (401100 <GetPvAngle+0x548>)
  400f0c:	4601      	mov	r1, r0
  400f0e:	4885      	ldr	r0, [pc, #532]	; (401124 <GetPvAngle+0x56c>)
  400f10:	4798      	blx	r3
  400f12:	4985      	ldr	r1, [pc, #532]	; (401128 <GetPvAngle+0x570>)
  400f14:	47a8      	blx	r5
  400f16:	4985      	ldr	r1, [pc, #532]	; (40112c <GetPvAngle+0x574>)
  400f18:	47d8      	blx	fp
  400f1a:	4983      	ldr	r1, [pc, #524]	; (401128 <GetPvAngle+0x570>)
  400f1c:	47a8      	blx	r5
  400f1e:	4984      	ldr	r1, [pc, #528]	; (401130 <GetPvAngle+0x578>)
  400f20:	47d8      	blx	fp
  400f22:	47d0      	blx	sl
  400f24:	a36e      	add	r3, pc, #440	; (adr r3, 4010e0 <GetPvAngle+0x528>)
  400f26:	e9d3 2300 	ldrd	r2, r3, [r3]
  400f2a:	4606      	mov	r6, r0
  400f2c:	460f      	mov	r7, r1
  400f2e:	e9dd 010a 	ldrd	r0, r1, [sp, #40]	; 0x28
  400f32:	47c8      	blx	r9
  400f34:	4602      	mov	r2, r0
  400f36:	460b      	mov	r3, r1
  400f38:	4630      	mov	r0, r6
  400f3a:	4639      	mov	r1, r7
  400f3c:	4e6e      	ldr	r6, [pc, #440]	; (4010f8 <GetPvAngle+0x540>)
  400f3e:	47b0      	blx	r6
  400f40:	4b7c      	ldr	r3, [pc, #496]	; (401134 <GetPvAngle+0x57c>)
  400f42:	4798      	blx	r3
  400f44:	4970      	ldr	r1, [pc, #448]	; (401108 <GetPvAngle+0x550>)
  400f46:	4680      	mov	r8, r0
  400f48:	47a0      	blx	r4
  400f4a:	4970      	ldr	r1, [pc, #448]	; (40110c <GetPvAngle+0x554>)
  400f4c:	47a8      	blx	r5
  400f4e:	47d0      	blx	sl
  400f50:	4b6f      	ldr	r3, [pc, #444]	; (401110 <GetPvAngle+0x558>)
  400f52:	4798      	blx	r3
  400f54:	4b77      	ldr	r3, [pc, #476]	; (401134 <GetPvAngle+0x57c>)
  400f56:	e9cd 010a 	strd	r0, r1, [sp, #40]	; 0x28
  400f5a:	e9dd 010c 	ldrd	r0, r1, [sp, #48]	; 0x30
  400f5e:	4798      	blx	r3
  400f60:	9908      	ldr	r1, [sp, #32]
  400f62:	47d8      	blx	fp
  400f64:	4b66      	ldr	r3, [pc, #408]	; (401100 <GetPvAngle+0x548>)
  400f66:	4974      	ldr	r1, [pc, #464]	; (401138 <GetPvAngle+0x580>)
  400f68:	4798      	blx	r3
  400f6a:	47d0      	blx	sl
  400f6c:	a35e      	add	r3, pc, #376	; (adr r3, 4010e8 <GetPvAngle+0x530>)
  400f6e:	e9d3 2300 	ldrd	r2, r3, [r3]
  400f72:	4606      	mov	r6, r0
  400f74:	460f      	mov	r7, r1
  400f76:	e9dd 0100 	ldrd	r0, r1, [sp]
  400f7a:	47c8      	blx	r9
  400f7c:	4602      	mov	r2, r0
  400f7e:	460b      	mov	r3, r1
  400f80:	4630      	mov	r0, r6
  400f82:	4639      	mov	r1, r7
  400f84:	4e6d      	ldr	r6, [pc, #436]	; (40113c <GetPvAngle+0x584>)
  400f86:	47b0      	blx	r6
  400f88:	4b6a      	ldr	r3, [pc, #424]	; (401134 <GetPvAngle+0x57c>)
  400f8a:	4798      	blx	r3
  400f8c:	495e      	ldr	r1, [pc, #376]	; (401108 <GetPvAngle+0x550>)
  400f8e:	47a0      	blx	r4
  400f90:	495e      	ldr	r1, [pc, #376]	; (40110c <GetPvAngle+0x554>)
  400f92:	47a8      	blx	r5
  400f94:	47d0      	blx	sl
  400f96:	4b5e      	ldr	r3, [pc, #376]	; (401110 <GetPvAngle+0x558>)
  400f98:	4798      	blx	r3
  400f9a:	4602      	mov	r2, r0
  400f9c:	460b      	mov	r3, r1
  400f9e:	e9dd 010a 	ldrd	r0, r1, [sp, #40]	; 0x28
  400fa2:	47c8      	blx	r9
  400fa4:	4b66      	ldr	r3, [pc, #408]	; (401140 <GetPvAngle+0x588>)
  400fa6:	4798      	blx	r3
  400fa8:	e9cd 010a 	strd	r0, r1, [sp, #40]	; 0x28
  400fac:	f04f 517c 	mov.w	r1, #1056964608	; 0x3f000000
  400fb0:	4640      	mov	r0, r8
  400fb2:	47a0      	blx	r4
  400fb4:	4954      	ldr	r1, [pc, #336]	; (401108 <GetPvAngle+0x550>)
  400fb6:	f8df 8198 	ldr.w	r8, [pc, #408]	; 401150 <GetPvAngle+0x598>
  400fba:	47a0      	blx	r4
  400fbc:	4953      	ldr	r1, [pc, #332]	; (40110c <GetPvAngle+0x554>)
  400fbe:	47a8      	blx	r5
  400fc0:	47d0      	blx	sl
  400fc2:	47c0      	blx	r8
  400fc4:	4602      	mov	r2, r0
  400fc6:	460b      	mov	r3, r1
  400fc8:	47c8      	blx	r9
  400fca:	4b5a      	ldr	r3, [pc, #360]	; (401134 <GetPvAngle+0x57c>)
  400fcc:	4798      	blx	r3
  400fce:	494e      	ldr	r1, [pc, #312]	; (401108 <GetPvAngle+0x550>)
  400fd0:	9000      	str	r0, [sp, #0]
  400fd2:	9808      	ldr	r0, [sp, #32]
  400fd4:	47a0      	blx	r4
  400fd6:	494d      	ldr	r1, [pc, #308]	; (40110c <GetPvAngle+0x554>)
  400fd8:	47a8      	blx	r5
  400fda:	4601      	mov	r1, r0
  400fdc:	900e      	str	r0, [sp, #56]	; 0x38
  400fde:	47d8      	blx	fp
  400fe0:	47d0      	blx	sl
  400fe2:	4b4b      	ldr	r3, [pc, #300]	; (401110 <GetPvAngle+0x558>)
  400fe4:	4606      	mov	r6, r0
  400fe6:	460f      	mov	r7, r1
  400fe8:	4798      	blx	r3
  400fea:	4b4a      	ldr	r3, [pc, #296]	; (401114 <GetPvAngle+0x55c>)
  400fec:	e9cd 0108 	strd	r0, r1, [sp, #32]
  400ff0:	4630      	mov	r0, r6
  400ff2:	4639      	mov	r1, r7
  400ff4:	4798      	blx	r3
  400ff6:	9b0e      	ldr	r3, [sp, #56]	; 0x38
  400ff8:	e9cd 010c 	strd	r0, r1, [sp, #48]	; 0x30
  400ffc:	4618      	mov	r0, r3
  400ffe:	f04f 4181 	mov.w	r1, #1082130432	; 0x40800000
  401002:	47a0      	blx	r4
  401004:	47d0      	blx	sl
  401006:	4b42      	ldr	r3, [pc, #264]	; (401110 <GetPvAngle+0x558>)
  401008:	4798      	blx	r3
  40100a:	e9cd 010e 	strd	r0, r1, [sp, #56]	; 0x38
  40100e:	9910      	ldr	r1, [sp, #64]	; 0x40
  401010:	4608      	mov	r0, r1
  401012:	47d8      	blx	fp
  401014:	47d0      	blx	sl
  401016:	4b3e      	ldr	r3, [pc, #248]	; (401110 <GetPvAngle+0x558>)
  401018:	4798      	blx	r3
  40101a:	4b4a      	ldr	r3, [pc, #296]	; (401144 <GetPvAngle+0x58c>)
  40101c:	e9cd 0110 	strd	r0, r1, [sp, #64]	; 0x40
  401020:	6818      	ldr	r0, [r3, #0]
  401022:	4939      	ldr	r1, [pc, #228]	; (401108 <GetPvAngle+0x550>)
  401024:	47a0      	blx	r4
  401026:	4939      	ldr	r1, [pc, #228]	; (40110c <GetPvAngle+0x554>)
  401028:	47a8      	blx	r5
  40102a:	47d0      	blx	sl
  40102c:	4602      	mov	r2, r0
  40102e:	460b      	mov	r3, r1
  401030:	e9cd 2314 	strd	r2, r3, [sp, #80]	; 0x50
  401034:	4b37      	ldr	r3, [pc, #220]	; (401114 <GetPvAngle+0x55c>)
  401036:	4798      	blx	r3
  401038:	4b3e      	ldr	r3, [pc, #248]	; (401134 <GetPvAngle+0x57c>)
  40103a:	e9cd 0112 	strd	r0, r1, [sp, #72]	; 0x48
  40103e:	e9dd 010a 	ldrd	r0, r1, [sp, #40]	; 0x28
  401042:	4798      	blx	r3
  401044:	4931      	ldr	r1, [pc, #196]	; (40110c <GetPvAngle+0x554>)
  401046:	47a0      	blx	r4
  401048:	492f      	ldr	r1, [pc, #188]	; (401108 <GetPvAngle+0x550>)
  40104a:	47a8      	blx	r5
  40104c:	492e      	ldr	r1, [pc, #184]	; (401108 <GetPvAngle+0x550>)
  40104e:	47a0      	blx	r4
  401050:	492e      	ldr	r1, [pc, #184]	; (40110c <GetPvAngle+0x554>)
  401052:	47a8      	blx	r5
  401054:	47d0      	blx	sl
  401056:	4b2f      	ldr	r3, [pc, #188]	; (401114 <GetPvAngle+0x55c>)
  401058:	e9cd 010a 	strd	r0, r1, [sp, #40]	; 0x28
  40105c:	4798      	blx	r3
  40105e:	e9dd 2314 	ldrd	r2, r3, [sp, #80]	; 0x50
  401062:	4606      	mov	r6, r0
  401064:	460f      	mov	r7, r1
  401066:	4610      	mov	r0, r2
  401068:	4619      	mov	r1, r3
  40106a:	47c0      	blx	r8
  40106c:	e9cd 0114 	strd	r0, r1, [sp, #80]	; 0x50
  401070:	e9dd 010a 	ldrd	r0, r1, [sp, #40]	; 0x28
  401074:	47c0      	blx	r8
  401076:	4632      	mov	r2, r6
  401078:	463b      	mov	r3, r7
  40107a:	e9cd 010a 	strd	r0, r1, [sp, #40]	; 0x28
  40107e:	e9dd 0112 	ldrd	r0, r1, [sp, #72]	; 0x48
  401082:	47c8      	blx	r9
  401084:	4e30      	ldr	r6, [pc, #192]	; (401148 <GetPvAngle+0x590>)
  401086:	4602      	mov	r2, r0
  401088:	460b      	mov	r3, r1
  40108a:	a119      	add	r1, pc, #100	; (adr r1, 4010f0 <GetPvAngle+0x538>)
  40108c:	e9d1 0100 	ldrd	r0, r1, [r1]
  401090:	47b0      	blx	r6
  401092:	e9dd 230a 	ldrd	r2, r3, [sp, #40]	; 0x28
  401096:	4606      	mov	r6, r0
  401098:	460f      	mov	r7, r1
  40109a:	e9dd 0114 	ldrd	r0, r1, [sp, #80]	; 0x50
  40109e:	47c8      	blx	r9
  4010a0:	4602      	mov	r2, r0
  4010a2:	460b      	mov	r3, r1
  4010a4:	4630      	mov	r0, r6
  4010a6:	4639      	mov	r1, r7
  4010a8:	4e24      	ldr	r6, [pc, #144]	; (40113c <GetPvAngle+0x584>)
  4010aa:	47b0      	blx	r6
  4010ac:	4b27      	ldr	r3, [pc, #156]	; (40114c <GetPvAngle+0x594>)
  4010ae:	4798      	blx	r3
  4010b0:	4b20      	ldr	r3, [pc, #128]	; (401134 <GetPvAngle+0x57c>)
  4010b2:	4798      	blx	r3
  4010b4:	4915      	ldr	r1, [pc, #84]	; (40110c <GetPvAngle+0x554>)
  4010b6:	47a0      	blx	r4
  4010b8:	4913      	ldr	r1, [pc, #76]	; (401108 <GetPvAngle+0x550>)
  4010ba:	47a8      	blx	r5
  4010bc:	4680      	mov	r8, r0
  4010be:	9800      	ldr	r0, [sp, #0]
  4010c0:	47d0      	blx	sl
  4010c2:	e9dd 2308 	ldrd	r2, r3, [sp, #32]
  4010c6:	47c8      	blx	r9
  4010c8:	460f      	mov	r7, r1
  4010ca:	9904      	ldr	r1, [sp, #16]
  4010cc:	4606      	mov	r6, r0
  4010ce:	4608      	mov	r0, r1
  4010d0:	47d8      	blx	fp
  4010d2:	47d0      	blx	sl
  4010d4:	e9dd 2302 	ldrd	r2, r3, [sp, #8]
  4010d8:	47c8      	blx	r9
  4010da:	4602      	mov	r2, r0
  4010dc:	460b      	mov	r3, r1
  4010de:	e039      	b.n	401154 <GetPvAngle+0x59c>
  4010e0:	80000000 	.word	0x80000000
  4010e4:	3f64f8b5 	.word	0x3f64f8b5
  4010e8:	80000000 	.word	0x80000000
  4010ec:	3f739431 	.word	0x3f739431
  4010f0:	201519e5 	.word	0x201519e5
  4010f4:	bf8dc621 	.word	0xbf8dc621
  4010f8:	004066c1 	.word	0x004066c1
  4010fc:	44f1c45a 	.word	0x44f1c45a
  401100:	0040707d 	.word	0x0040707d
  401104:	42fa147b 	.word	0x42fa147b
  401108:	40490fdb 	.word	0x40490fdb
  40110c:	43340000 	.word	0x43340000
  401110:	00403e95 	.word	0x00403e95
  401114:	00403e01 	.word	0x00403e01
  401118:	3aeda22f 	.word	0x3aeda22f
  40111c:	3a1aaa3b 	.word	0x3a1aaa3b
  401120:	423b428f 	.word	0x423b428f
  401124:	41ab9581 	.word	0x41ab9581
  401128:	42700000 	.word	0x42700000
  40112c:	41d00000 	.word	0x41d00000
  401130:	41b80000 	.word	0x41b80000
  401134:	00406fd5 	.word	0x00406fd5
  401138:	3bba732e 	.word	0x3bba732e
  40113c:	004066bd 	.word	0x004066bd
  401140:	00404029 	.word	0x00404029
  401144:	20000018 	.word	0x20000018
  401148:	00406c79 	.word	0x00406c79
  40114c:	00403f79 	.word	0x00403f79
  401150:	00403f1d 	.word	0x00403f1d
  401154:	4630      	mov	r0, r6
  401156:	4639      	mov	r1, r7
  401158:	4e46      	ldr	r6, [pc, #280]	; (401274 <GetPvAngle+0x6bc>)
  40115a:	47b0      	blx	r6
  40115c:	4606      	mov	r6, r0
  40115e:	460f      	mov	r7, r1
  401160:	9804      	ldr	r0, [sp, #16]
  401162:	f04f 4181 	mov.w	r1, #1082130432	; 0x40800000
  401166:	47a0      	blx	r4
  401168:	9900      	ldr	r1, [sp, #0]
  40116a:	47a0      	blx	r4
  40116c:	47d0      	blx	sl
  40116e:	e9dd 2302 	ldrd	r2, r3, [sp, #8]
  401172:	47c8      	blx	r9
  401174:	e9dd 230c 	ldrd	r2, r3, [sp, #48]	; 0x30
  401178:	47c8      	blx	r9
  40117a:	4602      	mov	r2, r0
  40117c:	460b      	mov	r3, r1
  40117e:	4630      	mov	r0, r6
  401180:	4639      	mov	r1, r7
  401182:	4e3d      	ldr	r6, [pc, #244]	; (401278 <GetPvAngle+0x6c0>)
  401184:	47b0      	blx	r6
  401186:	4606      	mov	r6, r0
  401188:	460f      	mov	r7, r1
  40118a:	9800      	ldr	r0, [sp, #0]
  40118c:	f04f 517c 	mov.w	r1, #1056964608	; 0x3f000000
  401190:	47a0      	blx	r4
  401192:	9900      	ldr	r1, [sp, #0]
  401194:	47a0      	blx	r4
  401196:	47d0      	blx	sl
  401198:	e9dd 230e 	ldrd	r2, r3, [sp, #56]	; 0x38
  40119c:	47c8      	blx	r9
  40119e:	4602      	mov	r2, r0
  4011a0:	460b      	mov	r3, r1
  4011a2:	4630      	mov	r0, r6
  4011a4:	4639      	mov	r1, r7
  4011a6:	4e33      	ldr	r6, [pc, #204]	; (401274 <GetPvAngle+0x6bc>)
  4011a8:	47b0      	blx	r6
  4011aa:	4606      	mov	r6, r0
  4011ac:	460f      	mov	r7, r1
  4011ae:	9804      	ldr	r0, [sp, #16]
  4011b0:	4932      	ldr	r1, [pc, #200]	; (40127c <GetPvAngle+0x6c4>)
  4011b2:	47a0      	blx	r4
  4011b4:	9904      	ldr	r1, [sp, #16]
  4011b6:	47a0      	blx	r4
  4011b8:	47d0      	blx	sl
  4011ba:	e9dd 2310 	ldrd	r2, r3, [sp, #64]	; 0x40
  4011be:	47c8      	blx	r9
  4011c0:	4602      	mov	r2, r0
  4011c2:	460b      	mov	r3, r1
  4011c4:	4630      	mov	r0, r6
  4011c6:	4639      	mov	r1, r7
  4011c8:	4e2a      	ldr	r6, [pc, #168]	; (401274 <GetPvAngle+0x6bc>)
  4011ca:	47b0      	blx	r6
  4011cc:	4b2c      	ldr	r3, [pc, #176]	; (401280 <GetPvAngle+0x6c8>)
  4011ce:	4798      	blx	r3
  4011d0:	492c      	ldr	r1, [pc, #176]	; (401284 <GetPvAngle+0x6cc>)
  4011d2:	47a0      	blx	r4
  4011d4:	492c      	ldr	r1, [pc, #176]	; (401288 <GetPvAngle+0x6d0>)
  4011d6:	47a8      	blx	r5
  4011d8:	f04f 4181 	mov.w	r1, #1082130432	; 0x40800000
  4011dc:	47a0      	blx	r4
  4011de:	9b06      	ldr	r3, [sp, #24]
  4011e0:	f8bd 2014 	ldrh.w	r2, [sp, #20]
  4011e4:	ebc3 1303 	rsb	r3, r3, r3, lsl #4
  4011e8:	4606      	mov	r6, r0
  4011ea:	009b      	lsls	r3, r3, #2
  4011ec:	f44f 6061 	mov.w	r0, #3600	; 0xe10
  4011f0:	fb12 3000 	smlabb	r0, r2, r0, r3
  4011f4:	9b07      	ldr	r3, [sp, #28]
  4011f6:	4418      	add	r0, r3
  4011f8:	4b24      	ldr	r3, [pc, #144]	; (40128c <GetPvAngle+0x6d4>)
  4011fa:	4798      	blx	r3
  4011fc:	4924      	ldr	r1, [pc, #144]	; (401290 <GetPvAngle+0x6d8>)
  4011fe:	47a8      	blx	r5
  401200:	4924      	ldr	r1, [pc, #144]	; (401294 <GetPvAngle+0x6dc>)
  401202:	47a0      	blx	r4
  401204:	4601      	mov	r1, r0
  401206:	4630      	mov	r0, r6
  401208:	47d8      	blx	fp
  40120a:	4b23      	ldr	r3, [pc, #140]	; (401298 <GetPvAngle+0x6e0>)
  40120c:	4606      	mov	r6, r0
  40120e:	f04f 4181 	mov.w	r1, #1082130432	; 0x40800000
  401212:	6818      	ldr	r0, [r3, #0]
  401214:	47a0      	blx	r4
  401216:	4601      	mov	r1, r0
  401218:	4630      	mov	r0, r6
  40121a:	47d8      	blx	fp
  40121c:	4b1f      	ldr	r3, [pc, #124]	; (40129c <GetPvAngle+0x6e4>)
  40121e:	4920      	ldr	r1, [pc, #128]	; (4012a0 <GetPvAngle+0x6e8>)
  401220:	4606      	mov	r6, r0
  401222:	6818      	ldr	r0, [r3, #0]
  401224:	47a0      	blx	r4
  401226:	4b1f      	ldr	r3, [pc, #124]	; (4012a4 <GetPvAngle+0x6ec>)
  401228:	4601      	mov	r1, r0
  40122a:	4630      	mov	r0, r6
  40122c:	4798      	blx	r3
  40122e:	4b1e      	ldr	r3, [pc, #120]	; (4012a8 <GetPvAngle+0x6f0>)
  401230:	4798      	blx	r3
  401232:	f44f 63b4 	mov.w	r3, #1440	; 0x5a0
  401236:	fb90 f2f3 	sdiv	r2, r0, r3
  40123a:	fb02 0013 	mls	r0, r2, r3, r0
  40123e:	4b13      	ldr	r3, [pc, #76]	; (40128c <GetPvAngle+0x6d4>)
  401240:	4798      	blx	r3
  401242:	f04f 517a 	mov.w	r1, #1048576000	; 0x3e800000
  401246:	47a0      	blx	r4
  401248:	2100      	movs	r1, #0
  40124a:	4b18      	ldr	r3, [pc, #96]	; (4012ac <GetPvAngle+0x6f4>)
  40124c:	4606      	mov	r6, r0
  40124e:	4798      	blx	r3
  401250:	490c      	ldr	r1, [pc, #48]	; (401284 <GetPvAngle+0x6cc>)
  401252:	b110      	cbz	r0, 40125a <GetPvAngle+0x6a2>
  401254:	4630      	mov	r0, r6
  401256:	47d8      	blx	fp
  401258:	e002      	b.n	401260 <GetPvAngle+0x6a8>
  40125a:	4630      	mov	r0, r6
  40125c:	4b11      	ldr	r3, [pc, #68]	; (4012a4 <GetPvAngle+0x6ec>)
  40125e:	4798      	blx	r3
  401260:	4606      	mov	r6, r0
  401262:	4641      	mov	r1, r8
  401264:	4812      	ldr	r0, [pc, #72]	; (4012b0 <GetPvAngle+0x6f8>)
  401266:	47a8      	blx	r5
  401268:	4631      	mov	r1, r6
  40126a:	47a0      	blx	r4
  40126c:	b017      	add	sp, #92	; 0x5c
  40126e:	e8bd 8ff0 	ldmia.w	sp!, {r4, r5, r6, r7, r8, r9, sl, fp, pc}
  401272:	bf00      	nop
  401274:	004066bd 	.word	0x004066bd
  401278:	004066c1 	.word	0x004066c1
  40127c:	3fa00000 	.word	0x3fa00000
  401280:	00406fd5 	.word	0x00406fd5
  401284:	43340000 	.word	0x43340000
  401288:	40490fdb 	.word	0x40490fdb
  40128c:	004071e9 	.word	0x004071e9
  401290:	47a8c000 	.word	0x47a8c000
  401294:	44b40000 	.word	0x44b40000
  401298:	2000001c 	.word	0x2000001c
  40129c:	2000000c 	.word	0x2000000c
  4012a0:	42700000 	.word	0x42700000
  4012a4:	0040707d 	.word	0x0040707d
  4012a8:	0040761d 	.word	0x0040761d
  4012ac:	004075cd 	.word	0x004075cd
  4012b0:	42b40000 	.word	0x42b40000

004012b4 <TestCode>:
  4012b4:	b570      	push	{r4, r5, r6, lr}
  4012b6:	4c1e      	ldr	r4, [pc, #120]	; (401330 <TestCode+0x7c>)
  4012b8:	481e      	ldr	r0, [pc, #120]	; (401334 <TestCode+0x80>)
  4012ba:	4d1f      	ldr	r5, [pc, #124]	; (401338 <TestCode+0x84>)
  4012bc:	4e1f      	ldr	r6, [pc, #124]	; (40133c <TestCode+0x88>)
  4012be:	b086      	sub	sp, #24
  4012c0:	2300      	movs	r3, #0
  4012c2:	f8ad 3004 	strh.w	r3, [sp, #4]
  4012c6:	f8ad 3006 	strh.w	r3, [sp, #6]
  4012ca:	f8ad 3008 	strh.w	r3, [sp, #8]
  4012ce:	4621      	mov	r1, r4
  4012d0:	4b1b      	ldr	r3, [pc, #108]	; (401340 <TestCode+0x8c>)
  4012d2:	4798      	blx	r3
  4012d4:	1da1      	adds	r1, r4, #6
  4012d6:	4817      	ldr	r0, [pc, #92]	; (401334 <TestCode+0x80>)
  4012d8:	4b1a      	ldr	r3, [pc, #104]	; (401344 <TestCode+0x90>)
  4012da:	4798      	blx	r3
  4012dc:	aa01      	add	r2, sp, #4
  4012de:	2169      	movs	r1, #105	; 0x69
  4012e0:	4814      	ldr	r0, [pc, #80]	; (401334 <TestCode+0x80>)
  4012e2:	4b19      	ldr	r3, [pc, #100]	; (401348 <TestCode+0x94>)
  4012e4:	4798      	blx	r3
  4012e6:	a903      	add	r1, sp, #12
  4012e8:	a801      	add	r0, sp, #4
  4012ea:	4b18      	ldr	r3, [pc, #96]	; (40134c <TestCode+0x98>)
  4012ec:	4798      	blx	r3
  4012ee:	f8bd 300e 	ldrh.w	r3, [sp, #14]
  4012f2:	83e3      	strh	r3, [r4, #30]
  4012f4:	f8bd 300c 	ldrh.w	r3, [sp, #12]
  4012f8:	83a3      	strh	r3, [r4, #28]
  4012fa:	4b15      	ldr	r3, [pc, #84]	; (401350 <TestCode+0x9c>)
  4012fc:	4798      	blx	r3
  4012fe:	9000      	str	r0, [sp, #0]
  401300:	f8bd 3002 	ldrh.w	r3, [sp, #2]
  401304:	8463      	strh	r3, [r4, #34]	; 0x22
  401306:	f8bd 3000 	ldrh.w	r3, [sp]
  40130a:	8423      	strh	r3, [r4, #32]
  40130c:	8e63      	ldrh	r3, [r4, #50]	; 0x32
  40130e:	2020      	movs	r0, #32
  401310:	b11b      	cbz	r3, 40131a <TestCode+0x66>
  401312:	47a8      	blx	r5
  401314:	2021      	movs	r0, #33	; 0x21
  401316:	47b0      	blx	r6
  401318:	e002      	b.n	401320 <TestCode+0x6c>
  40131a:	47b0      	blx	r6
  40131c:	2021      	movs	r0, #33	; 0x21
  40131e:	47a8      	blx	r5
  401320:	8ea3      	ldrh	r3, [r4, #52]	; 0x34
  401322:	2022      	movs	r0, #34	; 0x22
  401324:	b10b      	cbz	r3, 40132a <TestCode+0x76>
  401326:	47b0      	blx	r6
  401328:	e000      	b.n	40132c <TestCode+0x78>
  40132a:	47a8      	blx	r5
  40132c:	b006      	add	sp, #24
  40132e:	bd70      	pop	{r4, r5, r6, pc}
  401330:	20000484 	.word	0x20000484
  401334:	40018000 	.word	0x40018000
  401338:	0040205f 	.word	0x0040205f
  40133c:	00402045 	.word	0x00402045
  401340:	00400195 	.word	0x00400195
  401344:	004001d5 	.word	0x004001d5
  401348:	004003b9 	.word	0x004003b9
  40134c:	004009a1 	.word	0x004009a1
  401350:	00400bb9 	.word	0x00400bb9

00401354 <GetPvBackTrackAngle>:
  401354:	e92d 47f0 	stmdb	sp!, {r4, r5, r6, r7, r8, r9, sl, lr}
  401358:	4925      	ldr	r1, [pc, #148]	; (4013f0 <GetPvBackTrackAngle+0x9c>)
  40135a:	4d26      	ldr	r5, [pc, #152]	; (4013f4 <GetPvBackTrackAngle+0xa0>)
  40135c:	4f26      	ldr	r7, [pc, #152]	; (4013f8 <GetPvBackTrackAngle+0xa4>)
  40135e:	4c27      	ldr	r4, [pc, #156]	; (4013fc <GetPvBackTrackAngle+0xa8>)
  401360:	f8df 80d8 	ldr.w	r8, [pc, #216]	; 40143c <GetPvBackTrackAngle+0xe8>
  401364:	4606      	mov	r6, r0
  401366:	47a8      	blx	r5
  401368:	4925      	ldr	r1, [pc, #148]	; (401400 <GetPvBackTrackAngle+0xac>)
  40136a:	4b26      	ldr	r3, [pc, #152]	; (401404 <GetPvBackTrackAngle+0xb0>)
  40136c:	4798      	blx	r3
  40136e:	4b26      	ldr	r3, [pc, #152]	; (401408 <GetPvBackTrackAngle+0xb4>)
  401370:	4926      	ldr	r1, [pc, #152]	; (40140c <GetPvBackTrackAngle+0xb8>)
  401372:	4798      	blx	r3
  401374:	47b8      	blx	r7
  401376:	4b26      	ldr	r3, [pc, #152]	; (401410 <GetPvBackTrackAngle+0xbc>)
  401378:	4798      	blx	r3
  40137a:	47a0      	blx	r4
  40137c:	4b25      	ldr	r3, [pc, #148]	; (401414 <GetPvBackTrackAngle+0xc0>)
  40137e:	6819      	ldr	r1, [r3, #0]
  401380:	47a8      	blx	r5
  401382:	4b25      	ldr	r3, [pc, #148]	; (401418 <GetPvBackTrackAngle+0xc4>)
  401384:	6819      	ldr	r1, [r3, #0]
  401386:	4b25      	ldr	r3, [pc, #148]	; (40141c <GetPvBackTrackAngle+0xc8>)
  401388:	4798      	blx	r3
  40138a:	f04f 517e 	mov.w	r1, #1065353216	; 0x3f800000
  40138e:	4682      	mov	sl, r0
  401390:	47c0      	blx	r8
  401392:	46a9      	mov	r9, r5
  401394:	b330      	cbz	r0, 4013e4 <GetPvBackTrackAngle+0x90>
  401396:	4650      	mov	r0, sl
  401398:	47b8      	blx	r7
  40139a:	4b21      	ldr	r3, [pc, #132]	; (401420 <GetPvBackTrackAngle+0xcc>)
  40139c:	4f21      	ldr	r7, [pc, #132]	; (401424 <GetPvBackTrackAngle+0xd0>)
  40139e:	4798      	blx	r3
  4013a0:	47a0      	blx	r4
  4013a2:	4921      	ldr	r1, [pc, #132]	; (401428 <GetPvBackTrackAngle+0xd4>)
  4013a4:	47a8      	blx	r5
  4013a6:	4921      	ldr	r1, [pc, #132]	; (40142c <GetPvBackTrackAngle+0xd8>)
  4013a8:	4604      	mov	r4, r0
  4013aa:	4630      	mov	r0, r6
  4013ac:	47b8      	blx	r7
  4013ae:	b150      	cbz	r0, 4013c6 <GetPvBackTrackAngle+0x72>
  4013b0:	2100      	movs	r1, #0
  4013b2:	4630      	mov	r0, r6
  4013b4:	47c0      	blx	r8
  4013b6:	b130      	cbz	r0, 4013c6 <GetPvBackTrackAngle+0x72>
  4013b8:	f104 4000 	add.w	r0, r4, #2147483648	; 0x80000000
  4013bc:	f04f 517c 	mov.w	r1, #1056964608	; 0x3f000000
  4013c0:	47a8      	blx	r5
  4013c2:	e8bd 87f0 	ldmia.w	sp!, {r4, r5, r6, r7, r8, r9, sl, pc}
  4013c6:	2100      	movs	r1, #0
  4013c8:	4630      	mov	r0, r6
  4013ca:	47b8      	blx	r7
  4013cc:	b168      	cbz	r0, 4013ea <GetPvBackTrackAngle+0x96>
  4013ce:	4918      	ldr	r1, [pc, #96]	; (401430 <GetPvBackTrackAngle+0xdc>)
  4013d0:	4b18      	ldr	r3, [pc, #96]	; (401434 <GetPvBackTrackAngle+0xe0>)
  4013d2:	4630      	mov	r0, r6
  4013d4:	4798      	blx	r3
  4013d6:	b140      	cbz	r0, 4013ea <GetPvBackTrackAngle+0x96>
  4013d8:	f04f 517c 	mov.w	r1, #1056964608	; 0x3f000000
  4013dc:	4620      	mov	r0, r4
  4013de:	47c8      	blx	r9
  4013e0:	e8bd 87f0 	ldmia.w	sp!, {r4, r5, r6, r7, r8, r9, sl, pc}
  4013e4:	4814      	ldr	r0, [pc, #80]	; (401438 <GetPvBackTrackAngle+0xe4>)
  4013e6:	e8bd 87f0 	ldmia.w	sp!, {r4, r5, r6, r7, r8, r9, sl, pc}
  4013ea:	4620      	mov	r0, r4
  4013ec:	e8bd 87f0 	ldmia.w	sp!, {r4, r5, r6, r7, r8, r9, sl, pc}
  4013f0:	3c8f08e7 	.word	0x3c8f08e7
  4013f4:	00407291 	.word	0x00407291
  4013f8:	0040697d 	.word	0x0040697d
  4013fc:	00406fd5 	.word	0x00406fd5
  401400:	3fc9999a 	.word	0x3fc9999a
  401404:	00407081 	.word	0x00407081
  401408:	0040707d 	.word	0x0040707d
  40140c:	3ced7a57 	.word	0x3ced7a57
  401410:	00403e95 	.word	0x00403e95
  401414:	20000010 	.word	0x20000010
  401418:	20000020 	.word	0x20000020
  40141c:	004073f9 	.word	0x004073f9
  401420:	00404029 	.word	0x00404029
  401424:	004075f5 	.word	0x004075f5
  401428:	42652ee6 	.word	0x42652ee6
  40142c:	c2b40000 	.word	0xc2b40000
  401430:	42b40000 	.word	0x42b40000
  401434:	004075e1 	.word	0x004075e1
  401438:	7fc00000 	.word	0x7fc00000
  40143c:	004075cd 	.word	0x004075cd

00401440 <PVTrack>:
  401440:	e92d 47f3 	stmdb	sp!, {r0, r1, r4, r5, r6, r7, r8, r9, sl, lr}
  401444:	4d2c      	ldr	r5, [pc, #176]	; (4014f8 <PVTrack+0xb8>)
  401446:	4b2d      	ldr	r3, [pc, #180]	; (4014fc <PVTrack+0xbc>)
  401448:	4f2d      	ldr	r7, [pc, #180]	; (401500 <PVTrack+0xc0>)
  40144a:	4e2e      	ldr	r6, [pc, #184]	; (401504 <PVTrack+0xc4>)
  40144c:	4798      	blx	r3
  40144e:	4629      	mov	r1, r5
  401450:	482d      	ldr	r0, [pc, #180]	; (401508 <PVTrack+0xc8>)
  401452:	4b2e      	ldr	r3, [pc, #184]	; (40150c <PVTrack+0xcc>)
  401454:	4798      	blx	r3
  401456:	1da9      	adds	r1, r5, #6
  401458:	482b      	ldr	r0, [pc, #172]	; (401508 <PVTrack+0xc8>)
  40145a:	4b2d      	ldr	r3, [pc, #180]	; (401510 <PVTrack+0xd0>)
  40145c:	4798      	blx	r3
  40145e:	4b2d      	ldr	r3, [pc, #180]	; (401514 <PVTrack+0xd4>)
  401460:	4798      	blx	r3
  401462:	9001      	str	r0, [sp, #4]
  401464:	f8bd 3006 	ldrh.w	r3, [sp, #6]
  401468:	846b      	strh	r3, [r5, #34]	; 0x22
  40146a:	f8bd 3004 	ldrh.w	r3, [sp, #4]
  40146e:	842b      	strh	r3, [r5, #32]
  401470:	4d29      	ldr	r5, [pc, #164]	; (401518 <PVTrack+0xd8>)
  401472:	782b      	ldrb	r3, [r5, #0]
  401474:	4604      	mov	r4, r0
  401476:	b97b      	cbnz	r3, 401498 <PVTrack+0x58>
  401478:	683f      	ldr	r7, [r7, #0]
  40147a:	f107 4100 	add.w	r1, r7, #2147483648	; 0x80000000
  40147e:	47b0      	blx	r6
  401480:	b140      	cbz	r0, 401494 <PVTrack+0x54>
  401482:	4639      	mov	r1, r7
  401484:	4620      	mov	r0, r4
  401486:	4b25      	ldr	r3, [pc, #148]	; (40151c <PVTrack+0xdc>)
  401488:	4798      	blx	r3
  40148a:	b118      	cbz	r0, 401494 <PVTrack+0x54>
  40148c:	4620      	mov	r0, r4
  40148e:	4b24      	ldr	r3, [pc, #144]	; (401520 <PVTrack+0xe0>)
  401490:	4798      	blx	r3
  401492:	e028      	b.n	4014e6 <PVTrack+0xa6>
  401494:	2301      	movs	r3, #1
  401496:	e025      	b.n	4014e4 <PVTrack+0xa4>
  401498:	4922      	ldr	r1, [pc, #136]	; (401524 <PVTrack+0xe4>)
  40149a:	47b0      	blx	r6
  40149c:	b1b0      	cbz	r0, 4014cc <PVTrack+0x8c>
  40149e:	f8df 907c 	ldr.w	r9, [pc, #124]	; 40151c <PVTrack+0xdc>
  4014a2:	4921      	ldr	r1, [pc, #132]	; (401528 <PVTrack+0xe8>)
  4014a4:	4620      	mov	r0, r4
  4014a6:	47c8      	blx	r9
  4014a8:	b180      	cbz	r0, 4014cc <PVTrack+0x8c>
  4014aa:	4620      	mov	r0, r4
  4014ac:	4b1f      	ldr	r3, [pc, #124]	; (40152c <PVTrack+0xec>)
  4014ae:	4798      	blx	r3
  4014b0:	f8d7 a000 	ldr.w	sl, [r7]
  4014b4:	f10a 4100 	add.w	r1, sl, #2147483648	; 0x80000000
  4014b8:	4680      	mov	r8, r0
  4014ba:	47b0      	blx	r6
  4014bc:	b130      	cbz	r0, 4014cc <PVTrack+0x8c>
  4014be:	4651      	mov	r1, sl
  4014c0:	4640      	mov	r0, r8
  4014c2:	47c8      	blx	r9
  4014c4:	b110      	cbz	r0, 4014cc <PVTrack+0x8c>
  4014c6:	4640      	mov	r0, r8
  4014c8:	4b15      	ldr	r3, [pc, #84]	; (401520 <PVTrack+0xe0>)
  4014ca:	4798      	blx	r3
  4014cc:	683f      	ldr	r7, [r7, #0]
  4014ce:	4620      	mov	r0, r4
  4014d0:	f107 4100 	add.w	r1, r7, #2147483648	; 0x80000000
  4014d4:	47b0      	blx	r6
  4014d6:	b130      	cbz	r0, 4014e6 <PVTrack+0xa6>
  4014d8:	4639      	mov	r1, r7
  4014da:	4620      	mov	r0, r4
  4014dc:	4b0f      	ldr	r3, [pc, #60]	; (40151c <PVTrack+0xdc>)
  4014de:	4798      	blx	r3
  4014e0:	b108      	cbz	r0, 4014e6 <PVTrack+0xa6>
  4014e2:	2300      	movs	r3, #0
  4014e4:	702b      	strb	r3, [r5, #0]
  4014e6:	4b12      	ldr	r3, [pc, #72]	; (401530 <PVTrack+0xf0>)
  4014e8:	2200      	movs	r2, #0
  4014ea:	701a      	strb	r2, [r3, #0]
  4014ec:	4b11      	ldr	r3, [pc, #68]	; (401534 <PVTrack+0xf4>)
  4014ee:	b002      	add	sp, #8
  4014f0:	e8bd 47f0 	ldmia.w	sp!, {r4, r5, r6, r7, r8, r9, sl, lr}
  4014f4:	4718      	bx	r3
  4014f6:	bf00      	nop
  4014f8:	20000484 	.word	0x20000484
  4014fc:	004026f5 	.word	0x004026f5
  401500:	20000014 	.word	0x20000014
  401504:	004075f5 	.word	0x004075f5
  401508:	40018000 	.word	0x40018000
  40150c:	00400195 	.word	0x00400195
  401510:	004001d5 	.word	0x004001d5
  401514:	00400bb9 	.word	0x00400bb9
  401518:	200004d0 	.word	0x200004d0
  40151c:	004075e1 	.word	0x004075e1
  401520:	00400a6d 	.word	0x00400a6d
  401524:	c2b40000 	.word	0xc2b40000
  401528:	42b40000 	.word	0x42b40000
  40152c:	00401355 	.word	0x00401355
  401530:	200004d1 	.word	0x200004d1
  401534:	00402715 	.word	0x00402715

00401538 <vPvTrackerTask>:
  401538:	b5f7      	push	{r0, r1, r2, r4, r5, r6, r7, lr}
  40153a:	2300      	movs	r3, #0
  40153c:	f88d 3007 	strb.w	r3, [sp, #7]
  401540:	2169      	movs	r1, #105	; 0x69
  401542:	4813      	ldr	r0, [pc, #76]	; (401590 <vPvTrackerTask+0x58>)
  401544:	4b13      	ldr	r3, [pc, #76]	; (401594 <vPvTrackerTask+0x5c>)
  401546:	4e14      	ldr	r6, [pc, #80]	; (401598 <vPvTrackerTask+0x60>)
  401548:	4f14      	ldr	r7, [pc, #80]	; (40159c <vPvTrackerTask+0x64>)
  40154a:	4798      	blx	r3
  40154c:	2101      	movs	r1, #1
  40154e:	4810      	ldr	r0, [pc, #64]	; (401590 <vPvTrackerTask+0x58>)
  401550:	4b13      	ldr	r3, [pc, #76]	; (4015a0 <vPvTrackerTask+0x68>)
  401552:	4798      	blx	r3
  401554:	f10d 0207 	add.w	r2, sp, #7
  401558:	210f      	movs	r1, #15
  40155a:	480d      	ldr	r0, [pc, #52]	; (401590 <vPvTrackerTask+0x58>)
  40155c:	47b0      	blx	r6
  40155e:	f89d 3007 	ldrb.w	r3, [sp, #7]
  401562:	079b      	lsls	r3, r3, #30
  401564:	d503      	bpl.n	40156e <vPvTrackerTask+0x36>
  401566:	2200      	movs	r2, #0
  401568:	210f      	movs	r1, #15
  40156a:	4809      	ldr	r0, [pc, #36]	; (401590 <vPvTrackerTask+0x58>)
  40156c:	47b8      	blx	r7
  40156e:	4b0d      	ldr	r3, [pc, #52]	; (4015a4 <vPvTrackerTask+0x6c>)
  401570:	8e1d      	ldrh	r5, [r3, #48]	; 0x30
  401572:	b93d      	cbnz	r5, 401584 <vPvTrackerTask+0x4c>
  401574:	4c0c      	ldr	r4, [pc, #48]	; (4015a8 <vPvTrackerTask+0x70>)
  401576:	7823      	ldrb	r3, [r4, #0]
  401578:	2b02      	cmp	r3, #2
  40157a:	d905      	bls.n	401588 <vPvTrackerTask+0x50>
  40157c:	4b0b      	ldr	r3, [pc, #44]	; (4015ac <vPvTrackerTask+0x74>)
  40157e:	4798      	blx	r3
  401580:	7025      	strb	r5, [r4, #0]
  401582:	e001      	b.n	401588 <vPvTrackerTask+0x50>
  401584:	4b0a      	ldr	r3, [pc, #40]	; (4015b0 <vPvTrackerTask+0x78>)
  401586:	4798      	blx	r3
  401588:	2028      	movs	r0, #40	; 0x28
  40158a:	4b0a      	ldr	r3, [pc, #40]	; (4015b4 <vPvTrackerTask+0x7c>)
  40158c:	4798      	blx	r3
  40158e:	e7e1      	b.n	401554 <vPvTrackerTask+0x1c>
  401590:	40018000 	.word	0x40018000
  401594:	00400349 	.word	0x00400349
  401598:	004002f9 	.word	0x004002f9
  40159c:	0040021d 	.word	0x0040021d
  4015a0:	004002a1 	.word	0x004002a1
  4015a4:	20000484 	.word	0x20000484
  4015a8:	200004d1 	.word	0x200004d1
  4015ac:	00401441 	.word	0x00401441
  4015b0:	004012b5 	.word	0x004012b5
  4015b4:	004032e5 	.word	0x004032e5

004015b8 <InitRs485Pdc>:
  4015b8:	b530      	push	{r4, r5, lr}
  4015ba:	4d11      	ldr	r5, [pc, #68]	; (401600 <InitRs485Pdc+0x48>)
  4015bc:	cd0f      	ldmia	r5!, {r0, r1, r2, r3}
  4015be:	b087      	sub	sp, #28
  4015c0:	466c      	mov	r4, sp
  4015c2:	c40f      	stmia	r4!, {r0, r1, r2, r3}
  4015c4:	e895 0003 	ldmia.w	r5, {r0, r1}
  4015c8:	e884 0003 	stmia.w	r4, {r0, r1}
  4015cc:	4c0d      	ldr	r4, [pc, #52]	; (401604 <InitRs485Pdc+0x4c>)
  4015ce:	4b0e      	ldr	r3, [pc, #56]	; (401608 <InitRs485Pdc+0x50>)
  4015d0:	200f      	movs	r0, #15
  4015d2:	4798      	blx	r3
  4015d4:	4a0d      	ldr	r2, [pc, #52]	; (40160c <InitRs485Pdc+0x54>)
  4015d6:	4b0e      	ldr	r3, [pc, #56]	; (401610 <InitRs485Pdc+0x58>)
  4015d8:	4669      	mov	r1, sp
  4015da:	4620      	mov	r0, r4
  4015dc:	4798      	blx	r3
  4015de:	4620      	mov	r0, r4
  4015e0:	4b0c      	ldr	r3, [pc, #48]	; (401614 <InitRs485Pdc+0x5c>)
  4015e2:	4798      	blx	r3
  4015e4:	4620      	mov	r0, r4
  4015e6:	4b0c      	ldr	r3, [pc, #48]	; (401618 <InitRs485Pdc+0x60>)
  4015e8:	4798      	blx	r3
  4015ea:	4620      	mov	r0, r4
  4015ec:	4b0b      	ldr	r3, [pc, #44]	; (40161c <InitRs485Pdc+0x64>)
  4015ee:	4798      	blx	r3
  4015f0:	4b0b      	ldr	r3, [pc, #44]	; (401620 <InitRs485Pdc+0x68>)
  4015f2:	f240 1101 	movw	r1, #257	; 0x101
  4015f6:	6018      	str	r0, [r3, #0]
  4015f8:	4b0a      	ldr	r3, [pc, #40]	; (401624 <InitRs485Pdc+0x6c>)
  4015fa:	4798      	blx	r3
  4015fc:	b007      	add	sp, #28
  4015fe:	bd30      	pop	{r4, r5, pc}
  401600:	00407a4c 	.word	0x00407a4c
  401604:	40028000 	.word	0x40028000
  401608:	00402409 	.word	0x00402409
  40160c:	07270e00 	.word	0x07270e00
  401610:	00401d79 	.word	0x00401d79
  401614:	00401d99 	.word	0x00401d99
  401618:	00401da5 	.word	0x00401da5
  40161c:	00401dd1 	.word	0x00401dd1
  401620:	2000271c 	.word	0x2000271c
  401624:	00401a81 	.word	0x00401a81

00401628 <Rs485PdcStartTx>:
  401628:	4b04      	ldr	r3, [pc, #16]	; (40163c <Rs485PdcStartTx+0x14>)
  40162a:	e883 0003 	stmia.w	r3, {r0, r1}
  40162e:	4619      	mov	r1, r3
  401630:	4b03      	ldr	r3, [pc, #12]	; (401640 <Rs485PdcStartTx+0x18>)
  401632:	2200      	movs	r2, #0
  401634:	6818      	ldr	r0, [r3, #0]
  401636:	4b03      	ldr	r3, [pc, #12]	; (401644 <Rs485PdcStartTx+0x1c>)
  401638:	4718      	bx	r3
  40163a:	bf00      	nop
  40163c:	20002720 	.word	0x20002720
  401640:	2000271c 	.word	0x2000271c
  401644:	00401a55 	.word	0x00401a55

00401648 <Rs485PdcStartRx>:
  401648:	4b04      	ldr	r3, [pc, #16]	; (40165c <Rs485PdcStartRx+0x14>)
  40164a:	e883 0003 	stmia.w	r3, {r0, r1}
  40164e:	4619      	mov	r1, r3
  401650:	4b03      	ldr	r3, [pc, #12]	; (401660 <Rs485PdcStartRx+0x18>)
  401652:	2200      	movs	r2, #0
  401654:	6818      	ldr	r0, [r3, #0]
  401656:	4b03      	ldr	r3, [pc, #12]	; (401664 <Rs485PdcStartRx+0x1c>)
  401658:	4718      	bx	r3
  40165a:	bf00      	nop
  40165c:	20002720 	.word	0x20002720
  401660:	2000271c 	.word	0x2000271c
  401664:	00401a6b 	.word	0x00401a6b

00401668 <Rs485PdcGetRxBytes>:
  401668:	b508      	push	{r3, lr}
  40166a:	4b05      	ldr	r3, [pc, #20]	; (401680 <Rs485PdcGetRxBytes+0x18>)
  40166c:	6818      	ldr	r0, [r3, #0]
  40166e:	4b05      	ldr	r3, [pc, #20]	; (401684 <Rs485PdcGetRxBytes+0x1c>)
  401670:	4798      	blx	r3
  401672:	f1c0 0096 	rsb	r0, r0, #150	; 0x96
  401676:	2897      	cmp	r0, #151	; 0x97
  401678:	bf28      	it	cs
  40167a:	2000      	movcs	r0, #0
  40167c:	bd08      	pop	{r3, pc}
  40167e:	bf00      	nop
  401680:	2000271c 	.word	0x2000271c
  401684:	00401a9d 	.word	0x00401a9d

00401688 <Rs485PdcGetTxStatus>:
  401688:	b508      	push	{r3, lr}
  40168a:	4803      	ldr	r0, [pc, #12]	; (401698 <Rs485PdcGetTxStatus+0x10>)
  40168c:	4b03      	ldr	r3, [pc, #12]	; (40169c <Rs485PdcGetTxStatus+0x14>)
  40168e:	4798      	blx	r3
  401690:	f000 0010 	and.w	r0, r0, #16
  401694:	bd08      	pop	{r3, pc}
  401696:	bf00      	nop
  401698:	40028000 	.word	0x40028000
  40169c:	00401dbd 	.word	0x00401dbd

004016a0 <local_twi_handler>:
  4016a0:	e92d 4ff0 	stmdb	sp!, {r4, r5, r6, r7, r8, r9, sl, fp, lr}
  4016a4:	ea4f 1900 	mov.w	r9, r0, lsl #4
  4016a8:	f8df a1bc 	ldr.w	sl, [pc, #444]	; 401868 <local_twi_handler+0x1c8>
  4016ac:	4b65      	ldr	r3, [pc, #404]	; (401844 <local_twi_handler+0x1a4>)
  4016ae:	f85a 4009 	ldr.w	r4, [sl, r9]
  4016b2:	b085      	sub	sp, #20
  4016b4:	4606      	mov	r6, r0
  4016b6:	2500      	movs	r5, #0
  4016b8:	4620      	mov	r0, r4
  4016ba:	9503      	str	r5, [sp, #12]
  4016bc:	4798      	blx	r3
  4016be:	4b62      	ldr	r3, [pc, #392]	; (401848 <local_twi_handler+0x1a8>)
  4016c0:	4607      	mov	r7, r0
  4016c2:	4620      	mov	r0, r4
  4016c4:	4798      	blx	r3
  4016c6:	ea07 0300 	and.w	r3, r7, r0
  4016ca:	f413 5800 	ands.w	r8, r3, #8192	; 0x2000
  4016ce:	eb0a 0b09 	add.w	fp, sl, r9
  4016d2:	9301      	str	r3, [sp, #4]
  4016d4:	d03d      	beq.n	401752 <local_twi_handler+0xb2>
  4016d6:	f44f 7100 	mov.w	r1, #512	; 0x200
  4016da:	f8db 0004 	ldr.w	r0, [fp, #4]
  4016de:	4b5b      	ldr	r3, [pc, #364]	; (40184c <local_twi_handler+0x1ac>)
  4016e0:	4798      	blx	r3
  4016e2:	f44f 5100 	mov.w	r1, #8192	; 0x2000
  4016e6:	4620      	mov	r0, r4
  4016e8:	4b59      	ldr	r3, [pc, #356]	; (401850 <local_twi_handler+0x1b0>)
  4016ea:	4798      	blx	r3
  4016ec:	6a23      	ldr	r3, [r4, #32]
  4016ee:	075f      	lsls	r7, r3, #29
  4016f0:	d405      	bmi.n	4016fe <local_twi_handler+0x5e>
  4016f2:	3501      	adds	r5, #1
  4016f4:	1c68      	adds	r0, r5, #1
  4016f6:	d1f9      	bne.n	4016ec <local_twi_handler+0x4c>
  4016f8:	f04f 0801 	mov.w	r8, #1
  4016fc:	e001      	b.n	401702 <local_twi_handler+0x62>
  4016fe:	f04f 0800 	mov.w	r8, #0
  401702:	4a54      	ldr	r2, [pc, #336]	; (401854 <local_twi_handler+0x1b4>)
  401704:	2302      	movs	r3, #2
  401706:	6023      	str	r3, [r4, #0]
  401708:	00f3      	lsls	r3, r6, #3
  40170a:	18d0      	adds	r0, r2, r3
  40170c:	f852 1036 	ldr.w	r1, [r2, r6, lsl #3]
  401710:	6842      	ldr	r2, [r0, #4]
  401712:	440a      	add	r2, r1
  401714:	f812 2c01 	ldrb.w	r2, [r2, #-1]
  401718:	6362      	str	r2, [r4, #52]	; 0x34
  40171a:	6a22      	ldr	r2, [r4, #32]
  40171c:	07d1      	lsls	r1, r2, #31
  40171e:	d404      	bmi.n	40172a <local_twi_handler+0x8a>
  401720:	3501      	adds	r5, #1
  401722:	1c6a      	adds	r2, r5, #1
  401724:	d1f9      	bne.n	40171a <local_twi_handler+0x7a>
  401726:	f04f 0801 	mov.w	r8, #1
  40172a:	4a4b      	ldr	r2, [pc, #300]	; (401858 <local_twi_handler+0x1b8>)
  40172c:	4413      	add	r3, r2
  40172e:	4693      	mov	fp, r2
  401730:	6858      	ldr	r0, [r3, #4]
  401732:	b120      	cbz	r0, 40173e <local_twi_handler+0x9e>
  401734:	2300      	movs	r3, #0
  401736:	aa03      	add	r2, sp, #12
  401738:	4619      	mov	r1, r3
  40173a:	4f48      	ldr	r7, [pc, #288]	; (40185c <local_twi_handler+0x1bc>)
  40173c:	47b8      	blx	r7
  40173e:	3501      	adds	r5, #1
  401740:	d007      	beq.n	401752 <local_twi_handler+0xb2>
  401742:	f85b 0036 	ldr.w	r0, [fp, r6, lsl #3]
  401746:	b120      	cbz	r0, 401752 <local_twi_handler+0xb2>
  401748:	2300      	movs	r3, #0
  40174a:	aa03      	add	r2, sp, #12
  40174c:	4619      	mov	r1, r3
  40174e:	4d43      	ldr	r5, [pc, #268]	; (40185c <local_twi_handler+0x1bc>)
  401750:	47a8      	blx	r5
  401752:	9b01      	ldr	r3, [sp, #4]
  401754:	04db      	lsls	r3, r3, #19
  401756:	d547      	bpl.n	4017e8 <local_twi_handler+0x148>
  401758:	eb0a 0309 	add.w	r3, sl, r9
  40175c:	2102      	movs	r1, #2
  40175e:	6858      	ldr	r0, [r3, #4]
  401760:	4b3a      	ldr	r3, [pc, #232]	; (40184c <local_twi_handler+0x1ac>)
  401762:	4798      	blx	r3
  401764:	f44f 5180 	mov.w	r1, #4096	; 0x1000
  401768:	4620      	mov	r0, r4
  40176a:	4b39      	ldr	r3, [pc, #228]	; (401850 <local_twi_handler+0x1b0>)
  40176c:	4798      	blx	r3
  40176e:	2500      	movs	r5, #0
  401770:	6a23      	ldr	r3, [r4, #32]
  401772:	079f      	lsls	r7, r3, #30
  401774:	d402      	bmi.n	40177c <local_twi_handler+0xdc>
  401776:	3501      	adds	r5, #1
  401778:	1c68      	adds	r0, r5, #1
  40177a:	d1f9      	bne.n	401770 <local_twi_handler+0xd0>
  40177c:	2302      	movs	r3, #2
  40177e:	4935      	ldr	r1, [pc, #212]	; (401854 <local_twi_handler+0x1b4>)
  401780:	6023      	str	r3, [r4, #0]
  401782:	00f3      	lsls	r3, r6, #3
  401784:	f851 0036 	ldr.w	r0, [r1, r6, lsl #3]
  401788:	4419      	add	r1, r3
  40178a:	684a      	ldr	r2, [r1, #4]
  40178c:	6b21      	ldr	r1, [r4, #48]	; 0x30
  40178e:	4402      	add	r2, r0
  401790:	f802 1c02 	strb.w	r1, [r2, #-2]
  401794:	6a21      	ldr	r1, [r4, #32]
  401796:	0789      	lsls	r1, r1, #30
  401798:	d403      	bmi.n	4017a2 <local_twi_handler+0x102>
  40179a:	3501      	adds	r5, #1
  40179c:	1c6f      	adds	r7, r5, #1
  40179e:	d1f9      	bne.n	401794 <local_twi_handler+0xf4>
  4017a0:	e00d      	b.n	4017be <local_twi_handler+0x11e>
  4017a2:	1c68      	adds	r0, r5, #1
  4017a4:	d00b      	beq.n	4017be <local_twi_handler+0x11e>
  4017a6:	6b21      	ldr	r1, [r4, #48]	; 0x30
  4017a8:	f802 1c01 	strb.w	r1, [r2, #-1]
  4017ac:	2500      	movs	r5, #0
  4017ae:	6a22      	ldr	r2, [r4, #32]
  4017b0:	07d1      	lsls	r1, r2, #31
  4017b2:	d404      	bmi.n	4017be <local_twi_handler+0x11e>
  4017b4:	3501      	adds	r5, #1
  4017b6:	1c6a      	adds	r2, r5, #1
  4017b8:	d1f9      	bne.n	4017ae <local_twi_handler+0x10e>
  4017ba:	f04f 0801 	mov.w	r8, #1
  4017be:	4a26      	ldr	r2, [pc, #152]	; (401858 <local_twi_handler+0x1b8>)
  4017c0:	4413      	add	r3, r2
  4017c2:	6858      	ldr	r0, [r3, #4]
  4017c4:	b128      	cbz	r0, 4017d2 <local_twi_handler+0x132>
  4017c6:	2300      	movs	r3, #0
  4017c8:	aa03      	add	r2, sp, #12
  4017ca:	4619      	mov	r1, r3
  4017cc:	f8df b08c 	ldr.w	fp, [pc, #140]	; 40185c <local_twi_handler+0x1bc>
  4017d0:	47d8      	blx	fp
  4017d2:	3501      	adds	r5, #1
  4017d4:	d008      	beq.n	4017e8 <local_twi_handler+0x148>
  4017d6:	4b22      	ldr	r3, [pc, #136]	; (401860 <local_twi_handler+0x1c0>)
  4017d8:	f853 0036 	ldr.w	r0, [r3, r6, lsl #3]
  4017dc:	b120      	cbz	r0, 4017e8 <local_twi_handler+0x148>
  4017de:	2300      	movs	r3, #0
  4017e0:	aa03      	add	r2, sp, #12
  4017e2:	4619      	mov	r1, r3
  4017e4:	4d1d      	ldr	r5, [pc, #116]	; (40185c <local_twi_handler+0x1bc>)
  4017e6:	47a8      	blx	r5
  4017e8:	9b01      	ldr	r3, [sp, #4]
  4017ea:	f413 7f50 	tst.w	r3, #832	; 0x340
  4017ee:	d102      	bne.n	4017f6 <local_twi_handler+0x156>
  4017f0:	f1b8 0f00 	cmp.w	r8, #0
  4017f4:	d01e      	beq.n	401834 <local_twi_handler+0x194>
  4017f6:	44d1      	add	r9, sl
  4017f8:	f240 2102 	movw	r1, #514	; 0x202
  4017fc:	f8d9 0004 	ldr.w	r0, [r9, #4]
  401800:	4b12      	ldr	r3, [pc, #72]	; (40184c <local_twi_handler+0x1ac>)
  401802:	4d13      	ldr	r5, [pc, #76]	; (401850 <local_twi_handler+0x1b0>)
  401804:	4798      	blx	r3
  401806:	9b01      	ldr	r3, [sp, #4]
  401808:	05db      	lsls	r3, r3, #23
  40180a:	bf5c      	itt	pl
  40180c:	2302      	movpl	r3, #2
  40180e:	6023      	strpl	r3, [r4, #0]
  401810:	f44f 5100 	mov.w	r1, #8192	; 0x2000
  401814:	4620      	mov	r0, r4
  401816:	47a8      	blx	r5
  401818:	4620      	mov	r0, r4
  40181a:	f44f 5180 	mov.w	r1, #4096	; 0x1000
  40181e:	47a8      	blx	r5
  401820:	4b0d      	ldr	r3, [pc, #52]	; (401858 <local_twi_handler+0x1b8>)
  401822:	eb03 06c6 	add.w	r6, r3, r6, lsl #3
  401826:	6870      	ldr	r0, [r6, #4]
  401828:	b120      	cbz	r0, 401834 <local_twi_handler+0x194>
  40182a:	2300      	movs	r3, #0
  40182c:	aa03      	add	r2, sp, #12
  40182e:	4619      	mov	r1, r3
  401830:	4c0a      	ldr	r4, [pc, #40]	; (40185c <local_twi_handler+0x1bc>)
  401832:	47a0      	blx	r4
  401834:	9b03      	ldr	r3, [sp, #12]
  401836:	b10b      	cbz	r3, 40183c <local_twi_handler+0x19c>
  401838:	4b0a      	ldr	r3, [pc, #40]	; (401864 <local_twi_handler+0x1c4>)
  40183a:	4798      	blx	r3
  40183c:	b005      	add	sp, #20
  40183e:	e8bd 8ff0 	ldmia.w	sp!, {r4, r5, r6, r7, r8, r9, sl, fp, pc}
  401842:	bf00      	nop
  401844:	00401cb3 	.word	0x00401cb3
  401848:	00401cb7 	.word	0x00401cb7
  40184c:	00401a8d 	.word	0x00401a8d
  401850:	00401cad 	.word	0x00401cad
  401854:	200004e4 	.word	0x200004e4
  401858:	200004f4 	.word	0x200004f4
  40185c:	00402c1d 	.word	0x00402c1d
  401860:	200004d4 	.word	0x200004d4
  401864:	004026d5 	.word	0x004026d5
  401868:	00407a64 	.word	0x00407a64

0040186c <TWI0_Handler>:
  40186c:	2000      	movs	r0, #0
  40186e:	4b01      	ldr	r3, [pc, #4]	; (401874 <TWI0_Handler+0x8>)
  401870:	4718      	bx	r3
  401872:	bf00      	nop
  401874:	004016a1 	.word	0x004016a1

00401878 <TWI1_Handler>:
  401878:	2001      	movs	r0, #1
  40187a:	4b01      	ldr	r3, [pc, #4]	; (401880 <TWI1_Handler+0x8>)
  40187c:	4718      	bx	r3
  40187e:	bf00      	nop
  401880:	004016a1 	.word	0x004016a1

00401884 <configure_rx_dma>:
  401884:	b570      	push	{r4, r5, r6, lr}
  401886:	4c1c      	ldr	r4, [pc, #112]	; (4018f8 <configure_rx_dma+0x74>)
  401888:	231c      	movs	r3, #28
  40188a:	fb03 4300 	mla	r3, r3, r0, r4
  40188e:	699d      	ldr	r5, [r3, #24]
  401890:	689a      	ldr	r2, [r3, #8]
  401892:	4295      	cmp	r5, r2
  401894:	d101      	bne.n	40189a <configure_rx_dma+0x16>
  401896:	b921      	cbnz	r1, 4018a2 <configure_rx_dma+0x1e>
  401898:	e005      	b.n	4018a6 <configure_rx_dma+0x22>
  40189a:	d902      	bls.n	4018a2 <configure_rx_dma+0x1e>
  40189c:	1aad      	subs	r5, r5, r2
  40189e:	60dd      	str	r5, [r3, #12]
  4018a0:	e002      	b.n	4018a8 <configure_rx_dma+0x24>
  4018a2:	6859      	ldr	r1, [r3, #4]
  4018a4:	1a89      	subs	r1, r1, r2
  4018a6:	60d9      	str	r1, [r3, #12]
  4018a8:	211c      	movs	r1, #28
  4018aa:	4341      	muls	r1, r0
  4018ac:	1863      	adds	r3, r4, r1
  4018ae:	68de      	ldr	r6, [r3, #12]
  4018b0:	685b      	ldr	r3, [r3, #4]
  4018b2:	4432      	add	r2, r6
  4018b4:	429a      	cmp	r2, r3
  4018b6:	d903      	bls.n	4018c0 <configure_rx_dma+0x3c>
  4018b8:	4b10      	ldr	r3, [pc, #64]	; (4018fc <configure_rx_dma+0x78>)
  4018ba:	4798      	blx	r3
  4018bc:	bf00      	nop
  4018be:	e7fd      	b.n	4018bc <configure_rx_dma+0x38>
  4018c0:	4d0f      	ldr	r5, [pc, #60]	; (401900 <configure_rx_dma+0x7c>)
  4018c2:	0104      	lsls	r4, r0, #4
  4018c4:	b18e      	cbz	r6, 4018ea <configure_rx_dma+0x66>
  4018c6:	192b      	adds	r3, r5, r4
  4018c8:	3108      	adds	r1, #8
  4018ca:	685e      	ldr	r6, [r3, #4]
  4018cc:	4b0a      	ldr	r3, [pc, #40]	; (4018f8 <configure_rx_dma+0x74>)
  4018ce:	2200      	movs	r2, #0
  4018d0:	4419      	add	r1, r3
  4018d2:	4630      	mov	r0, r6
  4018d4:	4b0b      	ldr	r3, [pc, #44]	; (401904 <configure_rx_dma+0x80>)
  4018d6:	4798      	blx	r3
  4018d8:	2101      	movs	r1, #1
  4018da:	4630      	mov	r0, r6
  4018dc:	4b0a      	ldr	r3, [pc, #40]	; (401908 <configure_rx_dma+0x84>)
  4018de:	4798      	blx	r3
  4018e0:	f44f 7184 	mov.w	r1, #264	; 0x108
  4018e4:	5928      	ldr	r0, [r5, r4]
  4018e6:	4b09      	ldr	r3, [pc, #36]	; (40190c <configure_rx_dma+0x88>)
  4018e8:	e003      	b.n	4018f2 <configure_rx_dma+0x6e>
  4018ea:	5928      	ldr	r0, [r5, r4]
  4018ec:	4b08      	ldr	r3, [pc, #32]	; (401910 <configure_rx_dma+0x8c>)
  4018ee:	f44f 7184 	mov.w	r1, #264	; 0x108
  4018f2:	e8bd 4070 	ldmia.w	sp!, {r4, r5, r6, lr}
  4018f6:	4718      	bx	r3
  4018f8:	20000504 	.word	0x20000504
  4018fc:	004026e5 	.word	0x004026e5
  401900:	00407a84 	.word	0x00407a84
  401904:	00401a6b 	.word	0x00401a6b
  401908:	00401a81 	.word	0x00401a81
  40190c:	00401db1 	.word	0x00401db1
  401910:	00401db5 	.word	0x00401db5

00401914 <local_usart_handler>:
  401914:	e92d 41f3 	stmdb	sp!, {r0, r1, r4, r5, r6, r7, r8, lr}
  401918:	0103      	lsls	r3, r0, #4
  40191a:	4a3c      	ldr	r2, [pc, #240]	; (401a0c <local_usart_handler+0xf8>)
  40191c:	58d6      	ldr	r6, [r2, r3]
  40191e:	4b3c      	ldr	r3, [pc, #240]	; (401a10 <local_usart_handler+0xfc>)
  401920:	4604      	mov	r4, r0
  401922:	f04f 0800 	mov.w	r8, #0
  401926:	4630      	mov	r0, r6
  401928:	f8cd 8004 	str.w	r8, [sp, #4]
  40192c:	4798      	blx	r3
  40192e:	4b39      	ldr	r3, [pc, #228]	; (401a14 <local_usart_handler+0x100>)
  401930:	4605      	mov	r5, r0
  401932:	4630      	mov	r0, r6
  401934:	4798      	blx	r3
  401936:	4005      	ands	r5, r0
  401938:	06e9      	lsls	r1, r5, #27
  40193a:	d517      	bpl.n	40196c <local_usart_handler+0x58>
  40193c:	4630      	mov	r0, r6
  40193e:	4b36      	ldr	r3, [pc, #216]	; (401a18 <local_usart_handler+0x104>)
  401940:	2110      	movs	r1, #16
  401942:	4798      	blx	r3
  401944:	4b35      	ldr	r3, [pc, #212]	; (401a1c <local_usart_handler+0x108>)
  401946:	eb03 02c4 	add.w	r2, r3, r4, lsl #3
  40194a:	461f      	mov	r7, r3
  40194c:	6850      	ldr	r0, [r2, #4]
  40194e:	b128      	cbz	r0, 40195c <local_usart_handler+0x48>
  401950:	4643      	mov	r3, r8
  401952:	4641      	mov	r1, r8
  401954:	aa01      	add	r2, sp, #4
  401956:	f8df 80c8 	ldr.w	r8, [pc, #200]	; 401a20 <local_usart_handler+0x10c>
  40195a:	47c0      	blx	r8
  40195c:	f857 0034 	ldr.w	r0, [r7, r4, lsl #3]
  401960:	b120      	cbz	r0, 40196c <local_usart_handler+0x58>
  401962:	2300      	movs	r3, #0
  401964:	aa01      	add	r2, sp, #4
  401966:	4619      	mov	r1, r3
  401968:	4f2d      	ldr	r7, [pc, #180]	; (401a20 <local_usart_handler+0x10c>)
  40196a:	47b8      	blx	r7
  40196c:	072a      	lsls	r2, r5, #28
  40196e:	d526      	bpl.n	4019be <local_usart_handler+0xaa>
  401970:	4f2c      	ldr	r7, [pc, #176]	; (401a24 <local_usart_handler+0x110>)
  401972:	221c      	movs	r2, #28
  401974:	4362      	muls	r2, r4
  401976:	18bb      	adds	r3, r7, r2
  401978:	6999      	ldr	r1, [r3, #24]
  40197a:	b919      	cbnz	r1, 401984 <local_usart_handler+0x70>
  40197c:	4b2a      	ldr	r3, [pc, #168]	; (401a28 <local_usart_handler+0x114>)
  40197e:	4798      	blx	r3
  401980:	bf00      	nop
  401982:	e7fd      	b.n	401980 <local_usart_handler+0x6c>
  401984:	2901      	cmp	r1, #1
  401986:	d103      	bne.n	401990 <local_usart_handler+0x7c>
  401988:	4b27      	ldr	r3, [pc, #156]	; (401a28 <local_usart_handler+0x114>)
  40198a:	4798      	blx	r3
  40198c:	bf00      	nop
  40198e:	e7fd      	b.n	40198c <local_usart_handler+0x78>
  401990:	6898      	ldr	r0, [r3, #8]
  401992:	68d9      	ldr	r1, [r3, #12]
  401994:	4401      	add	r1, r0
  401996:	6858      	ldr	r0, [r3, #4]
  401998:	6099      	str	r1, [r3, #8]
  40199a:	4281      	cmp	r1, r0
  40199c:	bf24      	itt	cs
  40199e:	58ba      	ldrcs	r2, [r7, r2]
  4019a0:	609a      	strcs	r2, [r3, #8]
  4019a2:	4620      	mov	r0, r4
  4019a4:	4b21      	ldr	r3, [pc, #132]	; (401a2c <local_usart_handler+0x118>)
  4019a6:	2100      	movs	r1, #0
  4019a8:	4798      	blx	r3
  4019aa:	231c      	movs	r3, #28
  4019ac:	fb03 7704 	mla	r7, r3, r4, r7
  4019b0:	6938      	ldr	r0, [r7, #16]
  4019b2:	b120      	cbz	r0, 4019be <local_usart_handler+0xaa>
  4019b4:	2300      	movs	r3, #0
  4019b6:	aa01      	add	r2, sp, #4
  4019b8:	4619      	mov	r1, r3
  4019ba:	4f19      	ldr	r7, [pc, #100]	; (401a20 <local_usart_handler+0x10c>)
  4019bc:	47b8      	blx	r7
  4019be:	05eb      	lsls	r3, r5, #23
  4019c0:	d50d      	bpl.n	4019de <local_usart_handler+0xca>
  4019c2:	4630      	mov	r0, r6
  4019c4:	4b1a      	ldr	r3, [pc, #104]	; (401a30 <local_usart_handler+0x11c>)
  4019c6:	4798      	blx	r3
  4019c8:	4a16      	ldr	r2, [pc, #88]	; (401a24 <local_usart_handler+0x110>)
  4019ca:	231c      	movs	r3, #28
  4019cc:	fb03 2304 	mla	r3, r3, r4, r2
  4019d0:	6918      	ldr	r0, [r3, #16]
  4019d2:	b120      	cbz	r0, 4019de <local_usart_handler+0xca>
  4019d4:	2300      	movs	r3, #0
  4019d6:	aa01      	add	r2, sp, #4
  4019d8:	4619      	mov	r1, r3
  4019da:	4f11      	ldr	r7, [pc, #68]	; (401a20 <local_usart_handler+0x10c>)
  4019dc:	47b8      	blx	r7
  4019de:	f015 0fe0 	tst.w	r5, #224	; 0xe0
  4019e2:	d00c      	beq.n	4019fe <local_usart_handler+0xea>
  4019e4:	4630      	mov	r0, r6
  4019e6:	4b13      	ldr	r3, [pc, #76]	; (401a34 <local_usart_handler+0x120>)
  4019e8:	4798      	blx	r3
  4019ea:	4b0c      	ldr	r3, [pc, #48]	; (401a1c <local_usart_handler+0x108>)
  4019ec:	eb03 04c4 	add.w	r4, r3, r4, lsl #3
  4019f0:	6860      	ldr	r0, [r4, #4]
  4019f2:	b120      	cbz	r0, 4019fe <local_usart_handler+0xea>
  4019f4:	2300      	movs	r3, #0
  4019f6:	aa01      	add	r2, sp, #4
  4019f8:	4619      	mov	r1, r3
  4019fa:	4c09      	ldr	r4, [pc, #36]	; (401a20 <local_usart_handler+0x10c>)
  4019fc:	47a0      	blx	r4
  4019fe:	9b01      	ldr	r3, [sp, #4]
  401a00:	b10b      	cbz	r3, 401a06 <local_usart_handler+0xf2>
  401a02:	4b0d      	ldr	r3, [pc, #52]	; (401a38 <local_usart_handler+0x124>)
  401a04:	4798      	blx	r3
  401a06:	b002      	add	sp, #8
  401a08:	e8bd 81f0 	ldmia.w	sp!, {r4, r5, r6, r7, r8, pc}
  401a0c:	00407a84 	.word	0x00407a84
  401a10:	00401dbd 	.word	0x00401dbd
  401a14:	00401db9 	.word	0x00401db9
  401a18:	00401db5 	.word	0x00401db5
  401a1c:	2000053c 	.word	0x2000053c
  401a20:	00402c1d 	.word	0x00402c1d
  401a24:	20000504 	.word	0x20000504
  401a28:	004026e5 	.word	0x004026e5
  401a2c:	00401885 	.word	0x00401885
  401a30:	00401dc9 	.word	0x00401dc9
  401a34:	00401dc1 	.word	0x00401dc1
  401a38:	004026d5 	.word	0x004026d5

00401a3c <USART0_Handler>:
  401a3c:	2000      	movs	r0, #0
  401a3e:	4b01      	ldr	r3, [pc, #4]	; (401a44 <USART0_Handler+0x8>)
  401a40:	4718      	bx	r3
  401a42:	bf00      	nop
  401a44:	00401915 	.word	0x00401915

00401a48 <USART1_Handler>:
  401a48:	2001      	movs	r0, #1
  401a4a:	4b01      	ldr	r3, [pc, #4]	; (401a50 <USART1_Handler+0x8>)
  401a4c:	4718      	bx	r3
  401a4e:	bf00      	nop
  401a50:	00401915 	.word	0x00401915

00401a54 <pdc_tx_init>:
  401a54:	b119      	cbz	r1, 401a5e <pdc_tx_init+0xa>
  401a56:	680b      	ldr	r3, [r1, #0]
  401a58:	6083      	str	r3, [r0, #8]
  401a5a:	684b      	ldr	r3, [r1, #4]
  401a5c:	60c3      	str	r3, [r0, #12]
  401a5e:	b11a      	cbz	r2, 401a68 <pdc_tx_init+0x14>
  401a60:	6813      	ldr	r3, [r2, #0]
  401a62:	6183      	str	r3, [r0, #24]
  401a64:	6853      	ldr	r3, [r2, #4]
  401a66:	61c3      	str	r3, [r0, #28]
  401a68:	4770      	bx	lr

00401a6a <pdc_rx_init>:
  401a6a:	b119      	cbz	r1, 401a74 <pdc_rx_init+0xa>
  401a6c:	680b      	ldr	r3, [r1, #0]
  401a6e:	6003      	str	r3, [r0, #0]
  401a70:	684b      	ldr	r3, [r1, #4]
  401a72:	6043      	str	r3, [r0, #4]
  401a74:	b11a      	cbz	r2, 401a7e <pdc_rx_init+0x14>
  401a76:	6813      	ldr	r3, [r2, #0]
  401a78:	6103      	str	r3, [r0, #16]
  401a7a:	6853      	ldr	r3, [r2, #4]
  401a7c:	6143      	str	r3, [r0, #20]
  401a7e:	4770      	bx	lr

00401a80 <pdc_enable_transfer>:
  401a80:	f021 01fe 	bic.w	r1, r1, #254	; 0xfe
  401a84:	05c9      	lsls	r1, r1, #23
  401a86:	0dc9      	lsrs	r1, r1, #23
  401a88:	6201      	str	r1, [r0, #32]
  401a8a:	4770      	bx	lr

00401a8c <pdc_disable_transfer>:
  401a8c:	f421 71fe 	bic.w	r1, r1, #508	; 0x1fc
  401a90:	f021 0101 	bic.w	r1, r1, #1
  401a94:	0589      	lsls	r1, r1, #22
  401a96:	0d89      	lsrs	r1, r1, #22
  401a98:	6201      	str	r1, [r0, #32]
  401a9a:	4770      	bx	lr

00401a9c <pdc_read_rx_counter>:
  401a9c:	6840      	ldr	r0, [r0, #4]
  401a9e:	4770      	bx	lr

00401aa0 <twi_enable_master_mode>:
  401aa0:	2308      	movs	r3, #8
  401aa2:	6003      	str	r3, [r0, #0]
  401aa4:	2320      	movs	r3, #32
  401aa6:	6003      	str	r3, [r0, #0]
  401aa8:	2304      	movs	r3, #4
  401aaa:	6003      	str	r3, [r0, #0]
  401aac:	4770      	bx	lr
	...

00401ab0 <twi_set_speed>:
  401ab0:	4b20      	ldr	r3, [pc, #128]	; (401b34 <twi_set_speed+0x84>)
  401ab2:	4299      	cmp	r1, r3
  401ab4:	b510      	push	{r4, lr}
  401ab6:	d83b      	bhi.n	401b30 <twi_set_speed+0x80>
  401ab8:	f5a3 537a 	sub.w	r3, r3, #16000	; 0x3e80
  401abc:	4299      	cmp	r1, r3
  401abe:	d920      	bls.n	401b02 <twi_set_speed+0x52>
  401ac0:	4b1d      	ldr	r3, [pc, #116]	; (401b38 <twi_set_speed+0x88>)
  401ac2:	4c1e      	ldr	r4, [pc, #120]	; (401b3c <twi_set_speed+0x8c>)
  401ac4:	fbb2 f4f4 	udiv	r4, r2, r4
  401ac8:	440b      	add	r3, r1
  401aca:	009b      	lsls	r3, r3, #2
  401acc:	3c04      	subs	r4, #4
  401ace:	fbb2 f2f3 	udiv	r2, r2, r3
  401ad2:	2300      	movs	r3, #0
  401ad4:	3a04      	subs	r2, #4
  401ad6:	2cff      	cmp	r4, #255	; 0xff
  401ad8:	d908      	bls.n	401aec <twi_set_speed+0x3c>
  401ada:	2b07      	cmp	r3, #7
  401adc:	d006      	beq.n	401aec <twi_set_speed+0x3c>
  401ade:	3301      	adds	r3, #1
  401ae0:	0864      	lsrs	r4, r4, #1
  401ae2:	e7f8      	b.n	401ad6 <twi_set_speed+0x26>
  401ae4:	2b07      	cmp	r3, #7
  401ae6:	d003      	beq.n	401af0 <twi_set_speed+0x40>
  401ae8:	3301      	adds	r3, #1
  401aea:	0852      	lsrs	r2, r2, #1
  401aec:	2aff      	cmp	r2, #255	; 0xff
  401aee:	d8f9      	bhi.n	401ae4 <twi_set_speed+0x34>
  401af0:	0212      	lsls	r2, r2, #8
  401af2:	041b      	lsls	r3, r3, #16
  401af4:	b292      	uxth	r2, r2
  401af6:	f403 23e0 	and.w	r3, r3, #458752	; 0x70000
  401afa:	431a      	orrs	r2, r3
  401afc:	b2e4      	uxtb	r4, r4
  401afe:	4322      	orrs	r2, r4
  401b00:	e013      	b.n	401b2a <twi_set_speed+0x7a>
  401b02:	0049      	lsls	r1, r1, #1
  401b04:	2300      	movs	r3, #0
  401b06:	fbb2 f2f1 	udiv	r2, r2, r1
  401b0a:	3a04      	subs	r2, #4
  401b0c:	2aff      	cmp	r2, #255	; 0xff
  401b0e:	d904      	bls.n	401b1a <twi_set_speed+0x6a>
  401b10:	2b07      	cmp	r3, #7
  401b12:	d002      	beq.n	401b1a <twi_set_speed+0x6a>
  401b14:	3301      	adds	r3, #1
  401b16:	0852      	lsrs	r2, r2, #1
  401b18:	e7f8      	b.n	401b0c <twi_set_speed+0x5c>
  401b1a:	0211      	lsls	r1, r2, #8
  401b1c:	041b      	lsls	r3, r3, #16
  401b1e:	b289      	uxth	r1, r1
  401b20:	f403 23e0 	and.w	r3, r3, #458752	; 0x70000
  401b24:	430b      	orrs	r3, r1
  401b26:	b2d2      	uxtb	r2, r2
  401b28:	431a      	orrs	r2, r3
  401b2a:	6102      	str	r2, [r0, #16]
  401b2c:	2000      	movs	r0, #0
  401b2e:	bd10      	pop	{r4, pc}
  401b30:	2001      	movs	r0, #1
  401b32:	bd10      	pop	{r4, pc}
  401b34:	00061a80 	.word	0x00061a80
  401b38:	3ffd1200 	.word	0x3ffd1200
  401b3c:	000bb800 	.word	0x000bb800

00401b40 <twi_master_init>:
  401b40:	b538      	push	{r3, r4, r5, lr}
  401b42:	f04f 33ff 	mov.w	r3, #4294967295
  401b46:	6283      	str	r3, [r0, #40]	; 0x28
  401b48:	6a03      	ldr	r3, [r0, #32]
  401b4a:	2380      	movs	r3, #128	; 0x80
  401b4c:	6003      	str	r3, [r0, #0]
  401b4e:	6b03      	ldr	r3, [r0, #48]	; 0x30
  401b50:	2308      	movs	r3, #8
  401b52:	6003      	str	r3, [r0, #0]
  401b54:	2320      	movs	r3, #32
  401b56:	6003      	str	r3, [r0, #0]
  401b58:	2304      	movs	r3, #4
  401b5a:	6003      	str	r3, [r0, #0]
  401b5c:	460d      	mov	r5, r1
  401b5e:	680a      	ldr	r2, [r1, #0]
  401b60:	4b06      	ldr	r3, [pc, #24]	; (401b7c <twi_master_init+0x3c>)
  401b62:	6849      	ldr	r1, [r1, #4]
  401b64:	4604      	mov	r4, r0
  401b66:	4798      	blx	r3
  401b68:	1e43      	subs	r3, r0, #1
  401b6a:	4258      	negs	r0, r3
  401b6c:	4158      	adcs	r0, r3
  401b6e:	7a6b      	ldrb	r3, [r5, #9]
  401b70:	2b01      	cmp	r3, #1
  401b72:	bf04      	itt	eq
  401b74:	2340      	moveq	r3, #64	; 0x40
  401b76:	6023      	streq	r3, [r4, #0]
  401b78:	bd38      	pop	{r3, r4, r5, pc}
  401b7a:	bf00      	nop
  401b7c:	00401ab1 	.word	0x00401ab1

00401b80 <twi_mk_addr>:
  401b80:	b159      	cbz	r1, 401b9a <twi_mk_addr+0x1a>
  401b82:	2901      	cmp	r1, #1
  401b84:	7803      	ldrb	r3, [r0, #0]
  401b86:	dd0a      	ble.n	401b9e <twi_mk_addr+0x1e>
  401b88:	7842      	ldrb	r2, [r0, #1]
  401b8a:	2902      	cmp	r1, #2
  401b8c:	ea42 2303 	orr.w	r3, r2, r3, lsl #8
  401b90:	d005      	beq.n	401b9e <twi_mk_addr+0x1e>
  401b92:	7880      	ldrb	r0, [r0, #2]
  401b94:	ea40 2003 	orr.w	r0, r0, r3, lsl #8
  401b98:	4770      	bx	lr
  401b9a:	4608      	mov	r0, r1
  401b9c:	4770      	bx	lr
  401b9e:	4618      	mov	r0, r3
  401ba0:	4770      	bx	lr
	...

00401ba4 <twi_master_read>:
  401ba4:	b5f8      	push	{r3, r4, r5, r6, r7, lr}
  401ba6:	68cd      	ldr	r5, [r1, #12]
  401ba8:	4604      	mov	r4, r0
  401baa:	4608      	mov	r0, r1
  401bac:	2d00      	cmp	r5, #0
  401bae:	d03e      	beq.n	401c2e <twi_master_read+0x8a>
  401bb0:	2600      	movs	r6, #0
  401bb2:	688f      	ldr	r7, [r1, #8]
  401bb4:	6066      	str	r6, [r4, #4]
  401bb6:	684b      	ldr	r3, [r1, #4]
  401bb8:	021b      	lsls	r3, r3, #8
  401bba:	f403 7340 	and.w	r3, r3, #768	; 0x300
  401bbe:	f443 5280 	orr.w	r2, r3, #4096	; 0x1000
  401bc2:	7c0b      	ldrb	r3, [r1, #16]
  401bc4:	041b      	lsls	r3, r3, #16
  401bc6:	f403 03fe 	and.w	r3, r3, #8323072	; 0x7f0000
  401bca:	4313      	orrs	r3, r2
  401bcc:	6063      	str	r3, [r4, #4]
  401bce:	60e6      	str	r6, [r4, #12]
  401bd0:	6849      	ldr	r1, [r1, #4]
  401bd2:	4b1a      	ldr	r3, [pc, #104]	; (401c3c <twi_master_read+0x98>)
  401bd4:	4798      	blx	r3
  401bd6:	2d01      	cmp	r5, #1
  401bd8:	60e0      	str	r0, [r4, #12]
  401bda:	d106      	bne.n	401bea <twi_master_read+0x46>
  401bdc:	2303      	movs	r3, #3
  401bde:	6023      	str	r3, [r4, #0]
  401be0:	462b      	mov	r3, r5
  401be2:	f247 5230 	movw	r2, #30000	; 0x7530
  401be6:	2602      	movs	r6, #2
  401be8:	e013      	b.n	401c12 <twi_master_read+0x6e>
  401bea:	2301      	movs	r3, #1
  401bec:	6023      	str	r3, [r4, #0]
  401bee:	4633      	mov	r3, r6
  401bf0:	e7f7      	b.n	401be2 <twi_master_read+0x3e>
  401bf2:	b302      	cbz	r2, 401c36 <twi_master_read+0x92>
  401bf4:	2d01      	cmp	r5, #1
  401bf6:	d011      	beq.n	401c1c <twi_master_read+0x78>
  401bf8:	0789      	lsls	r1, r1, #30
  401bfa:	bf43      	ittte	mi
  401bfc:	6b22      	ldrmi	r2, [r4, #48]	; 0x30
  401bfe:	703a      	strbmi	r2, [r7, #0]
  401c00:	f105 35ff 	addmi.w	r5, r5, #4294967295
  401c04:	f102 32ff 	addpl.w	r2, r2, #4294967295
  401c08:	bf44      	itt	mi
  401c0a:	3701      	addmi	r7, #1
  401c0c:	f247 5230 	movwmi	r2, #30000	; 0x7530
  401c10:	b145      	cbz	r5, 401c24 <twi_master_read+0x80>
  401c12:	6a21      	ldr	r1, [r4, #32]
  401c14:	f411 7080 	ands.w	r0, r1, #256	; 0x100
  401c18:	d0eb      	beq.n	401bf2 <twi_master_read+0x4e>
  401c1a:	e00a      	b.n	401c32 <twi_master_read+0x8e>
  401c1c:	b903      	cbnz	r3, 401c20 <twi_master_read+0x7c>
  401c1e:	6026      	str	r6, [r4, #0]
  401c20:	462b      	mov	r3, r5
  401c22:	e7e9      	b.n	401bf8 <twi_master_read+0x54>
  401c24:	6a23      	ldr	r3, [r4, #32]
  401c26:	07db      	lsls	r3, r3, #31
  401c28:	d5fc      	bpl.n	401c24 <twi_master_read+0x80>
  401c2a:	6a23      	ldr	r3, [r4, #32]
  401c2c:	bdf8      	pop	{r3, r4, r5, r6, r7, pc}
  401c2e:	2001      	movs	r0, #1
  401c30:	bdf8      	pop	{r3, r4, r5, r6, r7, pc}
  401c32:	2005      	movs	r0, #5
  401c34:	bdf8      	pop	{r3, r4, r5, r6, r7, pc}
  401c36:	2009      	movs	r0, #9
  401c38:	bdf8      	pop	{r3, r4, r5, r6, r7, pc}
  401c3a:	bf00      	nop
  401c3c:	00401b81 	.word	0x00401b81

00401c40 <twi_master_write>:
  401c40:	b570      	push	{r4, r5, r6, lr}
  401c42:	68ce      	ldr	r6, [r1, #12]
  401c44:	4604      	mov	r4, r0
  401c46:	4608      	mov	r0, r1
  401c48:	b34e      	cbz	r6, 401c9e <twi_master_write+0x5e>
  401c4a:	688d      	ldr	r5, [r1, #8]
  401c4c:	2100      	movs	r1, #0
  401c4e:	6061      	str	r1, [r4, #4]
  401c50:	7c03      	ldrb	r3, [r0, #16]
  401c52:	041b      	lsls	r3, r3, #16
  401c54:	f403 02fe 	and.w	r2, r3, #8323072	; 0x7f0000
  401c58:	6843      	ldr	r3, [r0, #4]
  401c5a:	021b      	lsls	r3, r3, #8
  401c5c:	f403 7340 	and.w	r3, r3, #768	; 0x300
  401c60:	4313      	orrs	r3, r2
  401c62:	6063      	str	r3, [r4, #4]
  401c64:	60e1      	str	r1, [r4, #12]
  401c66:	6841      	ldr	r1, [r0, #4]
  401c68:	4b0f      	ldr	r3, [pc, #60]	; (401ca8 <twi_master_write+0x68>)
  401c6a:	4798      	blx	r3
  401c6c:	442e      	add	r6, r5
  401c6e:	60e0      	str	r0, [r4, #12]
  401c70:	42ae      	cmp	r6, r5
  401c72:	d008      	beq.n	401c86 <twi_master_write+0x46>
  401c74:	6a23      	ldr	r3, [r4, #32]
  401c76:	05d8      	lsls	r0, r3, #23
  401c78:	d413      	bmi.n	401ca2 <twi_master_write+0x62>
  401c7a:	0759      	lsls	r1, r3, #29
  401c7c:	bf44      	itt	mi
  401c7e:	f815 3b01 	ldrbmi.w	r3, [r5], #1
  401c82:	6363      	strmi	r3, [r4, #52]	; 0x34
  401c84:	e7f4      	b.n	401c70 <twi_master_write+0x30>
  401c86:	6a23      	ldr	r3, [r4, #32]
  401c88:	f413 7080 	ands.w	r0, r3, #256	; 0x100
  401c8c:	d109      	bne.n	401ca2 <twi_master_write+0x62>
  401c8e:	075a      	lsls	r2, r3, #29
  401c90:	d5f9      	bpl.n	401c86 <twi_master_write+0x46>
  401c92:	2302      	movs	r3, #2
  401c94:	6023      	str	r3, [r4, #0]
  401c96:	6a23      	ldr	r3, [r4, #32]
  401c98:	07db      	lsls	r3, r3, #31
  401c9a:	d5fc      	bpl.n	401c96 <twi_master_write+0x56>
  401c9c:	bd70      	pop	{r4, r5, r6, pc}
  401c9e:	2001      	movs	r0, #1
  401ca0:	bd70      	pop	{r4, r5, r6, pc}
  401ca2:	2005      	movs	r0, #5
  401ca4:	bd70      	pop	{r4, r5, r6, pc}
  401ca6:	bf00      	nop
  401ca8:	00401b81 	.word	0x00401b81

00401cac <twi_disable_interrupt>:
  401cac:	6281      	str	r1, [r0, #40]	; 0x28
  401cae:	6a03      	ldr	r3, [r0, #32]
  401cb0:	4770      	bx	lr

00401cb2 <twi_get_interrupt_status>:
  401cb2:	6a00      	ldr	r0, [r0, #32]
  401cb4:	4770      	bx	lr

00401cb6 <twi_get_interrupt_mask>:
  401cb6:	6ac0      	ldr	r0, [r0, #44]	; 0x2c
  401cb8:	4770      	bx	lr

00401cba <usart_set_async_baudrate>:
  401cba:	ebb2 1f01 	cmp.w	r2, r1, lsl #4
  401cbe:	b530      	push	{r4, r5, lr}
  401cc0:	bf2c      	ite	cs
  401cc2:	2410      	movcs	r4, #16
  401cc4:	2408      	movcc	r4, #8
  401cc6:	4361      	muls	r1, r4
  401cc8:	084b      	lsrs	r3, r1, #1
  401cca:	eb03 02c2 	add.w	r2, r3, r2, lsl #3
  401cce:	fbb2 f2f1 	udiv	r2, r2, r1
  401cd2:	08d3      	lsrs	r3, r2, #3
  401cd4:	1e5d      	subs	r5, r3, #1
  401cd6:	f64f 71fe 	movw	r1, #65534	; 0xfffe
  401cda:	428d      	cmp	r5, r1
  401cdc:	d810      	bhi.n	401d00 <usart_set_async_baudrate+0x46>
  401cde:	2c08      	cmp	r4, #8
  401ce0:	bf08      	it	eq
  401ce2:	6841      	ldreq	r1, [r0, #4]
  401ce4:	ea4f 4202 	mov.w	r2, r2, lsl #16
  401ce8:	f402 22e0 	and.w	r2, r2, #458752	; 0x70000
  401cec:	bf08      	it	eq
  401cee:	f441 2100 	orreq.w	r1, r1, #524288	; 0x80000
  401cf2:	ea42 0203 	orr.w	r2, r2, r3
  401cf6:	bf08      	it	eq
  401cf8:	6041      	streq	r1, [r0, #4]
  401cfa:	6202      	str	r2, [r0, #32]
  401cfc:	2000      	movs	r0, #0
  401cfe:	bd30      	pop	{r4, r5, pc}
  401d00:	2001      	movs	r0, #1
  401d02:	bd30      	pop	{r4, r5, pc}

00401d04 <usart_reset>:
  401d04:	4b0a      	ldr	r3, [pc, #40]	; (401d30 <usart_reset+0x2c>)
  401d06:	f8c0 30e4 	str.w	r3, [r0, #228]	; 0xe4
  401d0a:	2300      	movs	r3, #0
  401d0c:	6043      	str	r3, [r0, #4]
  401d0e:	6243      	str	r3, [r0, #36]	; 0x24
  401d10:	6283      	str	r3, [r0, #40]	; 0x28
  401d12:	2388      	movs	r3, #136	; 0x88
  401d14:	6003      	str	r3, [r0, #0]
  401d16:	2324      	movs	r3, #36	; 0x24
  401d18:	6003      	str	r3, [r0, #0]
  401d1a:	f44f 7380 	mov.w	r3, #256	; 0x100
  401d1e:	6003      	str	r3, [r0, #0]
  401d20:	f44f 2300 	mov.w	r3, #524288	; 0x80000
  401d24:	6003      	str	r3, [r0, #0]
  401d26:	f44f 3300 	mov.w	r3, #131072	; 0x20000
  401d2a:	6003      	str	r3, [r0, #0]
  401d2c:	4770      	bx	lr
  401d2e:	bf00      	nop
  401d30:	55534100 	.word	0x55534100

00401d34 <usart_init_rs232>:
  401d34:	b570      	push	{r4, r5, r6, lr}
  401d36:	4b0d      	ldr	r3, [pc, #52]	; (401d6c <usart_init_rs232+0x38>)
  401d38:	4e0d      	ldr	r6, [pc, #52]	; (401d70 <usart_init_rs232+0x3c>)
  401d3a:	4605      	mov	r5, r0
  401d3c:	460c      	mov	r4, r1
  401d3e:	4798      	blx	r3
  401d40:	2300      	movs	r3, #0
  401d42:	6033      	str	r3, [r6, #0]
  401d44:	b909      	cbnz	r1, 401d4a <usart_init_rs232+0x16>
  401d46:	2001      	movs	r0, #1
  401d48:	bd70      	pop	{r4, r5, r6, pc}
  401d4a:	6809      	ldr	r1, [r1, #0]
  401d4c:	4b09      	ldr	r3, [pc, #36]	; (401d74 <usart_init_rs232+0x40>)
  401d4e:	4798      	blx	r3
  401d50:	2800      	cmp	r0, #0
  401d52:	d1f8      	bne.n	401d46 <usart_init_rs232+0x12>
  401d54:	68a3      	ldr	r3, [r4, #8]
  401d56:	6862      	ldr	r2, [r4, #4]
  401d58:	431a      	orrs	r2, r3
  401d5a:	6923      	ldr	r3, [r4, #16]
  401d5c:	431a      	orrs	r2, r3
  401d5e:	68e3      	ldr	r3, [r4, #12]
  401d60:	4313      	orrs	r3, r2
  401d62:	686a      	ldr	r2, [r5, #4]
  401d64:	6033      	str	r3, [r6, #0]
  401d66:	4313      	orrs	r3, r2
  401d68:	606b      	str	r3, [r5, #4]
  401d6a:	bd70      	pop	{r4, r5, r6, pc}
  401d6c:	00401d05 	.word	0x00401d05
  401d70:	2000054c 	.word	0x2000054c
  401d74:	00401cbb 	.word	0x00401cbb

00401d78 <usart_init_rs485>:
  401d78:	b510      	push	{r4, lr}
  401d7a:	4b06      	ldr	r3, [pc, #24]	; (401d94 <usart_init_rs485+0x1c>)
  401d7c:	4604      	mov	r4, r0
  401d7e:	4798      	blx	r3
  401d80:	b930      	cbnz	r0, 401d90 <usart_init_rs485+0x18>
  401d82:	6863      	ldr	r3, [r4, #4]
  401d84:	f023 030f 	bic.w	r3, r3, #15
  401d88:	f043 0301 	orr.w	r3, r3, #1
  401d8c:	6063      	str	r3, [r4, #4]
  401d8e:	bd10      	pop	{r4, pc}
  401d90:	2001      	movs	r0, #1
  401d92:	bd10      	pop	{r4, pc}
  401d94:	00401d35 	.word	0x00401d35

00401d98 <usart_enable_tx>:
  401d98:	2340      	movs	r3, #64	; 0x40
  401d9a:	6003      	str	r3, [r0, #0]
  401d9c:	4770      	bx	lr

00401d9e <usart_disable_tx>:
  401d9e:	2380      	movs	r3, #128	; 0x80
  401da0:	6003      	str	r3, [r0, #0]
  401da2:	4770      	bx	lr

00401da4 <usart_enable_rx>:
  401da4:	2310      	movs	r3, #16
  401da6:	6003      	str	r3, [r0, #0]
  401da8:	4770      	bx	lr

00401daa <usart_disable_rx>:
  401daa:	2320      	movs	r3, #32
  401dac:	6003      	str	r3, [r0, #0]
  401dae:	4770      	bx	lr

00401db0 <usart_enable_interrupt>:
  401db0:	6081      	str	r1, [r0, #8]
  401db2:	4770      	bx	lr

00401db4 <usart_disable_interrupt>:
  401db4:	60c1      	str	r1, [r0, #12]
  401db6:	4770      	bx	lr

00401db8 <usart_get_interrupt_mask>:
  401db8:	6900      	ldr	r0, [r0, #16]
  401dba:	4770      	bx	lr

00401dbc <usart_get_status>:
  401dbc:	6940      	ldr	r0, [r0, #20]
  401dbe:	4770      	bx	lr

00401dc0 <usart_reset_status>:
  401dc0:	f44f 7380 	mov.w	r3, #256	; 0x100
  401dc4:	6003      	str	r3, [r0, #0]
  401dc6:	4770      	bx	lr

00401dc8 <usart_start_rx_timeout>:
  401dc8:	f44f 6300 	mov.w	r3, #2048	; 0x800
  401dcc:	6003      	str	r3, [r0, #0]
  401dce:	4770      	bx	lr

00401dd0 <usart_get_pdc_base>:
  401dd0:	4b06      	ldr	r3, [pc, #24]	; (401dec <usart_get_pdc_base+0x1c>)
  401dd2:	4298      	cmp	r0, r3
  401dd4:	d007      	beq.n	401de6 <usart_get_pdc_base+0x16>
  401dd6:	4a06      	ldr	r2, [pc, #24]	; (401df0 <usart_get_pdc_base+0x20>)
  401dd8:	f503 4382 	add.w	r3, r3, #16640	; 0x4100
  401ddc:	4290      	cmp	r0, r2
  401dde:	bf0c      	ite	eq
  401de0:	4618      	moveq	r0, r3
  401de2:	2000      	movne	r0, #0
  401de4:	4770      	bx	lr
  401de6:	4803      	ldr	r0, [pc, #12]	; (401df4 <usart_get_pdc_base+0x24>)
  401de8:	4770      	bx	lr
  401dea:	bf00      	nop
  401dec:	40024000 	.word	0x40024000
  401df0:	40028000 	.word	0x40028000
  401df4:	40024100 	.word	0x40024100

00401df8 <board_init>:
  401df8:	4b2a      	ldr	r3, [pc, #168]	; (401ea4 <board_init+0xac>)
  401dfa:	b537      	push	{r0, r1, r2, r4, r5, lr}
  401dfc:	f44f 4200 	mov.w	r2, #32768	; 0x8000
  401e00:	605a      	str	r2, [r3, #4]
  401e02:	4c29      	ldr	r4, [pc, #164]	; (401ea8 <board_init+0xb0>)
  401e04:	4d29      	ldr	r5, [pc, #164]	; (401eac <board_init+0xb4>)
  401e06:	200b      	movs	r0, #11
  401e08:	47a0      	blx	r4
  401e0a:	200c      	movs	r0, #12
  401e0c:	47a0      	blx	r4
  401e0e:	4c28      	ldr	r4, [pc, #160]	; (401eb0 <board_init+0xb8>)
  401e10:	f04f 6200 	mov.w	r2, #134217728	; 0x8000000
  401e14:	2160      	movs	r1, #96	; 0x60
  401e16:	4620      	mov	r0, r4
  401e18:	47a8      	blx	r5
  401e1a:	f04f 6200 	mov.w	r2, #134217728	; 0x8000000
  401e1e:	f04f 71b0 	mov.w	r1, #23068672	; 0x1600000
  401e22:	4620      	mov	r0, r4
  401e24:	47a8      	blx	r5
  401e26:	f04f 6200 	mov.w	r2, #134217728	; 0x8000000
  401e2a:	f44f 61c0 	mov.w	r1, #1536	; 0x600
  401e2e:	4620      	mov	r0, r4
  401e30:	47a8      	blx	r5
  401e32:	f04f 6200 	mov.w	r2, #134217728	; 0x8000000
  401e36:	2118      	movs	r1, #24
  401e38:	4620      	mov	r0, r4
  401e3a:	47a8      	blx	r5
  401e3c:	4d1d      	ldr	r5, [pc, #116]	; (401eb4 <board_init+0xbc>)
  401e3e:	f04f 5140 	mov.w	r1, #805306368	; 0x30000000
  401e42:	2020      	movs	r0, #32
  401e44:	47a8      	blx	r5
  401e46:	f04f 5140 	mov.w	r1, #805306368	; 0x30000000
  401e4a:	2021      	movs	r0, #33	; 0x21
  401e4c:	47a8      	blx	r5
  401e4e:	f04f 5140 	mov.w	r1, #805306368	; 0x30000000
  401e52:	2022      	movs	r0, #34	; 0x22
  401e54:	47a8      	blx	r5
  401e56:	4918      	ldr	r1, [pc, #96]	; (401eb8 <board_init+0xc0>)
  401e58:	2023      	movs	r0, #35	; 0x23
  401e5a:	47a8      	blx	r5
  401e5c:	f04f 5140 	mov.w	r1, #805306368	; 0x30000000
  401e60:	2010      	movs	r0, #16
  401e62:	47a8      	blx	r5
  401e64:	f04f 5140 	mov.w	r1, #805306368	; 0x30000000
  401e68:	2001      	movs	r0, #1
  401e6a:	47a8      	blx	r5
  401e6c:	f04f 5120 	mov.w	r1, #671088640	; 0x28000000
  401e70:	2000      	movs	r0, #0
  401e72:	47a8      	blx	r5
  401e74:	4b11      	ldr	r3, [pc, #68]	; (401ebc <board_init+0xc4>)
  401e76:	9300      	str	r3, [sp, #0]
  401e78:	2201      	movs	r2, #1
  401e7a:	2354      	movs	r3, #84	; 0x54
  401e7c:	210b      	movs	r1, #11
  401e7e:	4620      	mov	r0, r4
  401e80:	4d0f      	ldr	r5, [pc, #60]	; (401ec0 <board_init+0xc8>)
  401e82:	47a8      	blx	r5
  401e84:	4b0f      	ldr	r3, [pc, #60]	; (401ec4 <board_init+0xcc>)
  401e86:	f44f 6200 	mov.w	r2, #2048	; 0x800
  401e8a:	601a      	str	r2, [r3, #0]
  401e8c:	4620      	mov	r0, r4
  401e8e:	220f      	movs	r2, #15
  401e90:	210b      	movs	r1, #11
  401e92:	4b0d      	ldr	r3, [pc, #52]	; (401ec8 <board_init+0xd0>)
  401e94:	4798      	blx	r3
  401e96:	4b0d      	ldr	r3, [pc, #52]	; (401ecc <board_init+0xd4>)
  401e98:	2101      	movs	r1, #1
  401e9a:	4620      	mov	r0, r4
  401e9c:	b003      	add	sp, #12
  401e9e:	e8bd 4030 	ldmia.w	sp!, {r4, r5, lr}
  401ea2:	4718      	bx	r3
  401ea4:	400e1450 	.word	0x400e1450
  401ea8:	00402409 	.word	0x00402409
  401eac:	0040212d 	.word	0x0040212d
  401eb0:	400e0e00 	.word	0x400e0e00
  401eb4:	00402079 	.word	0x00402079
  401eb8:	28000004 	.word	0x28000004
  401ebc:	00400651 	.word	0x00400651
  401ec0:	00402235 	.word	0x00402235
  401ec4:	e000e100 	.word	0xe000e100
  401ec8:	004022c1 	.word	0x004022c1
  401ecc:	00402005 	.word	0x00402005

00401ed0 <sysclk_init>:
  401ed0:	b570      	push	{r4, r5, r6, lr}
  401ed2:	480f      	ldr	r0, [pc, #60]	; (401f10 <sysclk_init+0x40>)
  401ed4:	4c0f      	ldr	r4, [pc, #60]	; (401f14 <sysclk_init+0x44>)
  401ed6:	4d10      	ldr	r5, [pc, #64]	; (401f18 <sysclk_init+0x48>)
  401ed8:	47a0      	blx	r4
  401eda:	213e      	movs	r1, #62	; 0x3e
  401edc:	2000      	movs	r0, #0
  401ede:	4b0f      	ldr	r3, [pc, #60]	; (401f1c <sysclk_init+0x4c>)
  401ee0:	4798      	blx	r3
  401ee2:	47a8      	blx	r5
  401ee4:	2800      	cmp	r0, #0
  401ee6:	d0fc      	beq.n	401ee2 <sysclk_init+0x12>
  401ee8:	4b0d      	ldr	r3, [pc, #52]	; (401f20 <sysclk_init+0x50>)
  401eea:	4d0e      	ldr	r5, [pc, #56]	; (401f24 <sysclk_init+0x54>)
  401eec:	4798      	blx	r3
  401eee:	4b0e      	ldr	r3, [pc, #56]	; (401f28 <sysclk_init+0x58>)
  401ef0:	4a0e      	ldr	r2, [pc, #56]	; (401f2c <sysclk_init+0x5c>)
  401ef2:	629a      	str	r2, [r3, #40]	; 0x28
  401ef4:	47a8      	blx	r5
  401ef6:	2800      	cmp	r0, #0
  401ef8:	d0fc      	beq.n	401ef4 <sysclk_init+0x24>
  401efa:	4b0d      	ldr	r3, [pc, #52]	; (401f30 <sysclk_init+0x60>)
  401efc:	2010      	movs	r0, #16
  401efe:	4798      	blx	r3
  401f00:	4b0c      	ldr	r3, [pc, #48]	; (401f34 <sysclk_init+0x64>)
  401f02:	4798      	blx	r3
  401f04:	4623      	mov	r3, r4
  401f06:	4802      	ldr	r0, [pc, #8]	; (401f10 <sysclk_init+0x40>)
  401f08:	e8bd 4070 	ldmia.w	sp!, {r4, r5, r6, lr}
  401f0c:	4718      	bx	r3
  401f0e:	bf00      	nop
  401f10:	07270e00 	.word	0x07270e00
  401f14:	00402595 	.word	0x00402595
  401f18:	004023d9 	.word	0x004023d9
  401f1c:	00402389 	.word	0x00402389
  401f20:	004023e9 	.word	0x004023e9
  401f24:	004023f9 	.word	0x004023f9
  401f28:	400e0400 	.word	0x400e0400
  401f2c:	20133f01 	.word	0x20133f01
  401f30:	00402345 	.word	0x00402345
  401f34:	004024c9 	.word	0x004024c9

00401f38 <pio_set_peripheral>:
  401f38:	f1b1 5fc0 	cmp.w	r1, #402653184	; 0x18000000
  401f3c:	b510      	push	{r4, lr}
  401f3e:	6442      	str	r2, [r0, #68]	; 0x44
  401f40:	d02d      	beq.n	401f9e <pio_set_peripheral+0x66>
  401f42:	d807      	bhi.n	401f54 <pio_set_peripheral+0x1c>
  401f44:	f1b1 6f00 	cmp.w	r1, #134217728	; 0x8000000
  401f48:	d015      	beq.n	401f76 <pio_set_peripheral+0x3e>
  401f4a:	f1b1 5f80 	cmp.w	r1, #268435456	; 0x10000000
  401f4e:	d01d      	beq.n	401f8c <pio_set_peripheral+0x54>
  401f50:	bb71      	cbnz	r1, 401fb0 <pio_set_peripheral+0x78>
  401f52:	bd10      	pop	{r4, pc}
  401f54:	f1b1 5f20 	cmp.w	r1, #671088640	; 0x28000000
  401f58:	d02b      	beq.n	401fb2 <pio_set_peripheral+0x7a>
  401f5a:	d805      	bhi.n	401f68 <pio_set_peripheral+0x30>
  401f5c:	f1b1 5f00 	cmp.w	r1, #536870912	; 0x20000000
  401f60:	d126      	bne.n	401fb0 <pio_set_peripheral+0x78>
  401f62:	6f03      	ldr	r3, [r0, #112]	; 0x70
  401f64:	4313      	orrs	r3, r2
  401f66:	e01f      	b.n	401fa8 <pio_set_peripheral+0x70>
  401f68:	f1b1 5f40 	cmp.w	r1, #805306368	; 0x30000000
  401f6c:	d021      	beq.n	401fb2 <pio_set_peripheral+0x7a>
  401f6e:	f1b1 5f60 	cmp.w	r1, #939524096	; 0x38000000
  401f72:	d01e      	beq.n	401fb2 <pio_set_peripheral+0x7a>
  401f74:	e01c      	b.n	401fb0 <pio_set_peripheral+0x78>
  401f76:	6f04      	ldr	r4, [r0, #112]	; 0x70
  401f78:	6f01      	ldr	r1, [r0, #112]	; 0x70
  401f7a:	43d3      	mvns	r3, r2
  401f7c:	4021      	ands	r1, r4
  401f7e:	4019      	ands	r1, r3
  401f80:	6701      	str	r1, [r0, #112]	; 0x70
  401f82:	6f44      	ldr	r4, [r0, #116]	; 0x74
  401f84:	6f41      	ldr	r1, [r0, #116]	; 0x74
  401f86:	4021      	ands	r1, r4
  401f88:	400b      	ands	r3, r1
  401f8a:	e010      	b.n	401fae <pio_set_peripheral+0x76>
  401f8c:	6f03      	ldr	r3, [r0, #112]	; 0x70
  401f8e:	4313      	orrs	r3, r2
  401f90:	6703      	str	r3, [r0, #112]	; 0x70
  401f92:	6f41      	ldr	r1, [r0, #116]	; 0x74
  401f94:	6f43      	ldr	r3, [r0, #116]	; 0x74
  401f96:	400b      	ands	r3, r1
  401f98:	ea23 0302 	bic.w	r3, r3, r2
  401f9c:	e007      	b.n	401fae <pio_set_peripheral+0x76>
  401f9e:	6f01      	ldr	r1, [r0, #112]	; 0x70
  401fa0:	6f03      	ldr	r3, [r0, #112]	; 0x70
  401fa2:	400b      	ands	r3, r1
  401fa4:	ea23 0302 	bic.w	r3, r3, r2
  401fa8:	6703      	str	r3, [r0, #112]	; 0x70
  401faa:	6f43      	ldr	r3, [r0, #116]	; 0x74
  401fac:	4313      	orrs	r3, r2
  401fae:	6743      	str	r3, [r0, #116]	; 0x74
  401fb0:	6042      	str	r2, [r0, #4]
  401fb2:	bd10      	pop	{r4, pc}

00401fb4 <pio_set_input>:
  401fb4:	07d3      	lsls	r3, r2, #31
  401fb6:	6441      	str	r1, [r0, #68]	; 0x44
  401fb8:	bf4c      	ite	mi
  401fba:	6641      	strmi	r1, [r0, #100]	; 0x64
  401fbc:	6601      	strpl	r1, [r0, #96]	; 0x60
  401fbe:	f012 0f0a 	tst.w	r2, #10
  401fc2:	bf14      	ite	ne
  401fc4:	6201      	strne	r1, [r0, #32]
  401fc6:	6241      	streq	r1, [r0, #36]	; 0x24
  401fc8:	0793      	lsls	r3, r2, #30
  401fca:	d502      	bpl.n	401fd2 <pio_set_input+0x1e>
  401fcc:	f8c0 1080 	str.w	r1, [r0, #128]	; 0x80
  401fd0:	e003      	b.n	401fda <pio_set_input+0x26>
  401fd2:	0713      	lsls	r3, r2, #28
  401fd4:	bf48      	it	mi
  401fd6:	f8c0 1084 	strmi.w	r1, [r0, #132]	; 0x84
  401fda:	6141      	str	r1, [r0, #20]
  401fdc:	6001      	str	r1, [r0, #0]
  401fde:	4770      	bx	lr

00401fe0 <pio_set_output>:
  401fe0:	b510      	push	{r4, lr}
  401fe2:	9c02      	ldr	r4, [sp, #8]
  401fe4:	6441      	str	r1, [r0, #68]	; 0x44
  401fe6:	b10c      	cbz	r4, 401fec <pio_set_output+0xc>
  401fe8:	6641      	str	r1, [r0, #100]	; 0x64
  401fea:	e000      	b.n	401fee <pio_set_output+0xe>
  401fec:	6601      	str	r1, [r0, #96]	; 0x60
  401fee:	b10b      	cbz	r3, 401ff4 <pio_set_output+0x14>
  401ff0:	6501      	str	r1, [r0, #80]	; 0x50
  401ff2:	e000      	b.n	401ff6 <pio_set_output+0x16>
  401ff4:	6541      	str	r1, [r0, #84]	; 0x54
  401ff6:	b10a      	cbz	r2, 401ffc <pio_set_output+0x1c>
  401ff8:	6301      	str	r1, [r0, #48]	; 0x30
  401ffa:	e000      	b.n	401ffe <pio_set_output+0x1e>
  401ffc:	6341      	str	r1, [r0, #52]	; 0x34
  401ffe:	6101      	str	r1, [r0, #16]
  402000:	6001      	str	r1, [r0, #0]
  402002:	bd10      	pop	{r4, pc}

00402004 <pio_enable_interrupt>:
  402004:	6401      	str	r1, [r0, #64]	; 0x40
  402006:	4770      	bx	lr

00402008 <pio_disable_interrupt>:
  402008:	6441      	str	r1, [r0, #68]	; 0x44
  40200a:	4770      	bx	lr

0040200c <pio_get_interrupt_status>:
  40200c:	6cc0      	ldr	r0, [r0, #76]	; 0x4c
  40200e:	4770      	bx	lr

00402010 <pio_get_interrupt_mask>:
  402010:	6c80      	ldr	r0, [r0, #72]	; 0x48
  402012:	4770      	bx	lr

00402014 <pio_set_additional_interrupt_mode>:
  402014:	06d3      	lsls	r3, r2, #27
  402016:	d50e      	bpl.n	402036 <pio_set_additional_interrupt_mode+0x22>
  402018:	0693      	lsls	r3, r2, #26
  40201a:	f8c0 10b0 	str.w	r1, [r0, #176]	; 0xb0
  40201e:	bf4c      	ite	mi
  402020:	f8c0 10d4 	strmi.w	r1, [r0, #212]	; 0xd4
  402024:	f8c0 10d0 	strpl.w	r1, [r0, #208]	; 0xd0
  402028:	0653      	lsls	r3, r2, #25
  40202a:	bf4c      	ite	mi
  40202c:	f8c0 10c0 	strmi.w	r1, [r0, #192]	; 0xc0
  402030:	f8c0 10c4 	strpl.w	r1, [r0, #196]	; 0xc4
  402034:	4770      	bx	lr
  402036:	f8c0 10b4 	str.w	r1, [r0, #180]	; 0xb4
  40203a:	4770      	bx	lr

0040203c <pio_configure_interrupt>:
  40203c:	4b00      	ldr	r3, [pc, #0]	; (402040 <pio_configure_interrupt+0x4>)
  40203e:	4718      	bx	r3
  402040:	00402015 	.word	0x00402015

00402044 <pio_set_pin_high>:
  402044:	0943      	lsrs	r3, r0, #5
  402046:	f503 1300 	add.w	r3, r3, #2097152	; 0x200000
  40204a:	f203 7307 	addw	r3, r3, #1799	; 0x707
  40204e:	025b      	lsls	r3, r3, #9
  402050:	f000 001f 	and.w	r0, r0, #31
  402054:	2201      	movs	r2, #1
  402056:	fa02 f000 	lsl.w	r0, r2, r0
  40205a:	6318      	str	r0, [r3, #48]	; 0x30
  40205c:	4770      	bx	lr

0040205e <pio_set_pin_low>:
  40205e:	0943      	lsrs	r3, r0, #5
  402060:	f503 1300 	add.w	r3, r3, #2097152	; 0x200000
  402064:	f203 7307 	addw	r3, r3, #1799	; 0x707
  402068:	025b      	lsls	r3, r3, #9
  40206a:	f000 001f 	and.w	r0, r0, #31
  40206e:	2201      	movs	r2, #1
  402070:	fa02 f000 	lsl.w	r0, r2, r0
  402074:	6358      	str	r0, [r3, #52]	; 0x34
  402076:	4770      	bx	lr

00402078 <pio_configure_pin>:
  402078:	b5f7      	push	{r0, r1, r2, r4, r5, r6, r7, lr}
  40207a:	0945      	lsrs	r5, r0, #5
  40207c:	460e      	mov	r6, r1
  40207e:	f505 1500 	add.w	r5, r5, #2097152	; 0x200000
  402082:	f001 41f0 	and.w	r1, r1, #2013265920	; 0x78000000
  402086:	f205 7507 	addw	r5, r5, #1799	; 0x707
  40208a:	f1b1 5f00 	cmp.w	r1, #536870912	; 0x20000000
  40208e:	ea4f 2545 	mov.w	r5, r5, lsl #9
  402092:	d01d      	beq.n	4020d0 <pio_configure_pin+0x58>
  402094:	d809      	bhi.n	4020aa <pio_configure_pin+0x32>
  402096:	f1b1 5f80 	cmp.w	r1, #268435456	; 0x10000000
  40209a:	d019      	beq.n	4020d0 <pio_configure_pin+0x58>
  40209c:	f1b1 5fc0 	cmp.w	r1, #402653184	; 0x18000000
  4020a0:	d016      	beq.n	4020d0 <pio_configure_pin+0x58>
  4020a2:	f1b1 6f00 	cmp.w	r1, #134217728	; 0x8000000
  4020a6:	d138      	bne.n	40211a <pio_configure_pin+0xa2>
  4020a8:	e012      	b.n	4020d0 <pio_configure_pin+0x58>
  4020aa:	f1b1 5f40 	cmp.w	r1, #805306368	; 0x30000000
  4020ae:	d01f      	beq.n	4020f0 <pio_configure_pin+0x78>
  4020b0:	f1b1 5f60 	cmp.w	r1, #939524096	; 0x38000000
  4020b4:	d01c      	beq.n	4020f0 <pio_configure_pin+0x78>
  4020b6:	f1b1 5f20 	cmp.w	r1, #671088640	; 0x28000000
  4020ba:	d12e      	bne.n	40211a <pio_configure_pin+0xa2>
  4020bc:	f000 011f 	and.w	r1, r0, #31
  4020c0:	2401      	movs	r4, #1
  4020c2:	4632      	mov	r2, r6
  4020c4:	fa04 f101 	lsl.w	r1, r4, r1
  4020c8:	4628      	mov	r0, r5
  4020ca:	4b15      	ldr	r3, [pc, #84]	; (402120 <pio_configure_pin+0xa8>)
  4020cc:	4798      	blx	r3
  4020ce:	e022      	b.n	402116 <pio_configure_pin+0x9e>
  4020d0:	f000 041f 	and.w	r4, r0, #31
  4020d4:	2701      	movs	r7, #1
  4020d6:	fa07 f404 	lsl.w	r4, r7, r4
  4020da:	4622      	mov	r2, r4
  4020dc:	4628      	mov	r0, r5
  4020de:	4b11      	ldr	r3, [pc, #68]	; (402124 <pio_configure_pin+0xac>)
  4020e0:	4798      	blx	r3
  4020e2:	07f6      	lsls	r6, r6, #31
  4020e4:	d402      	bmi.n	4020ec <pio_configure_pin+0x74>
  4020e6:	662c      	str	r4, [r5, #96]	; 0x60
  4020e8:	4638      	mov	r0, r7
  4020ea:	e017      	b.n	40211c <pio_configure_pin+0xa4>
  4020ec:	666c      	str	r4, [r5, #100]	; 0x64
  4020ee:	e7fb      	b.n	4020e8 <pio_configure_pin+0x70>
  4020f0:	f006 5260 	and.w	r2, r6, #939524096	; 0x38000000
  4020f4:	f000 011f 	and.w	r1, r0, #31
  4020f8:	2401      	movs	r4, #1
  4020fa:	f102 4048 	add.w	r0, r2, #3355443200	; 0xc8000000
  4020fe:	ea06 0304 	and.w	r3, r6, r4
  402102:	4242      	negs	r2, r0
  402104:	9300      	str	r3, [sp, #0]
  402106:	4142      	adcs	r2, r0
  402108:	f3c6 0380 	ubfx	r3, r6, #2, #1
  40210c:	4628      	mov	r0, r5
  40210e:	fa04 f101 	lsl.w	r1, r4, r1
  402112:	4d05      	ldr	r5, [pc, #20]	; (402128 <pio_configure_pin+0xb0>)
  402114:	47a8      	blx	r5
  402116:	4620      	mov	r0, r4
  402118:	e000      	b.n	40211c <pio_configure_pin+0xa4>
  40211a:	2000      	movs	r0, #0
  40211c:	b003      	add	sp, #12
  40211e:	bdf0      	pop	{r4, r5, r6, r7, pc}
  402120:	00401fb5 	.word	0x00401fb5
  402124:	00401f39 	.word	0x00401f39
  402128:	00401fe1 	.word	0x00401fe1

0040212c <pio_configure_pin_group>:
  40212c:	b5f7      	push	{r0, r1, r2, r4, r5, r6, r7, lr}
  40212e:	f002 45f0 	and.w	r5, r2, #2013265920	; 0x78000000
  402132:	f1b5 5f00 	cmp.w	r5, #536870912	; 0x20000000
  402136:	4606      	mov	r6, r0
  402138:	460c      	mov	r4, r1
  40213a:	4617      	mov	r7, r2
  40213c:	d017      	beq.n	40216e <pio_configure_pin_group+0x42>
  40213e:	d809      	bhi.n	402154 <pio_configure_pin_group+0x28>
  402140:	f1b5 5f80 	cmp.w	r5, #268435456	; 0x10000000
  402144:	d013      	beq.n	40216e <pio_configure_pin_group+0x42>
  402146:	f1b5 5fc0 	cmp.w	r5, #402653184	; 0x18000000
  40214a:	d010      	beq.n	40216e <pio_configure_pin_group+0x42>
  40214c:	f1b5 6f00 	cmp.w	r5, #134217728	; 0x8000000
  402150:	d127      	bne.n	4021a2 <pio_configure_pin_group+0x76>
  402152:	e00c      	b.n	40216e <pio_configure_pin_group+0x42>
  402154:	f1b5 5f40 	cmp.w	r5, #805306368	; 0x30000000
  402158:	d013      	beq.n	402182 <pio_configure_pin_group+0x56>
  40215a:	f1b5 5f60 	cmp.w	r5, #939524096	; 0x38000000
  40215e:	d010      	beq.n	402182 <pio_configure_pin_group+0x56>
  402160:	f1b5 5f20 	cmp.w	r5, #671088640	; 0x28000000
  402164:	d11d      	bne.n	4021a2 <pio_configure_pin_group+0x76>
  402166:	4b10      	ldr	r3, [pc, #64]	; (4021a8 <pio_configure_pin_group+0x7c>)
  402168:	4798      	blx	r3
  40216a:	2001      	movs	r0, #1
  40216c:	e01a      	b.n	4021a4 <pio_configure_pin_group+0x78>
  40216e:	4622      	mov	r2, r4
  402170:	4629      	mov	r1, r5
  402172:	4b0e      	ldr	r3, [pc, #56]	; (4021ac <pio_configure_pin_group+0x80>)
  402174:	4798      	blx	r3
  402176:	07f8      	lsls	r0, r7, #31
  402178:	d401      	bmi.n	40217e <pio_configure_pin_group+0x52>
  40217a:	6634      	str	r4, [r6, #96]	; 0x60
  40217c:	e7f5      	b.n	40216a <pio_configure_pin_group+0x3e>
  40217e:	6674      	str	r4, [r6, #100]	; 0x64
  402180:	e7f3      	b.n	40216a <pio_configure_pin_group+0x3e>
  402182:	f007 5260 	and.w	r2, r7, #939524096	; 0x38000000
  402186:	f102 4148 	add.w	r1, r2, #3355443200	; 0xc8000000
  40218a:	f007 0301 	and.w	r3, r7, #1
  40218e:	424a      	negs	r2, r1
  402190:	9300      	str	r3, [sp, #0]
  402192:	414a      	adcs	r2, r1
  402194:	f3c7 0380 	ubfx	r3, r7, #2, #1
  402198:	4621      	mov	r1, r4
  40219a:	4630      	mov	r0, r6
  40219c:	4c04      	ldr	r4, [pc, #16]	; (4021b0 <pio_configure_pin_group+0x84>)
  40219e:	47a0      	blx	r4
  4021a0:	e7e3      	b.n	40216a <pio_configure_pin_group+0x3e>
  4021a2:	2000      	movs	r0, #0
  4021a4:	b003      	add	sp, #12
  4021a6:	bdf0      	pop	{r4, r5, r6, r7, pc}
  4021a8:	00401fb5 	.word	0x00401fb5
  4021ac:	00401f39 	.word	0x00401f39
  4021b0:	00401fe1 	.word	0x00401fe1

004021b4 <pio_handler_process>:
  4021b4:	e92d 41f0 	stmdb	sp!, {r4, r5, r6, r7, r8, lr}
  4021b8:	4b19      	ldr	r3, [pc, #100]	; (402220 <pio_handler_process+0x6c>)
  4021ba:	4606      	mov	r6, r0
  4021bc:	4688      	mov	r8, r1
  4021be:	4798      	blx	r3
  4021c0:	4b18      	ldr	r3, [pc, #96]	; (402224 <pio_handler_process+0x70>)
  4021c2:	4605      	mov	r5, r0
  4021c4:	4630      	mov	r0, r6
  4021c6:	4798      	blx	r3
  4021c8:	4005      	ands	r5, r0
  4021ca:	d104      	bne.n	4021d6 <pio_handler_process+0x22>
  4021cc:	4b16      	ldr	r3, [pc, #88]	; (402228 <pio_handler_process+0x74>)
  4021ce:	681b      	ldr	r3, [r3, #0]
  4021d0:	b9cb      	cbnz	r3, 402206 <pio_handler_process+0x52>
  4021d2:	e8bd 81f0 	ldmia.w	sp!, {r4, r5, r6, r7, r8, pc}
  4021d6:	4c15      	ldr	r4, [pc, #84]	; (40222c <pio_handler_process+0x78>)
  4021d8:	f104 0760 	add.w	r7, r4, #96	; 0x60
  4021dc:	f854 3c0c 	ldr.w	r3, [r4, #-12]
  4021e0:	4543      	cmp	r3, r8
  4021e2:	d117      	bne.n	402214 <pio_handler_process+0x60>
  4021e4:	f854 1c08 	ldr.w	r1, [r4, #-8]
  4021e8:	4229      	tst	r1, r5
  4021ea:	d013      	beq.n	402214 <pio_handler_process+0x60>
  4021ec:	6823      	ldr	r3, [r4, #0]
  4021ee:	4640      	mov	r0, r8
  4021f0:	4798      	blx	r3
  4021f2:	f854 3c08 	ldr.w	r3, [r4, #-8]
  4021f6:	42a7      	cmp	r7, r4
  4021f8:	ea25 0503 	bic.w	r5, r5, r3
  4021fc:	d0e6      	beq.n	4021cc <pio_handler_process+0x18>
  4021fe:	3410      	adds	r4, #16
  402200:	2d00      	cmp	r5, #0
  402202:	d0e3      	beq.n	4021cc <pio_handler_process+0x18>
  402204:	e7ea      	b.n	4021dc <pio_handler_process+0x28>
  402206:	4b0a      	ldr	r3, [pc, #40]	; (402230 <pio_handler_process+0x7c>)
  402208:	681b      	ldr	r3, [r3, #0]
  40220a:	b13b      	cbz	r3, 40221c <pio_handler_process+0x68>
  40220c:	4630      	mov	r0, r6
  40220e:	e8bd 41f0 	ldmia.w	sp!, {r4, r5, r6, r7, r8, lr}
  402212:	4718      	bx	r3
  402214:	42a7      	cmp	r7, r4
  402216:	d0d9      	beq.n	4021cc <pio_handler_process+0x18>
  402218:	3410      	adds	r4, #16
  40221a:	e7df      	b.n	4021dc <pio_handler_process+0x28>
  40221c:	e8bd 81f0 	ldmia.w	sp!, {r4, r5, r6, r7, r8, pc}
  402220:	0040200d 	.word	0x0040200d
  402224:	00402011 	.word	0x00402011
  402228:	20002728 	.word	0x20002728
  40222c:	20000564 	.word	0x20000564
  402230:	20000554 	.word	0x20000554

00402234 <pio_handler_set>:
  402234:	e92d 43f8 	stmdb	sp!, {r3, r4, r5, r6, r7, r8, r9, lr}
  402238:	4e16      	ldr	r6, [pc, #88]	; (402294 <pio_handler_set+0x60>)
  40223a:	6834      	ldr	r4, [r6, #0]
  40223c:	2c06      	cmp	r4, #6
  40223e:	4689      	mov	r9, r1
  402240:	46b4      	mov	ip, r6
  402242:	4611      	mov	r1, r2
  402244:	d823      	bhi.n	40228e <pio_handler_set+0x5a>
  402246:	4f14      	ldr	r7, [pc, #80]	; (402298 <pio_handler_set+0x64>)
  402248:	2600      	movs	r6, #0
  40224a:	fa5f f886 	uxtb.w	r8, r6
  40224e:	4544      	cmp	r4, r8
  402250:	d30c      	bcc.n	40226c <pio_handler_set+0x38>
  402252:	ea4f 1e08 	mov.w	lr, r8, lsl #4
  402256:	eb07 050e 	add.w	r5, r7, lr
  40225a:	f857 200e 	ldr.w	r2, [r7, lr]
  40225e:	454a      	cmp	r2, r9
  402260:	d102      	bne.n	402268 <pio_handler_set+0x34>
  402262:	686a      	ldr	r2, [r5, #4]
  402264:	428a      	cmp	r2, r1
  402266:	d001      	beq.n	40226c <pio_handler_set+0x38>
  402268:	3601      	adds	r6, #1
  40226a:	e7ee      	b.n	40224a <pio_handler_set+0x16>
  40226c:	9a08      	ldr	r2, [sp, #32]
  40226e:	60ab      	str	r3, [r5, #8]
  402270:	3401      	adds	r4, #1
  402272:	60ea      	str	r2, [r5, #12]
  402274:	4544      	cmp	r4, r8
  402276:	461a      	mov	r2, r3
  402278:	f8c5 9000 	str.w	r9, [r5]
  40227c:	6069      	str	r1, [r5, #4]
  40227e:	4b07      	ldr	r3, [pc, #28]	; (40229c <pio_handler_set+0x68>)
  402280:	bf08      	it	eq
  402282:	f8cc 8000 	streq.w	r8, [ip]
  402286:	4798      	blx	r3
  402288:	2000      	movs	r0, #0
  40228a:	e8bd 83f8 	ldmia.w	sp!, {r3, r4, r5, r6, r7, r8, r9, pc}
  40228e:	2001      	movs	r0, #1
  402290:	e8bd 83f8 	ldmia.w	sp!, {r3, r4, r5, r6, r7, r8, r9, pc}
  402294:	20000550 	.word	0x20000550
  402298:	20000558 	.word	0x20000558
  40229c:	0040203d 	.word	0x0040203d

004022a0 <PIOA_Handler>:
  4022a0:	210b      	movs	r1, #11
  4022a2:	4801      	ldr	r0, [pc, #4]	; (4022a8 <PIOA_Handler+0x8>)
  4022a4:	4b01      	ldr	r3, [pc, #4]	; (4022ac <PIOA_Handler+0xc>)
  4022a6:	4718      	bx	r3
  4022a8:	400e0e00 	.word	0x400e0e00
  4022ac:	004021b5 	.word	0x004021b5

004022b0 <PIOB_Handler>:
  4022b0:	210c      	movs	r1, #12
  4022b2:	4801      	ldr	r0, [pc, #4]	; (4022b8 <PIOB_Handler+0x8>)
  4022b4:	4b01      	ldr	r3, [pc, #4]	; (4022bc <PIOB_Handler+0xc>)
  4022b6:	4718      	bx	r3
  4022b8:	400e1000 	.word	0x400e1000
  4022bc:	004021b5 	.word	0x004021b5

004022c0 <pio_handler_set_priority>:
  4022c0:	e92d 41f0 	stmdb	sp!, {r4, r5, r6, r7, r8, lr}
  4022c4:	4b1a      	ldr	r3, [pc, #104]	; (402330 <pio_handler_set_priority+0x70>)
  4022c6:	460c      	mov	r4, r1
  4022c8:	4606      	mov	r6, r0
  4022ca:	4615      	mov	r5, r2
  4022cc:	4798      	blx	r3
  4022ce:	f04f 31ff 	mov.w	r1, #4294967295
  4022d2:	4607      	mov	r7, r0
  4022d4:	4b17      	ldr	r3, [pc, #92]	; (402334 <pio_handler_set_priority+0x74>)
  4022d6:	4630      	mov	r0, r6
  4022d8:	4798      	blx	r3
  4022da:	4630      	mov	r0, r6
  4022dc:	4b16      	ldr	r3, [pc, #88]	; (402338 <pio_handler_set_priority+0x78>)
  4022de:	4798      	blx	r3
  4022e0:	b2e0      	uxtb	r0, r4
  4022e2:	f000 031f 	and.w	r3, r0, #31
  4022e6:	2101      	movs	r1, #1
  4022e8:	4099      	lsls	r1, r3
  4022ea:	0963      	lsrs	r3, r4, #5
  4022ec:	009b      	lsls	r3, r3, #2
  4022ee:	2c00      	cmp	r4, #0
  4022f0:	f103 4360 	add.w	r3, r3, #3758096384	; 0xe0000000
  4022f4:	ea4f 1205 	mov.w	r2, r5, lsl #4
  4022f8:	f503 4361 	add.w	r3, r3, #57600	; 0xe100
  4022fc:	bfae      	itee	ge
  4022fe:	f104 4460 	addge.w	r4, r4, #3758096384	; 0xe0000000
  402302:	f000 000f 	andlt.w	r0, r0, #15
  402306:	4c0d      	ldrlt	r4, [pc, #52]	; (40233c <pio_handler_set_priority+0x7c>)
  402308:	f8c3 1080 	str.w	r1, [r3, #128]	; 0x80
  40230c:	bfac      	ite	ge
  40230e:	f504 4461 	addge.w	r4, r4, #57600	; 0xe100
  402312:	b2d2      	uxtblt	r2, r2
  402314:	f8c3 1180 	str.w	r1, [r3, #384]	; 0x180
  402318:	bfaa      	itet	ge
  40231a:	b2d2      	uxtbge	r2, r2
  40231c:	5422      	strblt	r2, [r4, r0]
  40231e:	f884 2300 	strbge.w	r2, [r4, #768]	; 0x300
  402322:	6019      	str	r1, [r3, #0]
  402324:	4630      	mov	r0, r6
  402326:	4639      	mov	r1, r7
  402328:	4b05      	ldr	r3, [pc, #20]	; (402340 <pio_handler_set_priority+0x80>)
  40232a:	e8bd 41f0 	ldmia.w	sp!, {r4, r5, r6, r7, r8, lr}
  40232e:	4718      	bx	r3
  402330:	00402011 	.word	0x00402011
  402334:	00402009 	.word	0x00402009
  402338:	0040200d 	.word	0x0040200d
  40233c:	e000ed14 	.word	0xe000ed14
  402340:	00402005 	.word	0x00402005

00402344 <pmc_switch_mck_to_pllack>:
  402344:	4b0f      	ldr	r3, [pc, #60]	; (402384 <pmc_switch_mck_to_pllack+0x40>)
  402346:	6b1a      	ldr	r2, [r3, #48]	; 0x30
  402348:	f022 0270 	bic.w	r2, r2, #112	; 0x70
  40234c:	4310      	orrs	r0, r2
  40234e:	6318      	str	r0, [r3, #48]	; 0x30
  402350:	f640 0201 	movw	r2, #2049	; 0x801
  402354:	6e98      	ldr	r0, [r3, #104]	; 0x68
  402356:	490b      	ldr	r1, [pc, #44]	; (402384 <pmc_switch_mck_to_pllack+0x40>)
  402358:	0700      	lsls	r0, r0, #28
  40235a:	d403      	bmi.n	402364 <pmc_switch_mck_to_pllack+0x20>
  40235c:	3a01      	subs	r2, #1
  40235e:	d1f9      	bne.n	402354 <pmc_switch_mck_to_pllack+0x10>
  402360:	2001      	movs	r0, #1
  402362:	4770      	bx	lr
  402364:	6b0a      	ldr	r2, [r1, #48]	; 0x30
  402366:	f022 0203 	bic.w	r2, r2, #3
  40236a:	f042 0202 	orr.w	r2, r2, #2
  40236e:	630a      	str	r2, [r1, #48]	; 0x30
  402370:	f640 0201 	movw	r2, #2049	; 0x801
  402374:	6e99      	ldr	r1, [r3, #104]	; 0x68
  402376:	0709      	lsls	r1, r1, #28
  402378:	d402      	bmi.n	402380 <pmc_switch_mck_to_pllack+0x3c>
  40237a:	3a01      	subs	r2, #1
  40237c:	d1fa      	bne.n	402374 <pmc_switch_mck_to_pllack+0x30>
  40237e:	e7ef      	b.n	402360 <pmc_switch_mck_to_pllack+0x1c>
  402380:	2000      	movs	r0, #0
  402382:	4770      	bx	lr
  402384:	400e0400 	.word	0x400e0400

00402388 <pmc_switch_mainck_to_xtal>:
  402388:	b510      	push	{r4, lr}
  40238a:	4c10      	ldr	r4, [pc, #64]	; (4023cc <pmc_switch_mainck_to_xtal+0x44>)
  40238c:	b130      	cbz	r0, 40239c <pmc_switch_mainck_to_xtal+0x14>
  40238e:	6a23      	ldr	r3, [r4, #32]
  402390:	4a0f      	ldr	r2, [pc, #60]	; (4023d0 <pmc_switch_mainck_to_xtal+0x48>)
  402392:	401a      	ands	r2, r3
  402394:	4b0f      	ldr	r3, [pc, #60]	; (4023d4 <pmc_switch_mainck_to_xtal+0x4c>)
  402396:	4313      	orrs	r3, r2
  402398:	6223      	str	r3, [r4, #32]
  40239a:	bd10      	pop	{r4, pc}
  40239c:	6a22      	ldr	r2, [r4, #32]
  40239e:	f422 135c 	bic.w	r3, r2, #3604480	; 0x370000
  4023a2:	f023 0303 	bic.w	r3, r3, #3
  4023a6:	0209      	lsls	r1, r1, #8
  4023a8:	f443 135c 	orr.w	r3, r3, #3604480	; 0x370000
  4023ac:	b289      	uxth	r1, r1
  4023ae:	f043 0301 	orr.w	r3, r3, #1
  4023b2:	430b      	orrs	r3, r1
  4023b4:	6223      	str	r3, [r4, #32]
  4023b6:	6ea3      	ldr	r3, [r4, #104]	; 0x68
  4023b8:	4a04      	ldr	r2, [pc, #16]	; (4023cc <pmc_switch_mainck_to_xtal+0x44>)
  4023ba:	07db      	lsls	r3, r3, #31
  4023bc:	d5fb      	bpl.n	4023b6 <pmc_switch_mainck_to_xtal+0x2e>
  4023be:	6a13      	ldr	r3, [r2, #32]
  4023c0:	f043 739b 	orr.w	r3, r3, #20316160	; 0x1360000
  4023c4:	f443 3380 	orr.w	r3, r3, #65536	; 0x10000
  4023c8:	6213      	str	r3, [r2, #32]
  4023ca:	bd10      	pop	{r4, pc}
  4023cc:	400e0400 	.word	0x400e0400
  4023d0:	fec8fffc 	.word	0xfec8fffc
  4023d4:	01370002 	.word	0x01370002

004023d8 <pmc_osc_is_ready_mainck>:
  4023d8:	4b02      	ldr	r3, [pc, #8]	; (4023e4 <pmc_osc_is_ready_mainck+0xc>)
  4023da:	6e98      	ldr	r0, [r3, #104]	; 0x68
  4023dc:	f400 3080 	and.w	r0, r0, #65536	; 0x10000
  4023e0:	4770      	bx	lr
  4023e2:	bf00      	nop
  4023e4:	400e0400 	.word	0x400e0400

004023e8 <pmc_disable_pllack>:
  4023e8:	4b02      	ldr	r3, [pc, #8]	; (4023f4 <pmc_disable_pllack+0xc>)
  4023ea:	f04f 5200 	mov.w	r2, #536870912	; 0x20000000
  4023ee:	629a      	str	r2, [r3, #40]	; 0x28
  4023f0:	4770      	bx	lr
  4023f2:	bf00      	nop
  4023f4:	400e0400 	.word	0x400e0400

004023f8 <pmc_is_locked_pllack>:
  4023f8:	4b02      	ldr	r3, [pc, #8]	; (402404 <pmc_is_locked_pllack+0xc>)
  4023fa:	6e98      	ldr	r0, [r3, #104]	; 0x68
  4023fc:	f000 0002 	and.w	r0, r0, #2
  402400:	4770      	bx	lr
  402402:	bf00      	nop
  402404:	400e0400 	.word	0x400e0400

00402408 <pmc_enable_periph_clk>:
  402408:	2822      	cmp	r0, #34	; 0x22
  40240a:	d817      	bhi.n	40243c <pmc_enable_periph_clk+0x34>
  40240c:	281f      	cmp	r0, #31
  40240e:	4a0d      	ldr	r2, [pc, #52]	; (402444 <pmc_enable_periph_clk+0x3c>)
  402410:	f04f 0301 	mov.w	r3, #1
  402414:	d807      	bhi.n	402426 <pmc_enable_periph_clk+0x1e>
  402416:	6991      	ldr	r1, [r2, #24]
  402418:	fa03 f000 	lsl.w	r0, r3, r0
  40241c:	ea30 0301 	bics.w	r3, r0, r1
  402420:	d00e      	beq.n	402440 <pmc_enable_periph_clk+0x38>
  402422:	6110      	str	r0, [r2, #16]
  402424:	e00c      	b.n	402440 <pmc_enable_periph_clk+0x38>
  402426:	3820      	subs	r0, #32
  402428:	f8d2 1108 	ldr.w	r1, [r2, #264]	; 0x108
  40242c:	fa03 f000 	lsl.w	r0, r3, r0
  402430:	ea30 0301 	bics.w	r3, r0, r1
  402434:	d004      	beq.n	402440 <pmc_enable_periph_clk+0x38>
  402436:	f8c2 0100 	str.w	r0, [r2, #256]	; 0x100
  40243a:	e001      	b.n	402440 <pmc_enable_periph_clk+0x38>
  40243c:	2001      	movs	r0, #1
  40243e:	4770      	bx	lr
  402440:	2000      	movs	r0, #0
  402442:	4770      	bx	lr
  402444:	400e0400 	.word	0x400e0400

00402448 <Dummy_Handler>:
  402448:	e7fe      	b.n	402448 <Dummy_Handler>
	...

0040244c <Reset_Handler>:
  40244c:	b508      	push	{r3, lr}
  40244e:	4a15      	ldr	r2, [pc, #84]	; (4024a4 <Reset_Handler+0x58>)
  402450:	4b15      	ldr	r3, [pc, #84]	; (4024a8 <Reset_Handler+0x5c>)
  402452:	429a      	cmp	r2, r3
  402454:	d90d      	bls.n	402472 <Reset_Handler+0x26>
  402456:	4915      	ldr	r1, [pc, #84]	; (4024ac <Reset_Handler+0x60>)
  402458:	3a04      	subs	r2, #4
  40245a:	428b      	cmp	r3, r1
  40245c:	d204      	bcs.n	402468 <Reset_Handler+0x1c>
  40245e:	f852 0f04 	ldr.w	r0, [r2, #4]!
  402462:	f843 0b04 	str.w	r0, [r3], #4
  402466:	e7f8      	b.n	40245a <Reset_Handler+0xe>
  402468:	bf00      	nop
  40246a:	4b11      	ldr	r3, [pc, #68]	; (4024b0 <Reset_Handler+0x64>)
  40246c:	4a11      	ldr	r2, [pc, #68]	; (4024b4 <Reset_Handler+0x68>)
  40246e:	2100      	movs	r1, #0
  402470:	e00b      	b.n	40248a <Reset_Handler+0x3e>
  402472:	d2f9      	bcs.n	402468 <Reset_Handler+0x1c>
  402474:	490d      	ldr	r1, [pc, #52]	; (4024ac <Reset_Handler+0x60>)
  402476:	3a04      	subs	r2, #4
  402478:	1acb      	subs	r3, r1, r3
  40247a:	4413      	add	r3, r2
  40247c:	1ac9      	subs	r1, r1, r3
  40247e:	4293      	cmp	r3, r2
  402480:	d0f2      	beq.n	402468 <Reset_Handler+0x1c>
  402482:	f853 0904 	ldr.w	r0, [r3], #-4
  402486:	5058      	str	r0, [r3, r1]
  402488:	e7f9      	b.n	40247e <Reset_Handler+0x32>
  40248a:	4293      	cmp	r3, r2
  40248c:	d202      	bcs.n	402494 <Reset_Handler+0x48>
  40248e:	f843 1b04 	str.w	r1, [r3], #4
  402492:	e7fa      	b.n	40248a <Reset_Handler+0x3e>
  402494:	4b08      	ldr	r3, [pc, #32]	; (4024b8 <Reset_Handler+0x6c>)
  402496:	4a09      	ldr	r2, [pc, #36]	; (4024bc <Reset_Handler+0x70>)
  402498:	609a      	str	r2, [r3, #8]
  40249a:	4b09      	ldr	r3, [pc, #36]	; (4024c0 <Reset_Handler+0x74>)
  40249c:	4798      	blx	r3
  40249e:	4b09      	ldr	r3, [pc, #36]	; (4024c4 <Reset_Handler+0x78>)
  4024a0:	4798      	blx	r3
  4024a2:	e7fe      	b.n	4024a2 <Reset_Handler+0x56>
  4024a4:	00407d34 	.word	0x00407d34
  4024a8:	20000000 	.word	0x20000000
  4024ac:	20000464 	.word	0x20000464
  4024b0:	20000468 	.word	0x20000468
  4024b4:	2000272c 	.word	0x2000272c
  4024b8:	e000ed00 	.word	0xe000ed00
  4024bc:	00400000 	.word	0x00400000
  4024c0:	00407675 	.word	0x00407675
  4024c4:	00403d81 	.word	0x00403d81

004024c8 <SystemCoreClockUpdate>:
  4024c8:	b510      	push	{r4, lr}
  4024ca:	4a2c      	ldr	r2, [pc, #176]	; (40257c <SystemCoreClockUpdate+0xb4>)
  4024cc:	6b13      	ldr	r3, [r2, #48]	; 0x30
  4024ce:	f003 0303 	and.w	r3, r3, #3
  4024d2:	2b01      	cmp	r3, #1
  4024d4:	4b2a      	ldr	r3, [pc, #168]	; (402580 <SystemCoreClockUpdate+0xb8>)
  4024d6:	d00d      	beq.n	4024f4 <SystemCoreClockUpdate+0x2c>
  4024d8:	d303      	bcc.n	4024e2 <SystemCoreClockUpdate+0x1a>
  4024da:	6a11      	ldr	r1, [r2, #32]
  4024dc:	01cc      	lsls	r4, r1, #7
  4024de:	d51a      	bpl.n	402516 <SystemCoreClockUpdate+0x4e>
  4024e0:	e025      	b.n	40252e <SystemCoreClockUpdate+0x66>
  4024e2:	4928      	ldr	r1, [pc, #160]	; (402584 <SystemCoreClockUpdate+0xbc>)
  4024e4:	6949      	ldr	r1, [r1, #20]
  4024e6:	0608      	lsls	r0, r1, #24
  4024e8:	bf4c      	ite	mi
  4024ea:	f44f 4100 	movmi.w	r1, #32768	; 0x8000
  4024ee:	f44f 41fa 	movpl.w	r1, #32000	; 0x7d00
  4024f2:	e030      	b.n	402556 <SystemCoreClockUpdate+0x8e>
  4024f4:	6a11      	ldr	r1, [r2, #32]
  4024f6:	01c9      	lsls	r1, r1, #7
  4024f8:	d40b      	bmi.n	402512 <SystemCoreClockUpdate+0x4a>
  4024fa:	4923      	ldr	r1, [pc, #140]	; (402588 <SystemCoreClockUpdate+0xc0>)
  4024fc:	6019      	str	r1, [r3, #0]
  4024fe:	6a11      	ldr	r1, [r2, #32]
  402500:	f001 0170 	and.w	r1, r1, #112	; 0x70
  402504:	2910      	cmp	r1, #16
  402506:	d002      	beq.n	40250e <SystemCoreClockUpdate+0x46>
  402508:	2920      	cmp	r1, #32
  40250a:	d002      	beq.n	402512 <SystemCoreClockUpdate+0x4a>
  40250c:	e024      	b.n	402558 <SystemCoreClockUpdate+0x90>
  40250e:	491f      	ldr	r1, [pc, #124]	; (40258c <SystemCoreClockUpdate+0xc4>)
  402510:	e021      	b.n	402556 <SystemCoreClockUpdate+0x8e>
  402512:	491f      	ldr	r1, [pc, #124]	; (402590 <SystemCoreClockUpdate+0xc8>)
  402514:	e01f      	b.n	402556 <SystemCoreClockUpdate+0x8e>
  402516:	491c      	ldr	r1, [pc, #112]	; (402588 <SystemCoreClockUpdate+0xc0>)
  402518:	6019      	str	r1, [r3, #0]
  40251a:	6a11      	ldr	r1, [r2, #32]
  40251c:	f001 0170 	and.w	r1, r1, #112	; 0x70
  402520:	2910      	cmp	r1, #16
  402522:	d002      	beq.n	40252a <SystemCoreClockUpdate+0x62>
  402524:	2920      	cmp	r1, #32
  402526:	d002      	beq.n	40252e <SystemCoreClockUpdate+0x66>
  402528:	e003      	b.n	402532 <SystemCoreClockUpdate+0x6a>
  40252a:	4918      	ldr	r1, [pc, #96]	; (40258c <SystemCoreClockUpdate+0xc4>)
  40252c:	e000      	b.n	402530 <SystemCoreClockUpdate+0x68>
  40252e:	4918      	ldr	r1, [pc, #96]	; (402590 <SystemCoreClockUpdate+0xc8>)
  402530:	6019      	str	r1, [r3, #0]
  402532:	6b11      	ldr	r1, [r2, #48]	; 0x30
  402534:	4811      	ldr	r0, [pc, #68]	; (40257c <SystemCoreClockUpdate+0xb4>)
  402536:	f001 0103 	and.w	r1, r1, #3
  40253a:	2902      	cmp	r1, #2
  40253c:	bf0b      	itete	eq
  40253e:	6a81      	ldreq	r1, [r0, #40]	; 0x28
  402540:	6ac1      	ldrne	r1, [r0, #44]	; 0x2c
  402542:	6a80      	ldreq	r0, [r0, #40]	; 0x28
  402544:	6ac0      	ldrne	r0, [r0, #44]	; 0x2c
  402546:	f3c1 440a 	ubfx	r4, r1, #16, #11
  40254a:	6819      	ldr	r1, [r3, #0]
  40254c:	b2c0      	uxtb	r0, r0
  40254e:	fb04 1101 	mla	r1, r4, r1, r1
  402552:	fbb1 f1f0 	udiv	r1, r1, r0
  402556:	6019      	str	r1, [r3, #0]
  402558:	6b12      	ldr	r2, [r2, #48]	; 0x30
  40255a:	f002 0270 	and.w	r2, r2, #112	; 0x70
  40255e:	2a70      	cmp	r2, #112	; 0x70
  402560:	bf17      	itett	ne
  402562:	4a06      	ldrne	r2, [pc, #24]	; (40257c <SystemCoreClockUpdate+0xb4>)
  402564:	681a      	ldreq	r2, [r3, #0]
  402566:	6b12      	ldrne	r2, [r2, #48]	; 0x30
  402568:	f3c2 1102 	ubfxne	r1, r2, #4, #3
  40256c:	bf19      	ittee	ne
  40256e:	681a      	ldrne	r2, [r3, #0]
  402570:	40ca      	lsrne	r2, r1
  402572:	2103      	moveq	r1, #3
  402574:	fbb2 f2f1 	udiveq	r2, r2, r1
  402578:	601a      	str	r2, [r3, #0]
  40257a:	bd10      	pop	{r4, pc}
  40257c:	400e0400 	.word	0x400e0400
  402580:	20000024 	.word	0x20000024
  402584:	400e1410 	.word	0x400e1410
  402588:	003d0900 	.word	0x003d0900
  40258c:	007a1200 	.word	0x007a1200
  402590:	00b71b00 	.word	0x00b71b00

00402594 <system_init_flash>:
  402594:	4b0e      	ldr	r3, [pc, #56]	; (4025d0 <system_init_flash+0x3c>)
  402596:	4298      	cmp	r0, r3
  402598:	4b0e      	ldr	r3, [pc, #56]	; (4025d4 <system_init_flash+0x40>)
  40259a:	d802      	bhi.n	4025a2 <system_init_flash+0xe>
  40259c:	f04f 6280 	mov.w	r2, #67108864	; 0x4000000
  4025a0:	e014      	b.n	4025cc <system_init_flash+0x38>
  4025a2:	4a0d      	ldr	r2, [pc, #52]	; (4025d8 <system_init_flash+0x44>)
  4025a4:	4290      	cmp	r0, r2
  4025a6:	d801      	bhi.n	4025ac <system_init_flash+0x18>
  4025a8:	4a0c      	ldr	r2, [pc, #48]	; (4025dc <system_init_flash+0x48>)
  4025aa:	e00f      	b.n	4025cc <system_init_flash+0x38>
  4025ac:	4a0c      	ldr	r2, [pc, #48]	; (4025e0 <system_init_flash+0x4c>)
  4025ae:	4290      	cmp	r0, r2
  4025b0:	d801      	bhi.n	4025b6 <system_init_flash+0x22>
  4025b2:	4a0c      	ldr	r2, [pc, #48]	; (4025e4 <system_init_flash+0x50>)
  4025b4:	e00a      	b.n	4025cc <system_init_flash+0x38>
  4025b6:	4a0c      	ldr	r2, [pc, #48]	; (4025e8 <system_init_flash+0x54>)
  4025b8:	4290      	cmp	r0, r2
  4025ba:	d801      	bhi.n	4025c0 <system_init_flash+0x2c>
  4025bc:	4a0b      	ldr	r2, [pc, #44]	; (4025ec <system_init_flash+0x58>)
  4025be:	e005      	b.n	4025cc <system_init_flash+0x38>
  4025c0:	4a0b      	ldr	r2, [pc, #44]	; (4025f0 <system_init_flash+0x5c>)
  4025c2:	4290      	cmp	r0, r2
  4025c4:	bf8c      	ite	hi
  4025c6:	4a0b      	ldrhi	r2, [pc, #44]	; (4025f4 <system_init_flash+0x60>)
  4025c8:	f04f 2204 	movls.w	r2, #67109888	; 0x4000400
  4025cc:	601a      	str	r2, [r3, #0]
  4025ce:	4770      	bx	lr
  4025d0:	01312cff 	.word	0x01312cff
  4025d4:	400e0a00 	.word	0x400e0a00
  4025d8:	026259ff 	.word	0x026259ff
  4025dc:	04000100 	.word	0x04000100
  4025e0:	039386ff 	.word	0x039386ff
  4025e4:	04000200 	.word	0x04000200
  4025e8:	04c4b3ff 	.word	0x04c4b3ff
  4025ec:	04000300 	.word	0x04000300
  4025f0:	05f5e0ff 	.word	0x05f5e0ff
  4025f4:	04000500 	.word	0x04000500

004025f8 <vListInitialise>:
  4025f8:	f100 0308 	add.w	r3, r0, #8
  4025fc:	f04f 32ff 	mov.w	r2, #4294967295
  402600:	6082      	str	r2, [r0, #8]
  402602:	6043      	str	r3, [r0, #4]
  402604:	60c3      	str	r3, [r0, #12]
  402606:	6103      	str	r3, [r0, #16]
  402608:	2300      	movs	r3, #0
  40260a:	6003      	str	r3, [r0, #0]
  40260c:	4770      	bx	lr

0040260e <vListInitialiseItem>:
  40260e:	2300      	movs	r3, #0
  402610:	6103      	str	r3, [r0, #16]
  402612:	4770      	bx	lr

00402614 <vListInsertEnd>:
  402614:	6843      	ldr	r3, [r0, #4]
  402616:	685a      	ldr	r2, [r3, #4]
  402618:	604a      	str	r2, [r1, #4]
  40261a:	6842      	ldr	r2, [r0, #4]
  40261c:	608a      	str	r2, [r1, #8]
  40261e:	685a      	ldr	r2, [r3, #4]
  402620:	6091      	str	r1, [r2, #8]
  402622:	6059      	str	r1, [r3, #4]
  402624:	6041      	str	r1, [r0, #4]
  402626:	6108      	str	r0, [r1, #16]
  402628:	6803      	ldr	r3, [r0, #0]
  40262a:	3301      	adds	r3, #1
  40262c:	6003      	str	r3, [r0, #0]
  40262e:	4770      	bx	lr

00402630 <vListInsert>:
  402630:	680a      	ldr	r2, [r1, #0]
  402632:	1c53      	adds	r3, r2, #1
  402634:	b510      	push	{r4, lr}
  402636:	d101      	bne.n	40263c <vListInsert+0xc>
  402638:	6903      	ldr	r3, [r0, #16]
  40263a:	e007      	b.n	40264c <vListInsert+0x1c>
  40263c:	f100 0308 	add.w	r3, r0, #8
  402640:	685c      	ldr	r4, [r3, #4]
  402642:	6824      	ldr	r4, [r4, #0]
  402644:	42a2      	cmp	r2, r4
  402646:	d301      	bcc.n	40264c <vListInsert+0x1c>
  402648:	685b      	ldr	r3, [r3, #4]
  40264a:	e7f9      	b.n	402640 <vListInsert+0x10>
  40264c:	685a      	ldr	r2, [r3, #4]
  40264e:	604a      	str	r2, [r1, #4]
  402650:	6091      	str	r1, [r2, #8]
  402652:	608b      	str	r3, [r1, #8]
  402654:	6059      	str	r1, [r3, #4]
  402656:	6108      	str	r0, [r1, #16]
  402658:	6803      	ldr	r3, [r0, #0]
  40265a:	3301      	adds	r3, #1
  40265c:	6003      	str	r3, [r0, #0]
  40265e:	bd10      	pop	{r4, pc}

00402660 <uxListRemove>:
  402660:	6843      	ldr	r3, [r0, #4]
  402662:	6882      	ldr	r2, [r0, #8]
  402664:	609a      	str	r2, [r3, #8]
  402666:	6883      	ldr	r3, [r0, #8]
  402668:	6842      	ldr	r2, [r0, #4]
  40266a:	605a      	str	r2, [r3, #4]
  40266c:	6903      	ldr	r3, [r0, #16]
  40266e:	685a      	ldr	r2, [r3, #4]
  402670:	4290      	cmp	r0, r2
  402672:	bf04      	itt	eq
  402674:	6882      	ldreq	r2, [r0, #8]
  402676:	605a      	streq	r2, [r3, #4]
  402678:	2200      	movs	r2, #0
  40267a:	6102      	str	r2, [r0, #16]
  40267c:	681a      	ldr	r2, [r3, #0]
  40267e:	3a01      	subs	r2, #1
  402680:	601a      	str	r2, [r3, #0]
  402682:	6818      	ldr	r0, [r3, #0]
  402684:	4770      	bx	lr
	...

00402688 <prvPortStartFirstTask>:
  402688:	4803      	ldr	r0, [pc, #12]	; (402698 <prvPortStartFirstTask+0x10>)
  40268a:	6800      	ldr	r0, [r0, #0]
  40268c:	6800      	ldr	r0, [r0, #0]
  40268e:	f380 8808 	msr	MSP, r0
  402692:	b662      	cpsie	i
  402694:	df00      	svc	0
  402696:	bf00      	nop
  402698:	e000ed08 	.word	0xe000ed08

0040269c <pxPortInitialiseStack>:
  40269c:	f04f 7380 	mov.w	r3, #16777216	; 0x1000000
  4026a0:	e900 000a 	stmdb	r0, {r1, r3}
  4026a4:	2300      	movs	r3, #0
  4026a6:	f840 3c0c 	str.w	r3, [r0, #-12]
  4026aa:	f840 2c20 	str.w	r2, [r0, #-32]
  4026ae:	3840      	subs	r0, #64	; 0x40
  4026b0:	4770      	bx	lr
	...

004026b4 <SVC_Handler>:
  4026b4:	4b06      	ldr	r3, [pc, #24]	; (4026d0 <pxCurrentTCBConst2>)
  4026b6:	6819      	ldr	r1, [r3, #0]
  4026b8:	6808      	ldr	r0, [r1, #0]
  4026ba:	e8b0 0ff0 	ldmia.w	r0!, {r4, r5, r6, r7, r8, r9, sl, fp}
  4026be:	f380 8809 	msr	PSP, r0
  4026c2:	f04f 0000 	mov.w	r0, #0
  4026c6:	f380 8811 	msr	BASEPRI, r0
  4026ca:	f04e 0e0d 	orr.w	lr, lr, #13
  4026ce:	4770      	bx	lr

004026d0 <pxCurrentTCBConst2>:
  4026d0:	2000268c 	.word	0x2000268c

004026d4 <vPortYieldFromISR>:
  4026d4:	4b02      	ldr	r3, [pc, #8]	; (4026e0 <vPortYieldFromISR+0xc>)
  4026d6:	f04f 5280 	mov.w	r2, #268435456	; 0x10000000
  4026da:	601a      	str	r2, [r3, #0]
  4026dc:	4770      	bx	lr
  4026de:	bf00      	nop
  4026e0:	e000ed04 	.word	0xe000ed04

004026e4 <ulPortSetInterruptMask>:
  4026e4:	f3ef 8011 	mrs	r0, BASEPRI
  4026e8:	f04f 01a0 	mov.w	r1, #160	; 0xa0
  4026ec:	f381 8811 	msr	BASEPRI, r1
  4026f0:	4770      	bx	lr
  4026f2:	2000      	movs	r0, #0

004026f4 <vPortEnterCritical>:
  4026f4:	b508      	push	{r3, lr}
  4026f6:	4b03      	ldr	r3, [pc, #12]	; (402704 <vPortEnterCritical+0x10>)
  4026f8:	4798      	blx	r3
  4026fa:	4a03      	ldr	r2, [pc, #12]	; (402708 <vPortEnterCritical+0x14>)
  4026fc:	6813      	ldr	r3, [r2, #0]
  4026fe:	3301      	adds	r3, #1
  402700:	6013      	str	r3, [r2, #0]
  402702:	bd08      	pop	{r3, pc}
  402704:	004026e5 	.word	0x004026e5
  402708:	20000028 	.word	0x20000028

0040270c <vPortClearInterruptMask>:
  40270c:	f380 8811 	msr	BASEPRI, r0
  402710:	4770      	bx	lr
	...

00402714 <vPortExitCritical>:
  402714:	4b03      	ldr	r3, [pc, #12]	; (402724 <vPortExitCritical+0x10>)
  402716:	6818      	ldr	r0, [r3, #0]
  402718:	3801      	subs	r0, #1
  40271a:	6018      	str	r0, [r3, #0]
  40271c:	b908      	cbnz	r0, 402722 <vPortExitCritical+0xe>
  40271e:	4b02      	ldr	r3, [pc, #8]	; (402728 <vPortExitCritical+0x14>)
  402720:	4718      	bx	r3
  402722:	4770      	bx	lr
  402724:	20000028 	.word	0x20000028
  402728:	0040270d 	.word	0x0040270d

0040272c <PendSV_Handler>:
  40272c:	f3ef 8009 	mrs	r0, PSP
  402730:	4b0c      	ldr	r3, [pc, #48]	; (402764 <pxCurrentTCBConst>)
  402732:	681a      	ldr	r2, [r3, #0]
  402734:	e920 0ff0 	stmdb	r0!, {r4, r5, r6, r7, r8, r9, sl, fp}
  402738:	6010      	str	r0, [r2, #0]
  40273a:	e92d 4008 	stmdb	sp!, {r3, lr}
  40273e:	f04f 00a0 	mov.w	r0, #160	; 0xa0
  402742:	f380 8811 	msr	BASEPRI, r0
  402746:	f000 fe2d 	bl	4033a4 <vTaskSwitchContext>
  40274a:	f04f 0000 	mov.w	r0, #0
  40274e:	f380 8811 	msr	BASEPRI, r0
  402752:	e8bd 4008 	ldmia.w	sp!, {r3, lr}
  402756:	6819      	ldr	r1, [r3, #0]
  402758:	6808      	ldr	r0, [r1, #0]
  40275a:	e8b0 0ff0 	ldmia.w	r0!, {r4, r5, r6, r7, r8, r9, sl, fp}
  40275e:	f380 8809 	msr	PSP, r0
  402762:	4770      	bx	lr

00402764 <pxCurrentTCBConst>:
  402764:	2000268c 	.word	0x2000268c

00402768 <SysTick_Handler>:
  402768:	b510      	push	{r4, lr}
  40276a:	4b06      	ldr	r3, [pc, #24]	; (402784 <SysTick_Handler+0x1c>)
  40276c:	f04f 5280 	mov.w	r2, #268435456	; 0x10000000
  402770:	601a      	str	r2, [r3, #0]
  402772:	4b05      	ldr	r3, [pc, #20]	; (402788 <SysTick_Handler+0x20>)
  402774:	4798      	blx	r3
  402776:	4b05      	ldr	r3, [pc, #20]	; (40278c <SysTick_Handler+0x24>)
  402778:	4798      	blx	r3
  40277a:	2000      	movs	r0, #0
  40277c:	4b04      	ldr	r3, [pc, #16]	; (402790 <SysTick_Handler+0x28>)
  40277e:	e8bd 4010 	ldmia.w	sp!, {r4, lr}
  402782:	4718      	bx	r3
  402784:	e000ed04 	.word	0xe000ed04
  402788:	004026e5 	.word	0x004026e5
  40278c:	004030fd 	.word	0x004030fd
  402790:	0040270d 	.word	0x0040270d

00402794 <vPortSetupTimerInterrupt>:
  402794:	4b03      	ldr	r3, [pc, #12]	; (4027a4 <vPortSetupTimerInterrupt+0x10>)
  402796:	4a04      	ldr	r2, [pc, #16]	; (4027a8 <vPortSetupTimerInterrupt+0x14>)
  402798:	601a      	str	r2, [r3, #0]
  40279a:	2207      	movs	r2, #7
  40279c:	f843 2c04 	str.w	r2, [r3, #-4]
  4027a0:	4770      	bx	lr
  4027a2:	bf00      	nop
  4027a4:	e000e014 	.word	0xe000e014
  4027a8:	000927bf 	.word	0x000927bf

004027ac <xPortStartScheduler>:
  4027ac:	b508      	push	{r3, lr}
  4027ae:	4b08      	ldr	r3, [pc, #32]	; (4027d0 <xPortStartScheduler+0x24>)
  4027b0:	681a      	ldr	r2, [r3, #0]
  4027b2:	f442 0270 	orr.w	r2, r2, #15728640	; 0xf00000
  4027b6:	601a      	str	r2, [r3, #0]
  4027b8:	681a      	ldr	r2, [r3, #0]
  4027ba:	f042 4270 	orr.w	r2, r2, #4026531840	; 0xf0000000
  4027be:	601a      	str	r2, [r3, #0]
  4027c0:	4b04      	ldr	r3, [pc, #16]	; (4027d4 <xPortStartScheduler+0x28>)
  4027c2:	4798      	blx	r3
  4027c4:	4b04      	ldr	r3, [pc, #16]	; (4027d8 <xPortStartScheduler+0x2c>)
  4027c6:	2000      	movs	r0, #0
  4027c8:	6018      	str	r0, [r3, #0]
  4027ca:	4b04      	ldr	r3, [pc, #16]	; (4027dc <xPortStartScheduler+0x30>)
  4027cc:	4798      	blx	r3
  4027ce:	bd08      	pop	{r3, pc}
  4027d0:	e000ed20 	.word	0xe000ed20
  4027d4:	00402795 	.word	0x00402795
  4027d8:	20000028 	.word	0x20000028
  4027dc:	00402689 	.word	0x00402689

004027e0 <prvInsertBlockIntoFreeList>:
  4027e0:	b510      	push	{r4, lr}
  4027e2:	4b10      	ldr	r3, [pc, #64]	; (402824 <prvInsertBlockIntoFreeList+0x44>)
  4027e4:	681a      	ldr	r2, [r3, #0]
  4027e6:	4282      	cmp	r2, r0
  4027e8:	d201      	bcs.n	4027ee <prvInsertBlockIntoFreeList+0xe>
  4027ea:	4613      	mov	r3, r2
  4027ec:	e7fa      	b.n	4027e4 <prvInsertBlockIntoFreeList+0x4>
  4027ee:	6859      	ldr	r1, [r3, #4]
  4027f0:	185c      	adds	r4, r3, r1
  4027f2:	42a0      	cmp	r0, r4
  4027f4:	bf01      	itttt	eq
  4027f6:	6840      	ldreq	r0, [r0, #4]
  4027f8:	1809      	addeq	r1, r1, r0
  4027fa:	4618      	moveq	r0, r3
  4027fc:	6059      	streq	r1, [r3, #4]
  4027fe:	6841      	ldr	r1, [r0, #4]
  402800:	1844      	adds	r4, r0, r1
  402802:	42a2      	cmp	r2, r4
  402804:	d108      	bne.n	402818 <prvInsertBlockIntoFreeList+0x38>
  402806:	4c08      	ldr	r4, [pc, #32]	; (402828 <prvInsertBlockIntoFreeList+0x48>)
  402808:	6824      	ldr	r4, [r4, #0]
  40280a:	42a2      	cmp	r2, r4
  40280c:	d004      	beq.n	402818 <prvInsertBlockIntoFreeList+0x38>
  40280e:	6852      	ldr	r2, [r2, #4]
  402810:	4411      	add	r1, r2
  402812:	6041      	str	r1, [r0, #4]
  402814:	681a      	ldr	r2, [r3, #0]
  402816:	6812      	ldr	r2, [r2, #0]
  402818:	6002      	str	r2, [r0, #0]
  40281a:	4298      	cmp	r0, r3
  40281c:	bf18      	it	ne
  40281e:	6018      	strne	r0, [r3, #0]
  402820:	bd10      	pop	{r4, pc}
  402822:	bf00      	nop
  402824:	200025cc 	.word	0x200025cc
  402828:	200025c8 	.word	0x200025c8

0040282c <pvPortMalloc>:
  40282c:	b570      	push	{r4, r5, r6, lr}
  40282e:	4b27      	ldr	r3, [pc, #156]	; (4028cc <pvPortMalloc+0xa0>)
  402830:	4604      	mov	r4, r0
  402832:	4798      	blx	r3
  402834:	4a26      	ldr	r2, [pc, #152]	; (4028d0 <pvPortMalloc+0xa4>)
  402836:	6811      	ldr	r1, [r2, #0]
  402838:	b989      	cbnz	r1, 40285e <pvPortMalloc+0x32>
  40283a:	4b26      	ldr	r3, [pc, #152]	; (4028d4 <pvPortMalloc+0xa8>)
  40283c:	4826      	ldr	r0, [pc, #152]	; (4028d8 <pvPortMalloc+0xac>)
  40283e:	f641 75f0 	movw	r5, #8176	; 0x1ff0
  402842:	f641 76f4 	movw	r6, #8180	; 0x1ff4
  402846:	6003      	str	r3, [r0, #0]
  402848:	6041      	str	r1, [r0, #4]
  40284a:	5199      	str	r1, [r3, r6]
  40284c:	4823      	ldr	r0, [pc, #140]	; (4028dc <pvPortMalloc+0xb0>)
  40284e:	5159      	str	r1, [r3, r5]
  402850:	4923      	ldr	r1, [pc, #140]	; (4028e0 <pvPortMalloc+0xb4>)
  402852:	6010      	str	r0, [r2, #0]
  402854:	e883 0021 	stmia.w	r3, {r0, r5}
  402858:	680b      	ldr	r3, [r1, #0]
  40285a:	3b10      	subs	r3, #16
  40285c:	600b      	str	r3, [r1, #0]
  40285e:	b12c      	cbz	r4, 40286c <pvPortMalloc+0x40>
  402860:	3410      	adds	r4, #16
  402862:	0763      	lsls	r3, r4, #29
  402864:	bf1c      	itt	ne
  402866:	f024 0407 	bicne.w	r4, r4, #7
  40286a:	3408      	addne	r4, #8
  40286c:	1e61      	subs	r1, r4, #1
  40286e:	f641 73fe 	movw	r3, #8190	; 0x1ffe
  402872:	4299      	cmp	r1, r3
  402874:	d822      	bhi.n	4028bc <pvPortMalloc+0x90>
  402876:	4b18      	ldr	r3, [pc, #96]	; (4028d8 <pvPortMalloc+0xac>)
  402878:	681d      	ldr	r5, [r3, #0]
  40287a:	6869      	ldr	r1, [r5, #4]
  40287c:	428c      	cmp	r4, r1
  40287e:	d803      	bhi.n	402888 <pvPortMalloc+0x5c>
  402880:	6812      	ldr	r2, [r2, #0]
  402882:	4295      	cmp	r5, r2
  402884:	d106      	bne.n	402894 <pvPortMalloc+0x68>
  402886:	e019      	b.n	4028bc <pvPortMalloc+0x90>
  402888:	6829      	ldr	r1, [r5, #0]
  40288a:	2900      	cmp	r1, #0
  40288c:	d0f8      	beq.n	402880 <pvPortMalloc+0x54>
  40288e:	462b      	mov	r3, r5
  402890:	460d      	mov	r5, r1
  402892:	e7f2      	b.n	40287a <pvPortMalloc+0x4e>
  402894:	682a      	ldr	r2, [r5, #0]
  402896:	681e      	ldr	r6, [r3, #0]
  402898:	601a      	str	r2, [r3, #0]
  40289a:	686b      	ldr	r3, [r5, #4]
  40289c:	1b1b      	subs	r3, r3, r4
  40289e:	2b20      	cmp	r3, #32
  4028a0:	f106 0610 	add.w	r6, r6, #16
  4028a4:	d904      	bls.n	4028b0 <pvPortMalloc+0x84>
  4028a6:	1928      	adds	r0, r5, r4
  4028a8:	6043      	str	r3, [r0, #4]
  4028aa:	606c      	str	r4, [r5, #4]
  4028ac:	4b0d      	ldr	r3, [pc, #52]	; (4028e4 <pvPortMalloc+0xb8>)
  4028ae:	4798      	blx	r3
  4028b0:	4a0b      	ldr	r2, [pc, #44]	; (4028e0 <pvPortMalloc+0xb4>)
  4028b2:	6869      	ldr	r1, [r5, #4]
  4028b4:	6813      	ldr	r3, [r2, #0]
  4028b6:	1a5b      	subs	r3, r3, r1
  4028b8:	6013      	str	r3, [r2, #0]
  4028ba:	e000      	b.n	4028be <pvPortMalloc+0x92>
  4028bc:	2600      	movs	r6, #0
  4028be:	4b0a      	ldr	r3, [pc, #40]	; (4028e8 <pvPortMalloc+0xbc>)
  4028c0:	4798      	blx	r3
  4028c2:	b90e      	cbnz	r6, 4028c8 <pvPortMalloc+0x9c>
  4028c4:	4b09      	ldr	r3, [pc, #36]	; (4028ec <pvPortMalloc+0xc0>)
  4028c6:	4798      	blx	r3
  4028c8:	4630      	mov	r0, r6
  4028ca:	bd70      	pop	{r4, r5, r6, pc}
  4028cc:	004030cd 	.word	0x004030cd
  4028d0:	200025c8 	.word	0x200025c8
  4028d4:	200005c8 	.word	0x200005c8
  4028d8:	200025cc 	.word	0x200025cc
  4028dc:	200025b8 	.word	0x200025b8
  4028e0:	2000002c 	.word	0x2000002c
  4028e4:	004027e1 	.word	0x004027e1
  4028e8:	004031f5 	.word	0x004031f5
  4028ec:	00403d35 	.word	0x00403d35

004028f0 <vPortFree>:
  4028f0:	b510      	push	{r4, lr}
  4028f2:	4604      	mov	r4, r0
  4028f4:	b178      	cbz	r0, 402916 <vPortFree+0x26>
  4028f6:	4b08      	ldr	r3, [pc, #32]	; (402918 <vPortFree+0x28>)
  4028f8:	4798      	blx	r3
  4028fa:	4a08      	ldr	r2, [pc, #32]	; (40291c <vPortFree+0x2c>)
  4028fc:	f854 1c0c 	ldr.w	r1, [r4, #-12]
  402900:	6813      	ldr	r3, [r2, #0]
  402902:	440b      	add	r3, r1
  402904:	6013      	str	r3, [r2, #0]
  402906:	f1a4 0010 	sub.w	r0, r4, #16
  40290a:	4b05      	ldr	r3, [pc, #20]	; (402920 <vPortFree+0x30>)
  40290c:	4798      	blx	r3
  40290e:	4b05      	ldr	r3, [pc, #20]	; (402924 <vPortFree+0x34>)
  402910:	e8bd 4010 	ldmia.w	sp!, {r4, lr}
  402914:	4718      	bx	r3
  402916:	bd10      	pop	{r4, pc}
  402918:	004030cd 	.word	0x004030cd
  40291c:	2000002c 	.word	0x2000002c
  402920:	004027e1 	.word	0x004027e1
  402924:	004031f5 	.word	0x004031f5

00402928 <prvCopyDataToQueue>:
  402928:	b538      	push	{r3, r4, r5, lr}
  40292a:	4604      	mov	r4, r0
  40292c:	4610      	mov	r0, r2
  40292e:	6c22      	ldr	r2, [r4, #64]	; 0x40
  402930:	b932      	cbnz	r2, 402940 <prvCopyDataToQueue+0x18>
  402932:	6825      	ldr	r5, [r4, #0]
  402934:	b9fd      	cbnz	r5, 402976 <prvCopyDataToQueue+0x4e>
  402936:	6860      	ldr	r0, [r4, #4]
  402938:	4b11      	ldr	r3, [pc, #68]	; (402980 <prvCopyDataToQueue+0x58>)
  40293a:	4798      	blx	r3
  40293c:	6065      	str	r5, [r4, #4]
  40293e:	e01a      	b.n	402976 <prvCopyDataToQueue+0x4e>
  402940:	4b10      	ldr	r3, [pc, #64]	; (402984 <prvCopyDataToQueue+0x5c>)
  402942:	b958      	cbnz	r0, 40295c <prvCopyDataToQueue+0x34>
  402944:	68a0      	ldr	r0, [r4, #8]
  402946:	4798      	blx	r3
  402948:	68a2      	ldr	r2, [r4, #8]
  40294a:	6c23      	ldr	r3, [r4, #64]	; 0x40
  40294c:	4413      	add	r3, r2
  40294e:	6862      	ldr	r2, [r4, #4]
  402950:	60a3      	str	r3, [r4, #8]
  402952:	4293      	cmp	r3, r2
  402954:	d30f      	bcc.n	402976 <prvCopyDataToQueue+0x4e>
  402956:	6823      	ldr	r3, [r4, #0]
  402958:	60a3      	str	r3, [r4, #8]
  40295a:	e00c      	b.n	402976 <prvCopyDataToQueue+0x4e>
  40295c:	68e0      	ldr	r0, [r4, #12]
  40295e:	4798      	blx	r3
  402960:	6c23      	ldr	r3, [r4, #64]	; 0x40
  402962:	68e2      	ldr	r2, [r4, #12]
  402964:	6821      	ldr	r1, [r4, #0]
  402966:	425b      	negs	r3, r3
  402968:	441a      	add	r2, r3
  40296a:	428a      	cmp	r2, r1
  40296c:	60e2      	str	r2, [r4, #12]
  40296e:	bf3e      	ittt	cc
  402970:	6862      	ldrcc	r2, [r4, #4]
  402972:	189b      	addcc	r3, r3, r2
  402974:	60e3      	strcc	r3, [r4, #12]
  402976:	6ba3      	ldr	r3, [r4, #56]	; 0x38
  402978:	3301      	adds	r3, #1
  40297a:	63a3      	str	r3, [r4, #56]	; 0x38
  40297c:	bd38      	pop	{r3, r4, r5, pc}
  40297e:	bf00      	nop
  402980:	004036c1 	.word	0x004036c1
  402984:	00407729 	.word	0x00407729

00402988 <prvCopyDataFromQueue>:
  402988:	b430      	push	{r4, r5}
  40298a:	4603      	mov	r3, r0
  40298c:	4608      	mov	r0, r1
  40298e:	681c      	ldr	r4, [r3, #0]
  402990:	b15c      	cbz	r4, 4029aa <prvCopyDataFromQueue+0x22>
  402992:	68d9      	ldr	r1, [r3, #12]
  402994:	6c1a      	ldr	r2, [r3, #64]	; 0x40
  402996:	685d      	ldr	r5, [r3, #4]
  402998:	4411      	add	r1, r2
  40299a:	42a9      	cmp	r1, r5
  40299c:	60d9      	str	r1, [r3, #12]
  40299e:	bf28      	it	cs
  4029a0:	60dc      	strcs	r4, [r3, #12]
  4029a2:	68d9      	ldr	r1, [r3, #12]
  4029a4:	4b02      	ldr	r3, [pc, #8]	; (4029b0 <prvCopyDataFromQueue+0x28>)
  4029a6:	bc30      	pop	{r4, r5}
  4029a8:	4718      	bx	r3
  4029aa:	bc30      	pop	{r4, r5}
  4029ac:	4770      	bx	lr
  4029ae:	bf00      	nop
  4029b0:	00407729 	.word	0x00407729

004029b4 <prvUnlockQueue>:
  4029b4:	e92d 41f0 	stmdb	sp!, {r4, r5, r6, r7, r8, lr}
  4029b8:	4d1a      	ldr	r5, [pc, #104]	; (402a24 <prvUnlockQueue+0x70>)
  4029ba:	4f1b      	ldr	r7, [pc, #108]	; (402a28 <prvUnlockQueue+0x74>)
  4029bc:	f8df 8070 	ldr.w	r8, [pc, #112]	; 402a30 <prvUnlockQueue+0x7c>
  4029c0:	4604      	mov	r4, r0
  4029c2:	462e      	mov	r6, r5
  4029c4:	47a8      	blx	r5
  4029c6:	f104 0524 	add.w	r5, r4, #36	; 0x24
  4029ca:	6ca3      	ldr	r3, [r4, #72]	; 0x48
  4029cc:	2b00      	cmp	r3, #0
  4029ce:	dd09      	ble.n	4029e4 <prvUnlockQueue+0x30>
  4029d0:	6a63      	ldr	r3, [r4, #36]	; 0x24
  4029d2:	b13b      	cbz	r3, 4029e4 <prvUnlockQueue+0x30>
  4029d4:	4628      	mov	r0, r5
  4029d6:	47b8      	blx	r7
  4029d8:	b100      	cbz	r0, 4029dc <prvUnlockQueue+0x28>
  4029da:	47c0      	blx	r8
  4029dc:	6ca3      	ldr	r3, [r4, #72]	; 0x48
  4029de:	3b01      	subs	r3, #1
  4029e0:	64a3      	str	r3, [r4, #72]	; 0x48
  4029e2:	e7f2      	b.n	4029ca <prvUnlockQueue+0x16>
  4029e4:	f04f 33ff 	mov.w	r3, #4294967295
  4029e8:	64a3      	str	r3, [r4, #72]	; 0x48
  4029ea:	4d10      	ldr	r5, [pc, #64]	; (402a2c <prvUnlockQueue+0x78>)
  4029ec:	4f0e      	ldr	r7, [pc, #56]	; (402a28 <prvUnlockQueue+0x74>)
  4029ee:	f8df 8040 	ldr.w	r8, [pc, #64]	; 402a30 <prvUnlockQueue+0x7c>
  4029f2:	47a8      	blx	r5
  4029f4:	47b0      	blx	r6
  4029f6:	f104 0610 	add.w	r6, r4, #16
  4029fa:	6c63      	ldr	r3, [r4, #68]	; 0x44
  4029fc:	2b00      	cmp	r3, #0
  4029fe:	dd09      	ble.n	402a14 <prvUnlockQueue+0x60>
  402a00:	6923      	ldr	r3, [r4, #16]
  402a02:	b13b      	cbz	r3, 402a14 <prvUnlockQueue+0x60>
  402a04:	4630      	mov	r0, r6
  402a06:	47b8      	blx	r7
  402a08:	b100      	cbz	r0, 402a0c <prvUnlockQueue+0x58>
  402a0a:	47c0      	blx	r8
  402a0c:	6c63      	ldr	r3, [r4, #68]	; 0x44
  402a0e:	3b01      	subs	r3, #1
  402a10:	6463      	str	r3, [r4, #68]	; 0x44
  402a12:	e7f2      	b.n	4029fa <prvUnlockQueue+0x46>
  402a14:	f04f 33ff 	mov.w	r3, #4294967295
  402a18:	6463      	str	r3, [r4, #68]	; 0x44
  402a1a:	462b      	mov	r3, r5
  402a1c:	e8bd 41f0 	ldmia.w	sp!, {r4, r5, r6, r7, r8, lr}
  402a20:	4718      	bx	r3
  402a22:	bf00      	nop
  402a24:	004026f5 	.word	0x004026f5
  402a28:	00403501 	.word	0x00403501
  402a2c:	00402715 	.word	0x00402715
  402a30:	00403619 	.word	0x00403619

00402a34 <xQueueGenericReset>:
  402a34:	b538      	push	{r3, r4, r5, lr}
  402a36:	460d      	mov	r5, r1
  402a38:	4604      	mov	r4, r0
  402a3a:	b918      	cbnz	r0, 402a44 <xQueueGenericReset+0x10>
  402a3c:	4b16      	ldr	r3, [pc, #88]	; (402a98 <xQueueGenericReset+0x64>)
  402a3e:	4798      	blx	r3
  402a40:	bf00      	nop
  402a42:	e7fd      	b.n	402a40 <xQueueGenericReset+0xc>
  402a44:	4b15      	ldr	r3, [pc, #84]	; (402a9c <xQueueGenericReset+0x68>)
  402a46:	4798      	blx	r3
  402a48:	6c20      	ldr	r0, [r4, #64]	; 0x40
  402a4a:	6be3      	ldr	r3, [r4, #60]	; 0x3c
  402a4c:	6822      	ldr	r2, [r4, #0]
  402a4e:	60a2      	str	r2, [r4, #8]
  402a50:	4343      	muls	r3, r0
  402a52:	18d1      	adds	r1, r2, r3
  402a54:	1a1b      	subs	r3, r3, r0
  402a56:	4413      	add	r3, r2
  402a58:	6061      	str	r1, [r4, #4]
  402a5a:	60e3      	str	r3, [r4, #12]
  402a5c:	2100      	movs	r1, #0
  402a5e:	f04f 33ff 	mov.w	r3, #4294967295
  402a62:	63a1      	str	r1, [r4, #56]	; 0x38
  402a64:	6463      	str	r3, [r4, #68]	; 0x44
  402a66:	64a3      	str	r3, [r4, #72]	; 0x48
  402a68:	b955      	cbnz	r5, 402a80 <xQueueGenericReset+0x4c>
  402a6a:	6923      	ldr	r3, [r4, #16]
  402a6c:	b17b      	cbz	r3, 402a8e <xQueueGenericReset+0x5a>
  402a6e:	f104 0010 	add.w	r0, r4, #16
  402a72:	4b0b      	ldr	r3, [pc, #44]	; (402aa0 <xQueueGenericReset+0x6c>)
  402a74:	4798      	blx	r3
  402a76:	2801      	cmp	r0, #1
  402a78:	d109      	bne.n	402a8e <xQueueGenericReset+0x5a>
  402a7a:	4b0a      	ldr	r3, [pc, #40]	; (402aa4 <xQueueGenericReset+0x70>)
  402a7c:	4798      	blx	r3
  402a7e:	e006      	b.n	402a8e <xQueueGenericReset+0x5a>
  402a80:	f104 0010 	add.w	r0, r4, #16
  402a84:	4d08      	ldr	r5, [pc, #32]	; (402aa8 <xQueueGenericReset+0x74>)
  402a86:	47a8      	blx	r5
  402a88:	f104 0024 	add.w	r0, r4, #36	; 0x24
  402a8c:	47a8      	blx	r5
  402a8e:	4b07      	ldr	r3, [pc, #28]	; (402aac <xQueueGenericReset+0x78>)
  402a90:	4798      	blx	r3
  402a92:	2001      	movs	r0, #1
  402a94:	bd38      	pop	{r3, r4, r5, pc}
  402a96:	bf00      	nop
  402a98:	004026e5 	.word	0x004026e5
  402a9c:	004026f5 	.word	0x004026f5
  402aa0:	00403501 	.word	0x00403501
  402aa4:	004026d5 	.word	0x004026d5
  402aa8:	004025f9 	.word	0x004025f9
  402aac:	00402715 	.word	0x00402715

00402ab0 <xQueueGenericCreate>:
  402ab0:	b5f8      	push	{r3, r4, r5, r6, r7, lr}
  402ab2:	460e      	mov	r6, r1
  402ab4:	4605      	mov	r5, r0
  402ab6:	b168      	cbz	r0, 402ad4 <xQueueGenericCreate+0x24>
  402ab8:	204c      	movs	r0, #76	; 0x4c
  402aba:	4f0c      	ldr	r7, [pc, #48]	; (402aec <xQueueGenericCreate+0x3c>)
  402abc:	47b8      	blx	r7
  402abe:	4604      	mov	r4, r0
  402ac0:	b140      	cbz	r0, 402ad4 <xQueueGenericCreate+0x24>
  402ac2:	fb06 f005 	mul.w	r0, r6, r5
  402ac6:	3001      	adds	r0, #1
  402ac8:	47b8      	blx	r7
  402aca:	6020      	str	r0, [r4, #0]
  402acc:	b930      	cbnz	r0, 402adc <xQueueGenericCreate+0x2c>
  402ace:	4620      	mov	r0, r4
  402ad0:	4b07      	ldr	r3, [pc, #28]	; (402af0 <xQueueGenericCreate+0x40>)
  402ad2:	4798      	blx	r3
  402ad4:	4b07      	ldr	r3, [pc, #28]	; (402af4 <xQueueGenericCreate+0x44>)
  402ad6:	4798      	blx	r3
  402ad8:	bf00      	nop
  402ada:	e7fd      	b.n	402ad8 <xQueueGenericCreate+0x28>
  402adc:	63e5      	str	r5, [r4, #60]	; 0x3c
  402ade:	6426      	str	r6, [r4, #64]	; 0x40
  402ae0:	2101      	movs	r1, #1
  402ae2:	4620      	mov	r0, r4
  402ae4:	4b04      	ldr	r3, [pc, #16]	; (402af8 <xQueueGenericCreate+0x48>)
  402ae6:	4798      	blx	r3
  402ae8:	4620      	mov	r0, r4
  402aea:	bdf8      	pop	{r3, r4, r5, r6, r7, pc}
  402aec:	0040282d 	.word	0x0040282d
  402af0:	004028f1 	.word	0x004028f1
  402af4:	004026e5 	.word	0x004026e5
  402af8:	00402a35 	.word	0x00402a35

00402afc <xQueueGenericSend>:
  402afc:	e92d 4ff0 	stmdb	sp!, {r4, r5, r6, r7, r8, r9, sl, fp, lr}
  402b00:	b087      	sub	sp, #28
  402b02:	460e      	mov	r6, r1
  402b04:	9203      	str	r2, [sp, #12]
  402b06:	469a      	mov	sl, r3
  402b08:	4604      	mov	r4, r0
  402b0a:	b918      	cbnz	r0, 402b14 <xQueueGenericSend+0x18>
  402b0c:	4b37      	ldr	r3, [pc, #220]	; (402bec <xQueueGenericSend+0xf0>)
  402b0e:	4798      	blx	r3
  402b10:	bf00      	nop
  402b12:	e7fd      	b.n	402b10 <xQueueGenericSend+0x14>
  402b14:	b911      	cbnz	r1, 402b1c <xQueueGenericSend+0x20>
  402b16:	6c03      	ldr	r3, [r0, #64]	; 0x40
  402b18:	2b00      	cmp	r3, #0
  402b1a:	d160      	bne.n	402bde <xQueueGenericSend+0xe2>
  402b1c:	f8df 80f4 	ldr.w	r8, [pc, #244]	; 402c14 <xQueueGenericSend+0x118>
  402b20:	4f33      	ldr	r7, [pc, #204]	; (402bf0 <xQueueGenericSend+0xf4>)
  402b22:	2300      	movs	r3, #0
  402b24:	46c1      	mov	r9, r8
  402b26:	9301      	str	r3, [sp, #4]
  402b28:	47c0      	blx	r8
  402b2a:	6ba1      	ldr	r1, [r4, #56]	; 0x38
  402b2c:	6be2      	ldr	r2, [r4, #60]	; 0x3c
  402b2e:	f8df b0c0 	ldr.w	fp, [pc, #192]	; 402bf0 <xQueueGenericSend+0xf4>
  402b32:	9b01      	ldr	r3, [sp, #4]
  402b34:	4291      	cmp	r1, r2
  402b36:	d211      	bcs.n	402b5c <xQueueGenericSend+0x60>
  402b38:	4b2e      	ldr	r3, [pc, #184]	; (402bf4 <xQueueGenericSend+0xf8>)
  402b3a:	4652      	mov	r2, sl
  402b3c:	4631      	mov	r1, r6
  402b3e:	4620      	mov	r0, r4
  402b40:	4798      	blx	r3
  402b42:	6a63      	ldr	r3, [r4, #36]	; 0x24
  402b44:	b13b      	cbz	r3, 402b56 <xQueueGenericSend+0x5a>
  402b46:	f104 0024 	add.w	r0, r4, #36	; 0x24
  402b4a:	4b2b      	ldr	r3, [pc, #172]	; (402bf8 <xQueueGenericSend+0xfc>)
  402b4c:	4798      	blx	r3
  402b4e:	2801      	cmp	r0, #1
  402b50:	d101      	bne.n	402b56 <xQueueGenericSend+0x5a>
  402b52:	4b2a      	ldr	r3, [pc, #168]	; (402bfc <xQueueGenericSend+0x100>)
  402b54:	4798      	blx	r3
  402b56:	47d8      	blx	fp
  402b58:	2001      	movs	r0, #1
  402b5a:	e044      	b.n	402be6 <xQueueGenericSend+0xea>
  402b5c:	9d03      	ldr	r5, [sp, #12]
  402b5e:	b915      	cbnz	r5, 402b66 <xQueueGenericSend+0x6a>
  402b60:	47d8      	blx	fp
  402b62:	4628      	mov	r0, r5
  402b64:	e03f      	b.n	402be6 <xQueueGenericSend+0xea>
  402b66:	b913      	cbnz	r3, 402b6e <xQueueGenericSend+0x72>
  402b68:	a804      	add	r0, sp, #16
  402b6a:	4b25      	ldr	r3, [pc, #148]	; (402c00 <xQueueGenericSend+0x104>)
  402b6c:	4798      	blx	r3
  402b6e:	47b8      	blx	r7
  402b70:	4b24      	ldr	r3, [pc, #144]	; (402c04 <xQueueGenericSend+0x108>)
  402b72:	f8df b0a4 	ldr.w	fp, [pc, #164]	; 402c18 <xQueueGenericSend+0x11c>
  402b76:	4d24      	ldr	r5, [pc, #144]	; (402c08 <xQueueGenericSend+0x10c>)
  402b78:	4798      	blx	r3
  402b7a:	47c8      	blx	r9
  402b7c:	6c63      	ldr	r3, [r4, #68]	; 0x44
  402b7e:	3301      	adds	r3, #1
  402b80:	bf04      	itt	eq
  402b82:	2300      	moveq	r3, #0
  402b84:	6463      	streq	r3, [r4, #68]	; 0x44
  402b86:	6ca3      	ldr	r3, [r4, #72]	; 0x48
  402b88:	3301      	adds	r3, #1
  402b8a:	bf04      	itt	eq
  402b8c:	2300      	moveq	r3, #0
  402b8e:	64a3      	streq	r3, [r4, #72]	; 0x48
  402b90:	47b8      	blx	r7
  402b92:	a903      	add	r1, sp, #12
  402b94:	a804      	add	r0, sp, #16
  402b96:	4b1d      	ldr	r3, [pc, #116]	; (402c0c <xQueueGenericSend+0x110>)
  402b98:	4798      	blx	r3
  402b9a:	b9d8      	cbnz	r0, 402bd4 <xQueueGenericSend+0xd8>
  402b9c:	47c8      	blx	r9
  402b9e:	6ba2      	ldr	r2, [r4, #56]	; 0x38
  402ba0:	6be3      	ldr	r3, [r4, #60]	; 0x3c
  402ba2:	9202      	str	r2, [sp, #8]
  402ba4:	9301      	str	r3, [sp, #4]
  402ba6:	47b8      	blx	r7
  402ba8:	9b01      	ldr	r3, [sp, #4]
  402baa:	9a02      	ldr	r2, [sp, #8]
  402bac:	429a      	cmp	r2, r3
  402bae:	d10d      	bne.n	402bcc <xQueueGenericSend+0xd0>
  402bb0:	9903      	ldr	r1, [sp, #12]
  402bb2:	4b17      	ldr	r3, [pc, #92]	; (402c10 <xQueueGenericSend+0x114>)
  402bb4:	f104 0010 	add.w	r0, r4, #16
  402bb8:	4798      	blx	r3
  402bba:	4620      	mov	r0, r4
  402bbc:	47d8      	blx	fp
  402bbe:	47a8      	blx	r5
  402bc0:	b108      	cbz	r0, 402bc6 <xQueueGenericSend+0xca>
  402bc2:	2301      	movs	r3, #1
  402bc4:	e7af      	b.n	402b26 <xQueueGenericSend+0x2a>
  402bc6:	4b0d      	ldr	r3, [pc, #52]	; (402bfc <xQueueGenericSend+0x100>)
  402bc8:	4798      	blx	r3
  402bca:	e7fa      	b.n	402bc2 <xQueueGenericSend+0xc6>
  402bcc:	4620      	mov	r0, r4
  402bce:	47d8      	blx	fp
  402bd0:	47a8      	blx	r5
  402bd2:	e7f6      	b.n	402bc2 <xQueueGenericSend+0xc6>
  402bd4:	4620      	mov	r0, r4
  402bd6:	47d8      	blx	fp
  402bd8:	47a8      	blx	r5
  402bda:	2000      	movs	r0, #0
  402bdc:	e003      	b.n	402be6 <xQueueGenericSend+0xea>
  402bde:	4b03      	ldr	r3, [pc, #12]	; (402bec <xQueueGenericSend+0xf0>)
  402be0:	4798      	blx	r3
  402be2:	bf00      	nop
  402be4:	e7fd      	b.n	402be2 <xQueueGenericSend+0xe6>
  402be6:	b007      	add	sp, #28
  402be8:	e8bd 8ff0 	ldmia.w	sp!, {r4, r5, r6, r7, r8, r9, sl, fp, pc}
  402bec:	004026e5 	.word	0x004026e5
  402bf0:	00402715 	.word	0x00402715
  402bf4:	00402929 	.word	0x00402929
  402bf8:	00403501 	.word	0x00403501
  402bfc:	004026d5 	.word	0x004026d5
  402c00:	00403579 	.word	0x00403579
  402c04:	004030cd 	.word	0x004030cd
  402c08:	004031f5 	.word	0x004031f5
  402c0c:	004035a1 	.word	0x004035a1
  402c10:	00403459 	.word	0x00403459
  402c14:	004026f5 	.word	0x004026f5
  402c18:	004029b5 	.word	0x004029b5

00402c1c <xQueueGenericSendFromISR>:
  402c1c:	e92d 41f0 	stmdb	sp!, {r4, r5, r6, r7, r8, lr}
  402c20:	4604      	mov	r4, r0
  402c22:	460d      	mov	r5, r1
  402c24:	4616      	mov	r6, r2
  402c26:	4698      	mov	r8, r3
  402c28:	4817      	ldr	r0, [pc, #92]	; (402c88 <xQueueGenericSendFromISR+0x6c>)
  402c2a:	b914      	cbnz	r4, 402c32 <xQueueGenericSendFromISR+0x16>
  402c2c:	4780      	blx	r0
  402c2e:	bf00      	nop
  402c30:	e7fd      	b.n	402c2e <xQueueGenericSendFromISR+0x12>
  402c32:	b921      	cbnz	r1, 402c3e <xQueueGenericSendFromISR+0x22>
  402c34:	6c23      	ldr	r3, [r4, #64]	; 0x40
  402c36:	b113      	cbz	r3, 402c3e <xQueueGenericSendFromISR+0x22>
  402c38:	4780      	blx	r0
  402c3a:	bf00      	nop
  402c3c:	e7fd      	b.n	402c3a <xQueueGenericSendFromISR+0x1e>
  402c3e:	4780      	blx	r0
  402c40:	6be1      	ldr	r1, [r4, #60]	; 0x3c
  402c42:	4607      	mov	r7, r0
  402c44:	6ba0      	ldr	r0, [r4, #56]	; 0x38
  402c46:	4288      	cmp	r0, r1
  402c48:	d217      	bcs.n	402c7a <xQueueGenericSendFromISR+0x5e>
  402c4a:	4b10      	ldr	r3, [pc, #64]	; (402c8c <xQueueGenericSendFromISR+0x70>)
  402c4c:	4642      	mov	r2, r8
  402c4e:	4629      	mov	r1, r5
  402c50:	4620      	mov	r0, r4
  402c52:	4798      	blx	r3
  402c54:	6ca3      	ldr	r3, [r4, #72]	; 0x48
  402c56:	3301      	adds	r3, #1
  402c58:	d10a      	bne.n	402c70 <xQueueGenericSendFromISR+0x54>
  402c5a:	6a63      	ldr	r3, [r4, #36]	; 0x24
  402c5c:	b15b      	cbz	r3, 402c76 <xQueueGenericSendFromISR+0x5a>
  402c5e:	f104 0024 	add.w	r0, r4, #36	; 0x24
  402c62:	4b0b      	ldr	r3, [pc, #44]	; (402c90 <xQueueGenericSendFromISR+0x74>)
  402c64:	4798      	blx	r3
  402c66:	b130      	cbz	r0, 402c76 <xQueueGenericSendFromISR+0x5a>
  402c68:	b12e      	cbz	r6, 402c76 <xQueueGenericSendFromISR+0x5a>
  402c6a:	2401      	movs	r4, #1
  402c6c:	6034      	str	r4, [r6, #0]
  402c6e:	e005      	b.n	402c7c <xQueueGenericSendFromISR+0x60>
  402c70:	6ca3      	ldr	r3, [r4, #72]	; 0x48
  402c72:	3301      	adds	r3, #1
  402c74:	64a3      	str	r3, [r4, #72]	; 0x48
  402c76:	2401      	movs	r4, #1
  402c78:	e000      	b.n	402c7c <xQueueGenericSendFromISR+0x60>
  402c7a:	2400      	movs	r4, #0
  402c7c:	4638      	mov	r0, r7
  402c7e:	4b05      	ldr	r3, [pc, #20]	; (402c94 <xQueueGenericSendFromISR+0x78>)
  402c80:	4798      	blx	r3
  402c82:	4620      	mov	r0, r4
  402c84:	e8bd 81f0 	ldmia.w	sp!, {r4, r5, r6, r7, r8, pc}
  402c88:	004026e5 	.word	0x004026e5
  402c8c:	00402929 	.word	0x00402929
  402c90:	00403501 	.word	0x00403501
  402c94:	0040270d 	.word	0x0040270d

00402c98 <xQueueGenericReceive>:
  402c98:	e92d 4ff0 	stmdb	sp!, {r4, r5, r6, r7, r8, r9, sl, fp, lr}
  402c9c:	b085      	sub	sp, #20
  402c9e:	460f      	mov	r7, r1
  402ca0:	9201      	str	r2, [sp, #4]
  402ca2:	469a      	mov	sl, r3
  402ca4:	4604      	mov	r4, r0
  402ca6:	b918      	cbnz	r0, 402cb0 <xQueueGenericReceive+0x18>
  402ca8:	4b42      	ldr	r3, [pc, #264]	; (402db4 <xQueueGenericReceive+0x11c>)
  402caa:	4798      	blx	r3
  402cac:	bf00      	nop
  402cae:	e7fd      	b.n	402cac <xQueueGenericReceive+0x14>
  402cb0:	b911      	cbnz	r1, 402cb8 <xQueueGenericReceive+0x20>
  402cb2:	6c03      	ldr	r3, [r0, #64]	; 0x40
  402cb4:	2b00      	cmp	r3, #0
  402cb6:	d176      	bne.n	402da6 <xQueueGenericReceive+0x10e>
  402cb8:	f8df 8128 	ldr.w	r8, [pc, #296]	; 402de4 <xQueueGenericReceive+0x14c>
  402cbc:	4e3e      	ldr	r6, [pc, #248]	; (402db8 <xQueueGenericReceive+0x120>)
  402cbe:	2300      	movs	r3, #0
  402cc0:	46c1      	mov	r9, r8
  402cc2:	9300      	str	r3, [sp, #0]
  402cc4:	47c0      	blx	r8
  402cc6:	6ba2      	ldr	r2, [r4, #56]	; 0x38
  402cc8:	f8df b0ec 	ldr.w	fp, [pc, #236]	; 402db8 <xQueueGenericReceive+0x120>
  402ccc:	9b00      	ldr	r3, [sp, #0]
  402cce:	b332      	cbz	r2, 402d1e <xQueueGenericReceive+0x86>
  402cd0:	4639      	mov	r1, r7
  402cd2:	4620      	mov	r0, r4
  402cd4:	4b39      	ldr	r3, [pc, #228]	; (402dbc <xQueueGenericReceive+0x124>)
  402cd6:	68e5      	ldr	r5, [r4, #12]
  402cd8:	4798      	blx	r3
  402cda:	f1ba 0f00 	cmp.w	sl, #0
  402cde:	d112      	bne.n	402d06 <xQueueGenericReceive+0x6e>
  402ce0:	6ba3      	ldr	r3, [r4, #56]	; 0x38
  402ce2:	3b01      	subs	r3, #1
  402ce4:	63a3      	str	r3, [r4, #56]	; 0x38
  402ce6:	6823      	ldr	r3, [r4, #0]
  402ce8:	b913      	cbnz	r3, 402cf0 <xQueueGenericReceive+0x58>
  402cea:	4b35      	ldr	r3, [pc, #212]	; (402dc0 <xQueueGenericReceive+0x128>)
  402cec:	4798      	blx	r3
  402cee:	6060      	str	r0, [r4, #4]
  402cf0:	6923      	ldr	r3, [r4, #16]
  402cf2:	b18b      	cbz	r3, 402d18 <xQueueGenericReceive+0x80>
  402cf4:	f104 0010 	add.w	r0, r4, #16
  402cf8:	4b32      	ldr	r3, [pc, #200]	; (402dc4 <xQueueGenericReceive+0x12c>)
  402cfa:	4798      	blx	r3
  402cfc:	2801      	cmp	r0, #1
  402cfe:	d10b      	bne.n	402d18 <xQueueGenericReceive+0x80>
  402d00:	4b31      	ldr	r3, [pc, #196]	; (402dc8 <xQueueGenericReceive+0x130>)
  402d02:	4798      	blx	r3
  402d04:	e008      	b.n	402d18 <xQueueGenericReceive+0x80>
  402d06:	6a63      	ldr	r3, [r4, #36]	; 0x24
  402d08:	60e5      	str	r5, [r4, #12]
  402d0a:	b12b      	cbz	r3, 402d18 <xQueueGenericReceive+0x80>
  402d0c:	f104 0024 	add.w	r0, r4, #36	; 0x24
  402d10:	4b2c      	ldr	r3, [pc, #176]	; (402dc4 <xQueueGenericReceive+0x12c>)
  402d12:	4798      	blx	r3
  402d14:	2800      	cmp	r0, #0
  402d16:	d1f3      	bne.n	402d00 <xQueueGenericReceive+0x68>
  402d18:	47d8      	blx	fp
  402d1a:	2001      	movs	r0, #1
  402d1c:	e047      	b.n	402dae <xQueueGenericReceive+0x116>
  402d1e:	9d01      	ldr	r5, [sp, #4]
  402d20:	b915      	cbnz	r5, 402d28 <xQueueGenericReceive+0x90>
  402d22:	47d8      	blx	fp
  402d24:	4628      	mov	r0, r5
  402d26:	e042      	b.n	402dae <xQueueGenericReceive+0x116>
  402d28:	b913      	cbnz	r3, 402d30 <xQueueGenericReceive+0x98>
  402d2a:	a802      	add	r0, sp, #8
  402d2c:	4b27      	ldr	r3, [pc, #156]	; (402dcc <xQueueGenericReceive+0x134>)
  402d2e:	4798      	blx	r3
  402d30:	47b0      	blx	r6
  402d32:	4b27      	ldr	r3, [pc, #156]	; (402dd0 <xQueueGenericReceive+0x138>)
  402d34:	f8df b0b0 	ldr.w	fp, [pc, #176]	; 402de8 <xQueueGenericReceive+0x150>
  402d38:	4d26      	ldr	r5, [pc, #152]	; (402dd4 <xQueueGenericReceive+0x13c>)
  402d3a:	4798      	blx	r3
  402d3c:	47c8      	blx	r9
  402d3e:	6c63      	ldr	r3, [r4, #68]	; 0x44
  402d40:	3301      	adds	r3, #1
  402d42:	bf04      	itt	eq
  402d44:	2300      	moveq	r3, #0
  402d46:	6463      	streq	r3, [r4, #68]	; 0x44
  402d48:	6ca3      	ldr	r3, [r4, #72]	; 0x48
  402d4a:	3301      	adds	r3, #1
  402d4c:	bf04      	itt	eq
  402d4e:	2300      	moveq	r3, #0
  402d50:	64a3      	streq	r3, [r4, #72]	; 0x48
  402d52:	47b0      	blx	r6
  402d54:	a901      	add	r1, sp, #4
  402d56:	a802      	add	r0, sp, #8
  402d58:	4b1f      	ldr	r3, [pc, #124]	; (402dd8 <xQueueGenericReceive+0x140>)
  402d5a:	4798      	blx	r3
  402d5c:	b9f0      	cbnz	r0, 402d9c <xQueueGenericReceive+0x104>
  402d5e:	47c8      	blx	r9
  402d60:	6ba3      	ldr	r3, [r4, #56]	; 0x38
  402d62:	9300      	str	r3, [sp, #0]
  402d64:	47b0      	blx	r6
  402d66:	9b00      	ldr	r3, [sp, #0]
  402d68:	b9a3      	cbnz	r3, 402d94 <xQueueGenericReceive+0xfc>
  402d6a:	6823      	ldr	r3, [r4, #0]
  402d6c:	b923      	cbnz	r3, 402d78 <xQueueGenericReceive+0xe0>
  402d6e:	47c0      	blx	r8
  402d70:	6860      	ldr	r0, [r4, #4]
  402d72:	4b1a      	ldr	r3, [pc, #104]	; (402ddc <xQueueGenericReceive+0x144>)
  402d74:	4798      	blx	r3
  402d76:	47b0      	blx	r6
  402d78:	9901      	ldr	r1, [sp, #4]
  402d7a:	4b19      	ldr	r3, [pc, #100]	; (402de0 <xQueueGenericReceive+0x148>)
  402d7c:	f104 0024 	add.w	r0, r4, #36	; 0x24
  402d80:	4798      	blx	r3
  402d82:	4620      	mov	r0, r4
  402d84:	47d8      	blx	fp
  402d86:	47a8      	blx	r5
  402d88:	b108      	cbz	r0, 402d8e <xQueueGenericReceive+0xf6>
  402d8a:	2301      	movs	r3, #1
  402d8c:	e799      	b.n	402cc2 <xQueueGenericReceive+0x2a>
  402d8e:	4b0e      	ldr	r3, [pc, #56]	; (402dc8 <xQueueGenericReceive+0x130>)
  402d90:	4798      	blx	r3
  402d92:	e7fa      	b.n	402d8a <xQueueGenericReceive+0xf2>
  402d94:	4620      	mov	r0, r4
  402d96:	47d8      	blx	fp
  402d98:	47a8      	blx	r5
  402d9a:	e7f6      	b.n	402d8a <xQueueGenericReceive+0xf2>
  402d9c:	4620      	mov	r0, r4
  402d9e:	47d8      	blx	fp
  402da0:	47a8      	blx	r5
  402da2:	2000      	movs	r0, #0
  402da4:	e003      	b.n	402dae <xQueueGenericReceive+0x116>
  402da6:	4b03      	ldr	r3, [pc, #12]	; (402db4 <xQueueGenericReceive+0x11c>)
  402da8:	4798      	blx	r3
  402daa:	bf00      	nop
  402dac:	e7fd      	b.n	402daa <xQueueGenericReceive+0x112>
  402dae:	b005      	add	sp, #20
  402db0:	e8bd 8ff0 	ldmia.w	sp!, {r4, r5, r6, r7, r8, r9, sl, fp, pc}
  402db4:	004026e5 	.word	0x004026e5
  402db8:	00402715 	.word	0x00402715
  402dbc:	00402989 	.word	0x00402989
  402dc0:	00403625 	.word	0x00403625
  402dc4:	00403501 	.word	0x00403501
  402dc8:	004026d5 	.word	0x004026d5
  402dcc:	00403579 	.word	0x00403579
  402dd0:	004030cd 	.word	0x004030cd
  402dd4:	004031f5 	.word	0x004031f5
  402dd8:	004035a1 	.word	0x004035a1
  402ddc:	0040364d 	.word	0x0040364d
  402de0:	00403459 	.word	0x00403459
  402de4:	004026f5 	.word	0x004026f5
  402de8:	004029b5 	.word	0x004029b5

00402dec <vQueueWaitForMessageRestricted>:
  402dec:	b570      	push	{r4, r5, r6, lr}
  402dee:	4604      	mov	r4, r0
  402df0:	4b0d      	ldr	r3, [pc, #52]	; (402e28 <vQueueWaitForMessageRestricted+0x3c>)
  402df2:	460d      	mov	r5, r1
  402df4:	4798      	blx	r3
  402df6:	6c63      	ldr	r3, [r4, #68]	; 0x44
  402df8:	3301      	adds	r3, #1
  402dfa:	bf04      	itt	eq
  402dfc:	2300      	moveq	r3, #0
  402dfe:	6463      	streq	r3, [r4, #68]	; 0x44
  402e00:	6ca3      	ldr	r3, [r4, #72]	; 0x48
  402e02:	3301      	adds	r3, #1
  402e04:	bf04      	itt	eq
  402e06:	2300      	moveq	r3, #0
  402e08:	64a3      	streq	r3, [r4, #72]	; 0x48
  402e0a:	4b08      	ldr	r3, [pc, #32]	; (402e2c <vQueueWaitForMessageRestricted+0x40>)
  402e0c:	4798      	blx	r3
  402e0e:	6ba3      	ldr	r3, [r4, #56]	; 0x38
  402e10:	b923      	cbnz	r3, 402e1c <vQueueWaitForMessageRestricted+0x30>
  402e12:	4629      	mov	r1, r5
  402e14:	f104 0024 	add.w	r0, r4, #36	; 0x24
  402e18:	4b05      	ldr	r3, [pc, #20]	; (402e30 <vQueueWaitForMessageRestricted+0x44>)
  402e1a:	4798      	blx	r3
  402e1c:	4620      	mov	r0, r4
  402e1e:	4b05      	ldr	r3, [pc, #20]	; (402e34 <vQueueWaitForMessageRestricted+0x48>)
  402e20:	e8bd 4070 	ldmia.w	sp!, {r4, r5, r6, lr}
  402e24:	4718      	bx	r3
  402e26:	bf00      	nop
  402e28:	004026f5 	.word	0x004026f5
  402e2c:	00402715 	.word	0x00402715
  402e30:	004034b9 	.word	0x004034b9
  402e34:	004029b5 	.word	0x004029b5

00402e38 <prvAddCurrentTaskToDelayedList>:
  402e38:	b510      	push	{r4, lr}
  402e3a:	4b0d      	ldr	r3, [pc, #52]	; (402e70 <prvAddCurrentTaskToDelayedList+0x38>)
  402e3c:	681a      	ldr	r2, [r3, #0]
  402e3e:	6050      	str	r0, [r2, #4]
  402e40:	4a0c      	ldr	r2, [pc, #48]	; (402e74 <prvAddCurrentTaskToDelayedList+0x3c>)
  402e42:	6812      	ldr	r2, [r2, #0]
  402e44:	4290      	cmp	r0, r2
  402e46:	4604      	mov	r4, r0
  402e48:	4a0b      	ldr	r2, [pc, #44]	; (402e78 <prvAddCurrentTaskToDelayedList+0x40>)
  402e4a:	d206      	bcs.n	402e5a <prvAddCurrentTaskToDelayedList+0x22>
  402e4c:	490b      	ldr	r1, [pc, #44]	; (402e7c <prvAddCurrentTaskToDelayedList+0x44>)
  402e4e:	6808      	ldr	r0, [r1, #0]
  402e50:	6819      	ldr	r1, [r3, #0]
  402e52:	e8bd 4010 	ldmia.w	sp!, {r4, lr}
  402e56:	3104      	adds	r1, #4
  402e58:	4710      	bx	r2
  402e5a:	4909      	ldr	r1, [pc, #36]	; (402e80 <prvAddCurrentTaskToDelayedList+0x48>)
  402e5c:	6808      	ldr	r0, [r1, #0]
  402e5e:	6819      	ldr	r1, [r3, #0]
  402e60:	3104      	adds	r1, #4
  402e62:	4790      	blx	r2
  402e64:	4b07      	ldr	r3, [pc, #28]	; (402e84 <prvAddCurrentTaskToDelayedList+0x4c>)
  402e66:	681a      	ldr	r2, [r3, #0]
  402e68:	4294      	cmp	r4, r2
  402e6a:	bf38      	it	cc
  402e6c:	601c      	strcc	r4, [r3, #0]
  402e6e:	bd10      	pop	{r4, pc}
  402e70:	2000268c 	.word	0x2000268c
  402e74:	200026a4 	.word	0x200026a4
  402e78:	00402631 	.word	0x00402631
  402e7c:	200026a8 	.word	0x200026a8
  402e80:	200025ec 	.word	0x200025ec
  402e84:	20000030 	.word	0x20000030

00402e88 <xTaskGenericCreate>:
  402e88:	e92d 4ff8 	stmdb	sp!, {r3, r4, r5, r6, r7, r8, r9, sl, fp, lr}
  402e8c:	9e0a      	ldr	r6, [sp, #40]	; 0x28
  402e8e:	f8dd b030 	ldr.w	fp, [sp, #48]	; 0x30
  402e92:	468a      	mov	sl, r1
  402e94:	4615      	mov	r5, r2
  402e96:	4699      	mov	r9, r3
  402e98:	4680      	mov	r8, r0
  402e9a:	b918      	cbnz	r0, 402ea4 <xTaskGenericCreate+0x1c>
  402e9c:	4b55      	ldr	r3, [pc, #340]	; (402ff4 <xTaskGenericCreate+0x16c>)
  402e9e:	4798      	blx	r3
  402ea0:	bf00      	nop
  402ea2:	e7fd      	b.n	402ea0 <xTaskGenericCreate+0x18>
  402ea4:	2e04      	cmp	r6, #4
  402ea6:	d903      	bls.n	402eb0 <xTaskGenericCreate+0x28>
  402ea8:	4b52      	ldr	r3, [pc, #328]	; (402ff4 <xTaskGenericCreate+0x16c>)
  402eaa:	4798      	blx	r3
  402eac:	bf00      	nop
  402eae:	e7fd      	b.n	402eac <xTaskGenericCreate+0x24>
  402eb0:	2044      	movs	r0, #68	; 0x44
  402eb2:	4f51      	ldr	r7, [pc, #324]	; (402ff8 <xTaskGenericCreate+0x170>)
  402eb4:	47b8      	blx	r7
  402eb6:	4604      	mov	r4, r0
  402eb8:	2800      	cmp	r0, #0
  402eba:	f000 8096 	beq.w	402fea <xTaskGenericCreate+0x162>
  402ebe:	f1bb 0f00 	cmp.w	fp, #0
  402ec2:	d102      	bne.n	402eca <xTaskGenericCreate+0x42>
  402ec4:	00a8      	lsls	r0, r5, #2
  402ec6:	47b8      	blx	r7
  402ec8:	e000      	b.n	402ecc <xTaskGenericCreate+0x44>
  402eca:	4658      	mov	r0, fp
  402ecc:	6320      	str	r0, [r4, #48]	; 0x30
  402ece:	b918      	cbnz	r0, 402ed8 <xTaskGenericCreate+0x50>
  402ed0:	4620      	mov	r0, r4
  402ed2:	4b4a      	ldr	r3, [pc, #296]	; (402ffc <xTaskGenericCreate+0x174>)
  402ed4:	4798      	blx	r3
  402ed6:	e088      	b.n	402fea <xTaskGenericCreate+0x162>
  402ed8:	00ad      	lsls	r5, r5, #2
  402eda:	462a      	mov	r2, r5
  402edc:	21a5      	movs	r1, #165	; 0xa5
  402ede:	4b48      	ldr	r3, [pc, #288]	; (403000 <xTaskGenericCreate+0x178>)
  402ee0:	f8df b168 	ldr.w	fp, [pc, #360]	; 40304c <xTaskGenericCreate+0x1c4>
  402ee4:	4798      	blx	r3
  402ee6:	6b23      	ldr	r3, [r4, #48]	; 0x30
  402ee8:	3d04      	subs	r5, #4
  402eea:	4651      	mov	r1, sl
  402eec:	220c      	movs	r2, #12
  402eee:	441d      	add	r5, r3
  402ef0:	f104 0034 	add.w	r0, r4, #52	; 0x34
  402ef4:	4b43      	ldr	r3, [pc, #268]	; (403004 <xTaskGenericCreate+0x17c>)
  402ef6:	4798      	blx	r3
  402ef8:	f104 0a04 	add.w	sl, r4, #4
  402efc:	2300      	movs	r3, #0
  402efe:	f884 303f 	strb.w	r3, [r4, #63]	; 0x3f
  402f02:	4650      	mov	r0, sl
  402f04:	62e6      	str	r6, [r4, #44]	; 0x2c
  402f06:	6426      	str	r6, [r4, #64]	; 0x40
  402f08:	47d8      	blx	fp
  402f0a:	f104 0018 	add.w	r0, r4, #24
  402f0e:	47d8      	blx	fp
  402f10:	f025 0507 	bic.w	r5, r5, #7
  402f14:	f1c6 0305 	rsb	r3, r6, #5
  402f18:	61a3      	str	r3, [r4, #24]
  402f1a:	6124      	str	r4, [r4, #16]
  402f1c:	4b3a      	ldr	r3, [pc, #232]	; (403008 <xTaskGenericCreate+0x180>)
  402f1e:	6264      	str	r4, [r4, #36]	; 0x24
  402f20:	464a      	mov	r2, r9
  402f22:	4641      	mov	r1, r8
  402f24:	4628      	mov	r0, r5
  402f26:	4798      	blx	r3
  402f28:	0743      	lsls	r3, r0, #29
  402f2a:	6020      	str	r0, [r4, #0]
  402f2c:	d003      	beq.n	402f36 <xTaskGenericCreate+0xae>
  402f2e:	4b31      	ldr	r3, [pc, #196]	; (402ff4 <xTaskGenericCreate+0x16c>)
  402f30:	4798      	blx	r3
  402f32:	bf00      	nop
  402f34:	e7fd      	b.n	402f32 <xTaskGenericCreate+0xaa>
  402f36:	9b0b      	ldr	r3, [sp, #44]	; 0x2c
  402f38:	b103      	cbz	r3, 402f3c <xTaskGenericCreate+0xb4>
  402f3a:	601c      	str	r4, [r3, #0]
  402f3c:	4b33      	ldr	r3, [pc, #204]	; (40300c <xTaskGenericCreate+0x184>)
  402f3e:	4d34      	ldr	r5, [pc, #208]	; (403010 <xTaskGenericCreate+0x188>)
  402f40:	f8df 810c 	ldr.w	r8, [pc, #268]	; 403050 <xTaskGenericCreate+0x1c8>
  402f44:	4798      	blx	r3
  402f46:	4b33      	ldr	r3, [pc, #204]	; (403014 <xTaskGenericCreate+0x18c>)
  402f48:	681a      	ldr	r2, [r3, #0]
  402f4a:	3201      	adds	r2, #1
  402f4c:	601a      	str	r2, [r3, #0]
  402f4e:	682f      	ldr	r7, [r5, #0]
  402f50:	bb07      	cbnz	r7, 402f94 <xTaskGenericCreate+0x10c>
  402f52:	602c      	str	r4, [r5, #0]
  402f54:	681b      	ldr	r3, [r3, #0]
  402f56:	2b01      	cmp	r3, #1
  402f58:	d124      	bne.n	402fa4 <xTaskGenericCreate+0x11c>
  402f5a:	f8df b0f8 	ldr.w	fp, [pc, #248]	; 403054 <xTaskGenericCreate+0x1cc>
  402f5e:	f8df 90f4 	ldr.w	r9, [pc, #244]	; 403054 <xTaskGenericCreate+0x1cc>
  402f62:	eb08 0007 	add.w	r0, r8, r7
  402f66:	3714      	adds	r7, #20
  402f68:	47d8      	blx	fp
  402f6a:	2f64      	cmp	r7, #100	; 0x64
  402f6c:	d1f7      	bne.n	402f5e <xTaskGenericCreate+0xd6>
  402f6e:	f8df b0e8 	ldr.w	fp, [pc, #232]	; 403058 <xTaskGenericCreate+0x1d0>
  402f72:	4f29      	ldr	r7, [pc, #164]	; (403018 <xTaskGenericCreate+0x190>)
  402f74:	4658      	mov	r0, fp
  402f76:	47c8      	blx	r9
  402f78:	4638      	mov	r0, r7
  402f7a:	47c8      	blx	r9
  402f7c:	4827      	ldr	r0, [pc, #156]	; (40301c <xTaskGenericCreate+0x194>)
  402f7e:	47c8      	blx	r9
  402f80:	4827      	ldr	r0, [pc, #156]	; (403020 <xTaskGenericCreate+0x198>)
  402f82:	47c8      	blx	r9
  402f84:	4827      	ldr	r0, [pc, #156]	; (403024 <xTaskGenericCreate+0x19c>)
  402f86:	47c8      	blx	r9
  402f88:	4b27      	ldr	r3, [pc, #156]	; (403028 <xTaskGenericCreate+0x1a0>)
  402f8a:	f8c3 b000 	str.w	fp, [r3]
  402f8e:	4b27      	ldr	r3, [pc, #156]	; (40302c <xTaskGenericCreate+0x1a4>)
  402f90:	601f      	str	r7, [r3, #0]
  402f92:	e007      	b.n	402fa4 <xTaskGenericCreate+0x11c>
  402f94:	4b26      	ldr	r3, [pc, #152]	; (403030 <xTaskGenericCreate+0x1a8>)
  402f96:	681b      	ldr	r3, [r3, #0]
  402f98:	b923      	cbnz	r3, 402fa4 <xTaskGenericCreate+0x11c>
  402f9a:	682b      	ldr	r3, [r5, #0]
  402f9c:	6adb      	ldr	r3, [r3, #44]	; 0x2c
  402f9e:	429e      	cmp	r6, r3
  402fa0:	bf28      	it	cs
  402fa2:	602c      	strcs	r4, [r5, #0]
  402fa4:	4a23      	ldr	r2, [pc, #140]	; (403034 <xTaskGenericCreate+0x1ac>)
  402fa6:	6ae3      	ldr	r3, [r4, #44]	; 0x2c
  402fa8:	6811      	ldr	r1, [r2, #0]
  402faa:	428b      	cmp	r3, r1
  402fac:	4922      	ldr	r1, [pc, #136]	; (403038 <xTaskGenericCreate+0x1b0>)
  402fae:	bf88      	it	hi
  402fb0:	6013      	strhi	r3, [r2, #0]
  402fb2:	680a      	ldr	r2, [r1, #0]
  402fb4:	3201      	adds	r2, #1
  402fb6:	600a      	str	r2, [r1, #0]
  402fb8:	4a20      	ldr	r2, [pc, #128]	; (40303c <xTaskGenericCreate+0x1b4>)
  402fba:	6811      	ldr	r1, [r2, #0]
  402fbc:	2014      	movs	r0, #20
  402fbe:	428b      	cmp	r3, r1
  402fc0:	bf88      	it	hi
  402fc2:	6013      	strhi	r3, [r2, #0]
  402fc4:	fb00 8003 	mla	r0, r0, r3, r8
  402fc8:	4651      	mov	r1, sl
  402fca:	4b1d      	ldr	r3, [pc, #116]	; (403040 <xTaskGenericCreate+0x1b8>)
  402fcc:	4798      	blx	r3
  402fce:	4b1d      	ldr	r3, [pc, #116]	; (403044 <xTaskGenericCreate+0x1bc>)
  402fd0:	4798      	blx	r3
  402fd2:	4b17      	ldr	r3, [pc, #92]	; (403030 <xTaskGenericCreate+0x1a8>)
  402fd4:	681b      	ldr	r3, [r3, #0]
  402fd6:	b12b      	cbz	r3, 402fe4 <xTaskGenericCreate+0x15c>
  402fd8:	682b      	ldr	r3, [r5, #0]
  402fda:	6adb      	ldr	r3, [r3, #44]	; 0x2c
  402fdc:	429e      	cmp	r6, r3
  402fde:	d901      	bls.n	402fe4 <xTaskGenericCreate+0x15c>
  402fe0:	4b19      	ldr	r3, [pc, #100]	; (403048 <xTaskGenericCreate+0x1c0>)
  402fe2:	4798      	blx	r3
  402fe4:	2001      	movs	r0, #1
  402fe6:	e8bd 8ff8 	ldmia.w	sp!, {r3, r4, r5, r6, r7, r8, r9, sl, fp, pc}
  402fea:	f04f 30ff 	mov.w	r0, #4294967295
  402fee:	e8bd 8ff8 	ldmia.w	sp!, {r3, r4, r5, r6, r7, r8, r9, sl, fp, pc}
  402ff2:	bf00      	nop
  402ff4:	004026e5 	.word	0x004026e5
  402ff8:	0040282d 	.word	0x0040282d
  402ffc:	004028f1 	.word	0x004028f1
  403000:	0040785d 	.word	0x0040785d
  403004:	004078f9 	.word	0x004078f9
  403008:	0040269d 	.word	0x0040269d
  40300c:	004026f5 	.word	0x004026f5
  403010:	2000268c 	.word	0x2000268c
  403014:	200026cc 	.word	0x200026cc
  403018:	2000260c 	.word	0x2000260c
  40301c:	20002690 	.word	0x20002690
  403020:	200025f8 	.word	0x200025f8
  403024:	200025d8 	.word	0x200025d8
  403028:	200025ec 	.word	0x200025ec
  40302c:	200026a8 	.word	0x200026a8
  403030:	200025f0 	.word	0x200025f0
  403034:	200026d0 	.word	0x200026d0
  403038:	200026b0 	.word	0x200026b0
  40303c:	200026ac 	.word	0x200026ac
  403040:	00402615 	.word	0x00402615
  403044:	00402715 	.word	0x00402715
  403048:	004026d5 	.word	0x004026d5
  40304c:	0040260f 	.word	0x0040260f
  403050:	20002620 	.word	0x20002620
  403054:	004025f9 	.word	0x004025f9
  403058:	200026b4 	.word	0x200026b4

0040305c <vTaskStartScheduler>:
  40305c:	b530      	push	{r4, r5, lr}
  40305e:	b085      	sub	sp, #20
  403060:	2400      	movs	r4, #0
  403062:	4d12      	ldr	r5, [pc, #72]	; (4030ac <vTaskStartScheduler+0x50>)
  403064:	9403      	str	r4, [sp, #12]
  403066:	9402      	str	r4, [sp, #8]
  403068:	9401      	str	r4, [sp, #4]
  40306a:	9400      	str	r4, [sp, #0]
  40306c:	4623      	mov	r3, r4
  40306e:	2264      	movs	r2, #100	; 0x64
  403070:	490f      	ldr	r1, [pc, #60]	; (4030b0 <vTaskStartScheduler+0x54>)
  403072:	4810      	ldr	r0, [pc, #64]	; (4030b4 <vTaskStartScheduler+0x58>)
  403074:	47a8      	blx	r5
  403076:	2801      	cmp	r0, #1
  403078:	4605      	mov	r5, r0
  40307a:	d10f      	bne.n	40309c <vTaskStartScheduler+0x40>
  40307c:	4b0e      	ldr	r3, [pc, #56]	; (4030b8 <vTaskStartScheduler+0x5c>)
  40307e:	4798      	blx	r3
  403080:	2801      	cmp	r0, #1
  403082:	4605      	mov	r5, r0
  403084:	d10a      	bne.n	40309c <vTaskStartScheduler+0x40>
  403086:	4b0d      	ldr	r3, [pc, #52]	; (4030bc <vTaskStartScheduler+0x60>)
  403088:	4798      	blx	r3
  40308a:	4b0d      	ldr	r3, [pc, #52]	; (4030c0 <vTaskStartScheduler+0x64>)
  40308c:	601d      	str	r5, [r3, #0]
  40308e:	4b0d      	ldr	r3, [pc, #52]	; (4030c4 <vTaskStartScheduler+0x68>)
  403090:	601c      	str	r4, [r3, #0]
  403092:	4b0d      	ldr	r3, [pc, #52]	; (4030c8 <vTaskStartScheduler+0x6c>)
  403094:	b005      	add	sp, #20
  403096:	e8bd 4030 	ldmia.w	sp!, {r4, r5, lr}
  40309a:	4718      	bx	r3
  40309c:	b91d      	cbnz	r5, 4030a6 <vTaskStartScheduler+0x4a>
  40309e:	4b07      	ldr	r3, [pc, #28]	; (4030bc <vTaskStartScheduler+0x60>)
  4030a0:	4798      	blx	r3
  4030a2:	bf00      	nop
  4030a4:	e7fd      	b.n	4030a2 <vTaskStartScheduler+0x46>
  4030a6:	b005      	add	sp, #20
  4030a8:	bd30      	pop	{r4, r5, pc}
  4030aa:	bf00      	nop
  4030ac:	00402e89 	.word	0x00402e89
  4030b0:	00407ab8 	.word	0x00407ab8
  4030b4:	00403331 	.word	0x00403331
  4030b8:	004037b1 	.word	0x004037b1
  4030bc:	004026e5 	.word	0x004026e5
  4030c0:	200025f0 	.word	0x200025f0
  4030c4:	200026a4 	.word	0x200026a4
  4030c8:	004027ad 	.word	0x004027ad

004030cc <vTaskSuspendAll>:
  4030cc:	4a02      	ldr	r2, [pc, #8]	; (4030d8 <vTaskSuspendAll+0xc>)
  4030ce:	6813      	ldr	r3, [r2, #0]
  4030d0:	3301      	adds	r3, #1
  4030d2:	6013      	str	r3, [r2, #0]
  4030d4:	4770      	bx	lr
  4030d6:	bf00      	nop
  4030d8:	20002684 	.word	0x20002684

004030dc <xTaskGetTickCount>:
  4030dc:	b510      	push	{r4, lr}
  4030de:	4b04      	ldr	r3, [pc, #16]	; (4030f0 <xTaskGetTickCount+0x14>)
  4030e0:	4798      	blx	r3
  4030e2:	4b04      	ldr	r3, [pc, #16]	; (4030f4 <xTaskGetTickCount+0x18>)
  4030e4:	681c      	ldr	r4, [r3, #0]
  4030e6:	4b04      	ldr	r3, [pc, #16]	; (4030f8 <xTaskGetTickCount+0x1c>)
  4030e8:	4798      	blx	r3
  4030ea:	4620      	mov	r0, r4
  4030ec:	bd10      	pop	{r4, pc}
  4030ee:	bf00      	nop
  4030f0:	004026f5 	.word	0x004026f5
  4030f4:	200026a4 	.word	0x200026a4
  4030f8:	00402715 	.word	0x00402715

004030fc <vTaskIncrementTick>:
  4030fc:	e92d 47f0 	stmdb	sp!, {r4, r5, r6, r7, r8, r9, sl, lr}
  403100:	4b30      	ldr	r3, [pc, #192]	; (4031c4 <vTaskIncrementTick+0xc8>)
  403102:	681b      	ldr	r3, [r3, #0]
  403104:	2b00      	cmp	r3, #0
  403106:	d157      	bne.n	4031b8 <vTaskIncrementTick+0xbc>
  403108:	4b2f      	ldr	r3, [pc, #188]	; (4031c8 <vTaskIncrementTick+0xcc>)
  40310a:	681a      	ldr	r2, [r3, #0]
  40310c:	3201      	adds	r2, #1
  40310e:	601a      	str	r2, [r3, #0]
  403110:	681a      	ldr	r2, [r3, #0]
  403112:	461e      	mov	r6, r3
  403114:	b9e2      	cbnz	r2, 403150 <vTaskIncrementTick+0x54>
  403116:	4b2d      	ldr	r3, [pc, #180]	; (4031cc <vTaskIncrementTick+0xd0>)
  403118:	681a      	ldr	r2, [r3, #0]
  40311a:	6812      	ldr	r2, [r2, #0]
  40311c:	b11a      	cbz	r2, 403126 <vTaskIncrementTick+0x2a>
  40311e:	4b2c      	ldr	r3, [pc, #176]	; (4031d0 <vTaskIncrementTick+0xd4>)
  403120:	4798      	blx	r3
  403122:	bf00      	nop
  403124:	e7fd      	b.n	403122 <vTaskIncrementTick+0x26>
  403126:	4a2b      	ldr	r2, [pc, #172]	; (4031d4 <vTaskIncrementTick+0xd8>)
  403128:	6819      	ldr	r1, [r3, #0]
  40312a:	6810      	ldr	r0, [r2, #0]
  40312c:	6018      	str	r0, [r3, #0]
  40312e:	6011      	str	r1, [r2, #0]
  403130:	4929      	ldr	r1, [pc, #164]	; (4031d8 <vTaskIncrementTick+0xdc>)
  403132:	680a      	ldr	r2, [r1, #0]
  403134:	3201      	adds	r2, #1
  403136:	600a      	str	r2, [r1, #0]
  403138:	681a      	ldr	r2, [r3, #0]
  40313a:	6811      	ldr	r1, [r2, #0]
  40313c:	4a27      	ldr	r2, [pc, #156]	; (4031dc <vTaskIncrementTick+0xe0>)
  40313e:	b911      	cbnz	r1, 403146 <vTaskIncrementTick+0x4a>
  403140:	f04f 33ff 	mov.w	r3, #4294967295
  403144:	e003      	b.n	40314e <vTaskIncrementTick+0x52>
  403146:	681b      	ldr	r3, [r3, #0]
  403148:	68db      	ldr	r3, [r3, #12]
  40314a:	68db      	ldr	r3, [r3, #12]
  40314c:	685b      	ldr	r3, [r3, #4]
  40314e:	6013      	str	r3, [r2, #0]
  403150:	4c22      	ldr	r4, [pc, #136]	; (4031dc <vTaskIncrementTick+0xe0>)
  403152:	6832      	ldr	r2, [r6, #0]
  403154:	6823      	ldr	r3, [r4, #0]
  403156:	429a      	cmp	r2, r3
  403158:	d332      	bcc.n	4031c0 <vTaskIncrementTick+0xc4>
  40315a:	f8df 8070 	ldr.w	r8, [pc, #112]	; 4031cc <vTaskIncrementTick+0xd0>
  40315e:	f8df 908c 	ldr.w	r9, [pc, #140]	; 4031ec <vTaskIncrementTick+0xf0>
  403162:	f8df a08c 	ldr.w	sl, [pc, #140]	; 4031f0 <vTaskIncrementTick+0xf4>
  403166:	f8d8 3000 	ldr.w	r3, [r8]
  40316a:	681b      	ldr	r3, [r3, #0]
  40316c:	b913      	cbnz	r3, 403174 <vTaskIncrementTick+0x78>
  40316e:	f04f 33ff 	mov.w	r3, #4294967295
  403172:	e007      	b.n	403184 <vTaskIncrementTick+0x88>
  403174:	f8d8 3000 	ldr.w	r3, [r8]
  403178:	68db      	ldr	r3, [r3, #12]
  40317a:	68dd      	ldr	r5, [r3, #12]
  40317c:	6832      	ldr	r2, [r6, #0]
  40317e:	686b      	ldr	r3, [r5, #4]
  403180:	4293      	cmp	r3, r2
  403182:	d902      	bls.n	40318a <vTaskIncrementTick+0x8e>
  403184:	6023      	str	r3, [r4, #0]
  403186:	e8bd 87f0 	ldmia.w	sp!, {r4, r5, r6, r7, r8, r9, sl, pc}
  40318a:	1d2f      	adds	r7, r5, #4
  40318c:	4638      	mov	r0, r7
  40318e:	47c8      	blx	r9
  403190:	6aab      	ldr	r3, [r5, #40]	; 0x28
  403192:	b113      	cbz	r3, 40319a <vTaskIncrementTick+0x9e>
  403194:	f105 0018 	add.w	r0, r5, #24
  403198:	47c8      	blx	r9
  40319a:	6aeb      	ldr	r3, [r5, #44]	; 0x2c
  40319c:	f8da 2000 	ldr.w	r2, [sl]
  4031a0:	4293      	cmp	r3, r2
  4031a2:	4a0f      	ldr	r2, [pc, #60]	; (4031e0 <vTaskIncrementTick+0xe4>)
  4031a4:	bf88      	it	hi
  4031a6:	f8ca 3000 	strhi.w	r3, [sl]
  4031aa:	2014      	movs	r0, #20
  4031ac:	fb00 2003 	mla	r0, r0, r3, r2
  4031b0:	4639      	mov	r1, r7
  4031b2:	4b0c      	ldr	r3, [pc, #48]	; (4031e4 <vTaskIncrementTick+0xe8>)
  4031b4:	4798      	blx	r3
  4031b6:	e7d6      	b.n	403166 <vTaskIncrementTick+0x6a>
  4031b8:	4a0b      	ldr	r2, [pc, #44]	; (4031e8 <vTaskIncrementTick+0xec>)
  4031ba:	6813      	ldr	r3, [r2, #0]
  4031bc:	3301      	adds	r3, #1
  4031be:	6013      	str	r3, [r2, #0]
  4031c0:	e8bd 87f0 	ldmia.w	sp!, {r4, r5, r6, r7, r8, r9, sl, pc}
  4031c4:	20002684 	.word	0x20002684
  4031c8:	200026a4 	.word	0x200026a4
  4031cc:	200025ec 	.word	0x200025ec
  4031d0:	004026e5 	.word	0x004026e5
  4031d4:	200026a8 	.word	0x200026a8
  4031d8:	20002688 	.word	0x20002688
  4031dc:	20000030 	.word	0x20000030
  4031e0:	20002620 	.word	0x20002620
  4031e4:	00402615 	.word	0x00402615
  4031e8:	200025d4 	.word	0x200025d4
  4031ec:	00402661 	.word	0x00402661
  4031f0:	200026ac 	.word	0x200026ac

004031f4 <xTaskResumeAll>:
  4031f4:	e92d 43f8 	stmdb	sp!, {r3, r4, r5, r6, r7, r8, r9, lr}
  4031f8:	4c2b      	ldr	r4, [pc, #172]	; (4032a8 <xTaskResumeAll+0xb4>)
  4031fa:	6823      	ldr	r3, [r4, #0]
  4031fc:	b91b      	cbnz	r3, 403206 <xTaskResumeAll+0x12>
  4031fe:	4b2b      	ldr	r3, [pc, #172]	; (4032ac <xTaskResumeAll+0xb8>)
  403200:	4798      	blx	r3
  403202:	bf00      	nop
  403204:	e7fd      	b.n	403202 <xTaskResumeAll+0xe>
  403206:	4b2a      	ldr	r3, [pc, #168]	; (4032b0 <xTaskResumeAll+0xbc>)
  403208:	4798      	blx	r3
  40320a:	6823      	ldr	r3, [r4, #0]
  40320c:	3b01      	subs	r3, #1
  40320e:	6023      	str	r3, [r4, #0]
  403210:	6824      	ldr	r4, [r4, #0]
  403212:	b10c      	cbz	r4, 403218 <xTaskResumeAll+0x24>
  403214:	2400      	movs	r4, #0
  403216:	e042      	b.n	40329e <xTaskResumeAll+0xaa>
  403218:	4b26      	ldr	r3, [pc, #152]	; (4032b4 <xTaskResumeAll+0xc0>)
  40321a:	681b      	ldr	r3, [r3, #0]
  40321c:	2b00      	cmp	r3, #0
  40321e:	d0f9      	beq.n	403214 <xTaskResumeAll+0x20>
  403220:	4e25      	ldr	r6, [pc, #148]	; (4032b8 <xTaskResumeAll+0xc4>)
  403222:	4f26      	ldr	r7, [pc, #152]	; (4032bc <xTaskResumeAll+0xc8>)
  403224:	f8df 80b8 	ldr.w	r8, [pc, #184]	; 4032e0 <xTaskResumeAll+0xec>
  403228:	6833      	ldr	r3, [r6, #0]
  40322a:	b1f3      	cbz	r3, 40326a <xTaskResumeAll+0x76>
  40322c:	68f3      	ldr	r3, [r6, #12]
  40322e:	68dd      	ldr	r5, [r3, #12]
  403230:	f105 0904 	add.w	r9, r5, #4
  403234:	f105 0018 	add.w	r0, r5, #24
  403238:	47b8      	blx	r7
  40323a:	4648      	mov	r0, r9
  40323c:	47b8      	blx	r7
  40323e:	6aeb      	ldr	r3, [r5, #44]	; 0x2c
  403240:	f8d8 2000 	ldr.w	r2, [r8]
  403244:	4293      	cmp	r3, r2
  403246:	4a1e      	ldr	r2, [pc, #120]	; (4032c0 <xTaskResumeAll+0xcc>)
  403248:	bf88      	it	hi
  40324a:	f8c8 3000 	strhi.w	r3, [r8]
  40324e:	2014      	movs	r0, #20
  403250:	fb00 2003 	mla	r0, r0, r3, r2
  403254:	4649      	mov	r1, r9
  403256:	4b1b      	ldr	r3, [pc, #108]	; (4032c4 <xTaskResumeAll+0xd0>)
  403258:	4798      	blx	r3
  40325a:	4b1b      	ldr	r3, [pc, #108]	; (4032c8 <xTaskResumeAll+0xd4>)
  40325c:	6aea      	ldr	r2, [r5, #44]	; 0x2c
  40325e:	681b      	ldr	r3, [r3, #0]
  403260:	6adb      	ldr	r3, [r3, #44]	; 0x2c
  403262:	429a      	cmp	r2, r3
  403264:	bf28      	it	cs
  403266:	2401      	movcs	r4, #1
  403268:	e7de      	b.n	403228 <xTaskResumeAll+0x34>
  40326a:	4d18      	ldr	r5, [pc, #96]	; (4032cc <xTaskResumeAll+0xd8>)
  40326c:	682b      	ldr	r3, [r5, #0]
  40326e:	b143      	cbz	r3, 403282 <xTaskResumeAll+0x8e>
  403270:	4e17      	ldr	r6, [pc, #92]	; (4032d0 <xTaskResumeAll+0xdc>)
  403272:	462c      	mov	r4, r5
  403274:	682b      	ldr	r3, [r5, #0]
  403276:	b133      	cbz	r3, 403286 <xTaskResumeAll+0x92>
  403278:	47b0      	blx	r6
  40327a:	6823      	ldr	r3, [r4, #0]
  40327c:	3b01      	subs	r3, #1
  40327e:	6023      	str	r3, [r4, #0]
  403280:	e7f8      	b.n	403274 <xTaskResumeAll+0x80>
  403282:	2c01      	cmp	r4, #1
  403284:	d106      	bne.n	403294 <xTaskResumeAll+0xa0>
  403286:	4b13      	ldr	r3, [pc, #76]	; (4032d4 <xTaskResumeAll+0xe0>)
  403288:	2200      	movs	r2, #0
  40328a:	601a      	str	r2, [r3, #0]
  40328c:	4b12      	ldr	r3, [pc, #72]	; (4032d8 <xTaskResumeAll+0xe4>)
  40328e:	4798      	blx	r3
  403290:	2401      	movs	r4, #1
  403292:	e004      	b.n	40329e <xTaskResumeAll+0xaa>
  403294:	4b0f      	ldr	r3, [pc, #60]	; (4032d4 <xTaskResumeAll+0xe0>)
  403296:	681b      	ldr	r3, [r3, #0]
  403298:	2b01      	cmp	r3, #1
  40329a:	d1bb      	bne.n	403214 <xTaskResumeAll+0x20>
  40329c:	e7f3      	b.n	403286 <xTaskResumeAll+0x92>
  40329e:	4b0f      	ldr	r3, [pc, #60]	; (4032dc <xTaskResumeAll+0xe8>)
  4032a0:	4798      	blx	r3
  4032a2:	4620      	mov	r0, r4
  4032a4:	e8bd 83f8 	ldmia.w	sp!, {r3, r4, r5, r6, r7, r8, r9, pc}
  4032a8:	20002684 	.word	0x20002684
  4032ac:	004026e5 	.word	0x004026e5
  4032b0:	004026f5 	.word	0x004026f5
  4032b4:	200026cc 	.word	0x200026cc
  4032b8:	20002690 	.word	0x20002690
  4032bc:	00402661 	.word	0x00402661
  4032c0:	20002620 	.word	0x20002620
  4032c4:	00402615 	.word	0x00402615
  4032c8:	2000268c 	.word	0x2000268c
  4032cc:	200025d4 	.word	0x200025d4
  4032d0:	004030fd 	.word	0x004030fd
  4032d4:	200026c8 	.word	0x200026c8
  4032d8:	004026d5 	.word	0x004026d5
  4032dc:	00402715 	.word	0x00402715
  4032e0:	200026ac 	.word	0x200026ac

004032e4 <vTaskDelay>:
  4032e4:	b510      	push	{r4, lr}
  4032e6:	b918      	cbnz	r0, 4032f0 <vTaskDelay+0xc>
  4032e8:	4b0a      	ldr	r3, [pc, #40]	; (403314 <vTaskDelay+0x30>)
  4032ea:	e8bd 4010 	ldmia.w	sp!, {r4, lr}
  4032ee:	4718      	bx	r3
  4032f0:	4b09      	ldr	r3, [pc, #36]	; (403318 <vTaskDelay+0x34>)
  4032f2:	4798      	blx	r3
  4032f4:	4b09      	ldr	r3, [pc, #36]	; (40331c <vTaskDelay+0x38>)
  4032f6:	681b      	ldr	r3, [r3, #0]
  4032f8:	18c4      	adds	r4, r0, r3
  4032fa:	4b09      	ldr	r3, [pc, #36]	; (403320 <vTaskDelay+0x3c>)
  4032fc:	6818      	ldr	r0, [r3, #0]
  4032fe:	4b09      	ldr	r3, [pc, #36]	; (403324 <vTaskDelay+0x40>)
  403300:	3004      	adds	r0, #4
  403302:	4798      	blx	r3
  403304:	4b08      	ldr	r3, [pc, #32]	; (403328 <vTaskDelay+0x44>)
  403306:	4620      	mov	r0, r4
  403308:	4798      	blx	r3
  40330a:	4b08      	ldr	r3, [pc, #32]	; (40332c <vTaskDelay+0x48>)
  40330c:	4798      	blx	r3
  40330e:	2800      	cmp	r0, #0
  403310:	d0ea      	beq.n	4032e8 <vTaskDelay+0x4>
  403312:	bd10      	pop	{r4, pc}
  403314:	004026d5 	.word	0x004026d5
  403318:	004030cd 	.word	0x004030cd
  40331c:	200026a4 	.word	0x200026a4
  403320:	2000268c 	.word	0x2000268c
  403324:	00402661 	.word	0x00402661
  403328:	00402e39 	.word	0x00402e39
  40332c:	004031f5 	.word	0x004031f5

00403330 <prvIdleTask>:
  403330:	b580      	push	{r7, lr}
  403332:	4d13      	ldr	r5, [pc, #76]	; (403380 <prvIdleTask+0x50>)
  403334:	462e      	mov	r6, r5
  403336:	4f13      	ldr	r7, [pc, #76]	; (403384 <prvIdleTask+0x54>)
  403338:	4c13      	ldr	r4, [pc, #76]	; (403388 <prvIdleTask+0x58>)
  40333a:	682b      	ldr	r3, [r5, #0]
  40333c:	2b00      	cmp	r3, #0
  40333e:	d0fa      	beq.n	403336 <prvIdleTask+0x6>
  403340:	47b8      	blx	r7
  403342:	f8d4 8000 	ldr.w	r8, [r4]
  403346:	4b11      	ldr	r3, [pc, #68]	; (40338c <prvIdleTask+0x5c>)
  403348:	4798      	blx	r3
  40334a:	f1b8 0f00 	cmp.w	r8, #0
  40334e:	d0f4      	beq.n	40333a <prvIdleTask+0xa>
  403350:	4b0f      	ldr	r3, [pc, #60]	; (403390 <prvIdleTask+0x60>)
  403352:	f8df 804c 	ldr.w	r8, [pc, #76]	; 4033a0 <prvIdleTask+0x70>
  403356:	4798      	blx	r3
  403358:	4b0b      	ldr	r3, [pc, #44]	; (403388 <prvIdleTask+0x58>)
  40335a:	68db      	ldr	r3, [r3, #12]
  40335c:	68dc      	ldr	r4, [r3, #12]
  40335e:	4b0d      	ldr	r3, [pc, #52]	; (403394 <prvIdleTask+0x64>)
  403360:	1d20      	adds	r0, r4, #4
  403362:	4798      	blx	r3
  403364:	4a0c      	ldr	r2, [pc, #48]	; (403398 <prvIdleTask+0x68>)
  403366:	6813      	ldr	r3, [r2, #0]
  403368:	3b01      	subs	r3, #1
  40336a:	6013      	str	r3, [r2, #0]
  40336c:	6833      	ldr	r3, [r6, #0]
  40336e:	3b01      	subs	r3, #1
  403370:	6033      	str	r3, [r6, #0]
  403372:	4b0a      	ldr	r3, [pc, #40]	; (40339c <prvIdleTask+0x6c>)
  403374:	4798      	blx	r3
  403376:	6b20      	ldr	r0, [r4, #48]	; 0x30
  403378:	47c0      	blx	r8
  40337a:	4620      	mov	r0, r4
  40337c:	47c0      	blx	r8
  40337e:	e7db      	b.n	403338 <prvIdleTask+0x8>
  403380:	200025f4 	.word	0x200025f4
  403384:	004030cd 	.word	0x004030cd
  403388:	200025f8 	.word	0x200025f8
  40338c:	004031f5 	.word	0x004031f5
  403390:	004026f5 	.word	0x004026f5
  403394:	00402661 	.word	0x00402661
  403398:	200026cc 	.word	0x200026cc
  40339c:	00402715 	.word	0x00402715
  4033a0:	004028f1 	.word	0x004028f1

004033a4 <vTaskSwitchContext>:
  4033a4:	b538      	push	{r3, r4, r5, lr}
  4033a6:	4b23      	ldr	r3, [pc, #140]	; (403434 <vTaskSwitchContext+0x90>)
  4033a8:	681b      	ldr	r3, [r3, #0]
  4033aa:	b11b      	cbz	r3, 4033b4 <vTaskSwitchContext+0x10>
  4033ac:	4b22      	ldr	r3, [pc, #136]	; (403438 <vTaskSwitchContext+0x94>)
  4033ae:	2201      	movs	r2, #1
  4033b0:	601a      	str	r2, [r3, #0]
  4033b2:	bd38      	pop	{r3, r4, r5, pc}
  4033b4:	4c21      	ldr	r4, [pc, #132]	; (40343c <vTaskSwitchContext+0x98>)
  4033b6:	6822      	ldr	r2, [r4, #0]
  4033b8:	6823      	ldr	r3, [r4, #0]
  4033ba:	6812      	ldr	r2, [r2, #0]
  4033bc:	6b1b      	ldr	r3, [r3, #48]	; 0x30
  4033be:	429a      	cmp	r2, r3
  4033c0:	d804      	bhi.n	4033cc <vTaskSwitchContext+0x28>
  4033c2:	6820      	ldr	r0, [r4, #0]
  4033c4:	6821      	ldr	r1, [r4, #0]
  4033c6:	4b1e      	ldr	r3, [pc, #120]	; (403440 <vTaskSwitchContext+0x9c>)
  4033c8:	3134      	adds	r1, #52	; 0x34
  4033ca:	4798      	blx	r3
  4033cc:	6823      	ldr	r3, [r4, #0]
  4033ce:	491d      	ldr	r1, [pc, #116]	; (403444 <vTaskSwitchContext+0xa0>)
  4033d0:	6b18      	ldr	r0, [r3, #48]	; 0x30
  4033d2:	4b1d      	ldr	r3, [pc, #116]	; (403448 <vTaskSwitchContext+0xa4>)
  4033d4:	4d19      	ldr	r5, [pc, #100]	; (40343c <vTaskSwitchContext+0x98>)
  4033d6:	2214      	movs	r2, #20
  4033d8:	4798      	blx	r3
  4033da:	b120      	cbz	r0, 4033e6 <vTaskSwitchContext+0x42>
  4033dc:	6828      	ldr	r0, [r5, #0]
  4033de:	6829      	ldr	r1, [r5, #0]
  4033e0:	4b17      	ldr	r3, [pc, #92]	; (403440 <vTaskSwitchContext+0x9c>)
  4033e2:	3134      	adds	r1, #52	; 0x34
  4033e4:	4798      	blx	r3
  4033e6:	4b19      	ldr	r3, [pc, #100]	; (40344c <vTaskSwitchContext+0xa8>)
  4033e8:	4819      	ldr	r0, [pc, #100]	; (403450 <vTaskSwitchContext+0xac>)
  4033ea:	2514      	movs	r5, #20
  4033ec:	681a      	ldr	r2, [r3, #0]
  4033ee:	4918      	ldr	r1, [pc, #96]	; (403450 <vTaskSwitchContext+0xac>)
  4033f0:	436a      	muls	r2, r5
  4033f2:	5882      	ldr	r2, [r0, r2]
  4033f4:	b94a      	cbnz	r2, 40340a <vTaskSwitchContext+0x66>
  4033f6:	681a      	ldr	r2, [r3, #0]
  4033f8:	b91a      	cbnz	r2, 403402 <vTaskSwitchContext+0x5e>
  4033fa:	4b16      	ldr	r3, [pc, #88]	; (403454 <vTaskSwitchContext+0xb0>)
  4033fc:	4798      	blx	r3
  4033fe:	bf00      	nop
  403400:	e7fd      	b.n	4033fe <vTaskSwitchContext+0x5a>
  403402:	681a      	ldr	r2, [r3, #0]
  403404:	3a01      	subs	r2, #1
  403406:	601a      	str	r2, [r3, #0]
  403408:	e7f0      	b.n	4033ec <vTaskSwitchContext+0x48>
  40340a:	4b10      	ldr	r3, [pc, #64]	; (40344c <vTaskSwitchContext+0xa8>)
  40340c:	681a      	ldr	r2, [r3, #0]
  40340e:	2314      	movs	r3, #20
  403410:	4353      	muls	r3, r2
  403412:	18c8      	adds	r0, r1, r3
  403414:	3308      	adds	r3, #8
  403416:	6845      	ldr	r5, [r0, #4]
  403418:	686d      	ldr	r5, [r5, #4]
  40341a:	6045      	str	r5, [r0, #4]
  40341c:	440b      	add	r3, r1
  40341e:	429d      	cmp	r5, r3
  403420:	bf04      	itt	eq
  403422:	686b      	ldreq	r3, [r5, #4]
  403424:	6043      	streq	r3, [r0, #4]
  403426:	2314      	movs	r3, #20
  403428:	fb03 1202 	mla	r2, r3, r2, r1
  40342c:	6853      	ldr	r3, [r2, #4]
  40342e:	68db      	ldr	r3, [r3, #12]
  403430:	6023      	str	r3, [r4, #0]
  403432:	bd38      	pop	{r3, r4, r5, pc}
  403434:	20002684 	.word	0x20002684
  403438:	200026c8 	.word	0x200026c8
  40343c:	2000268c 	.word	0x2000268c
  403440:	00403d29 	.word	0x00403d29
  403444:	00407aa4 	.word	0x00407aa4
  403448:	004076c5 	.word	0x004076c5
  40344c:	200026ac 	.word	0x200026ac
  403450:	20002620 	.word	0x20002620
  403454:	004026e5 	.word	0x004026e5

00403458 <vTaskPlaceOnEventList>:
  403458:	b570      	push	{r4, r5, r6, lr}
  40345a:	460d      	mov	r5, r1
  40345c:	b918      	cbnz	r0, 403466 <vTaskPlaceOnEventList+0xe>
  40345e:	4b0e      	ldr	r3, [pc, #56]	; (403498 <vTaskPlaceOnEventList+0x40>)
  403460:	4798      	blx	r3
  403462:	bf00      	nop
  403464:	e7fd      	b.n	403462 <vTaskPlaceOnEventList+0xa>
  403466:	4c0d      	ldr	r4, [pc, #52]	; (40349c <vTaskPlaceOnEventList+0x44>)
  403468:	4b0d      	ldr	r3, [pc, #52]	; (4034a0 <vTaskPlaceOnEventList+0x48>)
  40346a:	6821      	ldr	r1, [r4, #0]
  40346c:	3118      	adds	r1, #24
  40346e:	4798      	blx	r3
  403470:	6820      	ldr	r0, [r4, #0]
  403472:	4b0c      	ldr	r3, [pc, #48]	; (4034a4 <vTaskPlaceOnEventList+0x4c>)
  403474:	3004      	adds	r0, #4
  403476:	4798      	blx	r3
  403478:	1c6b      	adds	r3, r5, #1
  40347a:	d106      	bne.n	40348a <vTaskPlaceOnEventList+0x32>
  40347c:	6821      	ldr	r1, [r4, #0]
  40347e:	480a      	ldr	r0, [pc, #40]	; (4034a8 <vTaskPlaceOnEventList+0x50>)
  403480:	4b0a      	ldr	r3, [pc, #40]	; (4034ac <vTaskPlaceOnEventList+0x54>)
  403482:	3104      	adds	r1, #4
  403484:	e8bd 4070 	ldmia.w	sp!, {r4, r5, r6, lr}
  403488:	4718      	bx	r3
  40348a:	4b09      	ldr	r3, [pc, #36]	; (4034b0 <vTaskPlaceOnEventList+0x58>)
  40348c:	6818      	ldr	r0, [r3, #0]
  40348e:	4b09      	ldr	r3, [pc, #36]	; (4034b4 <vTaskPlaceOnEventList+0x5c>)
  403490:	4428      	add	r0, r5
  403492:	e8bd 4070 	ldmia.w	sp!, {r4, r5, r6, lr}
  403496:	4718      	bx	r3
  403498:	004026e5 	.word	0x004026e5
  40349c:	2000268c 	.word	0x2000268c
  4034a0:	00402631 	.word	0x00402631
  4034a4:	00402661 	.word	0x00402661
  4034a8:	200025d8 	.word	0x200025d8
  4034ac:	00402615 	.word	0x00402615
  4034b0:	200026a4 	.word	0x200026a4
  4034b4:	00402e39 	.word	0x00402e39

004034b8 <vTaskPlaceOnEventListRestricted>:
  4034b8:	b570      	push	{r4, r5, r6, lr}
  4034ba:	460d      	mov	r5, r1
  4034bc:	b918      	cbnz	r0, 4034c6 <vTaskPlaceOnEventListRestricted+0xe>
  4034be:	4b0a      	ldr	r3, [pc, #40]	; (4034e8 <vTaskPlaceOnEventListRestricted+0x30>)
  4034c0:	4798      	blx	r3
  4034c2:	bf00      	nop
  4034c4:	e7fd      	b.n	4034c2 <vTaskPlaceOnEventListRestricted+0xa>
  4034c6:	4c09      	ldr	r4, [pc, #36]	; (4034ec <vTaskPlaceOnEventListRestricted+0x34>)
  4034c8:	4b09      	ldr	r3, [pc, #36]	; (4034f0 <vTaskPlaceOnEventListRestricted+0x38>)
  4034ca:	6821      	ldr	r1, [r4, #0]
  4034cc:	3118      	adds	r1, #24
  4034ce:	4798      	blx	r3
  4034d0:	6820      	ldr	r0, [r4, #0]
  4034d2:	4b08      	ldr	r3, [pc, #32]	; (4034f4 <vTaskPlaceOnEventListRestricted+0x3c>)
  4034d4:	3004      	adds	r0, #4
  4034d6:	4798      	blx	r3
  4034d8:	4b07      	ldr	r3, [pc, #28]	; (4034f8 <vTaskPlaceOnEventListRestricted+0x40>)
  4034da:	6818      	ldr	r0, [r3, #0]
  4034dc:	4b07      	ldr	r3, [pc, #28]	; (4034fc <vTaskPlaceOnEventListRestricted+0x44>)
  4034de:	4428      	add	r0, r5
  4034e0:	e8bd 4070 	ldmia.w	sp!, {r4, r5, r6, lr}
  4034e4:	4718      	bx	r3
  4034e6:	bf00      	nop
  4034e8:	004026e5 	.word	0x004026e5
  4034ec:	2000268c 	.word	0x2000268c
  4034f0:	00402615 	.word	0x00402615
  4034f4:	00402661 	.word	0x00402661
  4034f8:	200026a4 	.word	0x200026a4
  4034fc:	00402e39 	.word	0x00402e39

00403500 <xTaskRemoveFromEventList>:
  403500:	b5f8      	push	{r3, r4, r5, r6, r7, lr}
  403502:	68c3      	ldr	r3, [r0, #12]
  403504:	68dc      	ldr	r4, [r3, #12]
  403506:	b91c      	cbnz	r4, 403510 <xTaskRemoveFromEventList+0x10>
  403508:	4b13      	ldr	r3, [pc, #76]	; (403558 <xTaskRemoveFromEventList+0x58>)
  40350a:	4798      	blx	r3
  40350c:	bf00      	nop
  40350e:	e7fd      	b.n	40350c <xTaskRemoveFromEventList+0xc>
  403510:	f104 0618 	add.w	r6, r4, #24
  403514:	4630      	mov	r0, r6
  403516:	4f11      	ldr	r7, [pc, #68]	; (40355c <xTaskRemoveFromEventList+0x5c>)
  403518:	4d11      	ldr	r5, [pc, #68]	; (403560 <xTaskRemoveFromEventList+0x60>)
  40351a:	47b8      	blx	r7
  40351c:	4b11      	ldr	r3, [pc, #68]	; (403564 <xTaskRemoveFromEventList+0x64>)
  40351e:	681b      	ldr	r3, [r3, #0]
  403520:	b973      	cbnz	r3, 403540 <xTaskRemoveFromEventList+0x40>
  403522:	1d26      	adds	r6, r4, #4
  403524:	4630      	mov	r0, r6
  403526:	47b8      	blx	r7
  403528:	4a0f      	ldr	r2, [pc, #60]	; (403568 <xTaskRemoveFromEventList+0x68>)
  40352a:	6ae3      	ldr	r3, [r4, #44]	; 0x2c
  40352c:	6811      	ldr	r1, [r2, #0]
  40352e:	428b      	cmp	r3, r1
  403530:	bf88      	it	hi
  403532:	6013      	strhi	r3, [r2, #0]
  403534:	4a0d      	ldr	r2, [pc, #52]	; (40356c <xTaskRemoveFromEventList+0x6c>)
  403536:	2014      	movs	r0, #20
  403538:	4631      	mov	r1, r6
  40353a:	fb00 2003 	mla	r0, r0, r3, r2
  40353e:	e001      	b.n	403544 <xTaskRemoveFromEventList+0x44>
  403540:	480b      	ldr	r0, [pc, #44]	; (403570 <xTaskRemoveFromEventList+0x70>)
  403542:	4631      	mov	r1, r6
  403544:	47a8      	blx	r5
  403546:	4b0b      	ldr	r3, [pc, #44]	; (403574 <xTaskRemoveFromEventList+0x74>)
  403548:	6ae0      	ldr	r0, [r4, #44]	; 0x2c
  40354a:	681b      	ldr	r3, [r3, #0]
  40354c:	6adb      	ldr	r3, [r3, #44]	; 0x2c
  40354e:	4298      	cmp	r0, r3
  403550:	bf34      	ite	cc
  403552:	2000      	movcc	r0, #0
  403554:	2001      	movcs	r0, #1
  403556:	bdf8      	pop	{r3, r4, r5, r6, r7, pc}
  403558:	004026e5 	.word	0x004026e5
  40355c:	00402661 	.word	0x00402661
  403560:	00402615 	.word	0x00402615
  403564:	20002684 	.word	0x20002684
  403568:	200026ac 	.word	0x200026ac
  40356c:	20002620 	.word	0x20002620
  403570:	20002690 	.word	0x20002690
  403574:	2000268c 	.word	0x2000268c

00403578 <vTaskSetTimeOutState>:
  403578:	b508      	push	{r3, lr}
  40357a:	b918      	cbnz	r0, 403584 <vTaskSetTimeOutState+0xc>
  40357c:	4b05      	ldr	r3, [pc, #20]	; (403594 <vTaskSetTimeOutState+0x1c>)
  40357e:	4798      	blx	r3
  403580:	bf00      	nop
  403582:	e7fd      	b.n	403580 <vTaskSetTimeOutState+0x8>
  403584:	4b04      	ldr	r3, [pc, #16]	; (403598 <vTaskSetTimeOutState+0x20>)
  403586:	681b      	ldr	r3, [r3, #0]
  403588:	6003      	str	r3, [r0, #0]
  40358a:	4b04      	ldr	r3, [pc, #16]	; (40359c <vTaskSetTimeOutState+0x24>)
  40358c:	681b      	ldr	r3, [r3, #0]
  40358e:	6043      	str	r3, [r0, #4]
  403590:	bd08      	pop	{r3, pc}
  403592:	bf00      	nop
  403594:	004026e5 	.word	0x004026e5
  403598:	20002688 	.word	0x20002688
  40359c:	200026a4 	.word	0x200026a4

004035a0 <xTaskCheckForTimeOut>:
  4035a0:	b538      	push	{r3, r4, r5, lr}
  4035a2:	460d      	mov	r5, r1
  4035a4:	4604      	mov	r4, r0
  4035a6:	b918      	cbnz	r0, 4035b0 <xTaskCheckForTimeOut+0x10>
  4035a8:	4b15      	ldr	r3, [pc, #84]	; (403600 <xTaskCheckForTimeOut+0x60>)
  4035aa:	4798      	blx	r3
  4035ac:	bf00      	nop
  4035ae:	e7fd      	b.n	4035ac <xTaskCheckForTimeOut+0xc>
  4035b0:	b919      	cbnz	r1, 4035ba <xTaskCheckForTimeOut+0x1a>
  4035b2:	4b13      	ldr	r3, [pc, #76]	; (403600 <xTaskCheckForTimeOut+0x60>)
  4035b4:	4798      	blx	r3
  4035b6:	bf00      	nop
  4035b8:	e7fd      	b.n	4035b6 <xTaskCheckForTimeOut+0x16>
  4035ba:	4b12      	ldr	r3, [pc, #72]	; (403604 <xTaskCheckForTimeOut+0x64>)
  4035bc:	4798      	blx	r3
  4035be:	682b      	ldr	r3, [r5, #0]
  4035c0:	1c5a      	adds	r2, r3, #1
  4035c2:	d015      	beq.n	4035f0 <xTaskCheckForTimeOut+0x50>
  4035c4:	4a10      	ldr	r2, [pc, #64]	; (403608 <xTaskCheckForTimeOut+0x68>)
  4035c6:	6821      	ldr	r1, [r4, #0]
  4035c8:	6812      	ldr	r2, [r2, #0]
  4035ca:	4291      	cmp	r1, r2
  4035cc:	4a0f      	ldr	r2, [pc, #60]	; (40360c <xTaskCheckForTimeOut+0x6c>)
  4035ce:	6861      	ldr	r1, [r4, #4]
  4035d0:	d002      	beq.n	4035d8 <xTaskCheckForTimeOut+0x38>
  4035d2:	6810      	ldr	r0, [r2, #0]
  4035d4:	4281      	cmp	r1, r0
  4035d6:	d90d      	bls.n	4035f4 <xTaskCheckForTimeOut+0x54>
  4035d8:	6812      	ldr	r2, [r2, #0]
  4035da:	1a52      	subs	r2, r2, r1
  4035dc:	4293      	cmp	r3, r2
  4035de:	d909      	bls.n	4035f4 <xTaskCheckForTimeOut+0x54>
  4035e0:	4a0a      	ldr	r2, [pc, #40]	; (40360c <xTaskCheckForTimeOut+0x6c>)
  4035e2:	6812      	ldr	r2, [r2, #0]
  4035e4:	1a52      	subs	r2, r2, r1
  4035e6:	1a9b      	subs	r3, r3, r2
  4035e8:	602b      	str	r3, [r5, #0]
  4035ea:	4620      	mov	r0, r4
  4035ec:	4b08      	ldr	r3, [pc, #32]	; (403610 <xTaskCheckForTimeOut+0x70>)
  4035ee:	4798      	blx	r3
  4035f0:	2400      	movs	r4, #0
  4035f2:	e000      	b.n	4035f6 <xTaskCheckForTimeOut+0x56>
  4035f4:	2401      	movs	r4, #1
  4035f6:	4b07      	ldr	r3, [pc, #28]	; (403614 <xTaskCheckForTimeOut+0x74>)
  4035f8:	4798      	blx	r3
  4035fa:	4620      	mov	r0, r4
  4035fc:	bd38      	pop	{r3, r4, r5, pc}
  4035fe:	bf00      	nop
  403600:	004026e5 	.word	0x004026e5
  403604:	004026f5 	.word	0x004026f5
  403608:	20002688 	.word	0x20002688
  40360c:	200026a4 	.word	0x200026a4
  403610:	00403579 	.word	0x00403579
  403614:	00402715 	.word	0x00402715

00403618 <vTaskMissedYield>:
  403618:	4b01      	ldr	r3, [pc, #4]	; (403620 <vTaskMissedYield+0x8>)
  40361a:	2201      	movs	r2, #1
  40361c:	601a      	str	r2, [r3, #0]
  40361e:	4770      	bx	lr
  403620:	200026c8 	.word	0x200026c8

00403624 <xTaskGetCurrentTaskHandle>:
  403624:	4b01      	ldr	r3, [pc, #4]	; (40362c <xTaskGetCurrentTaskHandle+0x8>)
  403626:	6818      	ldr	r0, [r3, #0]
  403628:	4770      	bx	lr
  40362a:	bf00      	nop
  40362c:	2000268c 	.word	0x2000268c

00403630 <xTaskGetSchedulerState>:
  403630:	4b04      	ldr	r3, [pc, #16]	; (403644 <xTaskGetSchedulerState+0x14>)
  403632:	6818      	ldr	r0, [r3, #0]
  403634:	b128      	cbz	r0, 403642 <xTaskGetSchedulerState+0x12>
  403636:	4b04      	ldr	r3, [pc, #16]	; (403648 <xTaskGetSchedulerState+0x18>)
  403638:	681b      	ldr	r3, [r3, #0]
  40363a:	2b00      	cmp	r3, #0
  40363c:	bf0c      	ite	eq
  40363e:	2001      	moveq	r0, #1
  403640:	2002      	movne	r0, #2
  403642:	4770      	bx	lr
  403644:	200025f0 	.word	0x200025f0
  403648:	20002684 	.word	0x20002684

0040364c <vTaskPriorityInherit>:
  40364c:	e92d 41f0 	stmdb	sp!, {r4, r5, r6, r7, r8, lr}
  403650:	4604      	mov	r4, r0
  403652:	b348      	cbz	r0, 4036a8 <vTaskPriorityInherit+0x5c>
  403654:	4d15      	ldr	r5, [pc, #84]	; (4036ac <vTaskPriorityInherit+0x60>)
  403656:	6ac3      	ldr	r3, [r0, #44]	; 0x2c
  403658:	682a      	ldr	r2, [r5, #0]
  40365a:	6ad2      	ldr	r2, [r2, #44]	; 0x2c
  40365c:	4293      	cmp	r3, r2
  40365e:	d223      	bcs.n	4036a8 <vTaskPriorityInherit+0x5c>
  403660:	682a      	ldr	r2, [r5, #0]
  403662:	6ad2      	ldr	r2, [r2, #44]	; 0x2c
  403664:	f1c2 0205 	rsb	r2, r2, #5
  403668:	6182      	str	r2, [r0, #24]
  40366a:	4811      	ldr	r0, [pc, #68]	; (4036b0 <vTaskPriorityInherit+0x64>)
  40366c:	2214      	movs	r2, #20
  40366e:	fb02 0303 	mla	r3, r2, r3, r0
  403672:	6962      	ldr	r2, [r4, #20]
  403674:	429a      	cmp	r2, r3
  403676:	4606      	mov	r6, r0
  403678:	d113      	bne.n	4036a2 <vTaskPriorityInherit+0x56>
  40367a:	1d27      	adds	r7, r4, #4
  40367c:	4638      	mov	r0, r7
  40367e:	4b0d      	ldr	r3, [pc, #52]	; (4036b4 <vTaskPriorityInherit+0x68>)
  403680:	4798      	blx	r3
  403682:	682b      	ldr	r3, [r5, #0]
  403684:	4a0c      	ldr	r2, [pc, #48]	; (4036b8 <vTaskPriorityInherit+0x6c>)
  403686:	6adb      	ldr	r3, [r3, #44]	; 0x2c
  403688:	6811      	ldr	r1, [r2, #0]
  40368a:	62e3      	str	r3, [r4, #44]	; 0x2c
  40368c:	428b      	cmp	r3, r1
  40368e:	bf88      	it	hi
  403690:	6013      	strhi	r3, [r2, #0]
  403692:	2014      	movs	r0, #20
  403694:	fb00 6003 	mla	r0, r0, r3, r6
  403698:	4639      	mov	r1, r7
  40369a:	4b08      	ldr	r3, [pc, #32]	; (4036bc <vTaskPriorityInherit+0x70>)
  40369c:	e8bd 41f0 	ldmia.w	sp!, {r4, r5, r6, r7, r8, lr}
  4036a0:	4718      	bx	r3
  4036a2:	682b      	ldr	r3, [r5, #0]
  4036a4:	6adb      	ldr	r3, [r3, #44]	; 0x2c
  4036a6:	62e3      	str	r3, [r4, #44]	; 0x2c
  4036a8:	e8bd 81f0 	ldmia.w	sp!, {r4, r5, r6, r7, r8, pc}
  4036ac:	2000268c 	.word	0x2000268c
  4036b0:	20002620 	.word	0x20002620
  4036b4:	00402661 	.word	0x00402661
  4036b8:	200026ac 	.word	0x200026ac
  4036bc:	00402615 	.word	0x00402615

004036c0 <vTaskPriorityDisinherit>:
  4036c0:	b570      	push	{r4, r5, r6, lr}
  4036c2:	4604      	mov	r4, r0
  4036c4:	b1d0      	cbz	r0, 4036fc <vTaskPriorityDisinherit+0x3c>
  4036c6:	6ac2      	ldr	r2, [r0, #44]	; 0x2c
  4036c8:	6c03      	ldr	r3, [r0, #64]	; 0x40
  4036ca:	429a      	cmp	r2, r3
  4036cc:	d016      	beq.n	4036fc <vTaskPriorityDisinherit+0x3c>
  4036ce:	1d05      	adds	r5, r0, #4
  4036d0:	4628      	mov	r0, r5
  4036d2:	4b0b      	ldr	r3, [pc, #44]	; (403700 <vTaskPriorityDisinherit+0x40>)
  4036d4:	4798      	blx	r3
  4036d6:	6c23      	ldr	r3, [r4, #64]	; 0x40
  4036d8:	62e3      	str	r3, [r4, #44]	; 0x2c
  4036da:	f1c3 0205 	rsb	r2, r3, #5
  4036de:	61a2      	str	r2, [r4, #24]
  4036e0:	4a08      	ldr	r2, [pc, #32]	; (403704 <vTaskPriorityDisinherit+0x44>)
  4036e2:	6811      	ldr	r1, [r2, #0]
  4036e4:	428b      	cmp	r3, r1
  4036e6:	bf88      	it	hi
  4036e8:	6013      	strhi	r3, [r2, #0]
  4036ea:	4a07      	ldr	r2, [pc, #28]	; (403708 <vTaskPriorityDisinherit+0x48>)
  4036ec:	2014      	movs	r0, #20
  4036ee:	4629      	mov	r1, r5
  4036f0:	fb00 2003 	mla	r0, r0, r3, r2
  4036f4:	e8bd 4070 	ldmia.w	sp!, {r4, r5, r6, lr}
  4036f8:	4b04      	ldr	r3, [pc, #16]	; (40370c <vTaskPriorityDisinherit+0x4c>)
  4036fa:	4718      	bx	r3
  4036fc:	bd70      	pop	{r4, r5, r6, pc}
  4036fe:	bf00      	nop
  403700:	00402661 	.word	0x00402661
  403704:	200026ac 	.word	0x200026ac
  403708:	20002620 	.word	0x20002620
  40370c:	00402615 	.word	0x00402615

00403710 <prvCheckForValidListAndQueue>:
  403710:	e92d 41f0 	stmdb	sp!, {r4, r5, r6, r7, r8, lr}
  403714:	4c0d      	ldr	r4, [pc, #52]	; (40374c <prvCheckForValidListAndQueue+0x3c>)
  403716:	4b0e      	ldr	r3, [pc, #56]	; (403750 <prvCheckForValidListAndQueue+0x40>)
  403718:	4798      	blx	r3
  40371a:	6825      	ldr	r5, [r4, #0]
  40371c:	b98d      	cbnz	r5, 403742 <prvCheckForValidListAndQueue+0x32>
  40371e:	4f0d      	ldr	r7, [pc, #52]	; (403754 <prvCheckForValidListAndQueue+0x44>)
  403720:	4e0d      	ldr	r6, [pc, #52]	; (403758 <prvCheckForValidListAndQueue+0x48>)
  403722:	f8df 8048 	ldr.w	r8, [pc, #72]	; 40376c <prvCheckForValidListAndQueue+0x5c>
  403726:	4638      	mov	r0, r7
  403728:	47c0      	blx	r8
  40372a:	4630      	mov	r0, r6
  40372c:	47c0      	blx	r8
  40372e:	4b0b      	ldr	r3, [pc, #44]	; (40375c <prvCheckForValidListAndQueue+0x4c>)
  403730:	601f      	str	r7, [r3, #0]
  403732:	4b0b      	ldr	r3, [pc, #44]	; (403760 <prvCheckForValidListAndQueue+0x50>)
  403734:	462a      	mov	r2, r5
  403736:	601e      	str	r6, [r3, #0]
  403738:	210c      	movs	r1, #12
  40373a:	2005      	movs	r0, #5
  40373c:	4b09      	ldr	r3, [pc, #36]	; (403764 <prvCheckForValidListAndQueue+0x54>)
  40373e:	4798      	blx	r3
  403740:	6020      	str	r0, [r4, #0]
  403742:	4b09      	ldr	r3, [pc, #36]	; (403768 <prvCheckForValidListAndQueue+0x58>)
  403744:	e8bd 41f0 	ldmia.w	sp!, {r4, r5, r6, r7, r8, lr}
  403748:	4718      	bx	r3
  40374a:	bf00      	nop
  40374c:	20002704 	.word	0x20002704
  403750:	004026f5 	.word	0x004026f5
  403754:	200026d8 	.word	0x200026d8
  403758:	200026ec 	.word	0x200026ec
  40375c:	200026d4 	.word	0x200026d4
  403760:	20002708 	.word	0x20002708
  403764:	00402ab1 	.word	0x00402ab1
  403768:	00402715 	.word	0x00402715
  40376c:	004025f9 	.word	0x004025f9

00403770 <prvInsertTimerInActiveList>:
  403770:	4291      	cmp	r1, r2
  403772:	b508      	push	{r3, lr}
  403774:	6041      	str	r1, [r0, #4]
  403776:	6100      	str	r0, [r0, #16]
  403778:	d806      	bhi.n	403788 <prvInsertTimerInActiveList+0x18>
  40377a:	1ad2      	subs	r2, r2, r3
  40377c:	6983      	ldr	r3, [r0, #24]
  40377e:	429a      	cmp	r2, r3
  403780:	d20d      	bcs.n	40379e <prvInsertTimerInActiveList+0x2e>
  403782:	1d01      	adds	r1, r0, #4
  403784:	4b07      	ldr	r3, [pc, #28]	; (4037a4 <prvInsertTimerInActiveList+0x34>)
  403786:	e005      	b.n	403794 <prvInsertTimerInActiveList+0x24>
  403788:	429a      	cmp	r2, r3
  40378a:	d201      	bcs.n	403790 <prvInsertTimerInActiveList+0x20>
  40378c:	4299      	cmp	r1, r3
  40378e:	d206      	bcs.n	40379e <prvInsertTimerInActiveList+0x2e>
  403790:	4b05      	ldr	r3, [pc, #20]	; (4037a8 <prvInsertTimerInActiveList+0x38>)
  403792:	1d01      	adds	r1, r0, #4
  403794:	6818      	ldr	r0, [r3, #0]
  403796:	4b05      	ldr	r3, [pc, #20]	; (4037ac <prvInsertTimerInActiveList+0x3c>)
  403798:	4798      	blx	r3
  40379a:	2000      	movs	r0, #0
  40379c:	bd08      	pop	{r3, pc}
  40379e:	2001      	movs	r0, #1
  4037a0:	bd08      	pop	{r3, pc}
  4037a2:	bf00      	nop
  4037a4:	20002708 	.word	0x20002708
  4037a8:	200026d4 	.word	0x200026d4
  4037ac:	00402631 	.word	0x00402631

004037b0 <xTimerCreateTimerTask>:
  4037b0:	b51f      	push	{r0, r1, r2, r3, r4, lr}
  4037b2:	4b0c      	ldr	r3, [pc, #48]	; (4037e4 <xTimerCreateTimerTask+0x34>)
  4037b4:	4798      	blx	r3
  4037b6:	4b0c      	ldr	r3, [pc, #48]	; (4037e8 <xTimerCreateTimerTask+0x38>)
  4037b8:	681b      	ldr	r3, [r3, #0]
  4037ba:	b913      	cbnz	r3, 4037c2 <xTimerCreateTimerTask+0x12>
  4037bc:	4b0b      	ldr	r3, [pc, #44]	; (4037ec <xTimerCreateTimerTask+0x3c>)
  4037be:	4798      	blx	r3
  4037c0:	e00e      	b.n	4037e0 <xTimerCreateTimerTask+0x30>
  4037c2:	2300      	movs	r3, #0
  4037c4:	2204      	movs	r2, #4
  4037c6:	9200      	str	r2, [sp, #0]
  4037c8:	9303      	str	r3, [sp, #12]
  4037ca:	9302      	str	r3, [sp, #8]
  4037cc:	9301      	str	r3, [sp, #4]
  4037ce:	22c8      	movs	r2, #200	; 0xc8
  4037d0:	4907      	ldr	r1, [pc, #28]	; (4037f0 <xTimerCreateTimerTask+0x40>)
  4037d2:	4808      	ldr	r0, [pc, #32]	; (4037f4 <xTimerCreateTimerTask+0x44>)
  4037d4:	4c08      	ldr	r4, [pc, #32]	; (4037f8 <xTimerCreateTimerTask+0x48>)
  4037d6:	47a0      	blx	r4
  4037d8:	2800      	cmp	r0, #0
  4037da:	d0ef      	beq.n	4037bc <xTimerCreateTimerTask+0xc>
  4037dc:	b004      	add	sp, #16
  4037de:	bd10      	pop	{r4, pc}
  4037e0:	bf00      	nop
  4037e2:	e7fd      	b.n	4037e0 <xTimerCreateTimerTask+0x30>
  4037e4:	00403711 	.word	0x00403711
  4037e8:	20002704 	.word	0x20002704
  4037ec:	004026e5 	.word	0x004026e5
  4037f0:	00407abd 	.word	0x00407abd
  4037f4:	004038d1 	.word	0x004038d1
  4037f8:	00402e89 	.word	0x00402e89

004037fc <xTimerGenericCommand>:
  4037fc:	b57f      	push	{r0, r1, r2, r3, r4, r5, r6, lr}
  4037fe:	4d0e      	ldr	r5, [pc, #56]	; (403838 <xTimerGenericCommand+0x3c>)
  403800:	4606      	mov	r6, r0
  403802:	6828      	ldr	r0, [r5, #0]
  403804:	461c      	mov	r4, r3
  403806:	b1a8      	cbz	r0, 403834 <xTimerGenericCommand+0x38>
  403808:	9101      	str	r1, [sp, #4]
  40380a:	9202      	str	r2, [sp, #8]
  40380c:	9603      	str	r6, [sp, #12]
  40380e:	b963      	cbnz	r3, 40382a <xTimerGenericCommand+0x2e>
  403810:	4b0a      	ldr	r3, [pc, #40]	; (40383c <xTimerGenericCommand+0x40>)
  403812:	4e0b      	ldr	r6, [pc, #44]	; (403840 <xTimerGenericCommand+0x44>)
  403814:	4798      	blx	r3
  403816:	2801      	cmp	r0, #1
  403818:	4623      	mov	r3, r4
  40381a:	bf08      	it	eq
  40381c:	9a08      	ldreq	r2, [sp, #32]
  40381e:	6828      	ldr	r0, [r5, #0]
  403820:	bf18      	it	ne
  403822:	4622      	movne	r2, r4
  403824:	a901      	add	r1, sp, #4
  403826:	47b0      	blx	r6
  403828:	e004      	b.n	403834 <xTimerGenericCommand+0x38>
  40382a:	4622      	mov	r2, r4
  40382c:	2300      	movs	r3, #0
  40382e:	a901      	add	r1, sp, #4
  403830:	4c04      	ldr	r4, [pc, #16]	; (403844 <xTimerGenericCommand+0x48>)
  403832:	47a0      	blx	r4
  403834:	b004      	add	sp, #16
  403836:	bd70      	pop	{r4, r5, r6, pc}
  403838:	20002704 	.word	0x20002704
  40383c:	00403631 	.word	0x00403631
  403840:	00402afd 	.word	0x00402afd
  403844:	00402c1d 	.word	0x00402c1d

00403848 <prvSwitchTimerLists.isra.1>:
  403848:	e92d 43f7 	stmdb	sp!, {r0, r1, r2, r4, r5, r6, r7, r8, r9, lr}
  40384c:	4e1a      	ldr	r6, [pc, #104]	; (4038b8 <prvSwitchTimerLists.isra.1+0x70>)
  40384e:	4f1b      	ldr	r7, [pc, #108]	; (4038bc <prvSwitchTimerLists.isra.1+0x74>)
  403850:	46b0      	mov	r8, r6
  403852:	6833      	ldr	r3, [r6, #0]
  403854:	681a      	ldr	r2, [r3, #0]
  403856:	b332      	cbz	r2, 4038a6 <prvSwitchTimerLists.isra.1+0x5e>
  403858:	68da      	ldr	r2, [r3, #12]
  40385a:	6815      	ldr	r5, [r2, #0]
  40385c:	68db      	ldr	r3, [r3, #12]
  40385e:	68dc      	ldr	r4, [r3, #12]
  403860:	f104 0904 	add.w	r9, r4, #4
  403864:	4648      	mov	r0, r9
  403866:	47b8      	blx	r7
  403868:	6a63      	ldr	r3, [r4, #36]	; 0x24
  40386a:	4620      	mov	r0, r4
  40386c:	4798      	blx	r3
  40386e:	69e3      	ldr	r3, [r4, #28]
  403870:	2b01      	cmp	r3, #1
  403872:	d1ee      	bne.n	403852 <prvSwitchTimerLists.isra.1+0xa>
  403874:	69a3      	ldr	r3, [r4, #24]
  403876:	442b      	add	r3, r5
  403878:	429d      	cmp	r5, r3
  40387a:	d207      	bcs.n	40388c <prvSwitchTimerLists.isra.1+0x44>
  40387c:	6063      	str	r3, [r4, #4]
  40387e:	6124      	str	r4, [r4, #16]
  403880:	4649      	mov	r1, r9
  403882:	f8d8 0000 	ldr.w	r0, [r8]
  403886:	4b0e      	ldr	r3, [pc, #56]	; (4038c0 <prvSwitchTimerLists.isra.1+0x78>)
  403888:	4798      	blx	r3
  40388a:	e7e2      	b.n	403852 <prvSwitchTimerLists.isra.1+0xa>
  40388c:	2300      	movs	r3, #0
  40388e:	4620      	mov	r0, r4
  403890:	9300      	str	r3, [sp, #0]
  403892:	462a      	mov	r2, r5
  403894:	4619      	mov	r1, r3
  403896:	4c0b      	ldr	r4, [pc, #44]	; (4038c4 <prvSwitchTimerLists.isra.1+0x7c>)
  403898:	47a0      	blx	r4
  40389a:	2800      	cmp	r0, #0
  40389c:	d1d9      	bne.n	403852 <prvSwitchTimerLists.isra.1+0xa>
  40389e:	4b0a      	ldr	r3, [pc, #40]	; (4038c8 <prvSwitchTimerLists.isra.1+0x80>)
  4038a0:	4798      	blx	r3
  4038a2:	bf00      	nop
  4038a4:	e7fd      	b.n	4038a2 <prvSwitchTimerLists.isra.1+0x5a>
  4038a6:	4a09      	ldr	r2, [pc, #36]	; (4038cc <prvSwitchTimerLists.isra.1+0x84>)
  4038a8:	4903      	ldr	r1, [pc, #12]	; (4038b8 <prvSwitchTimerLists.isra.1+0x70>)
  4038aa:	6810      	ldr	r0, [r2, #0]
  4038ac:	6008      	str	r0, [r1, #0]
  4038ae:	6013      	str	r3, [r2, #0]
  4038b0:	b003      	add	sp, #12
  4038b2:	e8bd 83f0 	ldmia.w	sp!, {r4, r5, r6, r7, r8, r9, pc}
  4038b6:	bf00      	nop
  4038b8:	200026d4 	.word	0x200026d4
  4038bc:	00402661 	.word	0x00402661
  4038c0:	00402631 	.word	0x00402631
  4038c4:	004037fd 	.word	0x004037fd
  4038c8:	004026e5 	.word	0x004026e5
  4038cc:	20002708 	.word	0x20002708

004038d0 <prvTimerTask>:
  4038d0:	e92d 4ff0 	stmdb	sp!, {r4, r5, r6, r7, r8, r9, sl, fp, lr}
  4038d4:	f8df 818c 	ldr.w	r8, [pc, #396]	; 403a64 <prvTimerTask+0x194>
  4038d8:	b089      	sub	sp, #36	; 0x24
  4038da:	f8df b18c 	ldr.w	fp, [pc, #396]	; 403a68 <prvTimerTask+0x198>
  4038de:	f8db 2000 	ldr.w	r2, [fp]
  4038e2:	f8d2 9000 	ldr.w	r9, [r2]
  4038e6:	f1b9 0f00 	cmp.w	r9, #0
  4038ea:	d002      	beq.n	4038f2 <prvTimerTask+0x22>
  4038ec:	68d2      	ldr	r2, [r2, #12]
  4038ee:	6815      	ldr	r5, [r2, #0]
  4038f0:	e000      	b.n	4038f4 <prvTimerTask+0x24>
  4038f2:	464d      	mov	r5, r9
  4038f4:	4a4e      	ldr	r2, [pc, #312]	; (403a30 <prvTimerTask+0x160>)
  4038f6:	4c4f      	ldr	r4, [pc, #316]	; (403a34 <prvTimerTask+0x164>)
  4038f8:	4f4f      	ldr	r7, [pc, #316]	; (403a38 <prvTimerTask+0x168>)
  4038fa:	4790      	blx	r2
  4038fc:	47a0      	blx	r4
  4038fe:	683a      	ldr	r2, [r7, #0]
  403900:	9403      	str	r4, [sp, #12]
  403902:	4290      	cmp	r0, r2
  403904:	4606      	mov	r6, r0
  403906:	d204      	bcs.n	403912 <prvTimerTask+0x42>
  403908:	4a4c      	ldr	r2, [pc, #304]	; (403a3c <prvTimerTask+0x16c>)
  40390a:	4790      	blx	r2
  40390c:	f04f 0a01 	mov.w	sl, #1
  403910:	e001      	b.n	403916 <prvTimerTask+0x46>
  403912:	f04f 0a00 	mov.w	sl, #0
  403916:	603e      	str	r6, [r7, #0]
  403918:	4c49      	ldr	r4, [pc, #292]	; (403a40 <prvTimerTask+0x170>)
  40391a:	f1ba 0f00 	cmp.w	sl, #0
  40391e:	d133      	bne.n	403988 <prvTimerTask+0xb8>
  403920:	f1b9 0f00 	cmp.w	r9, #0
  403924:	d026      	beq.n	403974 <prvTimerTask+0xa4>
  403926:	42ae      	cmp	r6, r5
  403928:	d324      	bcc.n	403974 <prvTimerTask+0xa4>
  40392a:	47a0      	blx	r4
  40392c:	f8db 3000 	ldr.w	r3, [fp]
  403930:	68db      	ldr	r3, [r3, #12]
  403932:	68dc      	ldr	r4, [r3, #12]
  403934:	4b43      	ldr	r3, [pc, #268]	; (403a44 <prvTimerTask+0x174>)
  403936:	1d20      	adds	r0, r4, #4
  403938:	4798      	blx	r3
  40393a:	69e3      	ldr	r3, [r4, #28]
  40393c:	2b01      	cmp	r3, #1
  40393e:	d115      	bne.n	40396c <prvTimerTask+0x9c>
  403940:	69a1      	ldr	r1, [r4, #24]
  403942:	4632      	mov	r2, r6
  403944:	462b      	mov	r3, r5
  403946:	4429      	add	r1, r5
  403948:	4620      	mov	r0, r4
  40394a:	4e3f      	ldr	r6, [pc, #252]	; (403a48 <prvTimerTask+0x178>)
  40394c:	47b0      	blx	r6
  40394e:	2801      	cmp	r0, #1
  403950:	d10c      	bne.n	40396c <prvTimerTask+0x9c>
  403952:	462a      	mov	r2, r5
  403954:	f8cd a000 	str.w	sl, [sp]
  403958:	4653      	mov	r3, sl
  40395a:	4651      	mov	r1, sl
  40395c:	4620      	mov	r0, r4
  40395e:	4d3b      	ldr	r5, [pc, #236]	; (403a4c <prvTimerTask+0x17c>)
  403960:	47a8      	blx	r5
  403962:	b918      	cbnz	r0, 40396c <prvTimerTask+0x9c>
  403964:	4b3a      	ldr	r3, [pc, #232]	; (403a50 <prvTimerTask+0x180>)
  403966:	4798      	blx	r3
  403968:	bf00      	nop
  40396a:	e7fd      	b.n	403968 <prvTimerTask+0x98>
  40396c:	6a63      	ldr	r3, [r4, #36]	; 0x24
  40396e:	4620      	mov	r0, r4
  403970:	4798      	blx	r3
  403972:	e00a      	b.n	40398a <prvTimerTask+0xba>
  403974:	1ba9      	subs	r1, r5, r6
  403976:	f8d8 0000 	ldr.w	r0, [r8]
  40397a:	4b36      	ldr	r3, [pc, #216]	; (403a54 <prvTimerTask+0x184>)
  40397c:	4798      	blx	r3
  40397e:	47a0      	blx	r4
  403980:	b918      	cbnz	r0, 40398a <prvTimerTask+0xba>
  403982:	4b35      	ldr	r3, [pc, #212]	; (403a58 <prvTimerTask+0x188>)
  403984:	4798      	blx	r3
  403986:	e000      	b.n	40398a <prvTimerTask+0xba>
  403988:	47a0      	blx	r4
  40398a:	9b03      	ldr	r3, [sp, #12]
  40398c:	4798      	blx	r3
  40398e:	683b      	ldr	r3, [r7, #0]
  403990:	4298      	cmp	r0, r3
  403992:	4605      	mov	r5, r0
  403994:	d201      	bcs.n	40399a <prvTimerTask+0xca>
  403996:	4b29      	ldr	r3, [pc, #164]	; (403a3c <prvTimerTask+0x16c>)
  403998:	4798      	blx	r3
  40399a:	603d      	str	r5, [r7, #0]
  40399c:	4f2f      	ldr	r7, [pc, #188]	; (403a5c <prvTimerTask+0x18c>)
  40399e:	f8df 90a4 	ldr.w	r9, [pc, #164]	; 403a44 <prvTimerTask+0x174>
  4039a2:	f8d8 0000 	ldr.w	r0, [r8]
  4039a6:	2300      	movs	r3, #0
  4039a8:	461a      	mov	r2, r3
  4039aa:	a905      	add	r1, sp, #20
  4039ac:	47b8      	blx	r7
  4039ae:	2800      	cmp	r0, #0
  4039b0:	d093      	beq.n	4038da <prvTimerTask+0xa>
  4039b2:	9c07      	ldr	r4, [sp, #28]
  4039b4:	b11c      	cbz	r4, 4039be <prvTimerTask+0xee>
  4039b6:	6963      	ldr	r3, [r4, #20]
  4039b8:	b10b      	cbz	r3, 4039be <prvTimerTask+0xee>
  4039ba:	1d20      	adds	r0, r4, #4
  4039bc:	47c8      	blx	r9
  4039be:	9e05      	ldr	r6, [sp, #20]
  4039c0:	2e02      	cmp	r6, #2
  4039c2:	d022      	beq.n	403a0a <prvTimerTask+0x13a>
  4039c4:	2e03      	cmp	r6, #3
  4039c6:	d02e      	beq.n	403a26 <prvTimerTask+0x156>
  4039c8:	2e00      	cmp	r6, #0
  4039ca:	d1ea      	bne.n	4039a2 <prvTimerTask+0xd2>
  4039cc:	69a1      	ldr	r1, [r4, #24]
  4039ce:	9b06      	ldr	r3, [sp, #24]
  4039d0:	f8df 9074 	ldr.w	r9, [pc, #116]	; 403a48 <prvTimerTask+0x178>
  4039d4:	462a      	mov	r2, r5
  4039d6:	4419      	add	r1, r3
  4039d8:	4620      	mov	r0, r4
  4039da:	47c8      	blx	r9
  4039dc:	2801      	cmp	r0, #1
  4039de:	d1de      	bne.n	40399e <prvTimerTask+0xce>
  4039e0:	6a63      	ldr	r3, [r4, #36]	; 0x24
  4039e2:	4620      	mov	r0, r4
  4039e4:	4798      	blx	r3
  4039e6:	69e3      	ldr	r3, [r4, #28]
  4039e8:	2b01      	cmp	r3, #1
  4039ea:	d1d8      	bne.n	40399e <prvTimerTask+0xce>
  4039ec:	69a2      	ldr	r2, [r4, #24]
  4039ee:	9906      	ldr	r1, [sp, #24]
  4039f0:	9600      	str	r6, [sp, #0]
  4039f2:	440a      	add	r2, r1
  4039f4:	4620      	mov	r0, r4
  4039f6:	4633      	mov	r3, r6
  4039f8:	4631      	mov	r1, r6
  4039fa:	4c14      	ldr	r4, [pc, #80]	; (403a4c <prvTimerTask+0x17c>)
  4039fc:	47a0      	blx	r4
  4039fe:	2800      	cmp	r0, #0
  403a00:	d1cd      	bne.n	40399e <prvTimerTask+0xce>
  403a02:	4b13      	ldr	r3, [pc, #76]	; (403a50 <prvTimerTask+0x180>)
  403a04:	4798      	blx	r3
  403a06:	bf00      	nop
  403a08:	e7fd      	b.n	403a06 <prvTimerTask+0x136>
  403a0a:	9906      	ldr	r1, [sp, #24]
  403a0c:	61a1      	str	r1, [r4, #24]
  403a0e:	b919      	cbnz	r1, 403a18 <prvTimerTask+0x148>
  403a10:	4b0f      	ldr	r3, [pc, #60]	; (403a50 <prvTimerTask+0x180>)
  403a12:	4798      	blx	r3
  403a14:	bf00      	nop
  403a16:	e7fd      	b.n	403a14 <prvTimerTask+0x144>
  403a18:	462b      	mov	r3, r5
  403a1a:	462a      	mov	r2, r5
  403a1c:	4429      	add	r1, r5
  403a1e:	4620      	mov	r0, r4
  403a20:	4c09      	ldr	r4, [pc, #36]	; (403a48 <prvTimerTask+0x178>)
  403a22:	47a0      	blx	r4
  403a24:	e7bb      	b.n	40399e <prvTimerTask+0xce>
  403a26:	4620      	mov	r0, r4
  403a28:	4b0d      	ldr	r3, [pc, #52]	; (403a60 <prvTimerTask+0x190>)
  403a2a:	4798      	blx	r3
  403a2c:	e7b7      	b.n	40399e <prvTimerTask+0xce>
  403a2e:	bf00      	nop
  403a30:	004030cd 	.word	0x004030cd
  403a34:	004030dd 	.word	0x004030dd
  403a38:	20002700 	.word	0x20002700
  403a3c:	00403849 	.word	0x00403849
  403a40:	004031f5 	.word	0x004031f5
  403a44:	00402661 	.word	0x00402661
  403a48:	00403771 	.word	0x00403771
  403a4c:	004037fd 	.word	0x004037fd
  403a50:	004026e5 	.word	0x004026e5
  403a54:	00402ded 	.word	0x00402ded
  403a58:	004026d5 	.word	0x004026d5
  403a5c:	00402c99 	.word	0x00402c99
  403a60:	004028f1 	.word	0x004028f1
  403a64:	20002704 	.word	0x20002704
  403a68:	200026d4 	.word	0x200026d4

00403a6c <WriteMbusRegs>:
  403a6c:	e92d 47f3 	stmdb	sp!, {r0, r1, r4, r5, r6, r7, r8, r9, sl, lr}
  403a70:	440a      	add	r2, r1
  403a72:	4c44      	ldr	r4, [pc, #272]	; (403b84 <WriteMbusRegs+0x118>)
  403a74:	f8df 9148 	ldr.w	r9, [pc, #328]	; 403bc0 <WriteMbusRegs+0x154>
  403a78:	f8df 8148 	ldr.w	r8, [pc, #328]	; 403bc4 <WriteMbusRegs+0x158>
  403a7c:	4606      	mov	r6, r0
  403a7e:	460d      	mov	r5, r1
  403a80:	b2d7      	uxtb	r7, r2
  403a82:	42bd      	cmp	r5, r7
  403a84:	d07a      	beq.n	403b7c <WriteMbusRegs+0x110>
  403a86:	2d21      	cmp	r5, #33	; 0x21
  403a88:	d875      	bhi.n	403b76 <WriteMbusRegs+0x10a>
  403a8a:	e8df f005 	tbb	[pc, r5]
  403a8e:	1511      	.short	0x1511
  403a90:	26221e1a 	.word	0x26221e1a
  403a94:	2e74742a 	.word	0x2e74742a
  403a98:	3f743774 	.word	0x3f743774
  403a9c:	74747474 	.word	0x74747474
  403aa0:	74744874 	.word	0x74744874
  403aa4:	746a7474 	.word	0x746a7474
  403aa8:	74747474 	.word	0x74747474
  403aac:	5a745174 	.word	0x5a745174
  403ab0:	7831      	ldrb	r1, [r6, #0]
  403ab2:	4835      	ldr	r0, [pc, #212]	; (403b88 <WriteMbusRegs+0x11c>)
  403ab4:	4b35      	ldr	r3, [pc, #212]	; (403b8c <WriteMbusRegs+0x120>)
  403ab6:	e002      	b.n	403abe <WriteMbusRegs+0x52>
  403ab8:	78b1      	ldrb	r1, [r6, #2]
  403aba:	4833      	ldr	r0, [pc, #204]	; (403b88 <WriteMbusRegs+0x11c>)
  403abc:	4b34      	ldr	r3, [pc, #208]	; (403b90 <WriteMbusRegs+0x124>)
  403abe:	4798      	blx	r3
  403ac0:	e059      	b.n	403b76 <WriteMbusRegs+0x10a>
  403ac2:	7931      	ldrb	r1, [r6, #4]
  403ac4:	4830      	ldr	r0, [pc, #192]	; (403b88 <WriteMbusRegs+0x11c>)
  403ac6:	4b33      	ldr	r3, [pc, #204]	; (403b94 <WriteMbusRegs+0x128>)
  403ac8:	e7f9      	b.n	403abe <WriteMbusRegs+0x52>
  403aca:	79b1      	ldrb	r1, [r6, #6]
  403acc:	482e      	ldr	r0, [pc, #184]	; (403b88 <WriteMbusRegs+0x11c>)
  403ace:	4b32      	ldr	r3, [pc, #200]	; (403b98 <WriteMbusRegs+0x12c>)
  403ad0:	e7f5      	b.n	403abe <WriteMbusRegs+0x52>
  403ad2:	7a31      	ldrb	r1, [r6, #8]
  403ad4:	482c      	ldr	r0, [pc, #176]	; (403b88 <WriteMbusRegs+0x11c>)
  403ad6:	4b31      	ldr	r3, [pc, #196]	; (403b9c <WriteMbusRegs+0x130>)
  403ad8:	e7f1      	b.n	403abe <WriteMbusRegs+0x52>
  403ada:	7ab1      	ldrb	r1, [r6, #10]
  403adc:	482a      	ldr	r0, [pc, #168]	; (403b88 <WriteMbusRegs+0x11c>)
  403ade:	4b30      	ldr	r3, [pc, #192]	; (403ba0 <WriteMbusRegs+0x134>)
  403ae0:	e7ed      	b.n	403abe <WriteMbusRegs+0x52>
  403ae2:	7b31      	ldrb	r1, [r6, #12]
  403ae4:	4828      	ldr	r0, [pc, #160]	; (403b88 <WriteMbusRegs+0x11c>)
  403ae6:	4b2f      	ldr	r3, [pc, #188]	; (403ba4 <WriteMbusRegs+0x138>)
  403ae8:	e7e9      	b.n	403abe <WriteMbusRegs+0x52>
  403aea:	4b2f      	ldr	r3, [pc, #188]	; (403ba8 <WriteMbusRegs+0x13c>)
  403aec:	8a62      	ldrh	r2, [r4, #18]
  403aee:	805a      	strh	r2, [r3, #2]
  403af0:	8a22      	ldrh	r2, [r4, #16]
  403af2:	801a      	strh	r2, [r3, #0]
  403af4:	2204      	movs	r2, #4
  403af6:	9200      	str	r2, [sp, #0]
  403af8:	2200      	movs	r2, #0
  403afa:	e02c      	b.n	403b56 <WriteMbusRegs+0xea>
  403afc:	4b2b      	ldr	r3, [pc, #172]	; (403bac <WriteMbusRegs+0x140>)
  403afe:	8ae2      	ldrh	r2, [r4, #22]
  403b00:	805a      	strh	r2, [r3, #2]
  403b02:	8aa2      	ldrh	r2, [r4, #20]
  403b04:	801a      	strh	r2, [r3, #0]
  403b06:	2204      	movs	r2, #4
  403b08:	9200      	str	r2, [sp, #0]
  403b0a:	e024      	b.n	403b56 <WriteMbusRegs+0xea>
  403b0c:	4b28      	ldr	r3, [pc, #160]	; (403bb0 <WriteMbusRegs+0x144>)
  403b0e:	8b62      	ldrh	r2, [r4, #26]
  403b10:	805a      	strh	r2, [r3, #2]
  403b12:	8b22      	ldrh	r2, [r4, #24]
  403b14:	801a      	strh	r2, [r3, #0]
  403b16:	2204      	movs	r2, #4
  403b18:	9200      	str	r2, [sp, #0]
  403b1a:	2208      	movs	r2, #8
  403b1c:	e01b      	b.n	403b56 <WriteMbusRegs+0xea>
  403b1e:	4b25      	ldr	r3, [pc, #148]	; (403bb4 <WriteMbusRegs+0x148>)
  403b20:	8ce2      	ldrh	r2, [r4, #38]	; 0x26
  403b22:	805a      	strh	r2, [r3, #2]
  403b24:	8ca2      	ldrh	r2, [r4, #36]	; 0x24
  403b26:	801a      	strh	r2, [r3, #0]
  403b28:	2204      	movs	r2, #4
  403b2a:	9200      	str	r2, [sp, #0]
  403b2c:	2214      	movs	r2, #20
  403b2e:	e012      	b.n	403b56 <WriteMbusRegs+0xea>
  403b30:	4b21      	ldr	r3, [pc, #132]	; (403bb8 <WriteMbusRegs+0x14c>)
  403b32:	8fe2      	ldrh	r2, [r4, #62]	; 0x3e
  403b34:	805a      	strh	r2, [r3, #2]
  403b36:	8fa2      	ldrh	r2, [r4, #60]	; 0x3c
  403b38:	801a      	strh	r2, [r3, #0]
  403b3a:	2204      	movs	r2, #4
  403b3c:	9200      	str	r2, [sp, #0]
  403b3e:	220c      	movs	r2, #12
  403b40:	e009      	b.n	403b56 <WriteMbusRegs+0xea>
  403b42:	4b1e      	ldr	r3, [pc, #120]	; (403bbc <WriteMbusRegs+0x150>)
  403b44:	f8b4 2042 	ldrh.w	r2, [r4, #66]	; 0x42
  403b48:	805a      	strh	r2, [r3, #2]
  403b4a:	f8b4 2040 	ldrh.w	r2, [r4, #64]	; 0x40
  403b4e:	801a      	strh	r2, [r3, #0]
  403b50:	2204      	movs	r2, #4
  403b52:	9200      	str	r2, [sp, #0]
  403b54:	2210      	movs	r2, #16
  403b56:	2150      	movs	r1, #80	; 0x50
  403b58:	480b      	ldr	r0, [pc, #44]	; (403b88 <WriteMbusRegs+0x11c>)
  403b5a:	f8df a06c 	ldr.w	sl, [pc, #108]	; 403bc8 <WriteMbusRegs+0x15c>
  403b5e:	47d0      	blx	sl
  403b60:	e009      	b.n	403b76 <WriteMbusRegs+0x10a>
  403b62:	2300      	movs	r3, #0
  403b64:	2022      	movs	r0, #34	; 0x22
  403b66:	86a3      	strh	r3, [r4, #52]	; 0x34
  403b68:	f889 3000 	strb.w	r3, [r9]
  403b6c:	47c0      	blx	r8
  403b6e:	2020      	movs	r0, #32
  403b70:	47c0      	blx	r8
  403b72:	2021      	movs	r0, #33	; 0x21
  403b74:	47c0      	blx	r8
  403b76:	3501      	adds	r5, #1
  403b78:	b2ed      	uxtb	r5, r5
  403b7a:	e782      	b.n	403a82 <WriteMbusRegs+0x16>
  403b7c:	b002      	add	sp, #8
  403b7e:	e8bd 87f0 	ldmia.w	sp!, {r4, r5, r6, r7, r8, r9, sl, pc}
  403b82:	bf00      	nop
  403b84:	20000484 	.word	0x20000484
  403b88:	40018000 	.word	0x40018000
  403b8c:	0040024d 	.word	0x0040024d
  403b90:	00400259 	.word	0x00400259
  403b94:	00400265 	.word	0x00400265
  403b98:	00400271 	.word	0x00400271
  403b9c:	0040027d 	.word	0x0040027d
  403ba0:	00400289 	.word	0x00400289
  403ba4:	00400295 	.word	0x00400295
  403ba8:	20000018 	.word	0x20000018
  403bac:	2000001c 	.word	0x2000001c
  403bb0:	2000000c 	.word	0x2000000c
  403bb4:	20000014 	.word	0x20000014
  403bb8:	20000010 	.word	0x20000010
  403bbc:	20000020 	.word	0x20000020
  403bc0:	200004d1 	.word	0x200004d1
  403bc4:	0040205f 	.word	0x0040205f
  403bc8:	00400129 	.word	0x00400129

00403bcc <vCommInit>:
  403bcc:	4b00      	ldr	r3, [pc, #0]	; (403bd0 <vCommInit+0x4>)
  403bce:	4718      	bx	r3
  403bd0:	004015b9 	.word	0x004015b9

00403bd4 <SendRespPkt>:
  403bd4:	b570      	push	{r4, r5, r6, lr}
  403bd6:	4b0a      	ldr	r3, [pc, #40]	; (403c00 <SendRespPkt+0x2c>)
  403bd8:	4604      	mov	r4, r0
  403bda:	460d      	mov	r5, r1
  403bdc:	4809      	ldr	r0, [pc, #36]	; (403c04 <SendRespPkt+0x30>)
  403bde:	4798      	blx	r3
  403be0:	4629      	mov	r1, r5
  403be2:	4620      	mov	r0, r4
  403be4:	4b08      	ldr	r3, [pc, #32]	; (403c08 <SendRespPkt+0x34>)
  403be6:	4c09      	ldr	r4, [pc, #36]	; (403c0c <SendRespPkt+0x38>)
  403be8:	4d09      	ldr	r5, [pc, #36]	; (403c10 <SendRespPkt+0x3c>)
  403bea:	4798      	blx	r3
  403bec:	47a0      	blx	r4
  403bee:	b910      	cbnz	r0, 403bf6 <SendRespPkt+0x22>
  403bf0:	2002      	movs	r0, #2
  403bf2:	47a8      	blx	r5
  403bf4:	e7fa      	b.n	403bec <SendRespPkt+0x18>
  403bf6:	4803      	ldr	r0, [pc, #12]	; (403c04 <SendRespPkt+0x30>)
  403bf8:	4b06      	ldr	r3, [pc, #24]	; (403c14 <SendRespPkt+0x40>)
  403bfa:	e8bd 4070 	ldmia.w	sp!, {r4, r5, r6, lr}
  403bfe:	4718      	bx	r3
  403c00:	00401d99 	.word	0x00401d99
  403c04:	40028000 	.word	0x40028000
  403c08:	00401629 	.word	0x00401629
  403c0c:	00401689 	.word	0x00401689
  403c10:	004032e5 	.word	0x004032e5
  403c14:	00401d9f 	.word	0x00401d9f

00403c18 <vCommTask>:
  403c18:	e92d 4ff0 	stmdb	sp!, {r4, r5, r6, r7, r8, r9, sl, fp, lr}
  403c1c:	4b28      	ldr	r3, [pc, #160]	; (403cc0 <vCommTask+0xa8>)
  403c1e:	4a29      	ldr	r2, [pc, #164]	; (403cc4 <vCommTask+0xac>)
  403c20:	601a      	str	r2, [r3, #0]
  403c22:	b0d1      	sub	sp, #324	; 0x144
  403c24:	f10d 070f 	add.w	r7, sp, #15
  403c28:	4b27      	ldr	r3, [pc, #156]	; (403cc8 <vCommTask+0xb0>)
  403c2a:	4828      	ldr	r0, [pc, #160]	; (403ccc <vCommTask+0xb4>)
  403c2c:	4e28      	ldr	r6, [pc, #160]	; (403cd0 <vCommTask+0xb8>)
  403c2e:	4d29      	ldr	r5, [pc, #164]	; (403cd4 <vCommTask+0xbc>)
  403c30:	f8df 90c4 	ldr.w	r9, [pc, #196]	; 403cf8 <vCommTask+0xe0>
  403c34:	f8df b0c4 	ldr.w	fp, [pc, #196]	; 403cfc <vCommTask+0xe4>
  403c38:	2400      	movs	r4, #0
  403c3a:	703c      	strb	r4, [r7, #0]
  403c3c:	4798      	blx	r3
  403c3e:	4823      	ldr	r0, [pc, #140]	; (403ccc <vCommTask+0xb4>)
  403c40:	47b0      	blx	r6
  403c42:	2196      	movs	r1, #150	; 0x96
  403c44:	a804      	add	r0, sp, #16
  403c46:	47a8      	blx	r5
  403c48:	46ca      	mov	sl, r9
  403c4a:	2008      	movs	r0, #8
  403c4c:	47d8      	blx	fp
  403c4e:	4b22      	ldr	r3, [pc, #136]	; (403cd8 <vCommTask+0xc0>)
  403c50:	4798      	blx	r3
  403c52:	b2c0      	uxtb	r0, r0
  403c54:	b92c      	cbnz	r4, 403c62 <vCommTask+0x4a>
  403c56:	2800      	cmp	r0, #0
  403c58:	bf16      	itet	ne
  403c5a:	4680      	movne	r8, r0
  403c5c:	2400      	moveq	r4, #0
  403c5e:	2401      	movne	r4, #1
  403c60:	e7f3      	b.n	403c4a <vCommTask+0x32>
  403c62:	4580      	cmp	r8, r0
  403c64:	d001      	beq.n	403c6a <vCommTask+0x52>
  403c66:	4680      	mov	r8, r0
  403c68:	e7ef      	b.n	403c4a <vCommTask+0x32>
  403c6a:	4818      	ldr	r0, [pc, #96]	; (403ccc <vCommTask+0xb4>)
  403c6c:	4b1b      	ldr	r3, [pc, #108]	; (403cdc <vCommTask+0xc4>)
  403c6e:	4798      	blx	r3
  403c70:	4621      	mov	r1, r4
  403c72:	f8d9 0000 	ldr.w	r0, [r9]
  403c76:	4b1a      	ldr	r3, [pc, #104]	; (403ce0 <vCommTask+0xc8>)
  403c78:	4c1a      	ldr	r4, [pc, #104]	; (403ce4 <vCommTask+0xcc>)
  403c7a:	4798      	blx	r3
  403c7c:	4b1a      	ldr	r3, [pc, #104]	; (403ce8 <vCommTask+0xd0>)
  403c7e:	a904      	add	r1, sp, #16
  403c80:	7818      	ldrb	r0, [r3, #0]
  403c82:	9700      	str	r7, [sp, #0]
  403c84:	ab2a      	add	r3, sp, #168	; 0xa8
  403c86:	4642      	mov	r2, r8
  403c88:	47a0      	blx	r4
  403c8a:	7839      	ldrb	r1, [r7, #0]
  403c8c:	b111      	cbz	r1, 403c94 <vCommTask+0x7c>
  403c8e:	a82a      	add	r0, sp, #168	; 0xa8
  403c90:	4b16      	ldr	r3, [pc, #88]	; (403cec <vCommTask+0xd4>)
  403c92:	4798      	blx	r3
  403c94:	4c16      	ldr	r4, [pc, #88]	; (403cf0 <vCommTask+0xd8>)
  403c96:	2296      	movs	r2, #150	; 0x96
  403c98:	2100      	movs	r1, #0
  403c9a:	a804      	add	r0, sp, #16
  403c9c:	47a0      	blx	r4
  403c9e:	2296      	movs	r2, #150	; 0x96
  403ca0:	2100      	movs	r1, #0
  403ca2:	a82a      	add	r0, sp, #168	; 0xa8
  403ca4:	47a0      	blx	r4
  403ca6:	2400      	movs	r4, #0
  403ca8:	4808      	ldr	r0, [pc, #32]	; (403ccc <vCommTask+0xb4>)
  403caa:	703c      	strb	r4, [r7, #0]
  403cac:	47b0      	blx	r6
  403cae:	f8da 0000 	ldr.w	r0, [sl]
  403cb2:	4b10      	ldr	r3, [pc, #64]	; (403cf4 <vCommTask+0xdc>)
  403cb4:	2101      	movs	r1, #1
  403cb6:	4798      	blx	r3
  403cb8:	2196      	movs	r1, #150	; 0x96
  403cba:	a804      	add	r0, sp, #16
  403cbc:	47a8      	blx	r5
  403cbe:	e7c4      	b.n	403c4a <vCommTask+0x32>
  403cc0:	2000270c 	.word	0x2000270c
  403cc4:	00403a6d 	.word	0x00403a6d
  403cc8:	00401d9f 	.word	0x00401d9f
  403ccc:	40028000 	.word	0x40028000
  403cd0:	00401da5 	.word	0x00401da5
  403cd4:	00401649 	.word	0x00401649
  403cd8:	00401669 	.word	0x00401669
  403cdc:	00401dab 	.word	0x00401dab
  403ce0:	00401a8d 	.word	0x00401a8d
  403ce4:	00400459 	.word	0x00400459
  403ce8:	20000034 	.word	0x20000034
  403cec:	00403bd5 	.word	0x00403bd5
  403cf0:	0040785d 	.word	0x0040785d
  403cf4:	00401a81 	.word	0x00401a81
  403cf8:	2000271c 	.word	0x2000271c
  403cfc:	004032e5 	.word	0x004032e5

00403d00 <vBlinkTask>:
  403d00:	b508      	push	{r3, lr}
  403d02:	4d06      	ldr	r5, [pc, #24]	; (403d1c <vBlinkTask+0x1c>)
  403d04:	4c06      	ldr	r4, [pc, #24]	; (403d20 <vBlinkTask+0x20>)
  403d06:	2010      	movs	r0, #16
  403d08:	47a8      	blx	r5
  403d0a:	2064      	movs	r0, #100	; 0x64
  403d0c:	47a0      	blx	r4
  403d0e:	2010      	movs	r0, #16
  403d10:	4b04      	ldr	r3, [pc, #16]	; (403d24 <vBlinkTask+0x24>)
  403d12:	4798      	blx	r3
  403d14:	2064      	movs	r0, #100	; 0x64
  403d16:	47a0      	blx	r4
  403d18:	e7f4      	b.n	403d04 <vBlinkTask+0x4>
  403d1a:	bf00      	nop
  403d1c:	00402045 	.word	0x00402045
  403d20:	004032e5 	.word	0x004032e5
  403d24:	0040205f 	.word	0x0040205f

00403d28 <vApplicationStackOverflowHook>:
  403d28:	b508      	push	{r3, lr}
  403d2a:	4b01      	ldr	r3, [pc, #4]	; (403d30 <vApplicationStackOverflowHook+0x8>)
  403d2c:	4798      	blx	r3
  403d2e:	e7fe      	b.n	403d2e <vApplicationStackOverflowHook+0x6>
  403d30:	004026e5 	.word	0x004026e5

00403d34 <vApplicationMallocFailedHook>:
  403d34:	b508      	push	{r3, lr}
  403d36:	4b01      	ldr	r3, [pc, #4]	; (403d3c <vApplicationMallocFailedHook+0x8>)
  403d38:	4798      	blx	r3
  403d3a:	e7fe      	b.n	403d3a <vApplicationMallocFailedHook+0x6>
  403d3c:	004026e5 	.word	0x004026e5

00403d40 <vInitPeripherals>:
  403d40:	b510      	push	{r4, lr}
  403d42:	4b08      	ldr	r3, [pc, #32]	; (403d64 <vInitPeripherals+0x24>)
  403d44:	4c08      	ldr	r4, [pc, #32]	; (403d68 <vInitPeripherals+0x28>)
  403d46:	2001      	movs	r0, #1
  403d48:	4798      	blx	r3
  403d4a:	4808      	ldr	r0, [pc, #32]	; (403d6c <vInitPeripherals+0x2c>)
  403d4c:	47a0      	blx	r4
  403d4e:	4b08      	ldr	r3, [pc, #32]	; (403d70 <vInitPeripherals+0x30>)
  403d50:	2001      	movs	r0, #1
  403d52:	4798      	blx	r3
  403d54:	4807      	ldr	r0, [pc, #28]	; (403d74 <vInitPeripherals+0x34>)
  403d56:	47a0      	blx	r4
  403d58:	4b07      	ldr	r3, [pc, #28]	; (403d78 <vInitPeripherals+0x38>)
  403d5a:	4798      	blx	r3
  403d5c:	4b07      	ldr	r3, [pc, #28]	; (403d7c <vInitPeripherals+0x3c>)
  403d5e:	e8bd 4010 	ldmia.w	sp!, {r4, lr}
  403d62:	4718      	bx	r3
  403d64:	0040205f 	.word	0x0040205f
  403d68:	20000001 	.word	0x20000001
  403d6c:	00416513 	.word	0x00416513
  403d70:	00402045 	.word	0x00402045
  403d74:	0082ca25 	.word	0x0082ca25
  403d78:	00400949 	.word	0x00400949
  403d7c:	00403bcd 	.word	0x00403bcd

00403d80 <main>:
  403d80:	b51f      	push	{r0, r1, r2, r3, r4, lr}
  403d82:	4b14      	ldr	r3, [pc, #80]	; (403dd4 <main+0x54>)
  403d84:	4d14      	ldr	r5, [pc, #80]	; (403dd8 <main+0x58>)
  403d86:	4798      	blx	r3
  403d88:	4b14      	ldr	r3, [pc, #80]	; (403ddc <main+0x5c>)
  403d8a:	2400      	movs	r4, #0
  403d8c:	4798      	blx	r3
  403d8e:	2601      	movs	r6, #1
  403d90:	4b13      	ldr	r3, [pc, #76]	; (403de0 <main+0x60>)
  403d92:	4798      	blx	r3
  403d94:	4623      	mov	r3, r4
  403d96:	f44f 7296 	mov.w	r2, #300	; 0x12c
  403d9a:	4912      	ldr	r1, [pc, #72]	; (403de4 <main+0x64>)
  403d9c:	9403      	str	r4, [sp, #12]
  403d9e:	9402      	str	r4, [sp, #8]
  403da0:	9401      	str	r4, [sp, #4]
  403da2:	9600      	str	r6, [sp, #0]
  403da4:	4810      	ldr	r0, [pc, #64]	; (403de8 <main+0x68>)
  403da6:	47a8      	blx	r5
  403da8:	4623      	mov	r3, r4
  403daa:	f44f 7200 	mov.w	r2, #512	; 0x200
  403dae:	490f      	ldr	r1, [pc, #60]	; (403dec <main+0x6c>)
  403db0:	9403      	str	r4, [sp, #12]
  403db2:	9402      	str	r4, [sp, #8]
  403db4:	9401      	str	r4, [sp, #4]
  403db6:	9600      	str	r6, [sp, #0]
  403db8:	480d      	ldr	r0, [pc, #52]	; (403df0 <main+0x70>)
  403dba:	47a8      	blx	r5
  403dbc:	4623      	mov	r3, r4
  403dbe:	9403      	str	r4, [sp, #12]
  403dc0:	9402      	str	r4, [sp, #8]
  403dc2:	9401      	str	r4, [sp, #4]
  403dc4:	9600      	str	r6, [sp, #0]
  403dc6:	2264      	movs	r2, #100	; 0x64
  403dc8:	490a      	ldr	r1, [pc, #40]	; (403df4 <main+0x74>)
  403dca:	480b      	ldr	r0, [pc, #44]	; (403df8 <main+0x78>)
  403dcc:	47a8      	blx	r5
  403dce:	4b0b      	ldr	r3, [pc, #44]	; (403dfc <main+0x7c>)
  403dd0:	4798      	blx	r3
  403dd2:	e7fe      	b.n	403dd2 <main+0x52>
  403dd4:	00401ed1 	.word	0x00401ed1
  403dd8:	00402e89 	.word	0x00402e89
  403ddc:	00401df9 	.word	0x00401df9
  403de0:	00403d41 	.word	0x00403d41
  403de4:	00407ac5 	.word	0x00407ac5
  403de8:	00401539 	.word	0x00401539
  403dec:	00407ac8 	.word	0x00407ac8
  403df0:	00403c19 	.word	0x00403c19
  403df4:	00407acd 	.word	0x00407acd
  403df8:	00403d01 	.word	0x00403d01
  403dfc:	0040305d 	.word	0x0040305d

00403e00 <cos>:
  403e00:	b530      	push	{r4, r5, lr}
  403e02:	4a22      	ldr	r2, [pc, #136]	; (403e8c <cos+0x8c>)
  403e04:	f021 4300 	bic.w	r3, r1, #2147483648	; 0x80000000
  403e08:	4293      	cmp	r3, r2
  403e0a:	b087      	sub	sp, #28
  403e0c:	dd1b      	ble.n	403e46 <cos+0x46>
  403e0e:	4a20      	ldr	r2, [pc, #128]	; (403e90 <cos+0x90>)
  403e10:	4293      	cmp	r3, r2
  403e12:	dd05      	ble.n	403e20 <cos+0x20>
  403e14:	4602      	mov	r2, r0
  403e16:	460b      	mov	r3, r1
  403e18:	f002 fc50 	bl	4066bc <__aeabi_dsub>
  403e1c:	b007      	add	sp, #28
  403e1e:	bd30      	pop	{r4, r5, pc}
  403e20:	aa02      	add	r2, sp, #8
  403e22:	f000 ff09 	bl	404c38 <__ieee754_rem_pio2>
  403e26:	f000 0303 	and.w	r3, r0, #3
  403e2a:	2b01      	cmp	r3, #1
  403e2c:	d01a      	beq.n	403e64 <cos+0x64>
  403e2e:	2b02      	cmp	r3, #2
  403e30:	d00f      	beq.n	403e52 <cos+0x52>
  403e32:	b31b      	cbz	r3, 403e7c <cos+0x7c>
  403e34:	2401      	movs	r4, #1
  403e36:	e9dd 2304 	ldrd	r2, r3, [sp, #16]
  403e3a:	e9dd 0102 	ldrd	r0, r1, [sp, #8]
  403e3e:	9400      	str	r4, [sp, #0]
  403e40:	f001 fefe 	bl	405c40 <__kernel_sin>
  403e44:	e7ea      	b.n	403e1c <cos+0x1c>
  403e46:	2200      	movs	r2, #0
  403e48:	2300      	movs	r3, #0
  403e4a:	f001 f9d9 	bl	405200 <__kernel_cos>
  403e4e:	b007      	add	sp, #28
  403e50:	bd30      	pop	{r4, r5, pc}
  403e52:	e9dd 2304 	ldrd	r2, r3, [sp, #16]
  403e56:	e9dd 0102 	ldrd	r0, r1, [sp, #8]
  403e5a:	f001 f9d1 	bl	405200 <__kernel_cos>
  403e5e:	f101 4100 	add.w	r1, r1, #2147483648	; 0x80000000
  403e62:	e7db      	b.n	403e1c <cos+0x1c>
  403e64:	e9dd 4504 	ldrd	r4, r5, [sp, #16]
  403e68:	9300      	str	r3, [sp, #0]
  403e6a:	e9dd 0102 	ldrd	r0, r1, [sp, #8]
  403e6e:	4622      	mov	r2, r4
  403e70:	462b      	mov	r3, r5
  403e72:	f001 fee5 	bl	405c40 <__kernel_sin>
  403e76:	f101 4100 	add.w	r1, r1, #2147483648	; 0x80000000
  403e7a:	e7cf      	b.n	403e1c <cos+0x1c>
  403e7c:	e9dd 2304 	ldrd	r2, r3, [sp, #16]
  403e80:	e9dd 0102 	ldrd	r0, r1, [sp, #8]
  403e84:	f001 f9bc 	bl	405200 <__kernel_cos>
  403e88:	e7c8      	b.n	403e1c <cos+0x1c>
  403e8a:	bf00      	nop
  403e8c:	3fe921fb 	.word	0x3fe921fb
  403e90:	7fefffff 	.word	0x7fefffff

00403e94 <sin>:
  403e94:	b530      	push	{r4, r5, lr}
  403e96:	4a1f      	ldr	r2, [pc, #124]	; (403f14 <sin+0x80>)
  403e98:	f021 4300 	bic.w	r3, r1, #2147483648	; 0x80000000
  403e9c:	4293      	cmp	r3, r2
  403e9e:	b087      	sub	sp, #28
  403ea0:	dd1b      	ble.n	403eda <sin+0x46>
  403ea2:	4a1d      	ldr	r2, [pc, #116]	; (403f18 <sin+0x84>)
  403ea4:	4293      	cmp	r3, r2
  403ea6:	dd05      	ble.n	403eb4 <sin+0x20>
  403ea8:	4602      	mov	r2, r0
  403eaa:	460b      	mov	r3, r1
  403eac:	f002 fc06 	bl	4066bc <__aeabi_dsub>
  403eb0:	b007      	add	sp, #28
  403eb2:	bd30      	pop	{r4, r5, pc}
  403eb4:	aa02      	add	r2, sp, #8
  403eb6:	f000 febf 	bl	404c38 <__ieee754_rem_pio2>
  403eba:	f000 0003 	and.w	r0, r0, #3
  403ebe:	2801      	cmp	r0, #1
  403ec0:	e9dd 2304 	ldrd	r2, r3, [sp, #16]
  403ec4:	d01a      	beq.n	403efc <sin+0x68>
  403ec6:	2802      	cmp	r0, #2
  403ec8:	d00f      	beq.n	403eea <sin+0x56>
  403eca:	b1e0      	cbz	r0, 403f06 <sin+0x72>
  403ecc:	e9dd 0102 	ldrd	r0, r1, [sp, #8]
  403ed0:	f001 f996 	bl	405200 <__kernel_cos>
  403ed4:	f101 4100 	add.w	r1, r1, #2147483648	; 0x80000000
  403ed8:	e7ea      	b.n	403eb0 <sin+0x1c>
  403eda:	2300      	movs	r3, #0
  403edc:	9300      	str	r3, [sp, #0]
  403ede:	2200      	movs	r2, #0
  403ee0:	2300      	movs	r3, #0
  403ee2:	f001 fead 	bl	405c40 <__kernel_sin>
  403ee6:	b007      	add	sp, #28
  403ee8:	bd30      	pop	{r4, r5, pc}
  403eea:	2401      	movs	r4, #1
  403eec:	e9dd 0102 	ldrd	r0, r1, [sp, #8]
  403ef0:	9400      	str	r4, [sp, #0]
  403ef2:	f001 fea5 	bl	405c40 <__kernel_sin>
  403ef6:	f101 4100 	add.w	r1, r1, #2147483648	; 0x80000000
  403efa:	e7d9      	b.n	403eb0 <sin+0x1c>
  403efc:	e9dd 0102 	ldrd	r0, r1, [sp, #8]
  403f00:	f001 f97e 	bl	405200 <__kernel_cos>
  403f04:	e7d4      	b.n	403eb0 <sin+0x1c>
  403f06:	2401      	movs	r4, #1
  403f08:	e9dd 0102 	ldrd	r0, r1, [sp, #8]
  403f0c:	9400      	str	r4, [sp, #0]
  403f0e:	f001 fe97 	bl	405c40 <__kernel_sin>
  403f12:	e7cd      	b.n	403eb0 <sin+0x1c>
  403f14:	3fe921fb 	.word	0x3fe921fb
  403f18:	7fefffff 	.word	0x7fefffff

00403f1c <tan>:
  403f1c:	b530      	push	{r4, r5, lr}
  403f1e:	4a14      	ldr	r2, [pc, #80]	; (403f70 <tan+0x54>)
  403f20:	f021 4300 	bic.w	r3, r1, #2147483648	; 0x80000000
  403f24:	4293      	cmp	r3, r2
  403f26:	b087      	sub	sp, #28
  403f28:	dd19      	ble.n	403f5e <tan+0x42>
  403f2a:	4a12      	ldr	r2, [pc, #72]	; (403f74 <tan+0x58>)
  403f2c:	4293      	cmp	r3, r2
  403f2e:	dd05      	ble.n	403f3c <tan+0x20>
  403f30:	4602      	mov	r2, r0
  403f32:	460b      	mov	r3, r1
  403f34:	f002 fbc2 	bl	4066bc <__aeabi_dsub>
  403f38:	b007      	add	sp, #28
  403f3a:	bd30      	pop	{r4, r5, pc}
  403f3c:	aa02      	add	r2, sp, #8
  403f3e:	f000 fe7b 	bl	404c38 <__ieee754_rem_pio2>
  403f42:	0044      	lsls	r4, r0, #1
  403f44:	f004 0402 	and.w	r4, r4, #2
  403f48:	f1c4 0401 	rsb	r4, r4, #1
  403f4c:	e9dd 2304 	ldrd	r2, r3, [sp, #16]
  403f50:	e9dd 0102 	ldrd	r0, r1, [sp, #8]
  403f54:	9400      	str	r4, [sp, #0]
  403f56:	f001 ff2b 	bl	405db0 <__kernel_tan>
  403f5a:	b007      	add	sp, #28
  403f5c:	bd30      	pop	{r4, r5, pc}
  403f5e:	2301      	movs	r3, #1
  403f60:	9300      	str	r3, [sp, #0]
  403f62:	2200      	movs	r2, #0
  403f64:	2300      	movs	r3, #0
  403f66:	f001 ff23 	bl	405db0 <__kernel_tan>
  403f6a:	b007      	add	sp, #28
  403f6c:	bd30      	pop	{r4, r5, pc}
  403f6e:	bf00      	nop
  403f70:	3fe921fb 	.word	0x3fe921fb
  403f74:	7fefffff 	.word	0x7fefffff

00403f78 <acos>:
  403f78:	e92d 43f0 	stmdb	sp!, {r4, r5, r6, r7, r8, r9, lr}
  403f7c:	f8df 80a4 	ldr.w	r8, [pc, #164]	; 404024 <acos+0xac>
  403f80:	b08b      	sub	sp, #44	; 0x2c
  403f82:	4604      	mov	r4, r0
  403f84:	460d      	mov	r5, r1
  403f86:	f000 f907 	bl	404198 <__ieee754_acos>
  403f8a:	f998 3000 	ldrsb.w	r3, [r8]
  403f8e:	3301      	adds	r3, #1
  403f90:	4606      	mov	r6, r0
  403f92:	460f      	mov	r7, r1
  403f94:	d02e      	beq.n	403ff4 <acos+0x7c>
  403f96:	4622      	mov	r2, r4
  403f98:	462b      	mov	r3, r5
  403f9a:	4620      	mov	r0, r4
  403f9c:	4629      	mov	r1, r5
  403f9e:	f002 ffdb 	bl	406f58 <__aeabi_dcmpun>
  403fa2:	4681      	mov	r9, r0
  403fa4:	bb30      	cbnz	r0, 403ff4 <acos+0x7c>
  403fa6:	4620      	mov	r0, r4
  403fa8:	4629      	mov	r1, r5
  403faa:	f002 fa67 	bl	40647c <fabs>
  403fae:	2200      	movs	r2, #0
  403fb0:	4b19      	ldr	r3, [pc, #100]	; (404018 <acos+0xa0>)
  403fb2:	f002 ffc7 	bl	406f44 <__aeabi_dcmpgt>
  403fb6:	b1e8      	cbz	r0, 403ff4 <acos+0x7c>
  403fb8:	4b18      	ldr	r3, [pc, #96]	; (40401c <acos+0xa4>)
  403fba:	4819      	ldr	r0, [pc, #100]	; (404020 <acos+0xa8>)
  403fbc:	f8cd 9020 	str.w	r9, [sp, #32]
  403fc0:	2201      	movs	r2, #1
  403fc2:	e88d 000c 	stmia.w	sp, {r2, r3}
  403fc6:	e9cd 4504 	strd	r4, r5, [sp, #16]
  403fca:	e9cd 4502 	strd	r4, r5, [sp, #8]
  403fce:	f002 fae5 	bl	40659c <nan>
  403fd2:	f998 3000 	ldrsb.w	r3, [r8]
  403fd6:	2b02      	cmp	r3, #2
  403fd8:	e9cd 0106 	strd	r0, r1, [sp, #24]
  403fdc:	d00f      	beq.n	403ffe <acos+0x86>
  403fde:	4668      	mov	r0, sp
  403fe0:	f002 fada 	bl	406598 <matherr>
  403fe4:	b158      	cbz	r0, 403ffe <acos+0x86>
  403fe6:	9b08      	ldr	r3, [sp, #32]
  403fe8:	b983      	cbnz	r3, 40400c <acos+0x94>
  403fea:	e9dd 0106 	ldrd	r0, r1, [sp, #24]
  403fee:	b00b      	add	sp, #44	; 0x2c
  403ff0:	e8bd 83f0 	ldmia.w	sp!, {r4, r5, r6, r7, r8, r9, pc}
  403ff4:	4630      	mov	r0, r6
  403ff6:	4639      	mov	r1, r7
  403ff8:	b00b      	add	sp, #44	; 0x2c
  403ffa:	e8bd 83f0 	ldmia.w	sp!, {r4, r5, r6, r7, r8, r9, pc}
  403ffe:	f003 fb33 	bl	407668 <__errno>
  404002:	2321      	movs	r3, #33	; 0x21
  404004:	6003      	str	r3, [r0, #0]
  404006:	9b08      	ldr	r3, [sp, #32]
  404008:	2b00      	cmp	r3, #0
  40400a:	d0ee      	beq.n	403fea <acos+0x72>
  40400c:	f003 fb2c 	bl	407668 <__errno>
  404010:	9b08      	ldr	r3, [sp, #32]
  404012:	6003      	str	r3, [r0, #0]
  404014:	e7e9      	b.n	403fea <acos+0x72>
  404016:	bf00      	nop
  404018:	3ff00000 	.word	0x3ff00000
  40401c:	00407ad4 	.word	0x00407ad4
  404020:	00407ae0 	.word	0x00407ae0
  404024:	20000035 	.word	0x20000035

00404028 <asin>:
  404028:	e92d 43f0 	stmdb	sp!, {r4, r5, r6, r7, r8, r9, lr}
  40402c:	f8df 80a4 	ldr.w	r8, [pc, #164]	; 4040d4 <asin+0xac>
  404030:	b08b      	sub	sp, #44	; 0x2c
  404032:	4604      	mov	r4, r0
  404034:	460d      	mov	r5, r1
  404036:	f000 fb03 	bl	404640 <__ieee754_asin>
  40403a:	f998 3000 	ldrsb.w	r3, [r8]
  40403e:	3301      	adds	r3, #1
  404040:	4606      	mov	r6, r0
  404042:	460f      	mov	r7, r1
  404044:	d02e      	beq.n	4040a4 <asin+0x7c>
  404046:	4622      	mov	r2, r4
  404048:	462b      	mov	r3, r5
  40404a:	4620      	mov	r0, r4
  40404c:	4629      	mov	r1, r5
  40404e:	f002 ff83 	bl	406f58 <__aeabi_dcmpun>
  404052:	4681      	mov	r9, r0
  404054:	bb30      	cbnz	r0, 4040a4 <asin+0x7c>
  404056:	4620      	mov	r0, r4
  404058:	4629      	mov	r1, r5
  40405a:	f002 fa0f 	bl	40647c <fabs>
  40405e:	2200      	movs	r2, #0
  404060:	4b19      	ldr	r3, [pc, #100]	; (4040c8 <asin+0xa0>)
  404062:	f002 ff6f 	bl	406f44 <__aeabi_dcmpgt>
  404066:	b1e8      	cbz	r0, 4040a4 <asin+0x7c>
  404068:	4b18      	ldr	r3, [pc, #96]	; (4040cc <asin+0xa4>)
  40406a:	4819      	ldr	r0, [pc, #100]	; (4040d0 <asin+0xa8>)
  40406c:	f8cd 9020 	str.w	r9, [sp, #32]
  404070:	2201      	movs	r2, #1
  404072:	e88d 000c 	stmia.w	sp, {r2, r3}
  404076:	e9cd 4504 	strd	r4, r5, [sp, #16]
  40407a:	e9cd 4502 	strd	r4, r5, [sp, #8]
  40407e:	f002 fa8d 	bl	40659c <nan>
  404082:	f998 3000 	ldrsb.w	r3, [r8]
  404086:	2b02      	cmp	r3, #2
  404088:	e9cd 0106 	strd	r0, r1, [sp, #24]
  40408c:	d00f      	beq.n	4040ae <asin+0x86>
  40408e:	4668      	mov	r0, sp
  404090:	f002 fa82 	bl	406598 <matherr>
  404094:	b158      	cbz	r0, 4040ae <asin+0x86>
  404096:	9b08      	ldr	r3, [sp, #32]
  404098:	b983      	cbnz	r3, 4040bc <asin+0x94>
  40409a:	e9dd 0106 	ldrd	r0, r1, [sp, #24]
  40409e:	b00b      	add	sp, #44	; 0x2c
  4040a0:	e8bd 83f0 	ldmia.w	sp!, {r4, r5, r6, r7, r8, r9, pc}
  4040a4:	4630      	mov	r0, r6
  4040a6:	4639      	mov	r1, r7
  4040a8:	b00b      	add	sp, #44	; 0x2c
  4040aa:	e8bd 83f0 	ldmia.w	sp!, {r4, r5, r6, r7, r8, r9, pc}
  4040ae:	f003 fadb 	bl	407668 <__errno>
  4040b2:	2321      	movs	r3, #33	; 0x21
  4040b4:	6003      	str	r3, [r0, #0]
  4040b6:	9b08      	ldr	r3, [sp, #32]
  4040b8:	2b00      	cmp	r3, #0
  4040ba:	d0ee      	beq.n	40409a <asin+0x72>
  4040bc:	f003 fad4 	bl	407668 <__errno>
  4040c0:	9b08      	ldr	r3, [sp, #32]
  4040c2:	6003      	str	r3, [r0, #0]
  4040c4:	e7e9      	b.n	40409a <asin+0x72>
  4040c6:	bf00      	nop
  4040c8:	3ff00000 	.word	0x3ff00000
  4040cc:	00407adc 	.word	0x00407adc
  4040d0:	00407ae0 	.word	0x00407ae0
  4040d4:	20000035 	.word	0x20000035

004040d8 <atan2>:
  4040d8:	f000 bce2 	b.w	404aa0 <__ieee754_atan2>

004040dc <sqrt>:
  4040dc:	e92d 4ff0 	stmdb	sp!, {r4, r5, r6, r7, r8, r9, sl, fp, lr}
  4040e0:	b08b      	sub	sp, #44	; 0x2c
  4040e2:	4604      	mov	r4, r0
  4040e4:	460d      	mov	r5, r1
  4040e6:	f000 ffc9 	bl	40507c <__ieee754_sqrt>
  4040ea:	4b28      	ldr	r3, [pc, #160]	; (40418c <sqrt+0xb0>)
  4040ec:	f993 a000 	ldrsb.w	sl, [r3]
  4040f0:	f1ba 3fff 	cmp.w	sl, #4294967295
  4040f4:	4606      	mov	r6, r0
  4040f6:	460f      	mov	r7, r1
  4040f8:	d012      	beq.n	404120 <sqrt+0x44>
  4040fa:	4622      	mov	r2, r4
  4040fc:	462b      	mov	r3, r5
  4040fe:	4620      	mov	r0, r4
  404100:	4629      	mov	r1, r5
  404102:	f002 ff29 	bl	406f58 <__aeabi_dcmpun>
  404106:	4683      	mov	fp, r0
  404108:	b950      	cbnz	r0, 404120 <sqrt+0x44>
  40410a:	f04f 0800 	mov.w	r8, #0
  40410e:	f04f 0900 	mov.w	r9, #0
  404112:	4642      	mov	r2, r8
  404114:	464b      	mov	r3, r9
  404116:	4620      	mov	r0, r4
  404118:	4629      	mov	r1, r5
  40411a:	f002 fef5 	bl	406f08 <__aeabi_dcmplt>
  40411e:	b920      	cbnz	r0, 40412a <sqrt+0x4e>
  404120:	4630      	mov	r0, r6
  404122:	4639      	mov	r1, r7
  404124:	b00b      	add	sp, #44	; 0x2c
  404126:	e8bd 8ff0 	ldmia.w	sp!, {r4, r5, r6, r7, r8, r9, sl, fp, pc}
  40412a:	4b19      	ldr	r3, [pc, #100]	; (404190 <sqrt+0xb4>)
  40412c:	f8cd b020 	str.w	fp, [sp, #32]
  404130:	2201      	movs	r2, #1
  404132:	e9cd 4504 	strd	r4, r5, [sp, #16]
  404136:	e9cd 4502 	strd	r4, r5, [sp, #8]
  40413a:	e88d 000c 	stmia.w	sp, {r2, r3}
  40413e:	f1ba 0f00 	cmp.w	sl, #0
  404142:	d015      	beq.n	404170 <sqrt+0x94>
  404144:	4642      	mov	r2, r8
  404146:	464b      	mov	r3, r9
  404148:	4640      	mov	r0, r8
  40414a:	4649      	mov	r1, r9
  40414c:	f002 fd94 	bl	406c78 <__aeabi_ddiv>
  404150:	f1ba 0f02 	cmp.w	sl, #2
  404154:	e9cd 0106 	strd	r0, r1, [sp, #24]
  404158:	d10c      	bne.n	404174 <sqrt+0x98>
  40415a:	f003 fa85 	bl	407668 <__errno>
  40415e:	2321      	movs	r3, #33	; 0x21
  404160:	6003      	str	r3, [r0, #0]
  404162:	9b08      	ldr	r3, [sp, #32]
  404164:	b963      	cbnz	r3, 404180 <sqrt+0xa4>
  404166:	e9dd 0106 	ldrd	r0, r1, [sp, #24]
  40416a:	b00b      	add	sp, #44	; 0x2c
  40416c:	e8bd 8ff0 	ldmia.w	sp!, {r4, r5, r6, r7, r8, r9, sl, fp, pc}
  404170:	e9cd 8906 	strd	r8, r9, [sp, #24]
  404174:	4668      	mov	r0, sp
  404176:	f002 fa0f 	bl	406598 <matherr>
  40417a:	2800      	cmp	r0, #0
  40417c:	d1f1      	bne.n	404162 <sqrt+0x86>
  40417e:	e7ec      	b.n	40415a <sqrt+0x7e>
  404180:	f003 fa72 	bl	407668 <__errno>
  404184:	9b08      	ldr	r3, [sp, #32]
  404186:	6003      	str	r3, [r0, #0]
  404188:	e7ed      	b.n	404166 <sqrt+0x8a>
  40418a:	bf00      	nop
  40418c:	20000035 	.word	0x20000035
  404190:	00407ae4 	.word	0x00407ae4
  404194:	00000000 	.word	0x00000000

00404198 <__ieee754_acos>:
  404198:	e92d 4ff8 	stmdb	sp!, {r3, r4, r5, r6, r7, r8, r9, sl, fp, lr}
  40419c:	4ec4      	ldr	r6, [pc, #784]	; (4044b0 <__ieee754_acos+0x318>)
  40419e:	f021 4300 	bic.w	r3, r1, #2147483648	; 0x80000000
  4041a2:	42b3      	cmp	r3, r6
  4041a4:	460c      	mov	r4, r1
  4041a6:	4605      	mov	r5, r0
  4041a8:	dd0d      	ble.n	4041c6 <__ieee754_acos+0x2e>
  4041aa:	f103 4340 	add.w	r3, r3, #3221225472	; 0xc0000000
  4041ae:	f503 1380 	add.w	r3, r3, #1048576	; 0x100000
  4041b2:	4303      	orrs	r3, r0
  4041b4:	f040 80b9 	bne.w	40432a <__ieee754_acos+0x192>
  4041b8:	2900      	cmp	r1, #0
  4041ba:	f340 8140 	ble.w	40443e <__ieee754_acos+0x2a6>
  4041be:	2000      	movs	r0, #0
  4041c0:	2100      	movs	r1, #0
  4041c2:	e8bd 8ff8 	ldmia.w	sp!, {r3, r4, r5, r6, r7, r8, r9, sl, fp, pc}
  4041c6:	4ebb      	ldr	r6, [pc, #748]	; (4044b4 <__ieee754_acos+0x31c>)
  4041c8:	42b3      	cmp	r3, r6
  4041ca:	f340 80a6 	ble.w	40431a <__ieee754_acos+0x182>
  4041ce:	2900      	cmp	r1, #0
  4041d0:	f2c0 8178 	blt.w	4044c4 <__ieee754_acos+0x32c>
  4041d4:	4602      	mov	r2, r0
  4041d6:	460b      	mov	r3, r1
  4041d8:	2000      	movs	r0, #0
  4041da:	49b7      	ldr	r1, [pc, #732]	; (4044b8 <__ieee754_acos+0x320>)
  4041dc:	f002 fa6e 	bl	4066bc <__aeabi_dsub>
  4041e0:	2200      	movs	r2, #0
  4041e2:	4bb6      	ldr	r3, [pc, #728]	; (4044bc <__ieee754_acos+0x324>)
  4041e4:	f002 fc1e 	bl	406a24 <__aeabi_dmul>
  4041e8:	4604      	mov	r4, r0
  4041ea:	460d      	mov	r5, r1
  4041ec:	f000 ff46 	bl	40507c <__ieee754_sqrt>
  4041f0:	a395      	add	r3, pc, #596	; (adr r3, 404448 <__ieee754_acos+0x2b0>)
  4041f2:	e9d3 2300 	ldrd	r2, r3, [r3]
  4041f6:	4689      	mov	r9, r1
  4041f8:	4680      	mov	r8, r0
  4041fa:	4629      	mov	r1, r5
  4041fc:	4620      	mov	r0, r4
  4041fe:	f002 fc11 	bl	406a24 <__aeabi_dmul>
  404202:	a393      	add	r3, pc, #588	; (adr r3, 404450 <__ieee754_acos+0x2b8>)
  404204:	e9d3 2300 	ldrd	r2, r3, [r3]
  404208:	f002 fa5a 	bl	4066c0 <__adddf3>
  40420c:	4622      	mov	r2, r4
  40420e:	462b      	mov	r3, r5
  404210:	f002 fc08 	bl	406a24 <__aeabi_dmul>
  404214:	a390      	add	r3, pc, #576	; (adr r3, 404458 <__ieee754_acos+0x2c0>)
  404216:	e9d3 2300 	ldrd	r2, r3, [r3]
  40421a:	f002 fa4f 	bl	4066bc <__aeabi_dsub>
  40421e:	4622      	mov	r2, r4
  404220:	462b      	mov	r3, r5
  404222:	f002 fbff 	bl	406a24 <__aeabi_dmul>
  404226:	a38e      	add	r3, pc, #568	; (adr r3, 404460 <__ieee754_acos+0x2c8>)
  404228:	e9d3 2300 	ldrd	r2, r3, [r3]
  40422c:	f002 fa48 	bl	4066c0 <__adddf3>
  404230:	4622      	mov	r2, r4
  404232:	462b      	mov	r3, r5
  404234:	f002 fbf6 	bl	406a24 <__aeabi_dmul>
  404238:	a38b      	add	r3, pc, #556	; (adr r3, 404468 <__ieee754_acos+0x2d0>)
  40423a:	e9d3 2300 	ldrd	r2, r3, [r3]
  40423e:	f002 fa3d 	bl	4066bc <__aeabi_dsub>
  404242:	4622      	mov	r2, r4
  404244:	462b      	mov	r3, r5
  404246:	f002 fbed 	bl	406a24 <__aeabi_dmul>
  40424a:	a389      	add	r3, pc, #548	; (adr r3, 404470 <__ieee754_acos+0x2d8>)
  40424c:	e9d3 2300 	ldrd	r2, r3, [r3]
  404250:	f002 fa36 	bl	4066c0 <__adddf3>
  404254:	4622      	mov	r2, r4
  404256:	462b      	mov	r3, r5
  404258:	f002 fbe4 	bl	406a24 <__aeabi_dmul>
  40425c:	a386      	add	r3, pc, #536	; (adr r3, 404478 <__ieee754_acos+0x2e0>)
  40425e:	e9d3 2300 	ldrd	r2, r3, [r3]
  404262:	4682      	mov	sl, r0
  404264:	468b      	mov	fp, r1
  404266:	4620      	mov	r0, r4
  404268:	4629      	mov	r1, r5
  40426a:	f002 fbdb 	bl	406a24 <__aeabi_dmul>
  40426e:	a384      	add	r3, pc, #528	; (adr r3, 404480 <__ieee754_acos+0x2e8>)
  404270:	e9d3 2300 	ldrd	r2, r3, [r3]
  404274:	f002 fa22 	bl	4066bc <__aeabi_dsub>
  404278:	4622      	mov	r2, r4
  40427a:	462b      	mov	r3, r5
  40427c:	f002 fbd2 	bl	406a24 <__aeabi_dmul>
  404280:	a381      	add	r3, pc, #516	; (adr r3, 404488 <__ieee754_acos+0x2f0>)
  404282:	e9d3 2300 	ldrd	r2, r3, [r3]
  404286:	f002 fa1b 	bl	4066c0 <__adddf3>
  40428a:	4622      	mov	r2, r4
  40428c:	462b      	mov	r3, r5
  40428e:	f002 fbc9 	bl	406a24 <__aeabi_dmul>
  404292:	a37f      	add	r3, pc, #508	; (adr r3, 404490 <__ieee754_acos+0x2f8>)
  404294:	e9d3 2300 	ldrd	r2, r3, [r3]
  404298:	f002 fa10 	bl	4066bc <__aeabi_dsub>
  40429c:	4622      	mov	r2, r4
  40429e:	462b      	mov	r3, r5
  4042a0:	f002 fbc0 	bl	406a24 <__aeabi_dmul>
  4042a4:	2200      	movs	r2, #0
  4042a6:	4b84      	ldr	r3, [pc, #528]	; (4044b8 <__ieee754_acos+0x320>)
  4042a8:	f002 fa0a 	bl	4066c0 <__adddf3>
  4042ac:	4602      	mov	r2, r0
  4042ae:	460b      	mov	r3, r1
  4042b0:	4650      	mov	r0, sl
  4042b2:	4659      	mov	r1, fp
  4042b4:	f002 fce0 	bl	406c78 <__aeabi_ddiv>
  4042b8:	4642      	mov	r2, r8
  4042ba:	464b      	mov	r3, r9
  4042bc:	f002 fbb2 	bl	406a24 <__aeabi_dmul>
  4042c0:	2600      	movs	r6, #0
  4042c2:	4682      	mov	sl, r0
  4042c4:	468b      	mov	fp, r1
  4042c6:	4632      	mov	r2, r6
  4042c8:	464b      	mov	r3, r9
  4042ca:	4630      	mov	r0, r6
  4042cc:	4649      	mov	r1, r9
  4042ce:	f002 fba9 	bl	406a24 <__aeabi_dmul>
  4042d2:	4602      	mov	r2, r0
  4042d4:	460b      	mov	r3, r1
  4042d6:	4620      	mov	r0, r4
  4042d8:	4629      	mov	r1, r5
  4042da:	f002 f9ef 	bl	4066bc <__aeabi_dsub>
  4042de:	4632      	mov	r2, r6
  4042e0:	4604      	mov	r4, r0
  4042e2:	460d      	mov	r5, r1
  4042e4:	464b      	mov	r3, r9
  4042e6:	4640      	mov	r0, r8
  4042e8:	4649      	mov	r1, r9
  4042ea:	f002 f9e9 	bl	4066c0 <__adddf3>
  4042ee:	4602      	mov	r2, r0
  4042f0:	460b      	mov	r3, r1
  4042f2:	4620      	mov	r0, r4
  4042f4:	4629      	mov	r1, r5
  4042f6:	f002 fcbf 	bl	406c78 <__aeabi_ddiv>
  4042fa:	4602      	mov	r2, r0
  4042fc:	460b      	mov	r3, r1
  4042fe:	4650      	mov	r0, sl
  404300:	4659      	mov	r1, fp
  404302:	f002 f9dd 	bl	4066c0 <__adddf3>
  404306:	4632      	mov	r2, r6
  404308:	464b      	mov	r3, r9
  40430a:	f002 f9d9 	bl	4066c0 <__adddf3>
  40430e:	4602      	mov	r2, r0
  404310:	460b      	mov	r3, r1
  404312:	f002 f9d5 	bl	4066c0 <__adddf3>
  404316:	e8bd 8ff8 	ldmia.w	sp!, {r3, r4, r5, r6, r7, r8, r9, sl, fp, pc}
  40431a:	4a69      	ldr	r2, [pc, #420]	; (4044c0 <__ieee754_acos+0x328>)
  40431c:	4293      	cmp	r3, r2
  40431e:	dc0e      	bgt.n	40433e <__ieee754_acos+0x1a6>
  404320:	a15d      	add	r1, pc, #372	; (adr r1, 404498 <__ieee754_acos+0x300>)
  404322:	e9d1 0100 	ldrd	r0, r1, [r1]
  404326:	e8bd 8ff8 	ldmia.w	sp!, {r3, r4, r5, r6, r7, r8, r9, sl, fp, pc}
  40432a:	4602      	mov	r2, r0
  40432c:	460b      	mov	r3, r1
  40432e:	f002 f9c5 	bl	4066bc <__aeabi_dsub>
  404332:	4602      	mov	r2, r0
  404334:	460b      	mov	r3, r1
  404336:	f002 fc9f 	bl	406c78 <__aeabi_ddiv>
  40433a:	e8bd 8ff8 	ldmia.w	sp!, {r3, r4, r5, r6, r7, r8, r9, sl, fp, pc}
  40433e:	4602      	mov	r2, r0
  404340:	460b      	mov	r3, r1
  404342:	f002 fb6f 	bl	406a24 <__aeabi_dmul>
  404346:	a340      	add	r3, pc, #256	; (adr r3, 404448 <__ieee754_acos+0x2b0>)
  404348:	e9d3 2300 	ldrd	r2, r3, [r3]
  40434c:	4606      	mov	r6, r0
  40434e:	460f      	mov	r7, r1
  404350:	f002 fb68 	bl	406a24 <__aeabi_dmul>
  404354:	a33e      	add	r3, pc, #248	; (adr r3, 404450 <__ieee754_acos+0x2b8>)
  404356:	e9d3 2300 	ldrd	r2, r3, [r3]
  40435a:	f002 f9b1 	bl	4066c0 <__adddf3>
  40435e:	4632      	mov	r2, r6
  404360:	463b      	mov	r3, r7
  404362:	f002 fb5f 	bl	406a24 <__aeabi_dmul>
  404366:	a33c      	add	r3, pc, #240	; (adr r3, 404458 <__ieee754_acos+0x2c0>)
  404368:	e9d3 2300 	ldrd	r2, r3, [r3]
  40436c:	f002 f9a6 	bl	4066bc <__aeabi_dsub>
  404370:	4632      	mov	r2, r6
  404372:	463b      	mov	r3, r7
  404374:	f002 fb56 	bl	406a24 <__aeabi_dmul>
  404378:	a339      	add	r3, pc, #228	; (adr r3, 404460 <__ieee754_acos+0x2c8>)
  40437a:	e9d3 2300 	ldrd	r2, r3, [r3]
  40437e:	f002 f99f 	bl	4066c0 <__adddf3>
  404382:	4632      	mov	r2, r6
  404384:	463b      	mov	r3, r7
  404386:	f002 fb4d 	bl	406a24 <__aeabi_dmul>
  40438a:	a337      	add	r3, pc, #220	; (adr r3, 404468 <__ieee754_acos+0x2d0>)
  40438c:	e9d3 2300 	ldrd	r2, r3, [r3]
  404390:	f002 f994 	bl	4066bc <__aeabi_dsub>
  404394:	4632      	mov	r2, r6
  404396:	463b      	mov	r3, r7
  404398:	f002 fb44 	bl	406a24 <__aeabi_dmul>
  40439c:	a334      	add	r3, pc, #208	; (adr r3, 404470 <__ieee754_acos+0x2d8>)
  40439e:	e9d3 2300 	ldrd	r2, r3, [r3]
  4043a2:	f002 f98d 	bl	4066c0 <__adddf3>
  4043a6:	4632      	mov	r2, r6
  4043a8:	463b      	mov	r3, r7
  4043aa:	f002 fb3b 	bl	406a24 <__aeabi_dmul>
  4043ae:	a332      	add	r3, pc, #200	; (adr r3, 404478 <__ieee754_acos+0x2e0>)
  4043b0:	e9d3 2300 	ldrd	r2, r3, [r3]
  4043b4:	4680      	mov	r8, r0
  4043b6:	4689      	mov	r9, r1
  4043b8:	4630      	mov	r0, r6
  4043ba:	4639      	mov	r1, r7
  4043bc:	f002 fb32 	bl	406a24 <__aeabi_dmul>
  4043c0:	a32f      	add	r3, pc, #188	; (adr r3, 404480 <__ieee754_acos+0x2e8>)
  4043c2:	e9d3 2300 	ldrd	r2, r3, [r3]
  4043c6:	f002 f979 	bl	4066bc <__aeabi_dsub>
  4043ca:	4632      	mov	r2, r6
  4043cc:	463b      	mov	r3, r7
  4043ce:	f002 fb29 	bl	406a24 <__aeabi_dmul>
  4043d2:	a32d      	add	r3, pc, #180	; (adr r3, 404488 <__ieee754_acos+0x2f0>)
  4043d4:	e9d3 2300 	ldrd	r2, r3, [r3]
  4043d8:	f002 f972 	bl	4066c0 <__adddf3>
  4043dc:	4632      	mov	r2, r6
  4043de:	463b      	mov	r3, r7
  4043e0:	f002 fb20 	bl	406a24 <__aeabi_dmul>
  4043e4:	a32a      	add	r3, pc, #168	; (adr r3, 404490 <__ieee754_acos+0x2f8>)
  4043e6:	e9d3 2300 	ldrd	r2, r3, [r3]
  4043ea:	f002 f967 	bl	4066bc <__aeabi_dsub>
  4043ee:	4632      	mov	r2, r6
  4043f0:	463b      	mov	r3, r7
  4043f2:	f002 fb17 	bl	406a24 <__aeabi_dmul>
  4043f6:	2200      	movs	r2, #0
  4043f8:	4b2f      	ldr	r3, [pc, #188]	; (4044b8 <__ieee754_acos+0x320>)
  4043fa:	f002 f961 	bl	4066c0 <__adddf3>
  4043fe:	4602      	mov	r2, r0
  404400:	460b      	mov	r3, r1
  404402:	4640      	mov	r0, r8
  404404:	4649      	mov	r1, r9
  404406:	f002 fc37 	bl	406c78 <__aeabi_ddiv>
  40440a:	462a      	mov	r2, r5
  40440c:	4623      	mov	r3, r4
  40440e:	f002 fb09 	bl	406a24 <__aeabi_dmul>
  404412:	4602      	mov	r2, r0
  404414:	460b      	mov	r3, r1
  404416:	a122      	add	r1, pc, #136	; (adr r1, 4044a0 <__ieee754_acos+0x308>)
  404418:	e9d1 0100 	ldrd	r0, r1, [r1]
  40441c:	f002 f94e 	bl	4066bc <__aeabi_dsub>
  404420:	4602      	mov	r2, r0
  404422:	460b      	mov	r3, r1
  404424:	4628      	mov	r0, r5
  404426:	4621      	mov	r1, r4
  404428:	f002 f948 	bl	4066bc <__aeabi_dsub>
  40442c:	4602      	mov	r2, r0
  40442e:	460b      	mov	r3, r1
  404430:	a119      	add	r1, pc, #100	; (adr r1, 404498 <__ieee754_acos+0x300>)
  404432:	e9d1 0100 	ldrd	r0, r1, [r1]
  404436:	f002 f941 	bl	4066bc <__aeabi_dsub>
  40443a:	e8bd 8ff8 	ldmia.w	sp!, {r3, r4, r5, r6, r7, r8, r9, sl, fp, pc}
  40443e:	a11a      	add	r1, pc, #104	; (adr r1, 4044a8 <__ieee754_acos+0x310>)
  404440:	e9d1 0100 	ldrd	r0, r1, [r1]
  404444:	e8bd 8ff8 	ldmia.w	sp!, {r3, r4, r5, r6, r7, r8, r9, sl, fp, pc}
  404448:	0dfdf709 	.word	0x0dfdf709
  40444c:	3f023de1 	.word	0x3f023de1
  404450:	7501b288 	.word	0x7501b288
  404454:	3f49efe0 	.word	0x3f49efe0
  404458:	b5688f3b 	.word	0xb5688f3b
  40445c:	3fa48228 	.word	0x3fa48228
  404460:	0e884455 	.word	0x0e884455
  404464:	3fc9c155 	.word	0x3fc9c155
  404468:	03eb6f7d 	.word	0x03eb6f7d
  40446c:	3fd4d612 	.word	0x3fd4d612
  404470:	55555555 	.word	0x55555555
  404474:	3fc55555 	.word	0x3fc55555
  404478:	b12e9282 	.word	0xb12e9282
  40447c:	3fb3b8c5 	.word	0x3fb3b8c5
  404480:	1b8d0159 	.word	0x1b8d0159
  404484:	3fe6066c 	.word	0x3fe6066c
  404488:	9c598ac8 	.word	0x9c598ac8
  40448c:	40002ae5 	.word	0x40002ae5
  404490:	1c8a2d4b 	.word	0x1c8a2d4b
  404494:	40033a27 	.word	0x40033a27
  404498:	54442d18 	.word	0x54442d18
  40449c:	3ff921fb 	.word	0x3ff921fb
  4044a0:	33145c07 	.word	0x33145c07
  4044a4:	3c91a626 	.word	0x3c91a626
  4044a8:	54442d18 	.word	0x54442d18
  4044ac:	400921fb 	.word	0x400921fb
  4044b0:	3fefffff 	.word	0x3fefffff
  4044b4:	3fdfffff 	.word	0x3fdfffff
  4044b8:	3ff00000 	.word	0x3ff00000
  4044bc:	3fe00000 	.word	0x3fe00000
  4044c0:	3c600000 	.word	0x3c600000
  4044c4:	2200      	movs	r2, #0
  4044c6:	4b5c      	ldr	r3, [pc, #368]	; (404638 <__ieee754_acos+0x4a0>)
  4044c8:	f002 f8fa 	bl	4066c0 <__adddf3>
  4044cc:	2200      	movs	r2, #0
  4044ce:	4b5b      	ldr	r3, [pc, #364]	; (40463c <__ieee754_acos+0x4a4>)
  4044d0:	f002 faa8 	bl	406a24 <__aeabi_dmul>
  4044d4:	a340      	add	r3, pc, #256	; (adr r3, 4045d8 <__ieee754_acos+0x440>)
  4044d6:	e9d3 2300 	ldrd	r2, r3, [r3]
  4044da:	4604      	mov	r4, r0
  4044dc:	460d      	mov	r5, r1
  4044de:	f002 faa1 	bl	406a24 <__aeabi_dmul>
  4044e2:	a33f      	add	r3, pc, #252	; (adr r3, 4045e0 <__ieee754_acos+0x448>)
  4044e4:	e9d3 2300 	ldrd	r2, r3, [r3]
  4044e8:	f002 f8ea 	bl	4066c0 <__adddf3>
  4044ec:	4622      	mov	r2, r4
  4044ee:	462b      	mov	r3, r5
  4044f0:	f002 fa98 	bl	406a24 <__aeabi_dmul>
  4044f4:	a33c      	add	r3, pc, #240	; (adr r3, 4045e8 <__ieee754_acos+0x450>)
  4044f6:	e9d3 2300 	ldrd	r2, r3, [r3]
  4044fa:	f002 f8df 	bl	4066bc <__aeabi_dsub>
  4044fe:	4622      	mov	r2, r4
  404500:	462b      	mov	r3, r5
  404502:	f002 fa8f 	bl	406a24 <__aeabi_dmul>
  404506:	a33a      	add	r3, pc, #232	; (adr r3, 4045f0 <__ieee754_acos+0x458>)
  404508:	e9d3 2300 	ldrd	r2, r3, [r3]
  40450c:	f002 f8d8 	bl	4066c0 <__adddf3>
  404510:	4622      	mov	r2, r4
  404512:	462b      	mov	r3, r5
  404514:	f002 fa86 	bl	406a24 <__aeabi_dmul>
  404518:	a337      	add	r3, pc, #220	; (adr r3, 4045f8 <__ieee754_acos+0x460>)
  40451a:	e9d3 2300 	ldrd	r2, r3, [r3]
  40451e:	f002 f8cd 	bl	4066bc <__aeabi_dsub>
  404522:	4622      	mov	r2, r4
  404524:	462b      	mov	r3, r5
  404526:	f002 fa7d 	bl	406a24 <__aeabi_dmul>
  40452a:	a335      	add	r3, pc, #212	; (adr r3, 404600 <__ieee754_acos+0x468>)
  40452c:	e9d3 2300 	ldrd	r2, r3, [r3]
  404530:	f002 f8c6 	bl	4066c0 <__adddf3>
  404534:	4622      	mov	r2, r4
  404536:	462b      	mov	r3, r5
  404538:	f002 fa74 	bl	406a24 <__aeabi_dmul>
  40453c:	4680      	mov	r8, r0
  40453e:	4689      	mov	r9, r1
  404540:	4620      	mov	r0, r4
  404542:	4629      	mov	r1, r5
  404544:	f000 fd9a 	bl	40507c <__ieee754_sqrt>
  404548:	a32f      	add	r3, pc, #188	; (adr r3, 404608 <__ieee754_acos+0x470>)
  40454a:	e9d3 2300 	ldrd	r2, r3, [r3]
  40454e:	4606      	mov	r6, r0
  404550:	460f      	mov	r7, r1
  404552:	4620      	mov	r0, r4
  404554:	4629      	mov	r1, r5
  404556:	f002 fa65 	bl	406a24 <__aeabi_dmul>
  40455a:	a32d      	add	r3, pc, #180	; (adr r3, 404610 <__ieee754_acos+0x478>)
  40455c:	e9d3 2300 	ldrd	r2, r3, [r3]
  404560:	f002 f8ac 	bl	4066bc <__aeabi_dsub>
  404564:	4622      	mov	r2, r4
  404566:	462b      	mov	r3, r5
  404568:	f002 fa5c 	bl	406a24 <__aeabi_dmul>
  40456c:	a32a      	add	r3, pc, #168	; (adr r3, 404618 <__ieee754_acos+0x480>)
  40456e:	e9d3 2300 	ldrd	r2, r3, [r3]
  404572:	f002 f8a5 	bl	4066c0 <__adddf3>
  404576:	4622      	mov	r2, r4
  404578:	462b      	mov	r3, r5
  40457a:	f002 fa53 	bl	406a24 <__aeabi_dmul>
  40457e:	a328      	add	r3, pc, #160	; (adr r3, 404620 <__ieee754_acos+0x488>)
  404580:	e9d3 2300 	ldrd	r2, r3, [r3]
  404584:	f002 f89a 	bl	4066bc <__aeabi_dsub>
  404588:	4622      	mov	r2, r4
  40458a:	462b      	mov	r3, r5
  40458c:	f002 fa4a 	bl	406a24 <__aeabi_dmul>
  404590:	2200      	movs	r2, #0
  404592:	4b29      	ldr	r3, [pc, #164]	; (404638 <__ieee754_acos+0x4a0>)
  404594:	f002 f894 	bl	4066c0 <__adddf3>
  404598:	4602      	mov	r2, r0
  40459a:	460b      	mov	r3, r1
  40459c:	4640      	mov	r0, r8
  40459e:	4649      	mov	r1, r9
  4045a0:	f002 fb6a 	bl	406c78 <__aeabi_ddiv>
  4045a4:	4632      	mov	r2, r6
  4045a6:	463b      	mov	r3, r7
  4045a8:	f002 fa3c 	bl	406a24 <__aeabi_dmul>
  4045ac:	a31e      	add	r3, pc, #120	; (adr r3, 404628 <__ieee754_acos+0x490>)
  4045ae:	e9d3 2300 	ldrd	r2, r3, [r3]
  4045b2:	f002 f883 	bl	4066bc <__aeabi_dsub>
  4045b6:	4632      	mov	r2, r6
  4045b8:	463b      	mov	r3, r7
  4045ba:	f002 f881 	bl	4066c0 <__adddf3>
  4045be:	4602      	mov	r2, r0
  4045c0:	460b      	mov	r3, r1
  4045c2:	f002 f87d 	bl	4066c0 <__adddf3>
  4045c6:	4602      	mov	r2, r0
  4045c8:	460b      	mov	r3, r1
  4045ca:	a119      	add	r1, pc, #100	; (adr r1, 404630 <__ieee754_acos+0x498>)
  4045cc:	e9d1 0100 	ldrd	r0, r1, [r1]
  4045d0:	f002 f874 	bl	4066bc <__aeabi_dsub>
  4045d4:	e8bd 8ff8 	ldmia.w	sp!, {r3, r4, r5, r6, r7, r8, r9, sl, fp, pc}
  4045d8:	0dfdf709 	.word	0x0dfdf709
  4045dc:	3f023de1 	.word	0x3f023de1
  4045e0:	7501b288 	.word	0x7501b288
  4045e4:	3f49efe0 	.word	0x3f49efe0
  4045e8:	b5688f3b 	.word	0xb5688f3b
  4045ec:	3fa48228 	.word	0x3fa48228
  4045f0:	0e884455 	.word	0x0e884455
  4045f4:	3fc9c155 	.word	0x3fc9c155
  4045f8:	03eb6f7d 	.word	0x03eb6f7d
  4045fc:	3fd4d612 	.word	0x3fd4d612
  404600:	55555555 	.word	0x55555555
  404604:	3fc55555 	.word	0x3fc55555
  404608:	b12e9282 	.word	0xb12e9282
  40460c:	3fb3b8c5 	.word	0x3fb3b8c5
  404610:	1b8d0159 	.word	0x1b8d0159
  404614:	3fe6066c 	.word	0x3fe6066c
  404618:	9c598ac8 	.word	0x9c598ac8
  40461c:	40002ae5 	.word	0x40002ae5
  404620:	1c8a2d4b 	.word	0x1c8a2d4b
  404624:	40033a27 	.word	0x40033a27
  404628:	33145c07 	.word	0x33145c07
  40462c:	3c91a626 	.word	0x3c91a626
  404630:	54442d18 	.word	0x54442d18
  404634:	400921fb 	.word	0x400921fb
  404638:	3ff00000 	.word	0x3ff00000
  40463c:	3fe00000 	.word	0x3fe00000

00404640 <__ieee754_asin>:
  404640:	e92d 47f0 	stmdb	sp!, {r4, r5, r6, r7, r8, r9, sl, lr}
  404644:	4bc0      	ldr	r3, [pc, #768]	; (404948 <__ieee754_asin+0x308>)
  404646:	f021 4800 	bic.w	r8, r1, #2147483648	; 0x80000000
  40464a:	4598      	cmp	r8, r3
  40464c:	b084      	sub	sp, #16
  40464e:	460d      	mov	r5, r1
  404650:	4604      	mov	r4, r0
  404652:	dd14      	ble.n	40467e <__ieee754_asin+0x3e>
  404654:	f108 4840 	add.w	r8, r8, #3221225472	; 0xc0000000
  404658:	f508 1880 	add.w	r8, r8, #1048576	; 0x100000
  40465c:	4603      	mov	r3, r0
  40465e:	ea58 0303 	orrs.w	r3, r8, r3
  404662:	d023      	beq.n	4046ac <__ieee754_asin+0x6c>
  404664:	4602      	mov	r2, r0
  404666:	460b      	mov	r3, r1
  404668:	f002 f828 	bl	4066bc <__aeabi_dsub>
  40466c:	4602      	mov	r2, r0
  40466e:	460b      	mov	r3, r1
  404670:	f002 fb02 	bl	406c78 <__aeabi_ddiv>
  404674:	4604      	mov	r4, r0
  404676:	4620      	mov	r0, r4
  404678:	b004      	add	sp, #16
  40467a:	e8bd 87f0 	ldmia.w	sp!, {r4, r5, r6, r7, r8, r9, sl, pc}
  40467e:	4bb3      	ldr	r3, [pc, #716]	; (40494c <__ieee754_asin+0x30c>)
  404680:	4598      	cmp	r8, r3
  404682:	468a      	mov	sl, r1
  404684:	dc2b      	bgt.n	4046de <__ieee754_asin+0x9e>
  404686:	f1b8 5f79 	cmp.w	r8, #1044381696	; 0x3e400000
  40468a:	f280 8167 	bge.w	40495c <__ieee754_asin+0x31c>
  40468e:	a392      	add	r3, pc, #584	; (adr r3, 4048d8 <__ieee754_asin+0x298>)
  404690:	e9d3 2300 	ldrd	r2, r3, [r3]
  404694:	f002 f814 	bl	4066c0 <__adddf3>
  404698:	2200      	movs	r2, #0
  40469a:	4bad      	ldr	r3, [pc, #692]	; (404950 <__ieee754_asin+0x310>)
  40469c:	f002 fc52 	bl	406f44 <__aeabi_dcmpgt>
  4046a0:	b1e8      	cbz	r0, 4046de <__ieee754_asin+0x9e>
  4046a2:	4629      	mov	r1, r5
  4046a4:	4620      	mov	r0, r4
  4046a6:	b004      	add	sp, #16
  4046a8:	e8bd 87f0 	ldmia.w	sp!, {r4, r5, r6, r7, r8, r9, sl, pc}
  4046ac:	a38c      	add	r3, pc, #560	; (adr r3, 4048e0 <__ieee754_asin+0x2a0>)
  4046ae:	e9d3 2300 	ldrd	r2, r3, [r3]
  4046b2:	f002 f9b7 	bl	406a24 <__aeabi_dmul>
  4046b6:	a38c      	add	r3, pc, #560	; (adr r3, 4048e8 <__ieee754_asin+0x2a8>)
  4046b8:	e9d3 2300 	ldrd	r2, r3, [r3]
  4046bc:	4606      	mov	r6, r0
  4046be:	460f      	mov	r7, r1
  4046c0:	4620      	mov	r0, r4
  4046c2:	4629      	mov	r1, r5
  4046c4:	f002 f9ae 	bl	406a24 <__aeabi_dmul>
  4046c8:	4602      	mov	r2, r0
  4046ca:	460b      	mov	r3, r1
  4046cc:	4630      	mov	r0, r6
  4046ce:	4639      	mov	r1, r7
  4046d0:	f001 fff6 	bl	4066c0 <__adddf3>
  4046d4:	4604      	mov	r4, r0
  4046d6:	4620      	mov	r0, r4
  4046d8:	b004      	add	sp, #16
  4046da:	e8bd 87f0 	ldmia.w	sp!, {r4, r5, r6, r7, r8, r9, sl, pc}
  4046de:	4620      	mov	r0, r4
  4046e0:	4629      	mov	r1, r5
  4046e2:	f001 fecb 	bl	40647c <fabs>
  4046e6:	4602      	mov	r2, r0
  4046e8:	460b      	mov	r3, r1
  4046ea:	2000      	movs	r0, #0
  4046ec:	4998      	ldr	r1, [pc, #608]	; (404950 <__ieee754_asin+0x310>)
  4046ee:	f001 ffe5 	bl	4066bc <__aeabi_dsub>
  4046f2:	2200      	movs	r2, #0
  4046f4:	4b97      	ldr	r3, [pc, #604]	; (404954 <__ieee754_asin+0x314>)
  4046f6:	f002 f995 	bl	406a24 <__aeabi_dmul>
  4046fa:	a37d      	add	r3, pc, #500	; (adr r3, 4048f0 <__ieee754_asin+0x2b0>)
  4046fc:	e9d3 2300 	ldrd	r2, r3, [r3]
  404700:	4604      	mov	r4, r0
  404702:	460d      	mov	r5, r1
  404704:	f002 f98e 	bl	406a24 <__aeabi_dmul>
  404708:	a37b      	add	r3, pc, #492	; (adr r3, 4048f8 <__ieee754_asin+0x2b8>)
  40470a:	e9d3 2300 	ldrd	r2, r3, [r3]
  40470e:	f001 ffd7 	bl	4066c0 <__adddf3>
  404712:	4622      	mov	r2, r4
  404714:	462b      	mov	r3, r5
  404716:	f002 f985 	bl	406a24 <__aeabi_dmul>
  40471a:	a379      	add	r3, pc, #484	; (adr r3, 404900 <__ieee754_asin+0x2c0>)
  40471c:	e9d3 2300 	ldrd	r2, r3, [r3]
  404720:	f001 ffcc 	bl	4066bc <__aeabi_dsub>
  404724:	4622      	mov	r2, r4
  404726:	462b      	mov	r3, r5
  404728:	f002 f97c 	bl	406a24 <__aeabi_dmul>
  40472c:	a376      	add	r3, pc, #472	; (adr r3, 404908 <__ieee754_asin+0x2c8>)
  40472e:	e9d3 2300 	ldrd	r2, r3, [r3]
  404732:	f001 ffc5 	bl	4066c0 <__adddf3>
  404736:	4622      	mov	r2, r4
  404738:	462b      	mov	r3, r5
  40473a:	f002 f973 	bl	406a24 <__aeabi_dmul>
  40473e:	a374      	add	r3, pc, #464	; (adr r3, 404910 <__ieee754_asin+0x2d0>)
  404740:	e9d3 2300 	ldrd	r2, r3, [r3]
  404744:	f001 ffba 	bl	4066bc <__aeabi_dsub>
  404748:	4622      	mov	r2, r4
  40474a:	462b      	mov	r3, r5
  40474c:	f002 f96a 	bl	406a24 <__aeabi_dmul>
  404750:	a371      	add	r3, pc, #452	; (adr r3, 404918 <__ieee754_asin+0x2d8>)
  404752:	e9d3 2300 	ldrd	r2, r3, [r3]
  404756:	f001 ffb3 	bl	4066c0 <__adddf3>
  40475a:	4622      	mov	r2, r4
  40475c:	462b      	mov	r3, r5
  40475e:	f002 f961 	bl	406a24 <__aeabi_dmul>
  404762:	a36f      	add	r3, pc, #444	; (adr r3, 404920 <__ieee754_asin+0x2e0>)
  404764:	e9d3 2300 	ldrd	r2, r3, [r3]
  404768:	e9cd 0100 	strd	r0, r1, [sp]
  40476c:	4620      	mov	r0, r4
  40476e:	4629      	mov	r1, r5
  404770:	f002 f958 	bl	406a24 <__aeabi_dmul>
  404774:	a36c      	add	r3, pc, #432	; (adr r3, 404928 <__ieee754_asin+0x2e8>)
  404776:	e9d3 2300 	ldrd	r2, r3, [r3]
  40477a:	f001 ff9f 	bl	4066bc <__aeabi_dsub>
  40477e:	4622      	mov	r2, r4
  404780:	462b      	mov	r3, r5
  404782:	f002 f94f 	bl	406a24 <__aeabi_dmul>
  404786:	a36a      	add	r3, pc, #424	; (adr r3, 404930 <__ieee754_asin+0x2f0>)
  404788:	e9d3 2300 	ldrd	r2, r3, [r3]
  40478c:	f001 ff98 	bl	4066c0 <__adddf3>
  404790:	4622      	mov	r2, r4
  404792:	462b      	mov	r3, r5
  404794:	f002 f946 	bl	406a24 <__aeabi_dmul>
  404798:	a367      	add	r3, pc, #412	; (adr r3, 404938 <__ieee754_asin+0x2f8>)
  40479a:	e9d3 2300 	ldrd	r2, r3, [r3]
  40479e:	f001 ff8d 	bl	4066bc <__aeabi_dsub>
  4047a2:	4622      	mov	r2, r4
  4047a4:	462b      	mov	r3, r5
  4047a6:	f002 f93d 	bl	406a24 <__aeabi_dmul>
  4047aa:	4b69      	ldr	r3, [pc, #420]	; (404950 <__ieee754_asin+0x310>)
  4047ac:	2200      	movs	r2, #0
  4047ae:	f001 ff87 	bl	4066c0 <__adddf3>
  4047b2:	e9cd 0102 	strd	r0, r1, [sp, #8]
  4047b6:	4620      	mov	r0, r4
  4047b8:	4629      	mov	r1, r5
  4047ba:	f000 fc5f 	bl	40507c <__ieee754_sqrt>
  4047be:	4b66      	ldr	r3, [pc, #408]	; (404958 <__ieee754_asin+0x318>)
  4047c0:	4598      	cmp	r8, r3
  4047c2:	4606      	mov	r6, r0
  4047c4:	460f      	mov	r7, r1
  4047c6:	dc66      	bgt.n	404896 <__ieee754_asin+0x256>
  4047c8:	e9dd 2302 	ldrd	r2, r3, [sp, #8]
  4047cc:	e9dd 0100 	ldrd	r0, r1, [sp]
  4047d0:	f002 fa52 	bl	406c78 <__aeabi_ddiv>
  4047d4:	4632      	mov	r2, r6
  4047d6:	e9cd 0100 	strd	r0, r1, [sp]
  4047da:	463b      	mov	r3, r7
  4047dc:	4630      	mov	r0, r6
  4047de:	4639      	mov	r1, r7
  4047e0:	f001 ff6e 	bl	4066c0 <__adddf3>
  4047e4:	4602      	mov	r2, r0
  4047e6:	460b      	mov	r3, r1
  4047e8:	e9dd 0100 	ldrd	r0, r1, [sp]
  4047ec:	f002 f91a 	bl	406a24 <__aeabi_dmul>
  4047f0:	f04f 0800 	mov.w	r8, #0
  4047f4:	e9cd 0100 	strd	r0, r1, [sp]
  4047f8:	4642      	mov	r2, r8
  4047fa:	463b      	mov	r3, r7
  4047fc:	4640      	mov	r0, r8
  4047fe:	4639      	mov	r1, r7
  404800:	f002 f910 	bl	406a24 <__aeabi_dmul>
  404804:	4602      	mov	r2, r0
  404806:	460b      	mov	r3, r1
  404808:	4620      	mov	r0, r4
  40480a:	4629      	mov	r1, r5
  40480c:	f001 ff56 	bl	4066bc <__aeabi_dsub>
  404810:	4642      	mov	r2, r8
  404812:	4604      	mov	r4, r0
  404814:	460d      	mov	r5, r1
  404816:	463b      	mov	r3, r7
  404818:	4630      	mov	r0, r6
  40481a:	4639      	mov	r1, r7
  40481c:	f001 ff50 	bl	4066c0 <__adddf3>
  404820:	4602      	mov	r2, r0
  404822:	460b      	mov	r3, r1
  404824:	4620      	mov	r0, r4
  404826:	4629      	mov	r1, r5
  404828:	f002 fa26 	bl	406c78 <__aeabi_ddiv>
  40482c:	4602      	mov	r2, r0
  40482e:	460b      	mov	r3, r1
  404830:	f001 ff46 	bl	4066c0 <__adddf3>
  404834:	4602      	mov	r2, r0
  404836:	460b      	mov	r3, r1
  404838:	a12b      	add	r1, pc, #172	; (adr r1, 4048e8 <__ieee754_asin+0x2a8>)
  40483a:	e9d1 0100 	ldrd	r0, r1, [r1]
  40483e:	f001 ff3d 	bl	4066bc <__aeabi_dsub>
  404842:	4602      	mov	r2, r0
  404844:	460b      	mov	r3, r1
  404846:	e9dd 0100 	ldrd	r0, r1, [sp]
  40484a:	f001 ff37 	bl	4066bc <__aeabi_dsub>
  40484e:	4642      	mov	r2, r8
  404850:	4604      	mov	r4, r0
  404852:	460d      	mov	r5, r1
  404854:	463b      	mov	r3, r7
  404856:	4640      	mov	r0, r8
  404858:	4639      	mov	r1, r7
  40485a:	f001 ff31 	bl	4066c0 <__adddf3>
  40485e:	4602      	mov	r2, r0
  404860:	460b      	mov	r3, r1
  404862:	a137      	add	r1, pc, #220	; (adr r1, 404940 <__ieee754_asin+0x300>)
  404864:	e9d1 0100 	ldrd	r0, r1, [r1]
  404868:	f001 ff28 	bl	4066bc <__aeabi_dsub>
  40486c:	4602      	mov	r2, r0
  40486e:	460b      	mov	r3, r1
  404870:	4620      	mov	r0, r4
  404872:	4629      	mov	r1, r5
  404874:	f001 ff22 	bl	4066bc <__aeabi_dsub>
  404878:	4602      	mov	r2, r0
  40487a:	460b      	mov	r3, r1
  40487c:	a130      	add	r1, pc, #192	; (adr r1, 404940 <__ieee754_asin+0x300>)
  40487e:	e9d1 0100 	ldrd	r0, r1, [r1]
  404882:	f001 ff1b 	bl	4066bc <__aeabi_dsub>
  404886:	4604      	mov	r4, r0
  404888:	f1ba 0f00 	cmp.w	sl, #0
  40488c:	f73f aef3 	bgt.w	404676 <__ieee754_asin+0x36>
  404890:	f101 4100 	add.w	r1, r1, #2147483648	; 0x80000000
  404894:	e6ef      	b.n	404676 <__ieee754_asin+0x36>
  404896:	e9dd 2302 	ldrd	r2, r3, [sp, #8]
  40489a:	e9dd 0100 	ldrd	r0, r1, [sp]
  40489e:	f002 f9eb 	bl	406c78 <__aeabi_ddiv>
  4048a2:	4632      	mov	r2, r6
  4048a4:	463b      	mov	r3, r7
  4048a6:	f002 f8bd 	bl	406a24 <__aeabi_dmul>
  4048aa:	4632      	mov	r2, r6
  4048ac:	463b      	mov	r3, r7
  4048ae:	f001 ff07 	bl	4066c0 <__adddf3>
  4048b2:	4602      	mov	r2, r0
  4048b4:	460b      	mov	r3, r1
  4048b6:	f001 ff03 	bl	4066c0 <__adddf3>
  4048ba:	a30b      	add	r3, pc, #44	; (adr r3, 4048e8 <__ieee754_asin+0x2a8>)
  4048bc:	e9d3 2300 	ldrd	r2, r3, [r3]
  4048c0:	f001 fefc 	bl	4066bc <__aeabi_dsub>
  4048c4:	4602      	mov	r2, r0
  4048c6:	460b      	mov	r3, r1
  4048c8:	a105      	add	r1, pc, #20	; (adr r1, 4048e0 <__ieee754_asin+0x2a0>)
  4048ca:	e9d1 0100 	ldrd	r0, r1, [r1]
  4048ce:	f001 fef5 	bl	4066bc <__aeabi_dsub>
  4048d2:	4604      	mov	r4, r0
  4048d4:	e7d8      	b.n	404888 <__ieee754_asin+0x248>
  4048d6:	bf00      	nop
  4048d8:	8800759c 	.word	0x8800759c
  4048dc:	7e37e43c 	.word	0x7e37e43c
  4048e0:	54442d18 	.word	0x54442d18
  4048e4:	3ff921fb 	.word	0x3ff921fb
  4048e8:	33145c07 	.word	0x33145c07
  4048ec:	3c91a626 	.word	0x3c91a626
  4048f0:	0dfdf709 	.word	0x0dfdf709
  4048f4:	3f023de1 	.word	0x3f023de1
  4048f8:	7501b288 	.word	0x7501b288
  4048fc:	3f49efe0 	.word	0x3f49efe0
  404900:	b5688f3b 	.word	0xb5688f3b
  404904:	3fa48228 	.word	0x3fa48228
  404908:	0e884455 	.word	0x0e884455
  40490c:	3fc9c155 	.word	0x3fc9c155
  404910:	03eb6f7d 	.word	0x03eb6f7d
  404914:	3fd4d612 	.word	0x3fd4d612
  404918:	55555555 	.word	0x55555555
  40491c:	3fc55555 	.word	0x3fc55555
  404920:	b12e9282 	.word	0xb12e9282
  404924:	3fb3b8c5 	.word	0x3fb3b8c5
  404928:	1b8d0159 	.word	0x1b8d0159
  40492c:	3fe6066c 	.word	0x3fe6066c
  404930:	9c598ac8 	.word	0x9c598ac8
  404934:	40002ae5 	.word	0x40002ae5
  404938:	1c8a2d4b 	.word	0x1c8a2d4b
  40493c:	40033a27 	.word	0x40033a27
  404940:	54442d18 	.word	0x54442d18
  404944:	3fe921fb 	.word	0x3fe921fb
  404948:	3fefffff 	.word	0x3fefffff
  40494c:	3fdfffff 	.word	0x3fdfffff
  404950:	3ff00000 	.word	0x3ff00000
  404954:	3fe00000 	.word	0x3fe00000
  404958:	3fef3332 	.word	0x3fef3332
  40495c:	4602      	mov	r2, r0
  40495e:	460b      	mov	r3, r1
  404960:	f002 f860 	bl	406a24 <__aeabi_dmul>
  404964:	a338      	add	r3, pc, #224	; (adr r3, 404a48 <__ieee754_asin+0x408>)
  404966:	e9d3 2300 	ldrd	r2, r3, [r3]
  40496a:	4606      	mov	r6, r0
  40496c:	460f      	mov	r7, r1
  40496e:	f002 f859 	bl	406a24 <__aeabi_dmul>
  404972:	a337      	add	r3, pc, #220	; (adr r3, 404a50 <__ieee754_asin+0x410>)
  404974:	e9d3 2300 	ldrd	r2, r3, [r3]
  404978:	f001 fea2 	bl	4066c0 <__adddf3>
  40497c:	4632      	mov	r2, r6
  40497e:	463b      	mov	r3, r7
  404980:	f002 f850 	bl	406a24 <__aeabi_dmul>
  404984:	a334      	add	r3, pc, #208	; (adr r3, 404a58 <__ieee754_asin+0x418>)
  404986:	e9d3 2300 	ldrd	r2, r3, [r3]
  40498a:	f001 fe97 	bl	4066bc <__aeabi_dsub>
  40498e:	4632      	mov	r2, r6
  404990:	463b      	mov	r3, r7
  404992:	f002 f847 	bl	406a24 <__aeabi_dmul>
  404996:	a332      	add	r3, pc, #200	; (adr r3, 404a60 <__ieee754_asin+0x420>)
  404998:	e9d3 2300 	ldrd	r2, r3, [r3]
  40499c:	f001 fe90 	bl	4066c0 <__adddf3>
  4049a0:	4632      	mov	r2, r6
  4049a2:	463b      	mov	r3, r7
  4049a4:	f002 f83e 	bl	406a24 <__aeabi_dmul>
  4049a8:	a32f      	add	r3, pc, #188	; (adr r3, 404a68 <__ieee754_asin+0x428>)
  4049aa:	e9d3 2300 	ldrd	r2, r3, [r3]
  4049ae:	f001 fe85 	bl	4066bc <__aeabi_dsub>
  4049b2:	4632      	mov	r2, r6
  4049b4:	463b      	mov	r3, r7
  4049b6:	f002 f835 	bl	406a24 <__aeabi_dmul>
  4049ba:	a32d      	add	r3, pc, #180	; (adr r3, 404a70 <__ieee754_asin+0x430>)
  4049bc:	e9d3 2300 	ldrd	r2, r3, [r3]
  4049c0:	f001 fe7e 	bl	4066c0 <__adddf3>
  4049c4:	4632      	mov	r2, r6
  4049c6:	463b      	mov	r3, r7
  4049c8:	f002 f82c 	bl	406a24 <__aeabi_dmul>
  4049cc:	a32a      	add	r3, pc, #168	; (adr r3, 404a78 <__ieee754_asin+0x438>)
  4049ce:	e9d3 2300 	ldrd	r2, r3, [r3]
  4049d2:	4680      	mov	r8, r0
  4049d4:	4689      	mov	r9, r1
  4049d6:	4630      	mov	r0, r6
  4049d8:	4639      	mov	r1, r7
  4049da:	f002 f823 	bl	406a24 <__aeabi_dmul>
  4049de:	a328      	add	r3, pc, #160	; (adr r3, 404a80 <__ieee754_asin+0x440>)
  4049e0:	e9d3 2300 	ldrd	r2, r3, [r3]
  4049e4:	f001 fe6a 	bl	4066bc <__aeabi_dsub>
  4049e8:	4632      	mov	r2, r6
  4049ea:	463b      	mov	r3, r7
  4049ec:	f002 f81a 	bl	406a24 <__aeabi_dmul>
  4049f0:	a325      	add	r3, pc, #148	; (adr r3, 404a88 <__ieee754_asin+0x448>)
  4049f2:	e9d3 2300 	ldrd	r2, r3, [r3]
  4049f6:	f001 fe63 	bl	4066c0 <__adddf3>
  4049fa:	4632      	mov	r2, r6
  4049fc:	463b      	mov	r3, r7
  4049fe:	f002 f811 	bl	406a24 <__aeabi_dmul>
  404a02:	a323      	add	r3, pc, #140	; (adr r3, 404a90 <__ieee754_asin+0x450>)
  404a04:	e9d3 2300 	ldrd	r2, r3, [r3]
  404a08:	f001 fe58 	bl	4066bc <__aeabi_dsub>
  404a0c:	4632      	mov	r2, r6
  404a0e:	463b      	mov	r3, r7
  404a10:	f002 f808 	bl	406a24 <__aeabi_dmul>
  404a14:	2200      	movs	r2, #0
  404a16:	4b20      	ldr	r3, [pc, #128]	; (404a98 <__ieee754_asin+0x458>)
  404a18:	f001 fe52 	bl	4066c0 <__adddf3>
  404a1c:	4602      	mov	r2, r0
  404a1e:	460b      	mov	r3, r1
  404a20:	4640      	mov	r0, r8
  404a22:	4649      	mov	r1, r9
  404a24:	f002 f928 	bl	406c78 <__aeabi_ddiv>
  404a28:	4622      	mov	r2, r4
  404a2a:	462b      	mov	r3, r5
  404a2c:	f001 fffa 	bl	406a24 <__aeabi_dmul>
  404a30:	4622      	mov	r2, r4
  404a32:	462b      	mov	r3, r5
  404a34:	f001 fe44 	bl	4066c0 <__adddf3>
  404a38:	4604      	mov	r4, r0
  404a3a:	4620      	mov	r0, r4
  404a3c:	b004      	add	sp, #16
  404a3e:	e8bd 87f0 	ldmia.w	sp!, {r4, r5, r6, r7, r8, r9, sl, pc}
  404a42:	bf00      	nop
  404a44:	f3af 8000 	nop.w
  404a48:	0dfdf709 	.word	0x0dfdf709
  404a4c:	3f023de1 	.word	0x3f023de1
  404a50:	7501b288 	.word	0x7501b288
  404a54:	3f49efe0 	.word	0x3f49efe0
  404a58:	b5688f3b 	.word	0xb5688f3b
  404a5c:	3fa48228 	.word	0x3fa48228
  404a60:	0e884455 	.word	0x0e884455
  404a64:	3fc9c155 	.word	0x3fc9c155
  404a68:	03eb6f7d 	.word	0x03eb6f7d
  404a6c:	3fd4d612 	.word	0x3fd4d612
  404a70:	55555555 	.word	0x55555555
  404a74:	3fc55555 	.word	0x3fc55555
  404a78:	b12e9282 	.word	0xb12e9282
  404a7c:	3fb3b8c5 	.word	0x3fb3b8c5
  404a80:	1b8d0159 	.word	0x1b8d0159
  404a84:	3fe6066c 	.word	0x3fe6066c
  404a88:	9c598ac8 	.word	0x9c598ac8
  404a8c:	40002ae5 	.word	0x40002ae5
  404a90:	1c8a2d4b 	.word	0x1c8a2d4b
  404a94:	40033a27 	.word	0x40033a27
  404a98:	3ff00000 	.word	0x3ff00000
  404a9c:	00000000 	.word	0x00000000

00404aa0 <__ieee754_atan2>:
  404aa0:	e92d 4ff8 	stmdb	sp!, {r3, r4, r5, r6, r7, r8, r9, sl, fp, lr}
  404aa4:	4254      	negs	r4, r2
  404aa6:	4314      	orrs	r4, r2
  404aa8:	f023 4900 	bic.w	r9, r3, #2147483648	; 0x80000000
  404aac:	f8df e180 	ldr.w	lr, [pc, #384]	; 404c30 <__ieee754_atan2+0x190>
  404ab0:	ea49 74d4 	orr.w	r4, r9, r4, lsr #31
  404ab4:	4574      	cmp	r4, lr
  404ab6:	4606      	mov	r6, r0
  404ab8:	460d      	mov	r5, r1
  404aba:	d83e      	bhi.n	404b3a <__ieee754_atan2+0x9a>
  404abc:	4244      	negs	r4, r0
  404abe:	4304      	orrs	r4, r0
  404ac0:	f021 4b00 	bic.w	fp, r1, #2147483648	; 0x80000000
  404ac4:	ea4b 74d4 	orr.w	r4, fp, r4, lsr #31
  404ac8:	4574      	cmp	r4, lr
  404aca:	468a      	mov	sl, r1
  404acc:	d835      	bhi.n	404b3a <__ieee754_atan2+0x9a>
  404ace:	f103 4440 	add.w	r4, r3, #3221225472	; 0xc0000000
  404ad2:	f504 1480 	add.w	r4, r4, #1048576	; 0x100000
  404ad6:	4314      	orrs	r4, r2
  404ad8:	d044      	beq.n	404b64 <__ieee754_atan2+0xc4>
  404ada:	179c      	asrs	r4, r3, #30
  404adc:	f004 0402 	and.w	r4, r4, #2
  404ae0:	ea44 74d1 	orr.w	r4, r4, r1, lsr #31
  404ae4:	ea50 010b 	orrs.w	r1, r0, fp
  404ae8:	d02f      	beq.n	404b4a <__ieee754_atan2+0xaa>
  404aea:	ea52 0109 	orrs.w	r1, r2, r9
  404aee:	d033      	beq.n	404b58 <__ieee754_atan2+0xb8>
  404af0:	45f1      	cmp	r9, lr
  404af2:	d046      	beq.n	404b82 <__ieee754_atan2+0xe2>
  404af4:	45f3      	cmp	fp, lr
  404af6:	d02f      	beq.n	404b58 <__ieee754_atan2+0xb8>
  404af8:	ebc9 090b 	rsb	r9, r9, fp
  404afc:	ea4f 5929 	mov.w	r9, r9, asr #20
  404b00:	f1b9 0f3c 	cmp.w	r9, #60	; 0x3c
  404b04:	dc34      	bgt.n	404b70 <__ieee754_atan2+0xd0>
  404b06:	2b00      	cmp	r3, #0
  404b08:	db57      	blt.n	404bba <__ieee754_atan2+0x11a>
  404b0a:	4630      	mov	r0, r6
  404b0c:	4629      	mov	r1, r5
  404b0e:	f002 f8b3 	bl	406c78 <__aeabi_ddiv>
  404b12:	f001 fcb3 	bl	40647c <fabs>
  404b16:	f001 fb13 	bl	406140 <atan>
  404b1a:	2c01      	cmp	r4, #1
  404b1c:	d04a      	beq.n	404bb4 <__ieee754_atan2+0x114>
  404b1e:	2c02      	cmp	r4, #2
  404b20:	d03b      	beq.n	404b9a <__ieee754_atan2+0xfa>
  404b22:	b184      	cbz	r4, 404b46 <__ieee754_atan2+0xa6>
  404b24:	a332      	add	r3, pc, #200	; (adr r3, 404bf0 <__ieee754_atan2+0x150>)
  404b26:	e9d3 2300 	ldrd	r2, r3, [r3]
  404b2a:	f001 fdc7 	bl	4066bc <__aeabi_dsub>
  404b2e:	a332      	add	r3, pc, #200	; (adr r3, 404bf8 <__ieee754_atan2+0x158>)
  404b30:	e9d3 2300 	ldrd	r2, r3, [r3]
  404b34:	f001 fdc2 	bl	4066bc <__aeabi_dsub>
  404b38:	e005      	b.n	404b46 <__ieee754_atan2+0xa6>
  404b3a:	4610      	mov	r0, r2
  404b3c:	4619      	mov	r1, r3
  404b3e:	4632      	mov	r2, r6
  404b40:	462b      	mov	r3, r5
  404b42:	f001 fdbd 	bl	4066c0 <__adddf3>
  404b46:	e8bd 8ff8 	ldmia.w	sp!, {r3, r4, r5, r6, r7, r8, r9, sl, fp, pc}
  404b4a:	2c02      	cmp	r4, #2
  404b4c:	d014      	beq.n	404b78 <__ieee754_atan2+0xd8>
  404b4e:	2c03      	cmp	r4, #3
  404b50:	d10c      	bne.n	404b6c <__ieee754_atan2+0xcc>
  404b52:	482d      	ldr	r0, [pc, #180]	; (404c08 <__ieee754_atan2+0x168>)
  404b54:	492d      	ldr	r1, [pc, #180]	; (404c0c <__ieee754_atan2+0x16c>)
  404b56:	e7f6      	b.n	404b46 <__ieee754_atan2+0xa6>
  404b58:	f1ba 0f00 	cmp.w	sl, #0
  404b5c:	482a      	ldr	r0, [pc, #168]	; (404c08 <__ieee754_atan2+0x168>)
  404b5e:	db0e      	blt.n	404b7e <__ieee754_atan2+0xde>
  404b60:	492b      	ldr	r1, [pc, #172]	; (404c10 <__ieee754_atan2+0x170>)
  404b62:	e7f0      	b.n	404b46 <__ieee754_atan2+0xa6>
  404b64:	e8bd 4ff8 	ldmia.w	sp!, {r3, r4, r5, r6, r7, r8, r9, sl, fp, lr}
  404b68:	f001 baea 	b.w	406140 <atan>
  404b6c:	4629      	mov	r1, r5
  404b6e:	e7ea      	b.n	404b46 <__ieee754_atan2+0xa6>
  404b70:	a123      	add	r1, pc, #140	; (adr r1, 404c00 <__ieee754_atan2+0x160>)
  404b72:	e9d1 0100 	ldrd	r0, r1, [r1]
  404b76:	e7d0      	b.n	404b1a <__ieee754_atan2+0x7a>
  404b78:	4823      	ldr	r0, [pc, #140]	; (404c08 <__ieee754_atan2+0x168>)
  404b7a:	4926      	ldr	r1, [pc, #152]	; (404c14 <__ieee754_atan2+0x174>)
  404b7c:	e7e3      	b.n	404b46 <__ieee754_atan2+0xa6>
  404b7e:	4926      	ldr	r1, [pc, #152]	; (404c18 <__ieee754_atan2+0x178>)
  404b80:	e7e1      	b.n	404b46 <__ieee754_atan2+0xa6>
  404b82:	45cb      	cmp	fp, r9
  404b84:	d01f      	beq.n	404bc6 <__ieee754_atan2+0x126>
  404b86:	2c02      	cmp	r4, #2
  404b88:	d0f6      	beq.n	404b78 <__ieee754_atan2+0xd8>
  404b8a:	2c03      	cmp	r4, #3
  404b8c:	d0e1      	beq.n	404b52 <__ieee754_atan2+0xb2>
  404b8e:	2c01      	cmp	r4, #1
  404b90:	f04f 0000 	mov.w	r0, #0
  404b94:	d020      	beq.n	404bd8 <__ieee754_atan2+0x138>
  404b96:	4601      	mov	r1, r0
  404b98:	e7d5      	b.n	404b46 <__ieee754_atan2+0xa6>
  404b9a:	a315      	add	r3, pc, #84	; (adr r3, 404bf0 <__ieee754_atan2+0x150>)
  404b9c:	e9d3 2300 	ldrd	r2, r3, [r3]
  404ba0:	f001 fd8c 	bl	4066bc <__aeabi_dsub>
  404ba4:	4602      	mov	r2, r0
  404ba6:	460b      	mov	r3, r1
  404ba8:	a113      	add	r1, pc, #76	; (adr r1, 404bf8 <__ieee754_atan2+0x158>)
  404baa:	e9d1 0100 	ldrd	r0, r1, [r1]
  404bae:	f001 fd85 	bl	4066bc <__aeabi_dsub>
  404bb2:	e7c8      	b.n	404b46 <__ieee754_atan2+0xa6>
  404bb4:	f101 4100 	add.w	r1, r1, #2147483648	; 0x80000000
  404bb8:	e7c5      	b.n	404b46 <__ieee754_atan2+0xa6>
  404bba:	f119 0f3c 	cmn.w	r9, #60	; 0x3c
  404bbe:	daa4      	bge.n	404b0a <__ieee754_atan2+0x6a>
  404bc0:	2000      	movs	r0, #0
  404bc2:	2100      	movs	r1, #0
  404bc4:	e7a9      	b.n	404b1a <__ieee754_atan2+0x7a>
  404bc6:	2c02      	cmp	r4, #2
  404bc8:	d00e      	beq.n	404be8 <__ieee754_atan2+0x148>
  404bca:	2c03      	cmp	r4, #3
  404bcc:	d009      	beq.n	404be2 <__ieee754_atan2+0x142>
  404bce:	2c01      	cmp	r4, #1
  404bd0:	480d      	ldr	r0, [pc, #52]	; (404c08 <__ieee754_atan2+0x168>)
  404bd2:	d004      	beq.n	404bde <__ieee754_atan2+0x13e>
  404bd4:	4911      	ldr	r1, [pc, #68]	; (404c1c <__ieee754_atan2+0x17c>)
  404bd6:	e7b6      	b.n	404b46 <__ieee754_atan2+0xa6>
  404bd8:	f04f 4100 	mov.w	r1, #2147483648	; 0x80000000
  404bdc:	e7b3      	b.n	404b46 <__ieee754_atan2+0xa6>
  404bde:	4910      	ldr	r1, [pc, #64]	; (404c20 <__ieee754_atan2+0x180>)
  404be0:	e7b1      	b.n	404b46 <__ieee754_atan2+0xa6>
  404be2:	4810      	ldr	r0, [pc, #64]	; (404c24 <__ieee754_atan2+0x184>)
  404be4:	4910      	ldr	r1, [pc, #64]	; (404c28 <__ieee754_atan2+0x188>)
  404be6:	e7ae      	b.n	404b46 <__ieee754_atan2+0xa6>
  404be8:	480e      	ldr	r0, [pc, #56]	; (404c24 <__ieee754_atan2+0x184>)
  404bea:	4910      	ldr	r1, [pc, #64]	; (404c2c <__ieee754_atan2+0x18c>)
  404bec:	e7ab      	b.n	404b46 <__ieee754_atan2+0xa6>
  404bee:	bf00      	nop
  404bf0:	33145c07 	.word	0x33145c07
  404bf4:	3ca1a626 	.word	0x3ca1a626
  404bf8:	54442d18 	.word	0x54442d18
  404bfc:	400921fb 	.word	0x400921fb
  404c00:	54442d18 	.word	0x54442d18
  404c04:	3ff921fb 	.word	0x3ff921fb
  404c08:	54442d18 	.word	0x54442d18
  404c0c:	c00921fb 	.word	0xc00921fb
  404c10:	3ff921fb 	.word	0x3ff921fb
  404c14:	400921fb 	.word	0x400921fb
  404c18:	bff921fb 	.word	0xbff921fb
  404c1c:	3fe921fb 	.word	0x3fe921fb
  404c20:	bfe921fb 	.word	0xbfe921fb
  404c24:	7f3321d2 	.word	0x7f3321d2
  404c28:	c002d97c 	.word	0xc002d97c
  404c2c:	4002d97c 	.word	0x4002d97c
  404c30:	7ff00000 	.word	0x7ff00000
  404c34:	00000000 	.word	0x00000000

00404c38 <__ieee754_rem_pio2>:
  404c38:	e92d 4ff0 	stmdb	sp!, {r4, r5, r6, r7, r8, r9, sl, fp, lr}
  404c3c:	4e94      	ldr	r6, [pc, #592]	; (404e90 <__ieee754_rem_pio2+0x258>)
  404c3e:	f021 4700 	bic.w	r7, r1, #2147483648	; 0x80000000
  404c42:	42b7      	cmp	r7, r6
  404c44:	b091      	sub	sp, #68	; 0x44
  404c46:	f340 8082 	ble.w	404d4e <__ieee754_rem_pio2+0x116>
  404c4a:	4692      	mov	sl, r2
  404c4c:	4a91      	ldr	r2, [pc, #580]	; (404e94 <__ieee754_rem_pio2+0x25c>)
  404c4e:	4297      	cmp	r7, r2
  404c50:	460c      	mov	r4, r1
  404c52:	dc26      	bgt.n	404ca2 <__ieee754_rem_pio2+0x6a>
  404c54:	2900      	cmp	r1, #0
  404c56:	a384      	add	r3, pc, #528	; (adr r3, 404e68 <__ieee754_rem_pio2+0x230>)
  404c58:	e9d3 2300 	ldrd	r2, r3, [r3]
  404c5c:	f340 81a8 	ble.w	404fb0 <__ieee754_rem_pio2+0x378>
  404c60:	f001 fd2c 	bl	4066bc <__aeabi_dsub>
  404c64:	4b8c      	ldr	r3, [pc, #560]	; (404e98 <__ieee754_rem_pio2+0x260>)
  404c66:	429f      	cmp	r7, r3
  404c68:	4604      	mov	r4, r0
  404c6a:	460d      	mov	r5, r1
  404c6c:	f000 8084 	beq.w	404d78 <__ieee754_rem_pio2+0x140>
  404c70:	a37f      	add	r3, pc, #508	; (adr r3, 404e70 <__ieee754_rem_pio2+0x238>)
  404c72:	e9d3 2300 	ldrd	r2, r3, [r3]
  404c76:	f001 fd21 	bl	4066bc <__aeabi_dsub>
  404c7a:	4602      	mov	r2, r0
  404c7c:	460b      	mov	r3, r1
  404c7e:	e9ca 2300 	strd	r2, r3, [sl]
  404c82:	4620      	mov	r0, r4
  404c84:	4629      	mov	r1, r5
  404c86:	f001 fd19 	bl	4066bc <__aeabi_dsub>
  404c8a:	a379      	add	r3, pc, #484	; (adr r3, 404e70 <__ieee754_rem_pio2+0x238>)
  404c8c:	e9d3 2300 	ldrd	r2, r3, [r3]
  404c90:	f001 fd14 	bl	4066bc <__aeabi_dsub>
  404c94:	2501      	movs	r5, #1
  404c96:	e9ca 0102 	strd	r0, r1, [sl, #8]
  404c9a:	4628      	mov	r0, r5
  404c9c:	b011      	add	sp, #68	; 0x44
  404c9e:	e8bd 8ff0 	ldmia.w	sp!, {r4, r5, r6, r7, r8, r9, sl, fp, pc}
  404ca2:	4a7e      	ldr	r2, [pc, #504]	; (404e9c <__ieee754_rem_pio2+0x264>)
  404ca4:	4297      	cmp	r7, r2
  404ca6:	f340 8084 	ble.w	404db2 <__ieee754_rem_pio2+0x17a>
  404caa:	4a7d      	ldr	r2, [pc, #500]	; (404ea0 <__ieee754_rem_pio2+0x268>)
  404cac:	4297      	cmp	r7, r2
  404cae:	dc59      	bgt.n	404d64 <__ieee754_rem_pio2+0x12c>
  404cb0:	153d      	asrs	r5, r7, #20
  404cb2:	f2a5 4516 	subw	r5, r5, #1046	; 0x416
  404cb6:	eba7 5305 	sub.w	r3, r7, r5, lsl #20
  404cba:	4619      	mov	r1, r3
  404cbc:	461f      	mov	r7, r3
  404cbe:	4606      	mov	r6, r0
  404cc0:	f002 f960 	bl	406f84 <__aeabi_d2iz>
  404cc4:	f001 fe48 	bl	406958 <__aeabi_i2d>
  404cc8:	4680      	mov	r8, r0
  404cca:	4689      	mov	r9, r1
  404ccc:	4602      	mov	r2, r0
  404cce:	460b      	mov	r3, r1
  404cd0:	4630      	mov	r0, r6
  404cd2:	4639      	mov	r1, r7
  404cd4:	e9cd 890a 	strd	r8, r9, [sp, #40]	; 0x28
  404cd8:	f001 fcf0 	bl	4066bc <__aeabi_dsub>
  404cdc:	2200      	movs	r2, #0
  404cde:	4b71      	ldr	r3, [pc, #452]	; (404ea4 <__ieee754_rem_pio2+0x26c>)
  404ce0:	f001 fea0 	bl	406a24 <__aeabi_dmul>
  404ce4:	4689      	mov	r9, r1
  404ce6:	4680      	mov	r8, r0
  404ce8:	f002 f94c 	bl	406f84 <__aeabi_d2iz>
  404cec:	f001 fe34 	bl	406958 <__aeabi_i2d>
  404cf0:	4602      	mov	r2, r0
  404cf2:	460b      	mov	r3, r1
  404cf4:	4606      	mov	r6, r0
  404cf6:	460f      	mov	r7, r1
  404cf8:	4640      	mov	r0, r8
  404cfa:	4649      	mov	r1, r9
  404cfc:	e9cd 670c 	strd	r6, r7, [sp, #48]	; 0x30
  404d00:	f001 fcdc 	bl	4066bc <__aeabi_dsub>
  404d04:	2200      	movs	r2, #0
  404d06:	4b67      	ldr	r3, [pc, #412]	; (404ea4 <__ieee754_rem_pio2+0x26c>)
  404d08:	f001 fe8c 	bl	406a24 <__aeabi_dmul>
  404d0c:	2200      	movs	r2, #0
  404d0e:	2300      	movs	r3, #0
  404d10:	e9cd 010e 	strd	r0, r1, [sp, #56]	; 0x38
  404d14:	f002 f8ee 	bl	406ef4 <__aeabi_dcmpeq>
  404d18:	2800      	cmp	r0, #0
  404d1a:	f000 8175 	beq.w	405008 <__ieee754_rem_pio2+0x3d0>
  404d1e:	2300      	movs	r3, #0
  404d20:	4630      	mov	r0, r6
  404d22:	4639      	mov	r1, r7
  404d24:	2200      	movs	r2, #0
  404d26:	f002 f8e5 	bl	406ef4 <__aeabi_dcmpeq>
  404d2a:	2800      	cmp	r0, #0
  404d2c:	bf14      	ite	ne
  404d2e:	2301      	movne	r3, #1
  404d30:	2302      	moveq	r3, #2
  404d32:	4a5d      	ldr	r2, [pc, #372]	; (404ea8 <__ieee754_rem_pio2+0x270>)
  404d34:	9201      	str	r2, [sp, #4]
  404d36:	2102      	movs	r1, #2
  404d38:	9100      	str	r1, [sp, #0]
  404d3a:	462a      	mov	r2, r5
  404d3c:	4651      	mov	r1, sl
  404d3e:	a80a      	add	r0, sp, #40	; 0x28
  404d40:	f000 fb82 	bl	405448 <__kernel_rem_pio2>
  404d44:	2c00      	cmp	r4, #0
  404d46:	f2c0 8151 	blt.w	404fec <__ieee754_rem_pio2+0x3b4>
  404d4a:	4605      	mov	r5, r0
  404d4c:	e006      	b.n	404d5c <__ieee754_rem_pio2+0x124>
  404d4e:	e9c2 0100 	strd	r0, r1, [r2]
  404d52:	2500      	movs	r5, #0
  404d54:	2400      	movs	r4, #0
  404d56:	e9c2 4502 	strd	r4, r5, [r2, #8]
  404d5a:	2500      	movs	r5, #0
  404d5c:	4628      	mov	r0, r5
  404d5e:	b011      	add	sp, #68	; 0x44
  404d60:	e8bd 8ff0 	ldmia.w	sp!, {r4, r5, r6, r7, r8, r9, sl, fp, pc}
  404d64:	4602      	mov	r2, r0
  404d66:	460b      	mov	r3, r1
  404d68:	f001 fca8 	bl	4066bc <__aeabi_dsub>
  404d6c:	2500      	movs	r5, #0
  404d6e:	e9ca 0102 	strd	r0, r1, [sl, #8]
  404d72:	e9ca 0100 	strd	r0, r1, [sl]
  404d76:	e7f1      	b.n	404d5c <__ieee754_rem_pio2+0x124>
  404d78:	a33f      	add	r3, pc, #252	; (adr r3, 404e78 <__ieee754_rem_pio2+0x240>)
  404d7a:	e9d3 2300 	ldrd	r2, r3, [r3]
  404d7e:	f001 fc9d 	bl	4066bc <__aeabi_dsub>
  404d82:	a33f      	add	r3, pc, #252	; (adr r3, 404e80 <__ieee754_rem_pio2+0x248>)
  404d84:	e9d3 2300 	ldrd	r2, r3, [r3]
  404d88:	460d      	mov	r5, r1
  404d8a:	4604      	mov	r4, r0
  404d8c:	f001 fc96 	bl	4066bc <__aeabi_dsub>
  404d90:	4602      	mov	r2, r0
  404d92:	460b      	mov	r3, r1
  404d94:	e9ca 2300 	strd	r2, r3, [sl]
  404d98:	4629      	mov	r1, r5
  404d9a:	4620      	mov	r0, r4
  404d9c:	f001 fc8e 	bl	4066bc <__aeabi_dsub>
  404da0:	a337      	add	r3, pc, #220	; (adr r3, 404e80 <__ieee754_rem_pio2+0x248>)
  404da2:	e9d3 2300 	ldrd	r2, r3, [r3]
  404da6:	f001 fc89 	bl	4066bc <__aeabi_dsub>
  404daa:	2501      	movs	r5, #1
  404dac:	e9ca 0102 	strd	r0, r1, [sl, #8]
  404db0:	e7d4      	b.n	404d5c <__ieee754_rem_pio2+0x124>
  404db2:	f001 fb63 	bl	40647c <fabs>
  404db6:	a334      	add	r3, pc, #208	; (adr r3, 404e88 <__ieee754_rem_pio2+0x250>)
  404db8:	e9d3 2300 	ldrd	r2, r3, [r3]
  404dbc:	4680      	mov	r8, r0
  404dbe:	4689      	mov	r9, r1
  404dc0:	f001 fe30 	bl	406a24 <__aeabi_dmul>
  404dc4:	2200      	movs	r2, #0
  404dc6:	4b39      	ldr	r3, [pc, #228]	; (404eac <__ieee754_rem_pio2+0x274>)
  404dc8:	f001 fc7a 	bl	4066c0 <__adddf3>
  404dcc:	f002 f8da 	bl	406f84 <__aeabi_d2iz>
  404dd0:	4605      	mov	r5, r0
  404dd2:	f001 fdc1 	bl	406958 <__aeabi_i2d>
  404dd6:	a324      	add	r3, pc, #144	; (adr r3, 404e68 <__ieee754_rem_pio2+0x230>)
  404dd8:	e9d3 2300 	ldrd	r2, r3, [r3]
  404ddc:	e9cd 0104 	strd	r0, r1, [sp, #16]
  404de0:	f001 fe20 	bl	406a24 <__aeabi_dmul>
  404de4:	4602      	mov	r2, r0
  404de6:	460b      	mov	r3, r1
  404de8:	4640      	mov	r0, r8
  404dea:	4649      	mov	r1, r9
  404dec:	f001 fc66 	bl	4066bc <__aeabi_dsub>
  404df0:	a31f      	add	r3, pc, #124	; (adr r3, 404e70 <__ieee754_rem_pio2+0x238>)
  404df2:	e9d3 2300 	ldrd	r2, r3, [r3]
  404df6:	4680      	mov	r8, r0
  404df8:	4689      	mov	r9, r1
  404dfa:	e9dd 0104 	ldrd	r0, r1, [sp, #16]
  404dfe:	f001 fe11 	bl	406a24 <__aeabi_dmul>
  404e02:	2d1f      	cmp	r5, #31
  404e04:	e9cd 0102 	strd	r0, r1, [sp, #8]
  404e08:	dc54      	bgt.n	404eb4 <__ieee754_rem_pio2+0x27c>
  404e0a:	4b29      	ldr	r3, [pc, #164]	; (404eb0 <__ieee754_rem_pio2+0x278>)
  404e0c:	1e6a      	subs	r2, r5, #1
  404e0e:	f853 3022 	ldr.w	r3, [r3, r2, lsl #2]
  404e12:	429f      	cmp	r7, r3
  404e14:	d04e      	beq.n	404eb4 <__ieee754_rem_pio2+0x27c>
  404e16:	4602      	mov	r2, r0
  404e18:	460b      	mov	r3, r1
  404e1a:	4640      	mov	r0, r8
  404e1c:	4649      	mov	r1, r9
  404e1e:	f001 fc4d 	bl	4066bc <__aeabi_dsub>
  404e22:	4602      	mov	r2, r0
  404e24:	460b      	mov	r3, r1
  404e26:	e9ca 2300 	strd	r2, r3, [sl]
  404e2a:	4683      	mov	fp, r0
  404e2c:	460e      	mov	r6, r1
  404e2e:	465a      	mov	r2, fp
  404e30:	4633      	mov	r3, r6
  404e32:	4640      	mov	r0, r8
  404e34:	4649      	mov	r1, r9
  404e36:	f001 fc41 	bl	4066bc <__aeabi_dsub>
  404e3a:	e9dd 2302 	ldrd	r2, r3, [sp, #8]
  404e3e:	f001 fc3d 	bl	4066bc <__aeabi_dsub>
  404e42:	2c00      	cmp	r4, #0
  404e44:	4602      	mov	r2, r0
  404e46:	460b      	mov	r3, r1
  404e48:	e9ca 2302 	strd	r2, r3, [sl, #8]
  404e4c:	da86      	bge.n	404d5c <__ieee754_rem_pio2+0x124>
  404e4e:	465b      	mov	r3, fp
  404e50:	f106 4600 	add.w	r6, r6, #2147483648	; 0x80000000
  404e54:	f101 4100 	add.w	r1, r1, #2147483648	; 0x80000000
  404e58:	e88a 0048 	stmia.w	sl, {r3, r6}
  404e5c:	f8ca 100c 	str.w	r1, [sl, #12]
  404e60:	f8ca 0008 	str.w	r0, [sl, #8]
  404e64:	426d      	negs	r5, r5
  404e66:	e779      	b.n	404d5c <__ieee754_rem_pio2+0x124>
  404e68:	54400000 	.word	0x54400000
  404e6c:	3ff921fb 	.word	0x3ff921fb
  404e70:	1a626331 	.word	0x1a626331
  404e74:	3dd0b461 	.word	0x3dd0b461
  404e78:	1a600000 	.word	0x1a600000
  404e7c:	3dd0b461 	.word	0x3dd0b461
  404e80:	2e037073 	.word	0x2e037073
  404e84:	3ba3198a 	.word	0x3ba3198a
  404e88:	6dc9c883 	.word	0x6dc9c883
  404e8c:	3fe45f30 	.word	0x3fe45f30
  404e90:	3fe921fb 	.word	0x3fe921fb
  404e94:	4002d97b 	.word	0x4002d97b
  404e98:	3ff921fb 	.word	0x3ff921fb
  404e9c:	413921fb 	.word	0x413921fb
  404ea0:	7fefffff 	.word	0x7fefffff
  404ea4:	41700000 	.word	0x41700000
  404ea8:	00407b6c 	.word	0x00407b6c
  404eac:	3fe00000 	.word	0x3fe00000
  404eb0:	00407aec 	.word	0x00407aec
  404eb4:	e9dd 2302 	ldrd	r2, r3, [sp, #8]
  404eb8:	4640      	mov	r0, r8
  404eba:	4649      	mov	r1, r9
  404ebc:	f001 fbfe 	bl	4066bc <__aeabi_dsub>
  404ec0:	153a      	asrs	r2, r7, #20
  404ec2:	f3c1 530a 	ubfx	r3, r1, #20, #11
  404ec6:	1ad3      	subs	r3, r2, r3
  404ec8:	2b10      	cmp	r3, #16
  404eca:	4683      	mov	fp, r0
  404ecc:	460e      	mov	r6, r1
  404ece:	9209      	str	r2, [sp, #36]	; 0x24
  404ed0:	e9ca 0100 	strd	r0, r1, [sl]
  404ed4:	ddab      	ble.n	404e2e <__ieee754_rem_pio2+0x1f6>
  404ed6:	a35e      	add	r3, pc, #376	; (adr r3, 405050 <__ieee754_rem_pio2+0x418>)
  404ed8:	e9d3 2300 	ldrd	r2, r3, [r3]
  404edc:	e9dd 0104 	ldrd	r0, r1, [sp, #16]
  404ee0:	f001 fda0 	bl	406a24 <__aeabi_dmul>
  404ee4:	4606      	mov	r6, r0
  404ee6:	460f      	mov	r7, r1
  404ee8:	4602      	mov	r2, r0
  404eea:	460b      	mov	r3, r1
  404eec:	4640      	mov	r0, r8
  404eee:	4649      	mov	r1, r9
  404ef0:	f001 fbe4 	bl	4066bc <__aeabi_dsub>
  404ef4:	e9cd 0106 	strd	r0, r1, [sp, #24]
  404ef8:	4602      	mov	r2, r0
  404efa:	460b      	mov	r3, r1
  404efc:	4640      	mov	r0, r8
  404efe:	4649      	mov	r1, r9
  404f00:	f001 fbdc 	bl	4066bc <__aeabi_dsub>
  404f04:	4632      	mov	r2, r6
  404f06:	463b      	mov	r3, r7
  404f08:	f001 fbd8 	bl	4066bc <__aeabi_dsub>
  404f0c:	a352      	add	r3, pc, #328	; (adr r3, 405058 <__ieee754_rem_pio2+0x420>)
  404f0e:	e9d3 2300 	ldrd	r2, r3, [r3]
  404f12:	4606      	mov	r6, r0
  404f14:	460f      	mov	r7, r1
  404f16:	e9dd 0104 	ldrd	r0, r1, [sp, #16]
  404f1a:	f001 fd83 	bl	406a24 <__aeabi_dmul>
  404f1e:	4632      	mov	r2, r6
  404f20:	463b      	mov	r3, r7
  404f22:	f001 fbcb 	bl	4066bc <__aeabi_dsub>
  404f26:	e9dd 8906 	ldrd	r8, r9, [sp, #24]
  404f2a:	e9cd 0102 	strd	r0, r1, [sp, #8]
  404f2e:	4602      	mov	r2, r0
  404f30:	460b      	mov	r3, r1
  404f32:	4640      	mov	r0, r8
  404f34:	4649      	mov	r1, r9
  404f36:	f001 fbc1 	bl	4066bc <__aeabi_dsub>
  404f3a:	460b      	mov	r3, r1
  404f3c:	f3c1 570a 	ubfx	r7, r1, #20, #11
  404f40:	460e      	mov	r6, r1
  404f42:	9909      	ldr	r1, [sp, #36]	; 0x24
  404f44:	1bcf      	subs	r7, r1, r7
  404f46:	4602      	mov	r2, r0
  404f48:	2f31      	cmp	r7, #49	; 0x31
  404f4a:	4683      	mov	fp, r0
  404f4c:	e9ca 2300 	strd	r2, r3, [sl]
  404f50:	dd7a      	ble.n	405048 <__ieee754_rem_pio2+0x410>
  404f52:	a343      	add	r3, pc, #268	; (adr r3, 405060 <__ieee754_rem_pio2+0x428>)
  404f54:	e9d3 2300 	ldrd	r2, r3, [r3]
  404f58:	e9dd 0104 	ldrd	r0, r1, [sp, #16]
  404f5c:	f001 fd62 	bl	406a24 <__aeabi_dmul>
  404f60:	4606      	mov	r6, r0
  404f62:	460f      	mov	r7, r1
  404f64:	4602      	mov	r2, r0
  404f66:	460b      	mov	r3, r1
  404f68:	4640      	mov	r0, r8
  404f6a:	4649      	mov	r1, r9
  404f6c:	e9cd 8906 	strd	r8, r9, [sp, #24]
  404f70:	f001 fba4 	bl	4066bc <__aeabi_dsub>
  404f74:	4602      	mov	r2, r0
  404f76:	460b      	mov	r3, r1
  404f78:	4680      	mov	r8, r0
  404f7a:	4689      	mov	r9, r1
  404f7c:	e9dd 0106 	ldrd	r0, r1, [sp, #24]
  404f80:	f001 fb9c 	bl	4066bc <__aeabi_dsub>
  404f84:	4632      	mov	r2, r6
  404f86:	463b      	mov	r3, r7
  404f88:	f001 fb98 	bl	4066bc <__aeabi_dsub>
  404f8c:	a336      	add	r3, pc, #216	; (adr r3, 405068 <__ieee754_rem_pio2+0x430>)
  404f8e:	e9d3 2300 	ldrd	r2, r3, [r3]
  404f92:	4606      	mov	r6, r0
  404f94:	460f      	mov	r7, r1
  404f96:	e9dd 0104 	ldrd	r0, r1, [sp, #16]
  404f9a:	f001 fd43 	bl	406a24 <__aeabi_dmul>
  404f9e:	4632      	mov	r2, r6
  404fa0:	463b      	mov	r3, r7
  404fa2:	f001 fb8b 	bl	4066bc <__aeabi_dsub>
  404fa6:	4602      	mov	r2, r0
  404fa8:	460b      	mov	r3, r1
  404faa:	e9cd 2302 	strd	r2, r3, [sp, #8]
  404fae:	e734      	b.n	404e1a <__ieee754_rem_pio2+0x1e2>
  404fb0:	f001 fb86 	bl	4066c0 <__adddf3>
  404fb4:	4b30      	ldr	r3, [pc, #192]	; (405078 <__ieee754_rem_pio2+0x440>)
  404fb6:	429f      	cmp	r7, r3
  404fb8:	4604      	mov	r4, r0
  404fba:	460d      	mov	r5, r1
  404fbc:	d026      	beq.n	40500c <__ieee754_rem_pio2+0x3d4>
  404fbe:	a32c      	add	r3, pc, #176	; (adr r3, 405070 <__ieee754_rem_pio2+0x438>)
  404fc0:	e9d3 2300 	ldrd	r2, r3, [r3]
  404fc4:	f001 fb7c 	bl	4066c0 <__adddf3>
  404fc8:	4602      	mov	r2, r0
  404fca:	460b      	mov	r3, r1
  404fcc:	e9ca 2300 	strd	r2, r3, [sl]
  404fd0:	4629      	mov	r1, r5
  404fd2:	4620      	mov	r0, r4
  404fd4:	f001 fb72 	bl	4066bc <__aeabi_dsub>
  404fd8:	a325      	add	r3, pc, #148	; (adr r3, 405070 <__ieee754_rem_pio2+0x438>)
  404fda:	e9d3 2300 	ldrd	r2, r3, [r3]
  404fde:	f001 fb6f 	bl	4066c0 <__adddf3>
  404fe2:	f04f 35ff 	mov.w	r5, #4294967295
  404fe6:	e9ca 0102 	strd	r0, r1, [sl, #8]
  404fea:	e6b7      	b.n	404d5c <__ieee754_rem_pio2+0x124>
  404fec:	f8da 2004 	ldr.w	r2, [sl, #4]
  404ff0:	f8da 300c 	ldr.w	r3, [sl, #12]
  404ff4:	f102 4200 	add.w	r2, r2, #2147483648	; 0x80000000
  404ff8:	f103 4300 	add.w	r3, r3, #2147483648	; 0x80000000
  404ffc:	4245      	negs	r5, r0
  404ffe:	f8ca 2004 	str.w	r2, [sl, #4]
  405002:	f8ca 300c 	str.w	r3, [sl, #12]
  405006:	e6a9      	b.n	404d5c <__ieee754_rem_pio2+0x124>
  405008:	2303      	movs	r3, #3
  40500a:	e692      	b.n	404d32 <__ieee754_rem_pio2+0xfa>
  40500c:	a310      	add	r3, pc, #64	; (adr r3, 405050 <__ieee754_rem_pio2+0x418>)
  40500e:	e9d3 2300 	ldrd	r2, r3, [r3]
  405012:	f001 fb55 	bl	4066c0 <__adddf3>
  405016:	a310      	add	r3, pc, #64	; (adr r3, 405058 <__ieee754_rem_pio2+0x420>)
  405018:	e9d3 2300 	ldrd	r2, r3, [r3]
  40501c:	460d      	mov	r5, r1
  40501e:	4604      	mov	r4, r0
  405020:	f001 fb4e 	bl	4066c0 <__adddf3>
  405024:	4602      	mov	r2, r0
  405026:	460b      	mov	r3, r1
  405028:	e9ca 2300 	strd	r2, r3, [sl]
  40502c:	4629      	mov	r1, r5
  40502e:	4620      	mov	r0, r4
  405030:	f001 fb44 	bl	4066bc <__aeabi_dsub>
  405034:	a308      	add	r3, pc, #32	; (adr r3, 405058 <__ieee754_rem_pio2+0x420>)
  405036:	e9d3 2300 	ldrd	r2, r3, [r3]
  40503a:	f001 fb41 	bl	4066c0 <__adddf3>
  40503e:	f04f 35ff 	mov.w	r5, #4294967295
  405042:	e9ca 0102 	strd	r0, r1, [sl, #8]
  405046:	e689      	b.n	404d5c <__ieee754_rem_pio2+0x124>
  405048:	e9dd 8906 	ldrd	r8, r9, [sp, #24]
  40504c:	e6ef      	b.n	404e2e <__ieee754_rem_pio2+0x1f6>
  40504e:	bf00      	nop
  405050:	1a600000 	.word	0x1a600000
  405054:	3dd0b461 	.word	0x3dd0b461
  405058:	2e037073 	.word	0x2e037073
  40505c:	3ba3198a 	.word	0x3ba3198a
  405060:	2e000000 	.word	0x2e000000
  405064:	3ba3198a 	.word	0x3ba3198a
  405068:	252049c1 	.word	0x252049c1
  40506c:	397b839a 	.word	0x397b839a
  405070:	1a626331 	.word	0x1a626331
  405074:	3dd0b461 	.word	0x3dd0b461
  405078:	3ff921fb 	.word	0x3ff921fb

0040507c <__ieee754_sqrt>:
  40507c:	e92d 43f8 	stmdb	sp!, {r3, r4, r5, r6, r7, r8, r9, lr}
  405080:	4e5d      	ldr	r6, [pc, #372]	; (4051f8 <__ieee754_sqrt+0x17c>)
  405082:	46b6      	mov	lr, r6
  405084:	400e      	ands	r6, r1
  405086:	4576      	cmp	r6, lr
  405088:	460c      	mov	r4, r1
  40508a:	4605      	mov	r5, r0
  40508c:	f000 8095 	beq.w	4051ba <__ieee754_sqrt+0x13e>
  405090:	2900      	cmp	r1, #0
  405092:	460b      	mov	r3, r1
  405094:	4602      	mov	r2, r0
  405096:	dd73      	ble.n	405180 <__ieee754_sqrt+0x104>
  405098:	150f      	asrs	r7, r1, #20
  40509a:	d07e      	beq.n	40519a <__ieee754_sqrt+0x11e>
  40509c:	f2a7 37ff 	subw	r7, r7, #1023	; 0x3ff
  4050a0:	f3c3 0313 	ubfx	r3, r3, #0, #20
  4050a4:	07f8      	lsls	r0, r7, #31
  4050a6:	f443 1380 	orr.w	r3, r3, #1048576	; 0x100000
  4050aa:	d464      	bmi.n	405176 <__ieee754_sqrt+0xfa>
  4050ac:	eb03 71d2 	add.w	r1, r3, r2, lsr #31
  4050b0:	2600      	movs	r6, #0
  4050b2:	440b      	add	r3, r1
  4050b4:	107f      	asrs	r7, r7, #1
  4050b6:	0052      	lsls	r2, r2, #1
  4050b8:	46b6      	mov	lr, r6
  4050ba:	2016      	movs	r0, #22
  4050bc:	f44f 1100 	mov.w	r1, #2097152	; 0x200000
  4050c0:	eb0e 0401 	add.w	r4, lr, r1
  4050c4:	429c      	cmp	r4, r3
  4050c6:	ea4f 75d2 	mov.w	r5, r2, lsr #31
  4050ca:	ea4f 0242 	mov.w	r2, r2, lsl #1
  4050ce:	dc03      	bgt.n	4050d8 <__ieee754_sqrt+0x5c>
  4050d0:	1b1b      	subs	r3, r3, r4
  4050d2:	eb04 0e01 	add.w	lr, r4, r1
  4050d6:	440e      	add	r6, r1
  4050d8:	3801      	subs	r0, #1
  4050da:	eb05 0343 	add.w	r3, r5, r3, lsl #1
  4050de:	ea4f 0151 	mov.w	r1, r1, lsr #1
  4050e2:	d1ed      	bne.n	4050c0 <__ieee754_sqrt+0x44>
  4050e4:	4684      	mov	ip, r0
  4050e6:	2420      	movs	r4, #32
  4050e8:	f04f 4100 	mov.w	r1, #2147483648	; 0x80000000
  4050ec:	e009      	b.n	405102 <__ieee754_sqrt+0x86>
  4050ee:	d020      	beq.n	405132 <__ieee754_sqrt+0xb6>
  4050f0:	eb03 75d2 	add.w	r5, r3, r2, lsr #31
  4050f4:	3c01      	subs	r4, #1
  4050f6:	ea4f 0151 	mov.w	r1, r1, lsr #1
  4050fa:	442b      	add	r3, r5
  4050fc:	ea4f 0242 	mov.w	r2, r2, lsl #1
  405100:	d020      	beq.n	405144 <__ieee754_sqrt+0xc8>
  405102:	459e      	cmp	lr, r3
  405104:	eb01 050c 	add.w	r5, r1, ip
  405108:	daf1      	bge.n	4050ee <__ieee754_sqrt+0x72>
  40510a:	2d00      	cmp	r5, #0
  40510c:	eb05 0c01 	add.w	ip, r5, r1
  405110:	db09      	blt.n	405126 <__ieee754_sqrt+0xaa>
  405112:	46f0      	mov	r8, lr
  405114:	4295      	cmp	r5, r2
  405116:	ebce 0303 	rsb	r3, lr, r3
  40511a:	d900      	bls.n	40511e <__ieee754_sqrt+0xa2>
  40511c:	3b01      	subs	r3, #1
  40511e:	1b52      	subs	r2, r2, r5
  405120:	4408      	add	r0, r1
  405122:	46c6      	mov	lr, r8
  405124:	e7e4      	b.n	4050f0 <__ieee754_sqrt+0x74>
  405126:	f1bc 0f00 	cmp.w	ip, #0
  40512a:	dbf2      	blt.n	405112 <__ieee754_sqrt+0x96>
  40512c:	f10e 0801 	add.w	r8, lr, #1
  405130:	e7f0      	b.n	405114 <__ieee754_sqrt+0x98>
  405132:	4295      	cmp	r5, r2
  405134:	d817      	bhi.n	405166 <__ieee754_sqrt+0xea>
  405136:	2d00      	cmp	r5, #0
  405138:	eb05 0c01 	add.w	ip, r5, r1
  40513c:	db47      	blt.n	4051ce <__ieee754_sqrt+0x152>
  40513e:	4698      	mov	r8, r3
  405140:	2300      	movs	r3, #0
  405142:	e7ec      	b.n	40511e <__ieee754_sqrt+0xa2>
  405144:	4313      	orrs	r3, r2
  405146:	d110      	bne.n	40516a <__ieee754_sqrt+0xee>
  405148:	0840      	lsrs	r0, r0, #1
  40514a:	1073      	asrs	r3, r6, #1
  40514c:	f103 537f 	add.w	r3, r3, #1069547520	; 0x3fc00000
  405150:	f503 1300 	add.w	r3, r3, #2097152	; 0x200000
  405154:	07f2      	lsls	r2, r6, #31
  405156:	eb03 5907 	add.w	r9, r3, r7, lsl #20
  40515a:	bf48      	it	mi
  40515c:	f040 4000 	orrmi.w	r0, r0, #2147483648	; 0x80000000
  405160:	4649      	mov	r1, r9
  405162:	e8bd 83f8 	ldmia.w	sp!, {r3, r4, r5, r6, r7, r8, r9, pc}
  405166:	4673      	mov	r3, lr
  405168:	e7c2      	b.n	4050f0 <__ieee754_sqrt+0x74>
  40516a:	1c41      	adds	r1, r0, #1
  40516c:	d033      	beq.n	4051d6 <__ieee754_sqrt+0x15a>
  40516e:	f000 0301 	and.w	r3, r0, #1
  405172:	4418      	add	r0, r3
  405174:	e7e8      	b.n	405148 <__ieee754_sqrt+0xcc>
  405176:	005b      	lsls	r3, r3, #1
  405178:	eb03 73d2 	add.w	r3, r3, r2, lsr #31
  40517c:	0052      	lsls	r2, r2, #1
  40517e:	e795      	b.n	4050ac <__ieee754_sqrt+0x30>
  405180:	f021 4600 	bic.w	r6, r1, #2147483648	; 0x80000000
  405184:	4306      	orrs	r6, r0
  405186:	d0ec      	beq.n	405162 <__ieee754_sqrt+0xe6>
  405188:	bb69      	cbnz	r1, 4051e6 <__ieee754_sqrt+0x16a>
  40518a:	460f      	mov	r7, r1
  40518c:	0ad3      	lsrs	r3, r2, #11
  40518e:	3f15      	subs	r7, #21
  405190:	0552      	lsls	r2, r2, #21
  405192:	2b00      	cmp	r3, #0
  405194:	d0fa      	beq.n	40518c <__ieee754_sqrt+0x110>
  405196:	02dd      	lsls	r5, r3, #11
  405198:	d420      	bmi.n	4051dc <__ieee754_sqrt+0x160>
  40519a:	2100      	movs	r1, #0
  40519c:	e000      	b.n	4051a0 <__ieee754_sqrt+0x124>
  40519e:	4601      	mov	r1, r0
  4051a0:	005b      	lsls	r3, r3, #1
  4051a2:	02dc      	lsls	r4, r3, #11
  4051a4:	f101 0001 	add.w	r0, r1, #1
  4051a8:	d5f9      	bpl.n	40519e <__ieee754_sqrt+0x122>
  4051aa:	f1c0 0420 	rsb	r4, r0, #32
  4051ae:	fa22 f404 	lsr.w	r4, r2, r4
  4051b2:	4323      	orrs	r3, r4
  4051b4:	1a7f      	subs	r7, r7, r1
  4051b6:	4082      	lsls	r2, r0
  4051b8:	e770      	b.n	40509c <__ieee754_sqrt+0x20>
  4051ba:	4602      	mov	r2, r0
  4051bc:	460b      	mov	r3, r1
  4051be:	f001 fc31 	bl	406a24 <__aeabi_dmul>
  4051c2:	462a      	mov	r2, r5
  4051c4:	4623      	mov	r3, r4
  4051c6:	f001 fa7b 	bl	4066c0 <__adddf3>
  4051ca:	e8bd 83f8 	ldmia.w	sp!, {r3, r4, r5, r6, r7, r8, r9, pc}
  4051ce:	f1bc 0f00 	cmp.w	ip, #0
  4051d2:	daab      	bge.n	40512c <__ieee754_sqrt+0xb0>
  4051d4:	e7b3      	b.n	40513e <__ieee754_sqrt+0xc2>
  4051d6:	3601      	adds	r6, #1
  4051d8:	4620      	mov	r0, r4
  4051da:	e7b6      	b.n	40514a <__ieee754_sqrt+0xce>
  4051dc:	2420      	movs	r4, #32
  4051de:	f04f 31ff 	mov.w	r1, #4294967295
  4051e2:	2000      	movs	r0, #0
  4051e4:	e7e3      	b.n	4051ae <__ieee754_sqrt+0x132>
  4051e6:	4602      	mov	r2, r0
  4051e8:	460b      	mov	r3, r1
  4051ea:	f001 fa67 	bl	4066bc <__aeabi_dsub>
  4051ee:	4602      	mov	r2, r0
  4051f0:	460b      	mov	r3, r1
  4051f2:	f001 fd41 	bl	406c78 <__aeabi_ddiv>
  4051f6:	e7b4      	b.n	405162 <__ieee754_sqrt+0xe6>
  4051f8:	7ff00000 	.word	0x7ff00000
  4051fc:	00000000 	.word	0x00000000

00405200 <__kernel_cos>:
  405200:	e92d 4ff0 	stmdb	sp!, {r4, r5, r6, r7, r8, r9, sl, fp, lr}
  405204:	f021 4600 	bic.w	r6, r1, #2147483648	; 0x80000000
  405208:	f1b6 5f79 	cmp.w	r6, #1044381696	; 0x3e400000
  40520c:	b085      	sub	sp, #20
  40520e:	460c      	mov	r4, r1
  405210:	4692      	mov	sl, r2
  405212:	469b      	mov	fp, r3
  405214:	4605      	mov	r5, r0
  405216:	da6b      	bge.n	4052f0 <__kernel_cos+0xf0>
  405218:	f001 feb4 	bl	406f84 <__aeabi_d2iz>
  40521c:	2800      	cmp	r0, #0
  40521e:	f000 80e8 	beq.w	4053f2 <__kernel_cos+0x1f2>
  405222:	462a      	mov	r2, r5
  405224:	4623      	mov	r3, r4
  405226:	4628      	mov	r0, r5
  405228:	4621      	mov	r1, r4
  40522a:	f001 fbfb 	bl	406a24 <__aeabi_dmul>
  40522e:	a374      	add	r3, pc, #464	; (adr r3, 405400 <__kernel_cos+0x200>)
  405230:	e9d3 2300 	ldrd	r2, r3, [r3]
  405234:	4680      	mov	r8, r0
  405236:	4689      	mov	r9, r1
  405238:	f001 fbf4 	bl	406a24 <__aeabi_dmul>
  40523c:	a372      	add	r3, pc, #456	; (adr r3, 405408 <__kernel_cos+0x208>)
  40523e:	e9d3 2300 	ldrd	r2, r3, [r3]
  405242:	f001 fa3d 	bl	4066c0 <__adddf3>
  405246:	4642      	mov	r2, r8
  405248:	464b      	mov	r3, r9
  40524a:	f001 fbeb 	bl	406a24 <__aeabi_dmul>
  40524e:	a370      	add	r3, pc, #448	; (adr r3, 405410 <__kernel_cos+0x210>)
  405250:	e9d3 2300 	ldrd	r2, r3, [r3]
  405254:	f001 fa32 	bl	4066bc <__aeabi_dsub>
  405258:	4642      	mov	r2, r8
  40525a:	464b      	mov	r3, r9
  40525c:	f001 fbe2 	bl	406a24 <__aeabi_dmul>
  405260:	a36d      	add	r3, pc, #436	; (adr r3, 405418 <__kernel_cos+0x218>)
  405262:	e9d3 2300 	ldrd	r2, r3, [r3]
  405266:	f001 fa2b 	bl	4066c0 <__adddf3>
  40526a:	4642      	mov	r2, r8
  40526c:	464b      	mov	r3, r9
  40526e:	f001 fbd9 	bl	406a24 <__aeabi_dmul>
  405272:	a36b      	add	r3, pc, #428	; (adr r3, 405420 <__kernel_cos+0x220>)
  405274:	e9d3 2300 	ldrd	r2, r3, [r3]
  405278:	f001 fa20 	bl	4066bc <__aeabi_dsub>
  40527c:	4642      	mov	r2, r8
  40527e:	464b      	mov	r3, r9
  405280:	f001 fbd0 	bl	406a24 <__aeabi_dmul>
  405284:	a368      	add	r3, pc, #416	; (adr r3, 405428 <__kernel_cos+0x228>)
  405286:	e9d3 2300 	ldrd	r2, r3, [r3]
  40528a:	f001 fa19 	bl	4066c0 <__adddf3>
  40528e:	4642      	mov	r2, r8
  405290:	464b      	mov	r3, r9
  405292:	f001 fbc7 	bl	406a24 <__aeabi_dmul>
  405296:	e9cd 0100 	strd	r0, r1, [sp]
  40529a:	2200      	movs	r2, #0
  40529c:	4b64      	ldr	r3, [pc, #400]	; (405430 <__kernel_cos+0x230>)
  40529e:	4640      	mov	r0, r8
  4052a0:	4649      	mov	r1, r9
  4052a2:	f001 fbbf 	bl	406a24 <__aeabi_dmul>
  4052a6:	e9dd 2300 	ldrd	r2, r3, [sp]
  4052aa:	4606      	mov	r6, r0
  4052ac:	460f      	mov	r7, r1
  4052ae:	4640      	mov	r0, r8
  4052b0:	4649      	mov	r1, r9
  4052b2:	f001 fbb7 	bl	406a24 <__aeabi_dmul>
  4052b6:	4652      	mov	r2, sl
  4052b8:	4680      	mov	r8, r0
  4052ba:	4689      	mov	r9, r1
  4052bc:	465b      	mov	r3, fp
  4052be:	4628      	mov	r0, r5
  4052c0:	4621      	mov	r1, r4
  4052c2:	f001 fbaf 	bl	406a24 <__aeabi_dmul>
  4052c6:	4602      	mov	r2, r0
  4052c8:	460b      	mov	r3, r1
  4052ca:	4640      	mov	r0, r8
  4052cc:	4649      	mov	r1, r9
  4052ce:	f001 f9f5 	bl	4066bc <__aeabi_dsub>
  4052d2:	4602      	mov	r2, r0
  4052d4:	460b      	mov	r3, r1
  4052d6:	4630      	mov	r0, r6
  4052d8:	4639      	mov	r1, r7
  4052da:	f001 f9ef 	bl	4066bc <__aeabi_dsub>
  4052de:	4602      	mov	r2, r0
  4052e0:	460b      	mov	r3, r1
  4052e2:	2000      	movs	r0, #0
  4052e4:	4953      	ldr	r1, [pc, #332]	; (405434 <__kernel_cos+0x234>)
  4052e6:	f001 f9e9 	bl	4066bc <__aeabi_dsub>
  4052ea:	b005      	add	sp, #20
  4052ec:	e8bd 8ff0 	ldmia.w	sp!, {r4, r5, r6, r7, r8, r9, sl, fp, pc}
  4052f0:	4602      	mov	r2, r0
  4052f2:	460b      	mov	r3, r1
  4052f4:	f001 fb96 	bl	406a24 <__aeabi_dmul>
  4052f8:	a341      	add	r3, pc, #260	; (adr r3, 405400 <__kernel_cos+0x200>)
  4052fa:	e9d3 2300 	ldrd	r2, r3, [r3]
  4052fe:	4680      	mov	r8, r0
  405300:	4689      	mov	r9, r1
  405302:	f001 fb8f 	bl	406a24 <__aeabi_dmul>
  405306:	a340      	add	r3, pc, #256	; (adr r3, 405408 <__kernel_cos+0x208>)
  405308:	e9d3 2300 	ldrd	r2, r3, [r3]
  40530c:	f001 f9d8 	bl	4066c0 <__adddf3>
  405310:	4642      	mov	r2, r8
  405312:	464b      	mov	r3, r9
  405314:	f001 fb86 	bl	406a24 <__aeabi_dmul>
  405318:	a33d      	add	r3, pc, #244	; (adr r3, 405410 <__kernel_cos+0x210>)
  40531a:	e9d3 2300 	ldrd	r2, r3, [r3]
  40531e:	f001 f9cd 	bl	4066bc <__aeabi_dsub>
  405322:	4642      	mov	r2, r8
  405324:	464b      	mov	r3, r9
  405326:	f001 fb7d 	bl	406a24 <__aeabi_dmul>
  40532a:	a33b      	add	r3, pc, #236	; (adr r3, 405418 <__kernel_cos+0x218>)
  40532c:	e9d3 2300 	ldrd	r2, r3, [r3]
  405330:	f001 f9c6 	bl	4066c0 <__adddf3>
  405334:	4642      	mov	r2, r8
  405336:	464b      	mov	r3, r9
  405338:	f001 fb74 	bl	406a24 <__aeabi_dmul>
  40533c:	a338      	add	r3, pc, #224	; (adr r3, 405420 <__kernel_cos+0x220>)
  40533e:	e9d3 2300 	ldrd	r2, r3, [r3]
  405342:	f001 f9bb 	bl	4066bc <__aeabi_dsub>
  405346:	4642      	mov	r2, r8
  405348:	464b      	mov	r3, r9
  40534a:	f001 fb6b 	bl	406a24 <__aeabi_dmul>
  40534e:	a336      	add	r3, pc, #216	; (adr r3, 405428 <__kernel_cos+0x228>)
  405350:	e9d3 2300 	ldrd	r2, r3, [r3]
  405354:	f001 f9b4 	bl	4066c0 <__adddf3>
  405358:	464b      	mov	r3, r9
  40535a:	4642      	mov	r2, r8
  40535c:	f001 fb62 	bl	406a24 <__aeabi_dmul>
  405360:	4b35      	ldr	r3, [pc, #212]	; (405438 <__kernel_cos+0x238>)
  405362:	429e      	cmp	r6, r3
  405364:	e9cd 0100 	strd	r0, r1, [sp]
  405368:	dd97      	ble.n	40529a <__kernel_cos+0x9a>
  40536a:	4b34      	ldr	r3, [pc, #208]	; (40543c <__kernel_cos+0x23c>)
  40536c:	429e      	cmp	r6, r3
  40536e:	f04f 0200 	mov.w	r2, #0
  405372:	dc38      	bgt.n	4053e6 <__kernel_cos+0x1e6>
  405374:	f5a6 1300 	sub.w	r3, r6, #2097152	; 0x200000
  405378:	2000      	movs	r0, #0
  40537a:	492e      	ldr	r1, [pc, #184]	; (405434 <__kernel_cos+0x234>)
  40537c:	4616      	mov	r6, r2
  40537e:	461f      	mov	r7, r3
  405380:	f001 f99c 	bl	4066bc <__aeabi_dsub>
  405384:	e9cd 0102 	strd	r0, r1, [sp, #8]
  405388:	2200      	movs	r2, #0
  40538a:	4b29      	ldr	r3, [pc, #164]	; (405430 <__kernel_cos+0x230>)
  40538c:	4640      	mov	r0, r8
  40538e:	4649      	mov	r1, r9
  405390:	f001 fb48 	bl	406a24 <__aeabi_dmul>
  405394:	4632      	mov	r2, r6
  405396:	463b      	mov	r3, r7
  405398:	f001 f990 	bl	4066bc <__aeabi_dsub>
  40539c:	e9dd 2300 	ldrd	r2, r3, [sp]
  4053a0:	4606      	mov	r6, r0
  4053a2:	460f      	mov	r7, r1
  4053a4:	4640      	mov	r0, r8
  4053a6:	4649      	mov	r1, r9
  4053a8:	f001 fb3c 	bl	406a24 <__aeabi_dmul>
  4053ac:	4652      	mov	r2, sl
  4053ae:	4680      	mov	r8, r0
  4053b0:	4689      	mov	r9, r1
  4053b2:	465b      	mov	r3, fp
  4053b4:	4628      	mov	r0, r5
  4053b6:	4621      	mov	r1, r4
  4053b8:	f001 fb34 	bl	406a24 <__aeabi_dmul>
  4053bc:	4602      	mov	r2, r0
  4053be:	460b      	mov	r3, r1
  4053c0:	4640      	mov	r0, r8
  4053c2:	4649      	mov	r1, r9
  4053c4:	f001 f97a 	bl	4066bc <__aeabi_dsub>
  4053c8:	4602      	mov	r2, r0
  4053ca:	460b      	mov	r3, r1
  4053cc:	4630      	mov	r0, r6
  4053ce:	4639      	mov	r1, r7
  4053d0:	f001 f974 	bl	4066bc <__aeabi_dsub>
  4053d4:	4602      	mov	r2, r0
  4053d6:	460b      	mov	r3, r1
  4053d8:	e9dd 0102 	ldrd	r0, r1, [sp, #8]
  4053dc:	f001 f96e 	bl	4066bc <__aeabi_dsub>
  4053e0:	b005      	add	sp, #20
  4053e2:	e8bd 8ff0 	ldmia.w	sp!, {r4, r5, r6, r7, r8, r9, sl, fp, pc}
  4053e6:	4b16      	ldr	r3, [pc, #88]	; (405440 <__kernel_cos+0x240>)
  4053e8:	4f16      	ldr	r7, [pc, #88]	; (405444 <__kernel_cos+0x244>)
  4053ea:	e9cd 2302 	strd	r2, r3, [sp, #8]
  4053ee:	2600      	movs	r6, #0
  4053f0:	e7ca      	b.n	405388 <__kernel_cos+0x188>
  4053f2:	4910      	ldr	r1, [pc, #64]	; (405434 <__kernel_cos+0x234>)
  4053f4:	2000      	movs	r0, #0
  4053f6:	b005      	add	sp, #20
  4053f8:	e8bd 8ff0 	ldmia.w	sp!, {r4, r5, r6, r7, r8, r9, sl, fp, pc}
  4053fc:	f3af 8000 	nop.w
  405400:	be8838d4 	.word	0xbe8838d4
  405404:	bda8fae9 	.word	0xbda8fae9
  405408:	bdb4b1c4 	.word	0xbdb4b1c4
  40540c:	3e21ee9e 	.word	0x3e21ee9e
  405410:	809c52ad 	.word	0x809c52ad
  405414:	3e927e4f 	.word	0x3e927e4f
  405418:	19cb1590 	.word	0x19cb1590
  40541c:	3efa01a0 	.word	0x3efa01a0
  405420:	16c15177 	.word	0x16c15177
  405424:	3f56c16c 	.word	0x3f56c16c
  405428:	5555554c 	.word	0x5555554c
  40542c:	3fa55555 	.word	0x3fa55555
  405430:	3fe00000 	.word	0x3fe00000
  405434:	3ff00000 	.word	0x3ff00000
  405438:	3fd33332 	.word	0x3fd33332
  40543c:	3fe90000 	.word	0x3fe90000
  405440:	3fe70000 	.word	0x3fe70000
  405444:	3fd20000 	.word	0x3fd20000

00405448 <__kernel_rem_pio2>:
  405448:	e92d 4ff0 	stmdb	sp!, {r4, r5, r6, r7, r8, r9, sl, fp, lr}
  40544c:	f5ad 7d1d 	sub.w	sp, sp, #628	; 0x274
  405450:	4c79      	ldr	r4, [pc, #484]	; (405638 <__kernel_rem_pio2+0x1f0>)
  405452:	9ea6      	ldr	r6, [sp, #664]	; 0x298
  405454:	4d79      	ldr	r5, [pc, #484]	; (40563c <__kernel_rem_pio2+0x1f4>)
  405456:	f854 4026 	ldr.w	r4, [r4, r6, lsl #2]
  40545a:	9409      	str	r4, [sp, #36]	; 0x24
  40545c:	4626      	mov	r6, r4
  40545e:	1ed4      	subs	r4, r2, #3
  405460:	fb85 7504 	smull	r7, r5, r5, r4
  405464:	17e4      	asrs	r4, r4, #31
  405466:	ebc4 04a5 	rsb	r4, r4, r5, asr #2
  40546a:	ea24 74e4 	bic.w	r4, r4, r4, asr #31
  40546e:	461d      	mov	r5, r3
  405470:	930c      	str	r3, [sp, #48]	; 0x30
  405472:	1c63      	adds	r3, r4, #1
  405474:	eba3 0383 	sub.w	r3, r3, r3, lsl #2
  405478:	3d01      	subs	r5, #1
  40547a:	eb02 03c3 	add.w	r3, r2, r3, lsl #3
  40547e:	9308      	str	r3, [sp, #32]
  405480:	462b      	mov	r3, r5
  405482:	940d      	str	r4, [sp, #52]	; 0x34
  405484:	9502      	str	r5, [sp, #8]
  405486:	1b65      	subs	r5, r4, r5
  405488:	18f4      	adds	r4, r6, r3
  40548a:	9004      	str	r0, [sp, #16]
  40548c:	910a      	str	r1, [sp, #40]	; 0x28
  40548e:	d416      	bmi.n	4054be <__kernel_rem_pio2+0x76>
  405490:	442c      	add	r4, r5
  405492:	3401      	adds	r4, #1
  405494:	ae22      	add	r6, sp, #136	; 0x88
  405496:	9fa7      	ldr	r7, [sp, #668]	; 0x29c
  405498:	e008      	b.n	4054ac <__kernel_rem_pio2+0x64>
  40549a:	f857 0025 	ldr.w	r0, [r7, r5, lsl #2]
  40549e:	f001 fa5b 	bl	406958 <__aeabi_i2d>
  4054a2:	3501      	adds	r5, #1
  4054a4:	42a5      	cmp	r5, r4
  4054a6:	e9e6 0102 	strd	r0, r1, [r6, #8]!
  4054aa:	d008      	beq.n	4054be <__kernel_rem_pio2+0x76>
  4054ac:	2d00      	cmp	r5, #0
  4054ae:	daf4      	bge.n	40549a <__kernel_rem_pio2+0x52>
  4054b0:	3501      	adds	r5, #1
  4054b2:	2000      	movs	r0, #0
  4054b4:	2100      	movs	r1, #0
  4054b6:	42a5      	cmp	r5, r4
  4054b8:	e9e6 0102 	strd	r0, r1, [r6, #8]!
  4054bc:	d1f6      	bne.n	4054ac <__kernel_rem_pio2+0x64>
  4054be:	9b09      	ldr	r3, [sp, #36]	; 0x24
  4054c0:	2b00      	cmp	r3, #0
  4054c2:	db31      	blt.n	405528 <__kernel_rem_pio2+0xe0>
  4054c4:	9a09      	ldr	r2, [sp, #36]	; 0x24
  4054c6:	9b0c      	ldr	r3, [sp, #48]	; 0x30
  4054c8:	a974      	add	r1, sp, #464	; 0x1d0
  4054ca:	eb01 0bc2 	add.w	fp, r1, r2, lsl #3
  4054ce:	ebc3 7343 	rsb	r3, r3, r3, lsl #29
  4054d2:	9a02      	ldr	r2, [sp, #8]
  4054d4:	a924      	add	r1, sp, #144	; 0x90
  4054d6:	00db      	lsls	r3, r3, #3
  4054d8:	eb01 09c2 	add.w	r9, r1, r2, lsl #3
  4054dc:	9301      	str	r3, [sp, #4]
  4054de:	f50d 7ae4 	add.w	sl, sp, #456	; 0x1c8
  4054e2:	9b02      	ldr	r3, [sp, #8]
  4054e4:	2b00      	cmp	r3, #0
  4054e6:	f2c0 8190 	blt.w	40580a <__kernel_rem_pio2+0x3c2>
  4054ea:	9b04      	ldr	r3, [sp, #16]
  4054ec:	f1a3 0508 	sub.w	r5, r3, #8
  4054f0:	9b01      	ldr	r3, [sp, #4]
  4054f2:	464c      	mov	r4, r9
  4054f4:	eb09 0803 	add.w	r8, r9, r3
  4054f8:	2600      	movs	r6, #0
  4054fa:	2700      	movs	r7, #0
  4054fc:	e9f5 2302 	ldrd	r2, r3, [r5, #8]!
  405500:	e874 0102 	ldrd	r0, r1, [r4], #-8
  405504:	f001 fa8e 	bl	406a24 <__aeabi_dmul>
  405508:	4602      	mov	r2, r0
  40550a:	460b      	mov	r3, r1
  40550c:	4630      	mov	r0, r6
  40550e:	4639      	mov	r1, r7
  405510:	f001 f8d6 	bl	4066c0 <__adddf3>
  405514:	4544      	cmp	r4, r8
  405516:	4606      	mov	r6, r0
  405518:	460f      	mov	r7, r1
  40551a:	d1ef      	bne.n	4054fc <__kernel_rem_pio2+0xb4>
  40551c:	e9ea 6702 	strd	r6, r7, [sl, #8]!
  405520:	45da      	cmp	sl, fp
  405522:	f109 0908 	add.w	r9, r9, #8
  405526:	d1dc      	bne.n	4054e2 <__kernel_rem_pio2+0x9a>
  405528:	9d09      	ldr	r5, [sp, #36]	; 0x24
  40552a:	f105 4380 	add.w	r3, r5, #1073741824	; 0x40000000
  40552e:	3b02      	subs	r3, #2
  405530:	009b      	lsls	r3, r3, #2
  405532:	1d1a      	adds	r2, r3, #4
  405534:	a910      	add	r1, sp, #64	; 0x40
  405536:	440a      	add	r2, r1
  405538:	440b      	add	r3, r1
  40553a:	920f      	str	r2, [sp, #60]	; 0x3c
  40553c:	930e      	str	r3, [sp, #56]	; 0x38
  40553e:	ab9c      	add	r3, sp, #624	; 0x270
  405540:	eb03 03c5 	add.w	r3, r3, r5, lsl #3
  405544:	2d00      	cmp	r5, #0
  405546:	e953 6728 	ldrd	r6, r7, [r3, #-160]	; 0xa0
  40554a:	dd2b      	ble.n	4055a4 <__kernel_rem_pio2+0x15c>
  40554c:	ab9c      	add	r3, sp, #624	; 0x270
  40554e:	eb03 04c5 	add.w	r4, r3, r5, lsl #3
  405552:	3ca8      	subs	r4, #168	; 0xa8
  405554:	f10d 0a3c 	add.w	sl, sp, #60	; 0x3c
  405558:	f50d 7be4 	add.w	fp, sp, #456	; 0x1c8
  40555c:	2200      	movs	r2, #0
  40555e:	4b38      	ldr	r3, [pc, #224]	; (405640 <__kernel_rem_pio2+0x1f8>)
  405560:	4630      	mov	r0, r6
  405562:	4639      	mov	r1, r7
  405564:	f001 fa5e 	bl	406a24 <__aeabi_dmul>
  405568:	f001 fd0c 	bl	406f84 <__aeabi_d2iz>
  40556c:	f001 f9f4 	bl	406958 <__aeabi_i2d>
  405570:	2200      	movs	r2, #0
  405572:	4b34      	ldr	r3, [pc, #208]	; (405644 <__kernel_rem_pio2+0x1fc>)
  405574:	4680      	mov	r8, r0
  405576:	4689      	mov	r9, r1
  405578:	f001 fa54 	bl	406a24 <__aeabi_dmul>
  40557c:	4602      	mov	r2, r0
  40557e:	460b      	mov	r3, r1
  405580:	4630      	mov	r0, r6
  405582:	4639      	mov	r1, r7
  405584:	f001 f89a 	bl	4066bc <__aeabi_dsub>
  405588:	f001 fcfc 	bl	406f84 <__aeabi_d2iz>
  40558c:	e874 2302 	ldrd	r2, r3, [r4], #-8
  405590:	f84a 0f04 	str.w	r0, [sl, #4]!
  405594:	4649      	mov	r1, r9
  405596:	4640      	mov	r0, r8
  405598:	f001 f892 	bl	4066c0 <__adddf3>
  40559c:	455c      	cmp	r4, fp
  40559e:	4606      	mov	r6, r0
  4055a0:	460f      	mov	r7, r1
  4055a2:	d1db      	bne.n	40555c <__kernel_rem_pio2+0x114>
  4055a4:	9c08      	ldr	r4, [sp, #32]
  4055a6:	4630      	mov	r0, r6
  4055a8:	4639      	mov	r1, r7
  4055aa:	4622      	mov	r2, r4
  4055ac:	f000 fffc 	bl	4065a8 <scalbn>
  4055b0:	2200      	movs	r2, #0
  4055b2:	f04f 537f 	mov.w	r3, #1069547520	; 0x3fc00000
  4055b6:	4606      	mov	r6, r0
  4055b8:	460f      	mov	r7, r1
  4055ba:	f001 fa33 	bl	406a24 <__aeabi_dmul>
  4055be:	f000 ff63 	bl	406488 <floor>
  4055c2:	2200      	movs	r2, #0
  4055c4:	4b20      	ldr	r3, [pc, #128]	; (405648 <__kernel_rem_pio2+0x200>)
  4055c6:	f001 fa2d 	bl	406a24 <__aeabi_dmul>
  4055ca:	4602      	mov	r2, r0
  4055cc:	460b      	mov	r3, r1
  4055ce:	4630      	mov	r0, r6
  4055d0:	4639      	mov	r1, r7
  4055d2:	f001 f873 	bl	4066bc <__aeabi_dsub>
  4055d6:	460f      	mov	r7, r1
  4055d8:	4606      	mov	r6, r0
  4055da:	f001 fcd3 	bl	406f84 <__aeabi_d2iz>
  4055de:	4681      	mov	r9, r0
  4055e0:	f001 f9ba 	bl	406958 <__aeabi_i2d>
  4055e4:	4602      	mov	r2, r0
  4055e6:	460b      	mov	r3, r1
  4055e8:	4630      	mov	r0, r6
  4055ea:	4639      	mov	r1, r7
  4055ec:	f001 f866 	bl	4066bc <__aeabi_dsub>
  4055f0:	2c00      	cmp	r4, #0
  4055f2:	4606      	mov	r6, r0
  4055f4:	460f      	mov	r7, r1
  4055f6:	f340 80ef 	ble.w	4057d8 <__kernel_rem_pio2+0x390>
  4055fa:	1e69      	subs	r1, r5, #1
  4055fc:	aa10      	add	r2, sp, #64	; 0x40
  4055fe:	f1c4 0318 	rsb	r3, r4, #24
  405602:	f852 2021 	ldr.w	r2, [r2, r1, lsl #2]
  405606:	fa42 f003 	asr.w	r0, r2, r3
  40560a:	fa00 f303 	lsl.w	r3, r0, r3
  40560e:	1ad3      	subs	r3, r2, r3
  405610:	aa10      	add	r2, sp, #64	; 0x40
  405612:	f1c4 0817 	rsb	r8, r4, #23
  405616:	f842 3021 	str.w	r3, [r2, r1, lsl #2]
  40561a:	4481      	add	r9, r0
  40561c:	fa43 f808 	asr.w	r8, r3, r8
  405620:	f1b8 0f00 	cmp.w	r8, #0
  405624:	dd3d      	ble.n	4056a2 <__kernel_rem_pio2+0x25a>
  405626:	2d00      	cmp	r5, #0
  405628:	f109 0901 	add.w	r9, r9, #1
  40562c:	f340 82d6 	ble.w	405bdc <__kernel_rem_pio2+0x794>
  405630:	2200      	movs	r2, #0
  405632:	4614      	mov	r4, r2
  405634:	a90f      	add	r1, sp, #60	; 0x3c
  405636:	e011      	b.n	40565c <__kernel_rem_pio2+0x214>
  405638:	00407c74 	.word	0x00407c74
  40563c:	2aaaaaab 	.word	0x2aaaaaab
  405640:	3e700000 	.word	0x3e700000
  405644:	41700000 	.word	0x41700000
  405648:	40200000 	.word	0x40200000
  40564c:	f1c3 7080 	rsb	r0, r3, #16777216	; 0x1000000
  405650:	b10b      	cbz	r3, 405656 <__kernel_rem_pio2+0x20e>
  405652:	6008      	str	r0, [r1, #0]
  405654:	2401      	movs	r4, #1
  405656:	3201      	adds	r2, #1
  405658:	4295      	cmp	r5, r2
  40565a:	dd0d      	ble.n	405678 <__kernel_rem_pio2+0x230>
  40565c:	f851 3f04 	ldr.w	r3, [r1, #4]!
  405660:	2c00      	cmp	r4, #0
  405662:	d0f3      	beq.n	40564c <__kernel_rem_pio2+0x204>
  405664:	f1c3 13ff 	rsb	r3, r3, #16711935	; 0xff00ff
  405668:	3201      	adds	r2, #1
  40566a:	f503 437f 	add.w	r3, r3, #65280	; 0xff00
  40566e:	4295      	cmp	r5, r2
  405670:	600b      	str	r3, [r1, #0]
  405672:	f04f 0401 	mov.w	r4, #1
  405676:	dcf1      	bgt.n	40565c <__kernel_rem_pio2+0x214>
  405678:	9b08      	ldr	r3, [sp, #32]
  40567a:	2b00      	cmp	r3, #0
  40567c:	dd0d      	ble.n	40569a <__kernel_rem_pio2+0x252>
  40567e:	2b01      	cmp	r3, #1
  405680:	f000 80b2 	beq.w	4057e8 <__kernel_rem_pio2+0x3a0>
  405684:	2b02      	cmp	r3, #2
  405686:	d108      	bne.n	40569a <__kernel_rem_pio2+0x252>
  405688:	1e6a      	subs	r2, r5, #1
  40568a:	ab10      	add	r3, sp, #64	; 0x40
  40568c:	a910      	add	r1, sp, #64	; 0x40
  40568e:	f853 3022 	ldr.w	r3, [r3, r2, lsl #2]
  405692:	f3c3 0315 	ubfx	r3, r3, #0, #22
  405696:	f841 3022 	str.w	r3, [r1, r2, lsl #2]
  40569a:	f1b8 0f02 	cmp.w	r8, #2
  40569e:	f000 8082 	beq.w	4057a6 <__kernel_rem_pio2+0x35e>
  4056a2:	2200      	movs	r2, #0
  4056a4:	2300      	movs	r3, #0
  4056a6:	4630      	mov	r0, r6
  4056a8:	4639      	mov	r1, r7
  4056aa:	f001 fc23 	bl	406ef4 <__aeabi_dcmpeq>
  4056ae:	2800      	cmp	r0, #0
  4056b0:	f000 825e 	beq.w	405b70 <__kernel_rem_pio2+0x728>
  4056b4:	9b09      	ldr	r3, [sp, #36]	; 0x24
  4056b6:	f105 3bff 	add.w	fp, r5, #4294967295
  4056ba:	455b      	cmp	r3, fp
  4056bc:	dc10      	bgt.n	4056e0 <__kernel_rem_pio2+0x298>
  4056be:	f105 4380 	add.w	r3, r5, #1073741824	; 0x40000000
  4056c2:	aa10      	add	r2, sp, #64	; 0x40
  4056c4:	3b01      	subs	r3, #1
  4056c6:	980f      	ldr	r0, [sp, #60]	; 0x3c
  4056c8:	eb02 0383 	add.w	r3, r2, r3, lsl #2
  4056cc:	2200      	movs	r2, #0
  4056ce:	f853 1904 	ldr.w	r1, [r3], #-4
  4056d2:	4283      	cmp	r3, r0
  4056d4:	ea42 0201 	orr.w	r2, r2, r1
  4056d8:	d1f9      	bne.n	4056ce <__kernel_rem_pio2+0x286>
  4056da:	2a00      	cmp	r2, #0
  4056dc:	f040 80b2 	bne.w	405844 <__kernel_rem_pio2+0x3fc>
  4056e0:	9b09      	ldr	r3, [sp, #36]	; 0x24
  4056e2:	aa10      	add	r2, sp, #64	; 0x40
  4056e4:	3b01      	subs	r3, #1
  4056e6:	f852 3023 	ldr.w	r3, [r2, r3, lsl #2]
  4056ea:	2b00      	cmp	r3, #0
  4056ec:	f040 8274 	bne.w	405bd8 <__kernel_rem_pio2+0x790>
  4056f0:	9a0e      	ldr	r2, [sp, #56]	; 0x38
  4056f2:	2301      	movs	r3, #1
  4056f4:	f852 1904 	ldr.w	r1, [r2], #-4
  4056f8:	3301      	adds	r3, #1
  4056fa:	2900      	cmp	r1, #0
  4056fc:	d0fa      	beq.n	4056f4 <__kernel_rem_pio2+0x2ac>
  4056fe:	18e9      	adds	r1, r5, r3
  405700:	1c6a      	adds	r2, r5, #1
  405702:	428a      	cmp	r2, r1
  405704:	910b      	str	r1, [sp, #44]	; 0x2c
  405706:	dc49      	bgt.n	40579c <__kernel_rem_pio2+0x354>
  405708:	990d      	ldr	r1, [sp, #52]	; 0x34
  40570a:	980c      	ldr	r0, [sp, #48]	; 0x30
  40570c:	1851      	adds	r1, r2, r1
  40570e:	00db      	lsls	r3, r3, #3
  405710:	f101 4180 	add.w	r1, r1, #1073741824	; 0x40000000
  405714:	9305      	str	r3, [sp, #20]
  405716:	9ba7      	ldr	r3, [sp, #668]	; 0x29c
  405718:	4405      	add	r5, r0
  40571a:	3901      	subs	r1, #1
  40571c:	00e8      	lsls	r0, r5, #3
  40571e:	eb03 0a81 	add.w	sl, r3, r1, lsl #2
  405722:	ab24      	add	r3, sp, #144	; 0x90
  405724:	00d2      	lsls	r2, r2, #3
  405726:	eb03 0b00 	add.w	fp, r3, r0
  40572a:	ab74      	add	r3, sp, #464	; 0x1d0
  40572c:	4413      	add	r3, r2
  40572e:	9301      	str	r3, [sp, #4]
  405730:	f1a2 0308 	sub.w	r3, r2, #8
  405734:	9006      	str	r0, [sp, #24]
  405736:	9307      	str	r3, [sp, #28]
  405738:	f04f 0900 	mov.w	r9, #0
  40573c:	f85a 0f04 	ldr.w	r0, [sl, #4]!
  405740:	f001 f90a 	bl	406958 <__aeabi_i2d>
  405744:	9b02      	ldr	r3, [sp, #8]
  405746:	2b00      	cmp	r3, #0
  405748:	e8eb 0102 	strd	r0, r1, [fp], #8
  40574c:	db28      	blt.n	4057a0 <__kernel_rem_pio2+0x358>
  40574e:	9b06      	ldr	r3, [sp, #24]
  405750:	eb03 0409 	add.w	r4, r3, r9
  405754:	9b07      	ldr	r3, [sp, #28]
  405756:	eb09 0803 	add.w	r8, r9, r3
  40575a:	ab24      	add	r3, sp, #144	; 0x90
  40575c:	441c      	add	r4, r3
  40575e:	4498      	add	r8, r3
  405760:	9b04      	ldr	r3, [sp, #16]
  405762:	2600      	movs	r6, #0
  405764:	f1a3 0508 	sub.w	r5, r3, #8
  405768:	2700      	movs	r7, #0
  40576a:	e9f5 2302 	ldrd	r2, r3, [r5, #8]!
  40576e:	e874 0102 	ldrd	r0, r1, [r4], #-8
  405772:	f001 f957 	bl	406a24 <__aeabi_dmul>
  405776:	4602      	mov	r2, r0
  405778:	460b      	mov	r3, r1
  40577a:	4630      	mov	r0, r6
  40577c:	4639      	mov	r1, r7
  40577e:	f000 ff9f 	bl	4066c0 <__adddf3>
  405782:	4544      	cmp	r4, r8
  405784:	4606      	mov	r6, r0
  405786:	460f      	mov	r7, r1
  405788:	d1ef      	bne.n	40576a <__kernel_rem_pio2+0x322>
  40578a:	9b01      	ldr	r3, [sp, #4]
  40578c:	e8e3 6702 	strd	r6, r7, [r3], #8
  405790:	9301      	str	r3, [sp, #4]
  405792:	9b05      	ldr	r3, [sp, #20]
  405794:	f109 0908 	add.w	r9, r9, #8
  405798:	4599      	cmp	r9, r3
  40579a:	d1cf      	bne.n	40573c <__kernel_rem_pio2+0x2f4>
  40579c:	9d0b      	ldr	r5, [sp, #44]	; 0x2c
  40579e:	e6ce      	b.n	40553e <__kernel_rem_pio2+0xf6>
  4057a0:	2600      	movs	r6, #0
  4057a2:	2700      	movs	r7, #0
  4057a4:	e7f1      	b.n	40578a <__kernel_rem_pio2+0x342>
  4057a6:	4632      	mov	r2, r6
  4057a8:	463b      	mov	r3, r7
  4057aa:	2000      	movs	r0, #0
  4057ac:	49b0      	ldr	r1, [pc, #704]	; (405a70 <__kernel_rem_pio2+0x628>)
  4057ae:	f000 ff85 	bl	4066bc <__aeabi_dsub>
  4057b2:	4606      	mov	r6, r0
  4057b4:	460f      	mov	r7, r1
  4057b6:	2c00      	cmp	r4, #0
  4057b8:	f43f af73 	beq.w	4056a2 <__kernel_rem_pio2+0x25a>
  4057bc:	9a08      	ldr	r2, [sp, #32]
  4057be:	49ac      	ldr	r1, [pc, #688]	; (405a70 <__kernel_rem_pio2+0x628>)
  4057c0:	2000      	movs	r0, #0
  4057c2:	f000 fef1 	bl	4065a8 <scalbn>
  4057c6:	4602      	mov	r2, r0
  4057c8:	460b      	mov	r3, r1
  4057ca:	4630      	mov	r0, r6
  4057cc:	4639      	mov	r1, r7
  4057ce:	f000 ff75 	bl	4066bc <__aeabi_dsub>
  4057d2:	4606      	mov	r6, r0
  4057d4:	460f      	mov	r7, r1
  4057d6:	e764      	b.n	4056a2 <__kernel_rem_pio2+0x25a>
  4057d8:	d110      	bne.n	4057fc <__kernel_rem_pio2+0x3b4>
  4057da:	1e6b      	subs	r3, r5, #1
  4057dc:	aa10      	add	r2, sp, #64	; 0x40
  4057de:	f852 3023 	ldr.w	r3, [r2, r3, lsl #2]
  4057e2:	ea4f 58e3 	mov.w	r8, r3, asr #23
  4057e6:	e71b      	b.n	405620 <__kernel_rem_pio2+0x1d8>
  4057e8:	1e6a      	subs	r2, r5, #1
  4057ea:	ab10      	add	r3, sp, #64	; 0x40
  4057ec:	a910      	add	r1, sp, #64	; 0x40
  4057ee:	f853 3022 	ldr.w	r3, [r3, r2, lsl #2]
  4057f2:	f3c3 0316 	ubfx	r3, r3, #0, #23
  4057f6:	f841 3022 	str.w	r3, [r1, r2, lsl #2]
  4057fa:	e74e      	b.n	40569a <__kernel_rem_pio2+0x252>
  4057fc:	2200      	movs	r2, #0
  4057fe:	4b9d      	ldr	r3, [pc, #628]	; (405a74 <__kernel_rem_pio2+0x62c>)
  405800:	f001 fb96 	bl	406f30 <__aeabi_dcmpge>
  405804:	b958      	cbnz	r0, 40581e <__kernel_rem_pio2+0x3d6>
  405806:	4680      	mov	r8, r0
  405808:	e74b      	b.n	4056a2 <__kernel_rem_pio2+0x25a>
  40580a:	2600      	movs	r6, #0
  40580c:	2700      	movs	r7, #0
  40580e:	e9ea 6702 	strd	r6, r7, [sl, #8]!
  405812:	45da      	cmp	sl, fp
  405814:	f109 0908 	add.w	r9, r9, #8
  405818:	f47f ae63 	bne.w	4054e2 <__kernel_rem_pio2+0x9a>
  40581c:	e684      	b.n	405528 <__kernel_rem_pio2+0xe0>
  40581e:	2d00      	cmp	r5, #0
  405820:	f109 0901 	add.w	r9, r9, #1
  405824:	bfc8      	it	gt
  405826:	f04f 0802 	movgt.w	r8, #2
  40582a:	f73f af01 	bgt.w	405630 <__kernel_rem_pio2+0x1e8>
  40582e:	4632      	mov	r2, r6
  405830:	463b      	mov	r3, r7
  405832:	2000      	movs	r0, #0
  405834:	498e      	ldr	r1, [pc, #568]	; (405a70 <__kernel_rem_pio2+0x628>)
  405836:	f000 ff41 	bl	4066bc <__aeabi_dsub>
  40583a:	f04f 0802 	mov.w	r8, #2
  40583e:	4606      	mov	r6, r0
  405840:	460f      	mov	r7, r1
  405842:	e72e      	b.n	4056a2 <__kernel_rem_pio2+0x25a>
  405844:	ab10      	add	r3, sp, #64	; 0x40
  405846:	9a08      	ldr	r2, [sp, #32]
  405848:	f853 302b 	ldr.w	r3, [r3, fp, lsl #2]
  40584c:	f8cd 9014 	str.w	r9, [sp, #20]
  405850:	3a18      	subs	r2, #24
  405852:	f8cd 8004 	str.w	r8, [sp, #4]
  405856:	9208      	str	r2, [sp, #32]
  405858:	b96b      	cbnz	r3, 405876 <__kernel_rem_pio2+0x42e>
  40585a:	f10b 4380 	add.w	r3, fp, #1073741824	; 0x40000000
  40585e:	3b01      	subs	r3, #1
  405860:	a910      	add	r1, sp, #64	; 0x40
  405862:	eb01 0383 	add.w	r3, r1, r3, lsl #2
  405866:	f853 1904 	ldr.w	r1, [r3], #-4
  40586a:	f10b 3bff 	add.w	fp, fp, #4294967295
  40586e:	3a18      	subs	r2, #24
  405870:	2900      	cmp	r1, #0
  405872:	d0f8      	beq.n	405866 <__kernel_rem_pio2+0x41e>
  405874:	9208      	str	r2, [sp, #32]
  405876:	9a08      	ldr	r2, [sp, #32]
  405878:	497d      	ldr	r1, [pc, #500]	; (405a70 <__kernel_rem_pio2+0x628>)
  40587a:	2000      	movs	r0, #0
  40587c:	f000 fe94 	bl	4065a8 <scalbn>
  405880:	f1bb 0f00 	cmp.w	fp, #0
  405884:	4604      	mov	r4, r0
  405886:	460d      	mov	r5, r1
  405888:	f2c0 81b8 	blt.w	405bfc <__kernel_rem_pio2+0x7b4>
  40588c:	ea4f 03cb 	mov.w	r3, fp, lsl #3
  405890:	f50d 78e8 	add.w	r8, sp, #464	; 0x1d0
  405894:	aa10      	add	r2, sp, #64	; 0x40
  405896:	eb02 068b 	add.w	r6, r2, fp, lsl #2
  40589a:	eb08 0903 	add.w	r9, r8, r3
  40589e:	9304      	str	r3, [sp, #16]
  4058a0:	3604      	adds	r6, #4
  4058a2:	f109 0708 	add.w	r7, r9, #8
  4058a6:	f856 0d04 	ldr.w	r0, [r6, #-4]!
  4058aa:	f001 f855 	bl	406958 <__aeabi_i2d>
  4058ae:	4622      	mov	r2, r4
  4058b0:	462b      	mov	r3, r5
  4058b2:	f001 f8b7 	bl	406a24 <__aeabi_dmul>
  4058b6:	2200      	movs	r2, #0
  4058b8:	e967 0102 	strd	r0, r1, [r7, #-8]!
  4058bc:	4b6e      	ldr	r3, [pc, #440]	; (405a78 <__kernel_rem_pio2+0x630>)
  4058be:	4620      	mov	r0, r4
  4058c0:	4629      	mov	r1, r5
  4058c2:	f001 f8af 	bl	406a24 <__aeabi_dmul>
  4058c6:	45b8      	cmp	r8, r7
  4058c8:	4604      	mov	r4, r0
  4058ca:	460d      	mov	r5, r1
  4058cc:	d1eb      	bne.n	4058a6 <__kernel_rem_pio2+0x45e>
  4058ce:	f50d 7a98 	add.w	sl, sp, #304	; 0x130
  4058d2:	464b      	mov	r3, r9
  4058d4:	f8cd a008 	str.w	sl, [sp, #8]
  4058d8:	f8dd a024 	ldr.w	sl, [sp, #36]	; 0x24
  4058dc:	f8cd b018 	str.w	fp, [sp, #24]
  4058e0:	f04f 0900 	mov.w	r9, #0
  4058e4:	469b      	mov	fp, r3
  4058e6:	f1ba 0f00 	cmp.w	sl, #0
  4058ea:	f2c0 812a 	blt.w	405b42 <__kernel_rem_pio2+0x6fa>
  4058ee:	f8df 818c 	ldr.w	r8, [pc, #396]	; 405a7c <__kernel_rem_pio2+0x634>
  4058f2:	465d      	mov	r5, fp
  4058f4:	a35c      	add	r3, pc, #368	; (adr r3, 405a68 <__kernel_rem_pio2+0x620>)
  4058f6:	e9d3 2300 	ldrd	r2, r3, [r3]
  4058fa:	2600      	movs	r6, #0
  4058fc:	2700      	movs	r7, #0
  4058fe:	2400      	movs	r4, #0
  405900:	e003      	b.n	40590a <__kernel_rem_pio2+0x4c2>
  405902:	45a1      	cmp	r9, r4
  405904:	db10      	blt.n	405928 <__kernel_rem_pio2+0x4e0>
  405906:	e9f8 2302 	ldrd	r2, r3, [r8, #8]!
  40590a:	e8f5 0102 	ldrd	r0, r1, [r5], #8
  40590e:	f001 f889 	bl	406a24 <__aeabi_dmul>
  405912:	4602      	mov	r2, r0
  405914:	460b      	mov	r3, r1
  405916:	4630      	mov	r0, r6
  405918:	4639      	mov	r1, r7
  40591a:	f000 fed1 	bl	4066c0 <__adddf3>
  40591e:	3401      	adds	r4, #1
  405920:	45a2      	cmp	sl, r4
  405922:	4606      	mov	r6, r0
  405924:	460f      	mov	r7, r1
  405926:	daec      	bge.n	405902 <__kernel_rem_pio2+0x4ba>
  405928:	9b02      	ldr	r3, [sp, #8]
  40592a:	eb03 03c9 	add.w	r3, r3, r9, lsl #3
  40592e:	f1ab 0b08 	sub.w	fp, fp, #8
  405932:	e9c3 6700 	strd	r6, r7, [r3]
  405936:	ab72      	add	r3, sp, #456	; 0x1c8
  405938:	455b      	cmp	r3, fp
  40593a:	f109 0901 	add.w	r9, r9, #1
  40593e:	d1d2      	bne.n	4058e6 <__kernel_rem_pio2+0x49e>
  405940:	9ba6      	ldr	r3, [sp, #664]	; 0x298
  405942:	f8dd b018 	ldr.w	fp, [sp, #24]
  405946:	f8dd a008 	ldr.w	sl, [sp, #8]
  40594a:	2b03      	cmp	r3, #3
  40594c:	f200 8083 	bhi.w	405a56 <__kernel_rem_pio2+0x60e>
  405950:	e8df f013 	tbh	[pc, r3, lsl #1]
  405954:	009600d5 	.word	0x009600d5
  405958:	00040096 	.word	0x00040096
  40595c:	f1bb 0f00 	cmp.w	fp, #0
  405960:	f340 8156 	ble.w	405c10 <__kernel_rem_pio2+0x7c8>
  405964:	9b04      	ldr	r3, [sp, #16]
  405966:	f8cd b008 	str.w	fp, [sp, #8]
  40596a:	eb0a 0803 	add.w	r8, sl, r3
  40596e:	e9d8 6700 	ldrd	r6, r7, [r8]
  405972:	46d3      	mov	fp, sl
  405974:	e958 9a02 	ldrd	r9, sl, [r8, #-8]
  405978:	4632      	mov	r2, r6
  40597a:	463b      	mov	r3, r7
  40597c:	4648      	mov	r0, r9
  40597e:	4651      	mov	r1, sl
  405980:	f000 fe9e 	bl	4066c0 <__adddf3>
  405984:	4604      	mov	r4, r0
  405986:	460d      	mov	r5, r1
  405988:	4602      	mov	r2, r0
  40598a:	460b      	mov	r3, r1
  40598c:	4648      	mov	r0, r9
  40598e:	4651      	mov	r1, sl
  405990:	f000 fe94 	bl	4066bc <__aeabi_dsub>
  405994:	4632      	mov	r2, r6
  405996:	463b      	mov	r3, r7
  405998:	f000 fe92 	bl	4066c0 <__adddf3>
  40599c:	e9c8 0100 	strd	r0, r1, [r8]
  4059a0:	e968 4502 	strd	r4, r5, [r8, #-8]!
  4059a4:	45c3      	cmp	fp, r8
  4059a6:	4626      	mov	r6, r4
  4059a8:	462f      	mov	r7, r5
  4059aa:	d1e3      	bne.n	405974 <__kernel_rem_pio2+0x52c>
  4059ac:	46da      	mov	sl, fp
  4059ae:	f8dd b008 	ldr.w	fp, [sp, #8]
  4059b2:	f1bb 0f01 	cmp.w	fp, #1
  4059b6:	f340 812b 	ble.w	405c10 <__kernel_rem_pio2+0x7c8>
  4059ba:	9b04      	ldr	r3, [sp, #16]
  4059bc:	4453      	add	r3, sl
  4059be:	e9d3 6700 	ldrd	r6, r7, [r3]
  4059c2:	4698      	mov	r8, r3
  4059c4:	4699      	mov	r9, r3
  4059c6:	f50d 7b9c 	add.w	fp, sp, #312	; 0x138
  4059ca:	e959 3402 	ldrd	r3, r4, [r9, #-8]
  4059ce:	4630      	mov	r0, r6
  4059d0:	e9cd 3402 	strd	r3, r4, [sp, #8]
  4059d4:	461a      	mov	r2, r3
  4059d6:	4639      	mov	r1, r7
  4059d8:	4623      	mov	r3, r4
  4059da:	f000 fe71 	bl	4066c0 <__adddf3>
  4059de:	4604      	mov	r4, r0
  4059e0:	460d      	mov	r5, r1
  4059e2:	4602      	mov	r2, r0
  4059e4:	460b      	mov	r3, r1
  4059e6:	e9dd 0102 	ldrd	r0, r1, [sp, #8]
  4059ea:	f000 fe67 	bl	4066bc <__aeabi_dsub>
  4059ee:	4632      	mov	r2, r6
  4059f0:	463b      	mov	r3, r7
  4059f2:	f000 fe65 	bl	4066c0 <__adddf3>
  4059f6:	e9c9 0100 	strd	r0, r1, [r9]
  4059fa:	e969 4502 	strd	r4, r5, [r9, #-8]!
  4059fe:	45cb      	cmp	fp, r9
  405a00:	4626      	mov	r6, r4
  405a02:	462f      	mov	r7, r5
  405a04:	d1e1      	bne.n	4059ca <__kernel_rem_pio2+0x582>
  405a06:	2300      	movs	r3, #0
  405a08:	f108 0808 	add.w	r8, r8, #8
  405a0c:	461d      	mov	r5, r3
  405a0e:	ac50      	add	r4, sp, #320	; 0x140
  405a10:	4618      	mov	r0, r3
  405a12:	4629      	mov	r1, r5
  405a14:	e978 2302 	ldrd	r2, r3, [r8, #-8]!
  405a18:	f000 fe52 	bl	4066c0 <__adddf3>
  405a1c:	4544      	cmp	r4, r8
  405a1e:	4603      	mov	r3, r0
  405a20:	460d      	mov	r5, r1
  405a22:	d1f5      	bne.n	405a10 <__kernel_rem_pio2+0x5c8>
  405a24:	9a01      	ldr	r2, [sp, #4]
  405a26:	2a00      	cmp	r2, #0
  405a28:	f000 80da 	beq.w	405be0 <__kernel_rem_pio2+0x798>
  405a2c:	9f0a      	ldr	r7, [sp, #40]	; 0x28
  405a2e:	f8da 4004 	ldr.w	r4, [sl, #4]
  405a32:	f8da 200c 	ldr.w	r2, [sl, #12]
  405a36:	f8da 1000 	ldr.w	r1, [sl]
  405a3a:	f8da 0008 	ldr.w	r0, [sl, #8]
  405a3e:	613b      	str	r3, [r7, #16]
  405a40:	f105 4500 	add.w	r5, r5, #2147483648	; 0x80000000
  405a44:	f104 4400 	add.w	r4, r4, #2147483648	; 0x80000000
  405a48:	f102 4300 	add.w	r3, r2, #2147483648	; 0x80000000
  405a4c:	617d      	str	r5, [r7, #20]
  405a4e:	607c      	str	r4, [r7, #4]
  405a50:	60fb      	str	r3, [r7, #12]
  405a52:	6039      	str	r1, [r7, #0]
  405a54:	60b8      	str	r0, [r7, #8]
  405a56:	9b05      	ldr	r3, [sp, #20]
  405a58:	f003 0007 	and.w	r0, r3, #7
  405a5c:	f50d 7d1d 	add.w	sp, sp, #628	; 0x274
  405a60:	e8bd 8ff0 	ldmia.w	sp!, {r4, r5, r6, r7, r8, r9, sl, fp, pc}
  405a64:	f3af 8000 	nop.w
  405a68:	40000000 	.word	0x40000000
  405a6c:	3ff921fb 	.word	0x3ff921fb
  405a70:	3ff00000 	.word	0x3ff00000
  405a74:	3fe00000 	.word	0x3fe00000
  405a78:	3e700000 	.word	0x3e700000
  405a7c:	00407c88 	.word	0x00407c88
  405a80:	9c04      	ldr	r4, [sp, #16]
  405a82:	2600      	movs	r6, #0
  405a84:	3408      	adds	r4, #8
  405a86:	4454      	add	r4, sl
  405a88:	4633      	mov	r3, r6
  405a8a:	4630      	mov	r0, r6
  405a8c:	4619      	mov	r1, r3
  405a8e:	e974 2302 	ldrd	r2, r3, [r4, #-8]!
  405a92:	f000 fe15 	bl	4066c0 <__adddf3>
  405a96:	4554      	cmp	r4, sl
  405a98:	4606      	mov	r6, r0
  405a9a:	460b      	mov	r3, r1
  405a9c:	d1f5      	bne.n	405a8a <__kernel_rem_pio2+0x642>
  405a9e:	9a01      	ldr	r2, [sp, #4]
  405aa0:	4630      	mov	r0, r6
  405aa2:	4619      	mov	r1, r3
  405aa4:	2a00      	cmp	r2, #0
  405aa6:	d04f      	beq.n	405b48 <__kernel_rem_pio2+0x700>
  405aa8:	980a      	ldr	r0, [sp, #40]	; 0x28
  405aaa:	f103 4400 	add.w	r4, r3, #2147483648	; 0x80000000
  405aae:	4632      	mov	r2, r6
  405ab0:	6044      	str	r4, [r0, #4]
  405ab2:	6006      	str	r6, [r0, #0]
  405ab4:	e9da 0100 	ldrd	r0, r1, [sl]
  405ab8:	f000 fe00 	bl	4066bc <__aeabi_dsub>
  405abc:	f1bb 0f00 	cmp.w	fp, #0
  405ac0:	4602      	mov	r2, r0
  405ac2:	460b      	mov	r3, r1
  405ac4:	dd0d      	ble.n	405ae2 <__kernel_rem_pio2+0x69a>
  405ac6:	2401      	movs	r4, #1
  405ac8:	4610      	mov	r0, r2
  405aca:	4619      	mov	r1, r3
  405acc:	e9fa 2302 	ldrd	r2, r3, [sl, #8]!
  405ad0:	f000 fdf6 	bl	4066c0 <__adddf3>
  405ad4:	3401      	adds	r4, #1
  405ad6:	45a3      	cmp	fp, r4
  405ad8:	4602      	mov	r2, r0
  405ada:	460b      	mov	r3, r1
  405adc:	daf4      	bge.n	405ac8 <__kernel_rem_pio2+0x680>
  405ade:	9901      	ldr	r1, [sp, #4]
  405ae0:	b109      	cbz	r1, 405ae6 <__kernel_rem_pio2+0x69e>
  405ae2:	f103 4300 	add.w	r3, r3, #2147483648	; 0x80000000
  405ae6:	4619      	mov	r1, r3
  405ae8:	9b0a      	ldr	r3, [sp, #40]	; 0x28
  405aea:	4610      	mov	r0, r2
  405aec:	e9c3 0102 	strd	r0, r1, [r3, #8]
  405af0:	9b05      	ldr	r3, [sp, #20]
  405af2:	f003 0007 	and.w	r0, r3, #7
  405af6:	f50d 7d1d 	add.w	sp, sp, #628	; 0x274
  405afa:	e8bd 8ff0 	ldmia.w	sp!, {r4, r5, r6, r7, r8, r9, sl, fp, pc}
  405afe:	9b04      	ldr	r3, [sp, #16]
  405b00:	2200      	movs	r2, #0
  405b02:	3308      	adds	r3, #8
  405b04:	449a      	add	sl, r3
  405b06:	4613      	mov	r3, r2
  405b08:	4610      	mov	r0, r2
  405b0a:	4619      	mov	r1, r3
  405b0c:	e97a 2302 	ldrd	r2, r3, [sl, #-8]!
  405b10:	f000 fdd6 	bl	4066c0 <__adddf3>
  405b14:	f10b 3bff 	add.w	fp, fp, #4294967295
  405b18:	f1bb 3fff 	cmp.w	fp, #4294967295
  405b1c:	4602      	mov	r2, r0
  405b1e:	460b      	mov	r3, r1
  405b20:	d1f2      	bne.n	405b08 <__kernel_rem_pio2+0x6c0>
  405b22:	9901      	ldr	r1, [sp, #4]
  405b24:	b109      	cbz	r1, 405b2a <__kernel_rem_pio2+0x6e2>
  405b26:	f103 4300 	add.w	r3, r3, #2147483648	; 0x80000000
  405b2a:	4619      	mov	r1, r3
  405b2c:	9b0a      	ldr	r3, [sp, #40]	; 0x28
  405b2e:	4610      	mov	r0, r2
  405b30:	e9c3 0100 	strd	r0, r1, [r3]
  405b34:	9b05      	ldr	r3, [sp, #20]
  405b36:	f003 0007 	and.w	r0, r3, #7
  405b3a:	f50d 7d1d 	add.w	sp, sp, #628	; 0x274
  405b3e:	e8bd 8ff0 	ldmia.w	sp!, {r4, r5, r6, r7, r8, r9, sl, fp, pc}
  405b42:	2600      	movs	r6, #0
  405b44:	2700      	movs	r7, #0
  405b46:	e6ef      	b.n	405928 <__kernel_rem_pio2+0x4e0>
  405b48:	9b0a      	ldr	r3, [sp, #40]	; 0x28
  405b4a:	4632      	mov	r2, r6
  405b4c:	e9c3 0100 	strd	r0, r1, [r3]
  405b50:	460b      	mov	r3, r1
  405b52:	e9da 0100 	ldrd	r0, r1, [sl]
  405b56:	f000 fdb1 	bl	4066bc <__aeabi_dsub>
  405b5a:	f1bb 0f00 	cmp.w	fp, #0
  405b5e:	4602      	mov	r2, r0
  405b60:	460b      	mov	r3, r1
  405b62:	dcb0      	bgt.n	405ac6 <__kernel_rem_pio2+0x67e>
  405b64:	4619      	mov	r1, r3
  405b66:	9b0a      	ldr	r3, [sp, #40]	; 0x28
  405b68:	4610      	mov	r0, r2
  405b6a:	e9c3 0102 	strd	r0, r1, [r3, #8]
  405b6e:	e7bf      	b.n	405af0 <__kernel_rem_pio2+0x6a8>
  405b70:	9b08      	ldr	r3, [sp, #32]
  405b72:	f8cd 9014 	str.w	r9, [sp, #20]
  405b76:	425a      	negs	r2, r3
  405b78:	4630      	mov	r0, r6
  405b7a:	4639      	mov	r1, r7
  405b7c:	f8cd 8004 	str.w	r8, [sp, #4]
  405b80:	f000 fd12 	bl	4065a8 <scalbn>
  405b84:	2200      	movs	r2, #0
  405b86:	4b2c      	ldr	r3, [pc, #176]	; (405c38 <__kernel_rem_pio2+0x7f0>)
  405b88:	4606      	mov	r6, r0
  405b8a:	460f      	mov	r7, r1
  405b8c:	f001 f9d0 	bl	406f30 <__aeabi_dcmpge>
  405b90:	2800      	cmp	r0, #0
  405b92:	d040      	beq.n	405c16 <__kernel_rem_pio2+0x7ce>
  405b94:	2200      	movs	r2, #0
  405b96:	4b29      	ldr	r3, [pc, #164]	; (405c3c <__kernel_rem_pio2+0x7f4>)
  405b98:	4630      	mov	r0, r6
  405b9a:	4639      	mov	r1, r7
  405b9c:	f000 ff42 	bl	406a24 <__aeabi_dmul>
  405ba0:	f001 f9f0 	bl	406f84 <__aeabi_d2iz>
  405ba4:	4604      	mov	r4, r0
  405ba6:	f000 fed7 	bl	406958 <__aeabi_i2d>
  405baa:	2200      	movs	r2, #0
  405bac:	4b22      	ldr	r3, [pc, #136]	; (405c38 <__kernel_rem_pio2+0x7f0>)
  405bae:	f000 ff39 	bl	406a24 <__aeabi_dmul>
  405bb2:	460b      	mov	r3, r1
  405bb4:	4602      	mov	r2, r0
  405bb6:	4639      	mov	r1, r7
  405bb8:	4630      	mov	r0, r6
  405bba:	f000 fd7f 	bl	4066bc <__aeabi_dsub>
  405bbe:	f001 f9e1 	bl	406f84 <__aeabi_d2iz>
  405bc2:	9b08      	ldr	r3, [sp, #32]
  405bc4:	3318      	adds	r3, #24
  405bc6:	f105 0b01 	add.w	fp, r5, #1
  405bca:	9308      	str	r3, [sp, #32]
  405bcc:	ab10      	add	r3, sp, #64	; 0x40
  405bce:	f843 0025 	str.w	r0, [r3, r5, lsl #2]
  405bd2:	f843 402b 	str.w	r4, [r3, fp, lsl #2]
  405bd6:	e64e      	b.n	405876 <__kernel_rem_pio2+0x42e>
  405bd8:	2301      	movs	r3, #1
  405bda:	e590      	b.n	4056fe <__kernel_rem_pio2+0x2b6>
  405bdc:	2400      	movs	r4, #0
  405bde:	e54b      	b.n	405678 <__kernel_rem_pio2+0x230>
  405be0:	4618      	mov	r0, r3
  405be2:	4629      	mov	r1, r5
  405be4:	e9da 2300 	ldrd	r2, r3, [sl]
  405be8:	e9da 4502 	ldrd	r4, r5, [sl, #8]
  405bec:	9f0a      	ldr	r7, [sp, #40]	; 0x28
  405bee:	e9c7 0104 	strd	r0, r1, [r7, #16]
  405bf2:	e9c7 2300 	strd	r2, r3, [r7]
  405bf6:	e9c7 4502 	strd	r4, r5, [r7, #8]
  405bfa:	e72c      	b.n	405a56 <__kernel_rem_pio2+0x60e>
  405bfc:	9ba6      	ldr	r3, [sp, #664]	; 0x298
  405bfe:	2b03      	cmp	r3, #3
  405c00:	f63f af29 	bhi.w	405a56 <__kernel_rem_pio2+0x60e>
  405c04:	e8df f003 	tbb	[pc, r3]
  405c08:	02101015 	.word	0x02101015
  405c0c:	f50d 7a98 	add.w	sl, sp, #304	; 0x130
  405c10:	2300      	movs	r3, #0
  405c12:	461d      	mov	r5, r3
  405c14:	e706      	b.n	405a24 <__kernel_rem_pio2+0x5dc>
  405c16:	4630      	mov	r0, r6
  405c18:	4639      	mov	r1, r7
  405c1a:	f001 f9b3 	bl	406f84 <__aeabi_d2iz>
  405c1e:	ab10      	add	r3, sp, #64	; 0x40
  405c20:	46ab      	mov	fp, r5
  405c22:	f843 0025 	str.w	r0, [r3, r5, lsl #2]
  405c26:	e626      	b.n	405876 <__kernel_rem_pio2+0x42e>
  405c28:	2600      	movs	r6, #0
  405c2a:	4633      	mov	r3, r6
  405c2c:	f50d 7a98 	add.w	sl, sp, #304	; 0x130
  405c30:	e735      	b.n	405a9e <__kernel_rem_pio2+0x656>
  405c32:	2200      	movs	r2, #0
  405c34:	4613      	mov	r3, r2
  405c36:	e774      	b.n	405b22 <__kernel_rem_pio2+0x6da>
  405c38:	41700000 	.word	0x41700000
  405c3c:	3e700000 	.word	0x3e700000

00405c40 <__kernel_sin>:
  405c40:	e92d 4ff0 	stmdb	sp!, {r4, r5, r6, r7, r8, r9, sl, fp, lr}
  405c44:	f021 4600 	bic.w	r6, r1, #2147483648	; 0x80000000
  405c48:	f1b6 5f79 	cmp.w	r6, #1044381696	; 0x3e400000
  405c4c:	b085      	sub	sp, #20
  405c4e:	460c      	mov	r4, r1
  405c50:	4690      	mov	r8, r2
  405c52:	4699      	mov	r9, r3
  405c54:	4605      	mov	r5, r0
  405c56:	da04      	bge.n	405c62 <__kernel_sin+0x22>
  405c58:	f001 f994 	bl	406f84 <__aeabi_d2iz>
  405c5c:	2800      	cmp	r0, #0
  405c5e:	f000 8085 	beq.w	405d6c <__kernel_sin+0x12c>
  405c62:	462a      	mov	r2, r5
  405c64:	4623      	mov	r3, r4
  405c66:	4628      	mov	r0, r5
  405c68:	4621      	mov	r1, r4
  405c6a:	f000 fedb 	bl	406a24 <__aeabi_dmul>
  405c6e:	4606      	mov	r6, r0
  405c70:	460f      	mov	r7, r1
  405c72:	4602      	mov	r2, r0
  405c74:	460b      	mov	r3, r1
  405c76:	4628      	mov	r0, r5
  405c78:	4621      	mov	r1, r4
  405c7a:	f000 fed3 	bl	406a24 <__aeabi_dmul>
  405c7e:	a33e      	add	r3, pc, #248	; (adr r3, 405d78 <__kernel_sin+0x138>)
  405c80:	e9d3 2300 	ldrd	r2, r3, [r3]
  405c84:	4682      	mov	sl, r0
  405c86:	468b      	mov	fp, r1
  405c88:	4630      	mov	r0, r6
  405c8a:	4639      	mov	r1, r7
  405c8c:	f000 feca 	bl	406a24 <__aeabi_dmul>
  405c90:	a33b      	add	r3, pc, #236	; (adr r3, 405d80 <__kernel_sin+0x140>)
  405c92:	e9d3 2300 	ldrd	r2, r3, [r3]
  405c96:	f000 fd11 	bl	4066bc <__aeabi_dsub>
  405c9a:	4632      	mov	r2, r6
  405c9c:	463b      	mov	r3, r7
  405c9e:	f000 fec1 	bl	406a24 <__aeabi_dmul>
  405ca2:	a339      	add	r3, pc, #228	; (adr r3, 405d88 <__kernel_sin+0x148>)
  405ca4:	e9d3 2300 	ldrd	r2, r3, [r3]
  405ca8:	f000 fd0a 	bl	4066c0 <__adddf3>
  405cac:	4632      	mov	r2, r6
  405cae:	463b      	mov	r3, r7
  405cb0:	f000 feb8 	bl	406a24 <__aeabi_dmul>
  405cb4:	a336      	add	r3, pc, #216	; (adr r3, 405d90 <__kernel_sin+0x150>)
  405cb6:	e9d3 2300 	ldrd	r2, r3, [r3]
  405cba:	f000 fcff 	bl	4066bc <__aeabi_dsub>
  405cbe:	4632      	mov	r2, r6
  405cc0:	463b      	mov	r3, r7
  405cc2:	f000 feaf 	bl	406a24 <__aeabi_dmul>
  405cc6:	a334      	add	r3, pc, #208	; (adr r3, 405d98 <__kernel_sin+0x158>)
  405cc8:	e9d3 2300 	ldrd	r2, r3, [r3]
  405ccc:	f000 fcf8 	bl	4066c0 <__adddf3>
  405cd0:	9b0e      	ldr	r3, [sp, #56]	; 0x38
  405cd2:	e9cd 0100 	strd	r0, r1, [sp]
  405cd6:	b39b      	cbz	r3, 405d40 <__kernel_sin+0x100>
  405cd8:	2200      	movs	r2, #0
  405cda:	4b33      	ldr	r3, [pc, #204]	; (405da8 <__kernel_sin+0x168>)
  405cdc:	4640      	mov	r0, r8
  405cde:	4649      	mov	r1, r9
  405ce0:	f000 fea0 	bl	406a24 <__aeabi_dmul>
  405ce4:	e9dd 2300 	ldrd	r2, r3, [sp]
  405ce8:	e9cd 0102 	strd	r0, r1, [sp, #8]
  405cec:	4650      	mov	r0, sl
  405cee:	4659      	mov	r1, fp
  405cf0:	f000 fe98 	bl	406a24 <__aeabi_dmul>
  405cf4:	4602      	mov	r2, r0
  405cf6:	460b      	mov	r3, r1
  405cf8:	e9dd 0102 	ldrd	r0, r1, [sp, #8]
  405cfc:	f000 fcde 	bl	4066bc <__aeabi_dsub>
  405d00:	4632      	mov	r2, r6
  405d02:	463b      	mov	r3, r7
  405d04:	f000 fe8e 	bl	406a24 <__aeabi_dmul>
  405d08:	4642      	mov	r2, r8
  405d0a:	464b      	mov	r3, r9
  405d0c:	f000 fcd6 	bl	4066bc <__aeabi_dsub>
  405d10:	a323      	add	r3, pc, #140	; (adr r3, 405da0 <__kernel_sin+0x160>)
  405d12:	e9d3 2300 	ldrd	r2, r3, [r3]
  405d16:	4606      	mov	r6, r0
  405d18:	460f      	mov	r7, r1
  405d1a:	4650      	mov	r0, sl
  405d1c:	4659      	mov	r1, fp
  405d1e:	f000 fe81 	bl	406a24 <__aeabi_dmul>
  405d22:	4602      	mov	r2, r0
  405d24:	460b      	mov	r3, r1
  405d26:	4630      	mov	r0, r6
  405d28:	4639      	mov	r1, r7
  405d2a:	f000 fcc9 	bl	4066c0 <__adddf3>
  405d2e:	4602      	mov	r2, r0
  405d30:	460b      	mov	r3, r1
  405d32:	4628      	mov	r0, r5
  405d34:	4621      	mov	r1, r4
  405d36:	f000 fcc1 	bl	4066bc <__aeabi_dsub>
  405d3a:	b005      	add	sp, #20
  405d3c:	e8bd 8ff0 	ldmia.w	sp!, {r4, r5, r6, r7, r8, r9, sl, fp, pc}
  405d40:	4602      	mov	r2, r0
  405d42:	460b      	mov	r3, r1
  405d44:	4630      	mov	r0, r6
  405d46:	4639      	mov	r1, r7
  405d48:	f000 fe6c 	bl	406a24 <__aeabi_dmul>
  405d4c:	a314      	add	r3, pc, #80	; (adr r3, 405da0 <__kernel_sin+0x160>)
  405d4e:	e9d3 2300 	ldrd	r2, r3, [r3]
  405d52:	f000 fcb3 	bl	4066bc <__aeabi_dsub>
  405d56:	4652      	mov	r2, sl
  405d58:	465b      	mov	r3, fp
  405d5a:	f000 fe63 	bl	406a24 <__aeabi_dmul>
  405d5e:	462a      	mov	r2, r5
  405d60:	4623      	mov	r3, r4
  405d62:	f000 fcad 	bl	4066c0 <__adddf3>
  405d66:	b005      	add	sp, #20
  405d68:	e8bd 8ff0 	ldmia.w	sp!, {r4, r5, r6, r7, r8, r9, sl, fp, pc}
  405d6c:	4628      	mov	r0, r5
  405d6e:	4621      	mov	r1, r4
  405d70:	b005      	add	sp, #20
  405d72:	e8bd 8ff0 	ldmia.w	sp!, {r4, r5, r6, r7, r8, r9, sl, fp, pc}
  405d76:	bf00      	nop
  405d78:	5acfd57c 	.word	0x5acfd57c
  405d7c:	3de5d93a 	.word	0x3de5d93a
  405d80:	8a2b9ceb 	.word	0x8a2b9ceb
  405d84:	3e5ae5e6 	.word	0x3e5ae5e6
  405d88:	57b1fe7d 	.word	0x57b1fe7d
  405d8c:	3ec71de3 	.word	0x3ec71de3
  405d90:	19c161d5 	.word	0x19c161d5
  405d94:	3f2a01a0 	.word	0x3f2a01a0
  405d98:	1110f8a6 	.word	0x1110f8a6
  405d9c:	3f811111 	.word	0x3f811111
  405da0:	55555549 	.word	0x55555549
  405da4:	3fc55555 	.word	0x3fc55555
  405da8:	3fe00000 	.word	0x3fe00000
  405dac:	00000000 	.word	0x00000000

00405db0 <__kernel_tan>:
  405db0:	e92d 4ff0 	stmdb	sp!, {r4, r5, r6, r7, r8, r9, sl, fp, lr}
  405db4:	4cd8      	ldr	r4, [pc, #864]	; (406118 <__kernel_tan+0x368>)
  405db6:	f021 4600 	bic.w	r6, r1, #2147483648	; 0x80000000
  405dba:	42a6      	cmp	r6, r4
  405dbc:	b087      	sub	sp, #28
  405dbe:	468a      	mov	sl, r1
  405dc0:	4689      	mov	r9, r1
  405dc2:	4617      	mov	r7, r2
  405dc4:	4698      	mov	r8, r3
  405dc6:	4683      	mov	fp, r0
  405dc8:	dc16      	bgt.n	405df8 <__kernel_tan+0x48>
  405dca:	f001 f8db 	bl	406f84 <__aeabi_d2iz>
  405dce:	bb88      	cbnz	r0, 405e34 <__kernel_tan+0x84>
  405dd0:	465b      	mov	r3, fp
  405dd2:	431e      	orrs	r6, r3
  405dd4:	9b10      	ldr	r3, [sp, #64]	; 0x40
  405dd6:	3301      	adds	r3, #1
  405dd8:	4333      	orrs	r3, r6
  405dda:	f000 8156 	beq.w	40608a <__kernel_tan+0x2da>
  405dde:	9b10      	ldr	r3, [sp, #64]	; 0x40
  405de0:	2b01      	cmp	r3, #1
  405de2:	f000 81a8 	beq.w	406136 <__kernel_tan+0x386>
  405de6:	465a      	mov	r2, fp
  405de8:	4653      	mov	r3, sl
  405dea:	2000      	movs	r0, #0
  405dec:	49cb      	ldr	r1, [pc, #812]	; (40611c <__kernel_tan+0x36c>)
  405dee:	f000 ff43 	bl	406c78 <__aeabi_ddiv>
  405df2:	b007      	add	sp, #28
  405df4:	e8bd 8ff0 	ldmia.w	sp!, {r4, r5, r6, r7, r8, r9, sl, fp, pc}
  405df8:	4bc9      	ldr	r3, [pc, #804]	; (406120 <__kernel_tan+0x370>)
  405dfa:	429e      	cmp	r6, r3
  405dfc:	dd1a      	ble.n	405e34 <__kernel_tan+0x84>
  405dfe:	2900      	cmp	r1, #0
  405e00:	f2c0 8192 	blt.w	406128 <__kernel_tan+0x378>
  405e04:	465a      	mov	r2, fp
  405e06:	4653      	mov	r3, sl
  405e08:	a1a5      	add	r1, pc, #660	; (adr r1, 4060a0 <__kernel_tan+0x2f0>)
  405e0a:	e9d1 0100 	ldrd	r0, r1, [r1]
  405e0e:	f000 fc55 	bl	4066bc <__aeabi_dsub>
  405e12:	463a      	mov	r2, r7
  405e14:	4643      	mov	r3, r8
  405e16:	4604      	mov	r4, r0
  405e18:	460d      	mov	r5, r1
  405e1a:	a1a3      	add	r1, pc, #652	; (adr r1, 4060a8 <__kernel_tan+0x2f8>)
  405e1c:	e9d1 0100 	ldrd	r0, r1, [r1]
  405e20:	f000 fc4c 	bl	4066bc <__aeabi_dsub>
  405e24:	4622      	mov	r2, r4
  405e26:	462b      	mov	r3, r5
  405e28:	f000 fc4a 	bl	4066c0 <__adddf3>
  405e2c:	2700      	movs	r7, #0
  405e2e:	4683      	mov	fp, r0
  405e30:	468a      	mov	sl, r1
  405e32:	46b8      	mov	r8, r7
  405e34:	465a      	mov	r2, fp
  405e36:	4653      	mov	r3, sl
  405e38:	4658      	mov	r0, fp
  405e3a:	4651      	mov	r1, sl
  405e3c:	f000 fdf2 	bl	406a24 <__aeabi_dmul>
  405e40:	4603      	mov	r3, r0
  405e42:	460c      	mov	r4, r1
  405e44:	e9cd 3400 	strd	r3, r4, [sp]
  405e48:	4602      	mov	r2, r0
  405e4a:	460b      	mov	r3, r1
  405e4c:	f000 fdea 	bl	406a24 <__aeabi_dmul>
  405e50:	e9dd 2300 	ldrd	r2, r3, [sp]
  405e54:	4604      	mov	r4, r0
  405e56:	460d      	mov	r5, r1
  405e58:	4658      	mov	r0, fp
  405e5a:	4651      	mov	r1, sl
  405e5c:	f000 fde2 	bl	406a24 <__aeabi_dmul>
  405e60:	a393      	add	r3, pc, #588	; (adr r3, 4060b0 <__kernel_tan+0x300>)
  405e62:	e9d3 2300 	ldrd	r2, r3, [r3]
  405e66:	e9cd 0102 	strd	r0, r1, [sp, #8]
  405e6a:	4620      	mov	r0, r4
  405e6c:	4629      	mov	r1, r5
  405e6e:	f000 fdd9 	bl	406a24 <__aeabi_dmul>
  405e72:	a391      	add	r3, pc, #580	; (adr r3, 4060b8 <__kernel_tan+0x308>)
  405e74:	e9d3 2300 	ldrd	r2, r3, [r3]
  405e78:	f000 fc22 	bl	4066c0 <__adddf3>
  405e7c:	4622      	mov	r2, r4
  405e7e:	462b      	mov	r3, r5
  405e80:	f000 fdd0 	bl	406a24 <__aeabi_dmul>
  405e84:	a38e      	add	r3, pc, #568	; (adr r3, 4060c0 <__kernel_tan+0x310>)
  405e86:	e9d3 2300 	ldrd	r2, r3, [r3]
  405e8a:	f000 fc19 	bl	4066c0 <__adddf3>
  405e8e:	4622      	mov	r2, r4
  405e90:	462b      	mov	r3, r5
  405e92:	f000 fdc7 	bl	406a24 <__aeabi_dmul>
  405e96:	a38c      	add	r3, pc, #560	; (adr r3, 4060c8 <__kernel_tan+0x318>)
  405e98:	e9d3 2300 	ldrd	r2, r3, [r3]
  405e9c:	f000 fc10 	bl	4066c0 <__adddf3>
  405ea0:	4622      	mov	r2, r4
  405ea2:	462b      	mov	r3, r5
  405ea4:	f000 fdbe 	bl	406a24 <__aeabi_dmul>
  405ea8:	a389      	add	r3, pc, #548	; (adr r3, 4060d0 <__kernel_tan+0x320>)
  405eaa:	e9d3 2300 	ldrd	r2, r3, [r3]
  405eae:	f000 fc07 	bl	4066c0 <__adddf3>
  405eb2:	4622      	mov	r2, r4
  405eb4:	462b      	mov	r3, r5
  405eb6:	f000 fdb5 	bl	406a24 <__aeabi_dmul>
  405eba:	a387      	add	r3, pc, #540	; (adr r3, 4060d8 <__kernel_tan+0x328>)
  405ebc:	e9d3 2300 	ldrd	r2, r3, [r3]
  405ec0:	f000 fbfe 	bl	4066c0 <__adddf3>
  405ec4:	e9dd 2300 	ldrd	r2, r3, [sp]
  405ec8:	f000 fdac 	bl	406a24 <__aeabi_dmul>
  405ecc:	a384      	add	r3, pc, #528	; (adr r3, 4060e0 <__kernel_tan+0x330>)
  405ece:	e9d3 2300 	ldrd	r2, r3, [r3]
  405ed2:	e9cd 0104 	strd	r0, r1, [sp, #16]
  405ed6:	4620      	mov	r0, r4
  405ed8:	4629      	mov	r1, r5
  405eda:	f000 fda3 	bl	406a24 <__aeabi_dmul>
  405ede:	a382      	add	r3, pc, #520	; (adr r3, 4060e8 <__kernel_tan+0x338>)
  405ee0:	e9d3 2300 	ldrd	r2, r3, [r3]
  405ee4:	f000 fbec 	bl	4066c0 <__adddf3>
  405ee8:	4622      	mov	r2, r4
  405eea:	462b      	mov	r3, r5
  405eec:	f000 fd9a 	bl	406a24 <__aeabi_dmul>
  405ef0:	a37f      	add	r3, pc, #508	; (adr r3, 4060f0 <__kernel_tan+0x340>)
  405ef2:	e9d3 2300 	ldrd	r2, r3, [r3]
  405ef6:	f000 fbe3 	bl	4066c0 <__adddf3>
  405efa:	4622      	mov	r2, r4
  405efc:	462b      	mov	r3, r5
  405efe:	f000 fd91 	bl	406a24 <__aeabi_dmul>
  405f02:	a37d      	add	r3, pc, #500	; (adr r3, 4060f8 <__kernel_tan+0x348>)
  405f04:	e9d3 2300 	ldrd	r2, r3, [r3]
  405f08:	f000 fbda 	bl	4066c0 <__adddf3>
  405f0c:	4622      	mov	r2, r4
  405f0e:	462b      	mov	r3, r5
  405f10:	f000 fd88 	bl	406a24 <__aeabi_dmul>
  405f14:	a37a      	add	r3, pc, #488	; (adr r3, 406100 <__kernel_tan+0x350>)
  405f16:	e9d3 2300 	ldrd	r2, r3, [r3]
  405f1a:	f000 fbd1 	bl	4066c0 <__adddf3>
  405f1e:	4622      	mov	r2, r4
  405f20:	462b      	mov	r3, r5
  405f22:	f000 fd7f 	bl	406a24 <__aeabi_dmul>
  405f26:	a378      	add	r3, pc, #480	; (adr r3, 406108 <__kernel_tan+0x358>)
  405f28:	e9d3 2300 	ldrd	r2, r3, [r3]
  405f2c:	f000 fbc8 	bl	4066c0 <__adddf3>
  405f30:	4602      	mov	r2, r0
  405f32:	460b      	mov	r3, r1
  405f34:	e9dd 0104 	ldrd	r0, r1, [sp, #16]
  405f38:	f000 fbc2 	bl	4066c0 <__adddf3>
  405f3c:	e9dd 2302 	ldrd	r2, r3, [sp, #8]
  405f40:	f000 fd70 	bl	406a24 <__aeabi_dmul>
  405f44:	463a      	mov	r2, r7
  405f46:	4643      	mov	r3, r8
  405f48:	f000 fbba 	bl	4066c0 <__adddf3>
  405f4c:	e9dd 2300 	ldrd	r2, r3, [sp]
  405f50:	f000 fd68 	bl	406a24 <__aeabi_dmul>
  405f54:	4602      	mov	r2, r0
  405f56:	460b      	mov	r3, r1
  405f58:	4638      	mov	r0, r7
  405f5a:	4641      	mov	r1, r8
  405f5c:	f000 fbb0 	bl	4066c0 <__adddf3>
  405f60:	a36b      	add	r3, pc, #428	; (adr r3, 406110 <__kernel_tan+0x360>)
  405f62:	e9d3 2300 	ldrd	r2, r3, [r3]
  405f66:	4604      	mov	r4, r0
  405f68:	460d      	mov	r5, r1
  405f6a:	e9dd 0102 	ldrd	r0, r1, [sp, #8]
  405f6e:	f000 fd59 	bl	406a24 <__aeabi_dmul>
  405f72:	4622      	mov	r2, r4
  405f74:	462b      	mov	r3, r5
  405f76:	f000 fba3 	bl	4066c0 <__adddf3>
  405f7a:	460b      	mov	r3, r1
  405f7c:	4602      	mov	r2, r0
  405f7e:	4651      	mov	r1, sl
  405f80:	4658      	mov	r0, fp
  405f82:	e9cd 2300 	strd	r2, r3, [sp]
  405f86:	f000 fb9b 	bl	4066c0 <__adddf3>
  405f8a:	4b65      	ldr	r3, [pc, #404]	; (406120 <__kernel_tan+0x370>)
  405f8c:	429e      	cmp	r6, r3
  405f8e:	4604      	mov	r4, r0
  405f90:	460d      	mov	r5, r1
  405f92:	dc3a      	bgt.n	40600a <__kernel_tan+0x25a>
  405f94:	9b10      	ldr	r3, [sp, #64]	; 0x40
  405f96:	2b01      	cmp	r3, #1
  405f98:	d034      	beq.n	406004 <__kernel_tan+0x254>
  405f9a:	4602      	mov	r2, r0
  405f9c:	460b      	mov	r3, r1
  405f9e:	2000      	movs	r0, #0
  405fa0:	495e      	ldr	r1, [pc, #376]	; (40611c <__kernel_tan+0x36c>)
  405fa2:	f000 fe69 	bl	406c78 <__aeabi_ddiv>
  405fa6:	2400      	movs	r4, #0
  405fa8:	460f      	mov	r7, r1
  405faa:	4606      	mov	r6, r0
  405fac:	465a      	mov	r2, fp
  405fae:	4653      	mov	r3, sl
  405fb0:	4620      	mov	r0, r4
  405fb2:	4629      	mov	r1, r5
  405fb4:	f000 fb82 	bl	4066bc <__aeabi_dsub>
  405fb8:	46a0      	mov	r8, r4
  405fba:	4602      	mov	r2, r0
  405fbc:	460b      	mov	r3, r1
  405fbe:	e9dd 0100 	ldrd	r0, r1, [sp]
  405fc2:	f000 fb7b 	bl	4066bc <__aeabi_dsub>
  405fc6:	4642      	mov	r2, r8
  405fc8:	463b      	mov	r3, r7
  405fca:	f000 fd2b 	bl	406a24 <__aeabi_dmul>
  405fce:	46a9      	mov	r9, r5
  405fd0:	4604      	mov	r4, r0
  405fd2:	460d      	mov	r5, r1
  405fd4:	4642      	mov	r2, r8
  405fd6:	463b      	mov	r3, r7
  405fd8:	4640      	mov	r0, r8
  405fda:	4649      	mov	r1, r9
  405fdc:	f000 fd22 	bl	406a24 <__aeabi_dmul>
  405fe0:	2200      	movs	r2, #0
  405fe2:	4b50      	ldr	r3, [pc, #320]	; (406124 <__kernel_tan+0x374>)
  405fe4:	f000 fb6c 	bl	4066c0 <__adddf3>
  405fe8:	4602      	mov	r2, r0
  405fea:	460b      	mov	r3, r1
  405fec:	4620      	mov	r0, r4
  405fee:	4629      	mov	r1, r5
  405ff0:	f000 fb66 	bl	4066c0 <__adddf3>
  405ff4:	4632      	mov	r2, r6
  405ff6:	463b      	mov	r3, r7
  405ff8:	f000 fd14 	bl	406a24 <__aeabi_dmul>
  405ffc:	4642      	mov	r2, r8
  405ffe:	463b      	mov	r3, r7
  406000:	f000 fb5e 	bl	4066c0 <__adddf3>
  406004:	b007      	add	sp, #28
  406006:	e8bd 8ff0 	ldmia.w	sp!, {r4, r5, r6, r7, r8, r9, sl, fp, pc}
  40600a:	9810      	ldr	r0, [sp, #64]	; 0x40
  40600c:	f000 fca4 	bl	406958 <__aeabi_i2d>
  406010:	4622      	mov	r2, r4
  406012:	4606      	mov	r6, r0
  406014:	460f      	mov	r7, r1
  406016:	462b      	mov	r3, r5
  406018:	4620      	mov	r0, r4
  40601a:	4629      	mov	r1, r5
  40601c:	f000 fd02 	bl	406a24 <__aeabi_dmul>
  406020:	4632      	mov	r2, r6
  406022:	e9cd 0102 	strd	r0, r1, [sp, #8]
  406026:	463b      	mov	r3, r7
  406028:	4620      	mov	r0, r4
  40602a:	4629      	mov	r1, r5
  40602c:	f000 fb48 	bl	4066c0 <__adddf3>
  406030:	4602      	mov	r2, r0
  406032:	460b      	mov	r3, r1
  406034:	e9dd 0102 	ldrd	r0, r1, [sp, #8]
  406038:	f000 fe1e 	bl	406c78 <__aeabi_ddiv>
  40603c:	e9dd 2300 	ldrd	r2, r3, [sp]
  406040:	f000 fb3c 	bl	4066bc <__aeabi_dsub>
  406044:	4602      	mov	r2, r0
  406046:	460b      	mov	r3, r1
  406048:	4658      	mov	r0, fp
  40604a:	4651      	mov	r1, sl
  40604c:	f000 fb36 	bl	4066bc <__aeabi_dsub>
  406050:	4602      	mov	r2, r0
  406052:	460b      	mov	r3, r1
  406054:	f000 fb34 	bl	4066c0 <__adddf3>
  406058:	4602      	mov	r2, r0
  40605a:	460b      	mov	r3, r1
  40605c:	4630      	mov	r0, r6
  40605e:	4639      	mov	r1, r7
  406060:	f000 fb2c 	bl	4066bc <__aeabi_dsub>
  406064:	4604      	mov	r4, r0
  406066:	ea4f 70a9 	mov.w	r0, r9, asr #30
  40606a:	f000 0002 	and.w	r0, r0, #2
  40606e:	f1c0 0001 	rsb	r0, r0, #1
  406072:	460d      	mov	r5, r1
  406074:	f000 fc70 	bl	406958 <__aeabi_i2d>
  406078:	4602      	mov	r2, r0
  40607a:	460b      	mov	r3, r1
  40607c:	4620      	mov	r0, r4
  40607e:	4629      	mov	r1, r5
  406080:	f000 fcd0 	bl	406a24 <__aeabi_dmul>
  406084:	b007      	add	sp, #28
  406086:	e8bd 8ff0 	ldmia.w	sp!, {r4, r5, r6, r7, r8, r9, sl, fp, pc}
  40608a:	4658      	mov	r0, fp
  40608c:	4651      	mov	r1, sl
  40608e:	f000 f9f5 	bl	40647c <fabs>
  406092:	4602      	mov	r2, r0
  406094:	460b      	mov	r3, r1
  406096:	2000      	movs	r0, #0
  406098:	4922      	ldr	r1, [pc, #136]	; (406124 <__kernel_tan+0x374>)
  40609a:	f000 fded 	bl	406c78 <__aeabi_ddiv>
  40609e:	e7b1      	b.n	406004 <__kernel_tan+0x254>
  4060a0:	54442d18 	.word	0x54442d18
  4060a4:	3fe921fb 	.word	0x3fe921fb
  4060a8:	33145c07 	.word	0x33145c07
  4060ac:	3c81a626 	.word	0x3c81a626
  4060b0:	74bf7ad4 	.word	0x74bf7ad4
  4060b4:	3efb2a70 	.word	0x3efb2a70
  4060b8:	32f0a7e9 	.word	0x32f0a7e9
  4060bc:	3f12b80f 	.word	0x3f12b80f
  4060c0:	1a8d1068 	.word	0x1a8d1068
  4060c4:	3f3026f7 	.word	0x3f3026f7
  4060c8:	fee08315 	.word	0xfee08315
  4060cc:	3f57dbc8 	.word	0x3f57dbc8
  4060d0:	e96e8493 	.word	0xe96e8493
  4060d4:	3f8226e3 	.word	0x3f8226e3
  4060d8:	1bb341fe 	.word	0x1bb341fe
  4060dc:	3faba1ba 	.word	0x3faba1ba
  4060e0:	db605373 	.word	0xdb605373
  4060e4:	bef375cb 	.word	0xbef375cb
  4060e8:	a03792a6 	.word	0xa03792a6
  4060ec:	3f147e88 	.word	0x3f147e88
  4060f0:	f2f26501 	.word	0xf2f26501
  4060f4:	3f4344d8 	.word	0x3f4344d8
  4060f8:	c9560328 	.word	0xc9560328
  4060fc:	3f6d6d22 	.word	0x3f6d6d22
  406100:	8406d637 	.word	0x8406d637
  406104:	3f9664f4 	.word	0x3f9664f4
  406108:	1110fe7a 	.word	0x1110fe7a
  40610c:	3fc11111 	.word	0x3fc11111
  406110:	55555563 	.word	0x55555563
  406114:	3fd55555 	.word	0x3fd55555
  406118:	3e2fffff 	.word	0x3e2fffff
  40611c:	bff00000 	.word	0xbff00000
  406120:	3fe59427 	.word	0x3fe59427
  406124:	3ff00000 	.word	0x3ff00000
  406128:	f101 4300 	add.w	r3, r1, #2147483648	; 0x80000000
  40612c:	f108 4800 	add.w	r8, r8, #2147483648	; 0x80000000
  406130:	4683      	mov	fp, r0
  406132:	469a      	mov	sl, r3
  406134:	e666      	b.n	405e04 <__kernel_tan+0x54>
  406136:	4658      	mov	r0, fp
  406138:	4651      	mov	r1, sl
  40613a:	e763      	b.n	406004 <__kernel_tan+0x254>
  40613c:	0000      	movs	r0, r0
	...

00406140 <atan>:
  406140:	e92d 4ff8 	stmdb	sp!, {r3, r4, r5, r6, r7, r8, r9, sl, fp, lr}
  406144:	4bc0      	ldr	r3, [pc, #768]	; (406448 <atan+0x308>)
  406146:	f021 4600 	bic.w	r6, r1, #2147483648	; 0x80000000
  40614a:	429e      	cmp	r6, r3
  40614c:	460d      	mov	r5, r1
  40614e:	468a      	mov	sl, r1
  406150:	4604      	mov	r4, r0
  406152:	dd0f      	ble.n	406174 <atan+0x34>
  406154:	4bbd      	ldr	r3, [pc, #756]	; (40644c <atan+0x30c>)
  406156:	429e      	cmp	r6, r3
  406158:	f300 80b2 	bgt.w	4062c0 <atan+0x180>
  40615c:	f000 80ad 	beq.w	4062ba <atan+0x17a>
  406160:	4bbb      	ldr	r3, [pc, #748]	; (406450 <atan+0x310>)
  406162:	49bc      	ldr	r1, [pc, #752]	; (406454 <atan+0x314>)
  406164:	4cbc      	ldr	r4, [pc, #752]	; (406458 <atan+0x318>)
  406166:	f1ba 0f00 	cmp.w	sl, #0
  40616a:	bfc8      	it	gt
  40616c:	4619      	movgt	r1, r3
  40616e:	4620      	mov	r0, r4
  406170:	e8bd 8ff8 	ldmia.w	sp!, {r3, r4, r5, r6, r7, r8, r9, sl, fp, pc}
  406174:	4bb9      	ldr	r3, [pc, #740]	; (40645c <atan+0x31c>)
  406176:	429e      	cmp	r6, r3
  406178:	f300 80bc 	bgt.w	4062f4 <atan+0x1b4>
  40617c:	f1a3 73de 	sub.w	r3, r3, #29097984	; 0x1bc0000
  406180:	429e      	cmp	r6, r3
  406182:	f340 80a7 	ble.w	4062d4 <atan+0x194>
  406186:	f04f 3bff 	mov.w	fp, #4294967295
  40618a:	4622      	mov	r2, r4
  40618c:	462b      	mov	r3, r5
  40618e:	4620      	mov	r0, r4
  406190:	4629      	mov	r1, r5
  406192:	f000 fc47 	bl	406a24 <__aeabi_dmul>
  406196:	4602      	mov	r2, r0
  406198:	460b      	mov	r3, r1
  40619a:	4680      	mov	r8, r0
  40619c:	4689      	mov	r9, r1
  40619e:	f000 fc41 	bl	406a24 <__aeabi_dmul>
  4061a2:	a391      	add	r3, pc, #580	; (adr r3, 4063e8 <atan+0x2a8>)
  4061a4:	e9d3 2300 	ldrd	r2, r3, [r3]
  4061a8:	4606      	mov	r6, r0
  4061aa:	460f      	mov	r7, r1
  4061ac:	f000 fc3a 	bl	406a24 <__aeabi_dmul>
  4061b0:	a38f      	add	r3, pc, #572	; (adr r3, 4063f0 <atan+0x2b0>)
  4061b2:	e9d3 2300 	ldrd	r2, r3, [r3]
  4061b6:	f000 fa83 	bl	4066c0 <__adddf3>
  4061ba:	4632      	mov	r2, r6
  4061bc:	463b      	mov	r3, r7
  4061be:	f000 fc31 	bl	406a24 <__aeabi_dmul>
  4061c2:	a38d      	add	r3, pc, #564	; (adr r3, 4063f8 <atan+0x2b8>)
  4061c4:	e9d3 2300 	ldrd	r2, r3, [r3]
  4061c8:	f000 fa7a 	bl	4066c0 <__adddf3>
  4061cc:	4632      	mov	r2, r6
  4061ce:	463b      	mov	r3, r7
  4061d0:	f000 fc28 	bl	406a24 <__aeabi_dmul>
  4061d4:	a38a      	add	r3, pc, #552	; (adr r3, 406400 <atan+0x2c0>)
  4061d6:	e9d3 2300 	ldrd	r2, r3, [r3]
  4061da:	f000 fa71 	bl	4066c0 <__adddf3>
  4061de:	4632      	mov	r2, r6
  4061e0:	463b      	mov	r3, r7
  4061e2:	f000 fc1f 	bl	406a24 <__aeabi_dmul>
  4061e6:	a388      	add	r3, pc, #544	; (adr r3, 406408 <atan+0x2c8>)
  4061e8:	e9d3 2300 	ldrd	r2, r3, [r3]
  4061ec:	f000 fa68 	bl	4066c0 <__adddf3>
  4061f0:	4632      	mov	r2, r6
  4061f2:	463b      	mov	r3, r7
  4061f4:	f000 fc16 	bl	406a24 <__aeabi_dmul>
  4061f8:	a385      	add	r3, pc, #532	; (adr r3, 406410 <atan+0x2d0>)
  4061fa:	e9d3 2300 	ldrd	r2, r3, [r3]
  4061fe:	f000 fa5f 	bl	4066c0 <__adddf3>
  406202:	4642      	mov	r2, r8
  406204:	464b      	mov	r3, r9
  406206:	f000 fc0d 	bl	406a24 <__aeabi_dmul>
  40620a:	a383      	add	r3, pc, #524	; (adr r3, 406418 <atan+0x2d8>)
  40620c:	e9d3 2300 	ldrd	r2, r3, [r3]
  406210:	4680      	mov	r8, r0
  406212:	4689      	mov	r9, r1
  406214:	4630      	mov	r0, r6
  406216:	4639      	mov	r1, r7
  406218:	f000 fc04 	bl	406a24 <__aeabi_dmul>
  40621c:	a380      	add	r3, pc, #512	; (adr r3, 406420 <atan+0x2e0>)
  40621e:	e9d3 2300 	ldrd	r2, r3, [r3]
  406222:	f000 fa4b 	bl	4066bc <__aeabi_dsub>
  406226:	4632      	mov	r2, r6
  406228:	463b      	mov	r3, r7
  40622a:	f000 fbfb 	bl	406a24 <__aeabi_dmul>
  40622e:	a37e      	add	r3, pc, #504	; (adr r3, 406428 <atan+0x2e8>)
  406230:	e9d3 2300 	ldrd	r2, r3, [r3]
  406234:	f000 fa42 	bl	4066bc <__aeabi_dsub>
  406238:	4632      	mov	r2, r6
  40623a:	463b      	mov	r3, r7
  40623c:	f000 fbf2 	bl	406a24 <__aeabi_dmul>
  406240:	a37b      	add	r3, pc, #492	; (adr r3, 406430 <atan+0x2f0>)
  406242:	e9d3 2300 	ldrd	r2, r3, [r3]
  406246:	f000 fa39 	bl	4066bc <__aeabi_dsub>
  40624a:	4632      	mov	r2, r6
  40624c:	463b      	mov	r3, r7
  40624e:	f000 fbe9 	bl	406a24 <__aeabi_dmul>
  406252:	a379      	add	r3, pc, #484	; (adr r3, 406438 <atan+0x2f8>)
  406254:	e9d3 2300 	ldrd	r2, r3, [r3]
  406258:	f000 fa30 	bl	4066bc <__aeabi_dsub>
  40625c:	4632      	mov	r2, r6
  40625e:	463b      	mov	r3, r7
  406260:	f000 fbe0 	bl	406a24 <__aeabi_dmul>
  406264:	f1bb 3fff 	cmp.w	fp, #4294967295
  406268:	4602      	mov	r2, r0
  40626a:	460b      	mov	r3, r1
  40626c:	d069      	beq.n	406342 <atan+0x202>
  40626e:	4640      	mov	r0, r8
  406270:	4649      	mov	r1, r9
  406272:	f000 fa25 	bl	4066c0 <__adddf3>
  406276:	4622      	mov	r2, r4
  406278:	462b      	mov	r3, r5
  40627a:	f000 fbd3 	bl	406a24 <__aeabi_dmul>
  40627e:	4e78      	ldr	r6, [pc, #480]	; (406460 <atan+0x320>)
  406280:	4b78      	ldr	r3, [pc, #480]	; (406464 <atan+0x324>)
  406282:	ea4f 0bcb 	mov.w	fp, fp, lsl #3
  406286:	445e      	add	r6, fp
  406288:	449b      	add	fp, r3
  40628a:	e9db 2300 	ldrd	r2, r3, [fp]
  40628e:	f000 fa15 	bl	4066bc <__aeabi_dsub>
  406292:	4622      	mov	r2, r4
  406294:	462b      	mov	r3, r5
  406296:	f000 fa11 	bl	4066bc <__aeabi_dsub>
  40629a:	4602      	mov	r2, r0
  40629c:	460b      	mov	r3, r1
  40629e:	e9d6 0100 	ldrd	r0, r1, [r6]
  4062a2:	f000 fa0b 	bl	4066bc <__aeabi_dsub>
  4062a6:	f1ba 0f00 	cmp.w	sl, #0
  4062aa:	4604      	mov	r4, r0
  4062ac:	f6bf af5f 	bge.w	40616e <atan+0x2e>
  4062b0:	f101 4100 	add.w	r1, r1, #2147483648	; 0x80000000
  4062b4:	4620      	mov	r0, r4
  4062b6:	e8bd 8ff8 	ldmia.w	sp!, {r3, r4, r5, r6, r7, r8, r9, sl, fp, pc}
  4062ba:	2800      	cmp	r0, #0
  4062bc:	f43f af50 	beq.w	406160 <atan+0x20>
  4062c0:	4622      	mov	r2, r4
  4062c2:	4620      	mov	r0, r4
  4062c4:	462b      	mov	r3, r5
  4062c6:	4629      	mov	r1, r5
  4062c8:	f000 f9fa 	bl	4066c0 <__adddf3>
  4062cc:	4604      	mov	r4, r0
  4062ce:	4620      	mov	r0, r4
  4062d0:	e8bd 8ff8 	ldmia.w	sp!, {r3, r4, r5, r6, r7, r8, r9, sl, fp, pc}
  4062d4:	a35a      	add	r3, pc, #360	; (adr r3, 406440 <atan+0x300>)
  4062d6:	e9d3 2300 	ldrd	r2, r3, [r3]
  4062da:	f000 f9f1 	bl	4066c0 <__adddf3>
  4062de:	2200      	movs	r2, #0
  4062e0:	4b61      	ldr	r3, [pc, #388]	; (406468 <atan+0x328>)
  4062e2:	f000 fe2f 	bl	406f44 <__aeabi_dcmpgt>
  4062e6:	2800      	cmp	r0, #0
  4062e8:	f43f af4d 	beq.w	406186 <atan+0x46>
  4062ec:	4629      	mov	r1, r5
  4062ee:	4620      	mov	r0, r4
  4062f0:	e8bd 8ff8 	ldmia.w	sp!, {r3, r4, r5, r6, r7, r8, r9, sl, fp, pc}
  4062f4:	f000 f8c2 	bl	40647c <fabs>
  4062f8:	4b5c      	ldr	r3, [pc, #368]	; (40646c <atan+0x32c>)
  4062fa:	429e      	cmp	r6, r3
  4062fc:	4604      	mov	r4, r0
  4062fe:	460d      	mov	r5, r1
  406300:	dc2f      	bgt.n	406362 <atan+0x222>
  406302:	f5a3 2350 	sub.w	r3, r3, #851968	; 0xd0000
  406306:	429e      	cmp	r6, r3
  406308:	dc54      	bgt.n	4063b4 <atan+0x274>
  40630a:	4602      	mov	r2, r0
  40630c:	460b      	mov	r3, r1
  40630e:	f000 f9d7 	bl	4066c0 <__adddf3>
  406312:	2200      	movs	r2, #0
  406314:	4b54      	ldr	r3, [pc, #336]	; (406468 <atan+0x328>)
  406316:	f000 f9d1 	bl	4066bc <__aeabi_dsub>
  40631a:	2200      	movs	r2, #0
  40631c:	4606      	mov	r6, r0
  40631e:	460f      	mov	r7, r1
  406320:	f04f 4380 	mov.w	r3, #1073741824	; 0x40000000
  406324:	4620      	mov	r0, r4
  406326:	4629      	mov	r1, r5
  406328:	f000 f9ca 	bl	4066c0 <__adddf3>
  40632c:	4602      	mov	r2, r0
  40632e:	460b      	mov	r3, r1
  406330:	4630      	mov	r0, r6
  406332:	4639      	mov	r1, r7
  406334:	f000 fca0 	bl	406c78 <__aeabi_ddiv>
  406338:	f04f 0b00 	mov.w	fp, #0
  40633c:	4604      	mov	r4, r0
  40633e:	460d      	mov	r5, r1
  406340:	e723      	b.n	40618a <atan+0x4a>
  406342:	4640      	mov	r0, r8
  406344:	4649      	mov	r1, r9
  406346:	f000 f9bb 	bl	4066c0 <__adddf3>
  40634a:	4622      	mov	r2, r4
  40634c:	462b      	mov	r3, r5
  40634e:	f000 fb69 	bl	406a24 <__aeabi_dmul>
  406352:	4602      	mov	r2, r0
  406354:	460b      	mov	r3, r1
  406356:	4620      	mov	r0, r4
  406358:	4629      	mov	r1, r5
  40635a:	f000 f9af 	bl	4066bc <__aeabi_dsub>
  40635e:	4604      	mov	r4, r0
  406360:	e705      	b.n	40616e <atan+0x2e>
  406362:	4b43      	ldr	r3, [pc, #268]	; (406470 <atan+0x330>)
  406364:	429e      	cmp	r6, r3
  406366:	dc1a      	bgt.n	40639e <atan+0x25e>
  406368:	2200      	movs	r2, #0
  40636a:	4b42      	ldr	r3, [pc, #264]	; (406474 <atan+0x334>)
  40636c:	f000 f9a6 	bl	4066bc <__aeabi_dsub>
  406370:	2200      	movs	r2, #0
  406372:	4606      	mov	r6, r0
  406374:	460f      	mov	r7, r1
  406376:	4b3f      	ldr	r3, [pc, #252]	; (406474 <atan+0x334>)
  406378:	4620      	mov	r0, r4
  40637a:	4629      	mov	r1, r5
  40637c:	f000 fb52 	bl	406a24 <__aeabi_dmul>
  406380:	2200      	movs	r2, #0
  406382:	4b39      	ldr	r3, [pc, #228]	; (406468 <atan+0x328>)
  406384:	f000 f99c 	bl	4066c0 <__adddf3>
  406388:	4602      	mov	r2, r0
  40638a:	460b      	mov	r3, r1
  40638c:	4630      	mov	r0, r6
  40638e:	4639      	mov	r1, r7
  406390:	f000 fc72 	bl	406c78 <__aeabi_ddiv>
  406394:	f04f 0b02 	mov.w	fp, #2
  406398:	4604      	mov	r4, r0
  40639a:	460d      	mov	r5, r1
  40639c:	e6f5      	b.n	40618a <atan+0x4a>
  40639e:	4602      	mov	r2, r0
  4063a0:	460b      	mov	r3, r1
  4063a2:	2000      	movs	r0, #0
  4063a4:	4934      	ldr	r1, [pc, #208]	; (406478 <atan+0x338>)
  4063a6:	f000 fc67 	bl	406c78 <__aeabi_ddiv>
  4063aa:	f04f 0b03 	mov.w	fp, #3
  4063ae:	4604      	mov	r4, r0
  4063b0:	460d      	mov	r5, r1
  4063b2:	e6ea      	b.n	40618a <atan+0x4a>
  4063b4:	2200      	movs	r2, #0
  4063b6:	4b2c      	ldr	r3, [pc, #176]	; (406468 <atan+0x328>)
  4063b8:	f000 f980 	bl	4066bc <__aeabi_dsub>
  4063bc:	2200      	movs	r2, #0
  4063be:	4606      	mov	r6, r0
  4063c0:	460f      	mov	r7, r1
  4063c2:	4b29      	ldr	r3, [pc, #164]	; (406468 <atan+0x328>)
  4063c4:	4620      	mov	r0, r4
  4063c6:	4629      	mov	r1, r5
  4063c8:	f000 f97a 	bl	4066c0 <__adddf3>
  4063cc:	4602      	mov	r2, r0
  4063ce:	460b      	mov	r3, r1
  4063d0:	4630      	mov	r0, r6
  4063d2:	4639      	mov	r1, r7
  4063d4:	f000 fc50 	bl	406c78 <__aeabi_ddiv>
  4063d8:	f04f 0b01 	mov.w	fp, #1
  4063dc:	4604      	mov	r4, r0
  4063de:	460d      	mov	r5, r1
  4063e0:	e6d3      	b.n	40618a <atan+0x4a>
  4063e2:	bf00      	nop
  4063e4:	f3af 8000 	nop.w
  4063e8:	e322da11 	.word	0xe322da11
  4063ec:	3f90ad3a 	.word	0x3f90ad3a
  4063f0:	24760deb 	.word	0x24760deb
  4063f4:	3fa97b4b 	.word	0x3fa97b4b
  4063f8:	a0d03d51 	.word	0xa0d03d51
  4063fc:	3fb10d66 	.word	0x3fb10d66
  406400:	c54c206e 	.word	0xc54c206e
  406404:	3fb745cd 	.word	0x3fb745cd
  406408:	920083ff 	.word	0x920083ff
  40640c:	3fc24924 	.word	0x3fc24924
  406410:	5555550d 	.word	0x5555550d
  406414:	3fd55555 	.word	0x3fd55555
  406418:	2c6a6c2f 	.word	0x2c6a6c2f
  40641c:	bfa2b444 	.word	0xbfa2b444
  406420:	52defd9a 	.word	0x52defd9a
  406424:	3fadde2d 	.word	0x3fadde2d
  406428:	af749a6d 	.word	0xaf749a6d
  40642c:	3fb3b0f2 	.word	0x3fb3b0f2
  406430:	fe231671 	.word	0xfe231671
  406434:	3fbc71c6 	.word	0x3fbc71c6
  406438:	9998ebc4 	.word	0x9998ebc4
  40643c:	3fc99999 	.word	0x3fc99999
  406440:	8800759c 	.word	0x8800759c
  406444:	7e37e43c 	.word	0x7e37e43c
  406448:	440fffff 	.word	0x440fffff
  40644c:	7ff00000 	.word	0x7ff00000
  406450:	3ff921fb 	.word	0x3ff921fb
  406454:	bff921fb 	.word	0xbff921fb
  406458:	54442d18 	.word	0x54442d18
  40645c:	3fdbffff 	.word	0x3fdbffff
  406460:	00407ce8 	.word	0x00407ce8
  406464:	00407cc8 	.word	0x00407cc8
  406468:	3ff00000 	.word	0x3ff00000
  40646c:	3ff2ffff 	.word	0x3ff2ffff
  406470:	40037fff 	.word	0x40037fff
  406474:	3ff80000 	.word	0x3ff80000
  406478:	bff00000 	.word	0xbff00000

0040647c <fabs>:
  40647c:	f021 4100 	bic.w	r1, r1, #2147483648	; 0x80000000
  406480:	4770      	bx	lr
  406482:	bf00      	nop
  406484:	0000      	movs	r0, r0
	...

00406488 <floor>:
  406488:	f3c1 520a 	ubfx	r2, r1, #20, #11
  40648c:	e92d 43f8 	stmdb	sp!, {r3, r4, r5, r6, r7, r8, r9, lr}
  406490:	f2a2 36ff 	subw	r6, r2, #1023	; 0x3ff
  406494:	2e13      	cmp	r6, #19
  406496:	460b      	mov	r3, r1
  406498:	460d      	mov	r5, r1
  40649a:	4604      	mov	r4, r0
  40649c:	4688      	mov	r8, r1
  40649e:	4607      	mov	r7, r0
  4064a0:	dc1c      	bgt.n	4064dc <floor+0x54>
  4064a2:	2e00      	cmp	r6, #0
  4064a4:	db3f      	blt.n	406526 <floor+0x9e>
  4064a6:	4a3a      	ldr	r2, [pc, #232]	; (406590 <floor+0x108>)
  4064a8:	fa42 f906 	asr.w	r9, r2, r6
  4064ac:	ea01 0209 	and.w	r2, r1, r9
  4064b0:	4302      	orrs	r2, r0
  4064b2:	4686      	mov	lr, r0
  4064b4:	d017      	beq.n	4064e6 <floor+0x5e>
  4064b6:	a334      	add	r3, pc, #208	; (adr r3, 406588 <floor+0x100>)
  4064b8:	e9d3 2300 	ldrd	r2, r3, [r3]
  4064bc:	f000 f900 	bl	4066c0 <__adddf3>
  4064c0:	2200      	movs	r2, #0
  4064c2:	2300      	movs	r3, #0
  4064c4:	f000 fd3e 	bl	406f44 <__aeabi_dcmpgt>
  4064c8:	b120      	cbz	r0, 4064d4 <floor+0x4c>
  4064ca:	2d00      	cmp	r5, #0
  4064cc:	db40      	blt.n	406550 <floor+0xc8>
  4064ce:	ea28 0509 	bic.w	r5, r8, r9
  4064d2:	2700      	movs	r7, #0
  4064d4:	4638      	mov	r0, r7
  4064d6:	4629      	mov	r1, r5
  4064d8:	e8bd 83f8 	ldmia.w	sp!, {r3, r4, r5, r6, r7, r8, r9, pc}
  4064dc:	2e33      	cmp	r6, #51	; 0x33
  4064de:	dd06      	ble.n	4064ee <floor+0x66>
  4064e0:	f5b6 6f80 	cmp.w	r6, #1024	; 0x400
  4064e4:	d02f      	beq.n	406546 <floor+0xbe>
  4064e6:	4620      	mov	r0, r4
  4064e8:	4619      	mov	r1, r3
  4064ea:	e8bd 83f8 	ldmia.w	sp!, {r3, r4, r5, r6, r7, r8, r9, pc}
  4064ee:	f2a2 4213 	subw	r2, r2, #1043	; 0x413
  4064f2:	f04f 39ff 	mov.w	r9, #4294967295
  4064f6:	fa29 f902 	lsr.w	r9, r9, r2
  4064fa:	ea10 0f09 	tst.w	r0, r9
  4064fe:	d0f2      	beq.n	4064e6 <floor+0x5e>
  406500:	a321      	add	r3, pc, #132	; (adr r3, 406588 <floor+0x100>)
  406502:	e9d3 2300 	ldrd	r2, r3, [r3]
  406506:	f000 f8db 	bl	4066c0 <__adddf3>
  40650a:	2200      	movs	r2, #0
  40650c:	2300      	movs	r3, #0
  40650e:	f000 fd19 	bl	406f44 <__aeabi_dcmpgt>
  406512:	2800      	cmp	r0, #0
  406514:	d0de      	beq.n	4064d4 <floor+0x4c>
  406516:	2d00      	cmp	r5, #0
  406518:	db20      	blt.n	40655c <floor+0xd4>
  40651a:	4645      	mov	r5, r8
  40651c:	ea27 0709 	bic.w	r7, r7, r9
  406520:	4638      	mov	r0, r7
  406522:	4629      	mov	r1, r5
  406524:	e7d8      	b.n	4064d8 <floor+0x50>
  406526:	a318      	add	r3, pc, #96	; (adr r3, 406588 <floor+0x100>)
  406528:	e9d3 2300 	ldrd	r2, r3, [r3]
  40652c:	f000 f8c8 	bl	4066c0 <__adddf3>
  406530:	2200      	movs	r2, #0
  406532:	2300      	movs	r3, #0
  406534:	f000 fd06 	bl	406f44 <__aeabi_dcmpgt>
  406538:	2800      	cmp	r0, #0
  40653a:	d0cb      	beq.n	4064d4 <floor+0x4c>
  40653c:	2d00      	cmp	r5, #0
  40653e:	db18      	blt.n	406572 <floor+0xea>
  406540:	2700      	movs	r7, #0
  406542:	463d      	mov	r5, r7
  406544:	e7c6      	b.n	4064d4 <floor+0x4c>
  406546:	4602      	mov	r2, r0
  406548:	460b      	mov	r3, r1
  40654a:	f000 f8b9 	bl	4066c0 <__adddf3>
  40654e:	e7cc      	b.n	4064ea <floor+0x62>
  406550:	f44f 1380 	mov.w	r3, #1048576	; 0x100000
  406554:	fa43 f606 	asr.w	r6, r3, r6
  406558:	44b0      	add	r8, r6
  40655a:	e7b8      	b.n	4064ce <floor+0x46>
  40655c:	2e14      	cmp	r6, #20
  40655e:	d010      	beq.n	406582 <floor+0xfa>
  406560:	2301      	movs	r3, #1
  406562:	f1c6 0634 	rsb	r6, r6, #52	; 0x34
  406566:	fa03 f606 	lsl.w	r6, r3, r6
  40656a:	1937      	adds	r7, r6, r4
  40656c:	bf28      	it	cs
  40656e:	4498      	addcs	r8, r3
  406570:	e7d3      	b.n	40651a <floor+0x92>
  406572:	f025 4200 	bic.w	r2, r5, #2147483648	; 0x80000000
  406576:	4b07      	ldr	r3, [pc, #28]	; (406594 <floor+0x10c>)
  406578:	4322      	orrs	r2, r4
  40657a:	bf18      	it	ne
  40657c:	461d      	movne	r5, r3
  40657e:	2700      	movs	r7, #0
  406580:	e7a8      	b.n	4064d4 <floor+0x4c>
  406582:	f105 0801 	add.w	r8, r5, #1
  406586:	e7c8      	b.n	40651a <floor+0x92>
  406588:	8800759c 	.word	0x8800759c
  40658c:	7e37e43c 	.word	0x7e37e43c
  406590:	000fffff 	.word	0x000fffff
  406594:	bff00000 	.word	0xbff00000

00406598 <matherr>:
  406598:	2000      	movs	r0, #0
  40659a:	4770      	bx	lr

0040659c <nan>:
  40659c:	2000      	movs	r0, #0
  40659e:	4901      	ldr	r1, [pc, #4]	; (4065a4 <nan+0x8>)
  4065a0:	4770      	bx	lr
  4065a2:	bf00      	nop
  4065a4:	7ff80000 	.word	0x7ff80000

004065a8 <scalbn>:
  4065a8:	b5f8      	push	{r3, r4, r5, r6, r7, lr}
  4065aa:	f3c1 560a 	ubfx	r6, r1, #20, #11
  4065ae:	4604      	mov	r4, r0
  4065b0:	460d      	mov	r5, r1
  4065b2:	460b      	mov	r3, r1
  4065b4:	4617      	mov	r7, r2
  4065b6:	bb06      	cbnz	r6, 4065fa <scalbn+0x52>
  4065b8:	f021 4300 	bic.w	r3, r1, #2147483648	; 0x80000000
  4065bc:	4303      	orrs	r3, r0
  4065be:	d025      	beq.n	40660c <scalbn+0x64>
  4065c0:	2200      	movs	r2, #0
  4065c2:	4b35      	ldr	r3, [pc, #212]	; (406698 <scalbn+0xf0>)
  4065c4:	f000 fa2e 	bl	406a24 <__aeabi_dmul>
  4065c8:	4a34      	ldr	r2, [pc, #208]	; (40669c <scalbn+0xf4>)
  4065ca:	4297      	cmp	r7, r2
  4065cc:	4604      	mov	r4, r0
  4065ce:	460d      	mov	r5, r1
  4065d0:	460b      	mov	r3, r1
  4065d2:	db2a      	blt.n	40662a <scalbn+0x82>
  4065d4:	f3c1 560a 	ubfx	r6, r1, #20, #11
  4065d8:	3e36      	subs	r6, #54	; 0x36
  4065da:	443e      	add	r6, r7
  4065dc:	f240 72fe 	movw	r2, #2046	; 0x7fe
  4065e0:	4296      	cmp	r6, r2
  4065e2:	dc28      	bgt.n	406636 <scalbn+0x8e>
  4065e4:	2e00      	cmp	r6, #0
  4065e6:	dd12      	ble.n	40660e <scalbn+0x66>
  4065e8:	f023 43ff 	bic.w	r3, r3, #2139095040	; 0x7f800000
  4065ec:	f423 03e0 	bic.w	r3, r3, #7340032	; 0x700000
  4065f0:	ea43 5506 	orr.w	r5, r3, r6, lsl #20
  4065f4:	4620      	mov	r0, r4
  4065f6:	4629      	mov	r1, r5
  4065f8:	bdf8      	pop	{r3, r4, r5, r6, r7, pc}
  4065fa:	f240 72ff 	movw	r2, #2047	; 0x7ff
  4065fe:	4296      	cmp	r6, r2
  406600:	d1eb      	bne.n	4065da <scalbn+0x32>
  406602:	4602      	mov	r2, r0
  406604:	460b      	mov	r3, r1
  406606:	f000 f85b 	bl	4066c0 <__adddf3>
  40660a:	bdf8      	pop	{r3, r4, r5, r6, r7, pc}
  40660c:	bdf8      	pop	{r3, r4, r5, r6, r7, pc}
  40660e:	f116 0f35 	cmn.w	r6, #53	; 0x35
  406612:	da1d      	bge.n	406650 <scalbn+0xa8>
  406614:	f24c 3350 	movw	r3, #50000	; 0xc350
  406618:	429f      	cmp	r7, r3
  40661a:	4622      	mov	r2, r4
  40661c:	462b      	mov	r3, r5
  40661e:	dc25      	bgt.n	40666c <scalbn+0xc4>
  406620:	a119      	add	r1, pc, #100	; (adr r1, 406688 <scalbn+0xe0>)
  406622:	e9d1 0100 	ldrd	r0, r1, [r1]
  406626:	f000 f83d 	bl	4066a4 <copysign>
  40662a:	a317      	add	r3, pc, #92	; (adr r3, 406688 <scalbn+0xe0>)
  40662c:	e9d3 2300 	ldrd	r2, r3, [r3]
  406630:	f000 f9f8 	bl	406a24 <__aeabi_dmul>
  406634:	bdf8      	pop	{r3, r4, r5, r6, r7, pc}
  406636:	4622      	mov	r2, r4
  406638:	462b      	mov	r3, r5
  40663a:	a115      	add	r1, pc, #84	; (adr r1, 406690 <scalbn+0xe8>)
  40663c:	e9d1 0100 	ldrd	r0, r1, [r1]
  406640:	f000 f830 	bl	4066a4 <copysign>
  406644:	a312      	add	r3, pc, #72	; (adr r3, 406690 <scalbn+0xe8>)
  406646:	e9d3 2300 	ldrd	r2, r3, [r3]
  40664a:	f000 f9eb 	bl	406a24 <__aeabi_dmul>
  40664e:	bdf8      	pop	{r3, r4, r5, r6, r7, pc}
  406650:	f023 43ff 	bic.w	r3, r3, #2139095040	; 0x7f800000
  406654:	f423 03e0 	bic.w	r3, r3, #7340032	; 0x700000
  406658:	3636      	adds	r6, #54	; 0x36
  40665a:	ea43 5506 	orr.w	r5, r3, r6, lsl #20
  40665e:	4620      	mov	r0, r4
  406660:	4629      	mov	r1, r5
  406662:	2200      	movs	r2, #0
  406664:	4b0e      	ldr	r3, [pc, #56]	; (4066a0 <scalbn+0xf8>)
  406666:	f000 f9dd 	bl	406a24 <__aeabi_dmul>
  40666a:	bdf8      	pop	{r3, r4, r5, r6, r7, pc}
  40666c:	a108      	add	r1, pc, #32	; (adr r1, 406690 <scalbn+0xe8>)
  40666e:	e9d1 0100 	ldrd	r0, r1, [r1]
  406672:	f000 f817 	bl	4066a4 <copysign>
  406676:	a306      	add	r3, pc, #24	; (adr r3, 406690 <scalbn+0xe8>)
  406678:	e9d3 2300 	ldrd	r2, r3, [r3]
  40667c:	f000 f9d2 	bl	406a24 <__aeabi_dmul>
  406680:	bdf8      	pop	{r3, r4, r5, r6, r7, pc}
  406682:	bf00      	nop
  406684:	f3af 8000 	nop.w
  406688:	c2f8f359 	.word	0xc2f8f359
  40668c:	01a56e1f 	.word	0x01a56e1f
  406690:	8800759c 	.word	0x8800759c
  406694:	7e37e43c 	.word	0x7e37e43c
  406698:	43500000 	.word	0x43500000
  40669c:	ffff3cb0 	.word	0xffff3cb0
  4066a0:	3c900000 	.word	0x3c900000

004066a4 <copysign>:
  4066a4:	f003 4300 	and.w	r3, r3, #2147483648	; 0x80000000
  4066a8:	f021 4200 	bic.w	r2, r1, #2147483648	; 0x80000000
  4066ac:	ea42 0103 	orr.w	r1, r2, r3
  4066b0:	4770      	bx	lr
  4066b2:	bf00      	nop

004066b4 <__aeabi_drsub>:
  4066b4:	f081 4100 	eor.w	r1, r1, #2147483648	; 0x80000000
  4066b8:	e002      	b.n	4066c0 <__adddf3>
  4066ba:	bf00      	nop

004066bc <__aeabi_dsub>:
  4066bc:	f083 4300 	eor.w	r3, r3, #2147483648	; 0x80000000

004066c0 <__adddf3>:
  4066c0:	b530      	push	{r4, r5, lr}
  4066c2:	ea4f 0441 	mov.w	r4, r1, lsl #1
  4066c6:	ea4f 0543 	mov.w	r5, r3, lsl #1
  4066ca:	ea94 0f05 	teq	r4, r5
  4066ce:	bf08      	it	eq
  4066d0:	ea90 0f02 	teqeq	r0, r2
  4066d4:	bf1f      	itttt	ne
  4066d6:	ea54 0c00 	orrsne.w	ip, r4, r0
  4066da:	ea55 0c02 	orrsne.w	ip, r5, r2
  4066de:	ea7f 5c64 	mvnsne.w	ip, r4, asr #21
  4066e2:	ea7f 5c65 	mvnsne.w	ip, r5, asr #21
  4066e6:	f000 80e2 	beq.w	4068ae <__adddf3+0x1ee>
  4066ea:	ea4f 5454 	mov.w	r4, r4, lsr #21
  4066ee:	ebd4 5555 	rsbs	r5, r4, r5, lsr #21
  4066f2:	bfb8      	it	lt
  4066f4:	426d      	neglt	r5, r5
  4066f6:	dd0c      	ble.n	406712 <__adddf3+0x52>
  4066f8:	442c      	add	r4, r5
  4066fa:	ea80 0202 	eor.w	r2, r0, r2
  4066fe:	ea81 0303 	eor.w	r3, r1, r3
  406702:	ea82 0000 	eor.w	r0, r2, r0
  406706:	ea83 0101 	eor.w	r1, r3, r1
  40670a:	ea80 0202 	eor.w	r2, r0, r2
  40670e:	ea81 0303 	eor.w	r3, r1, r3
  406712:	2d36      	cmp	r5, #54	; 0x36
  406714:	bf88      	it	hi
  406716:	bd30      	pophi	{r4, r5, pc}
  406718:	f011 4f00 	tst.w	r1, #2147483648	; 0x80000000
  40671c:	ea4f 3101 	mov.w	r1, r1, lsl #12
  406720:	f44f 1c80 	mov.w	ip, #1048576	; 0x100000
  406724:	ea4c 3111 	orr.w	r1, ip, r1, lsr #12
  406728:	d002      	beq.n	406730 <__adddf3+0x70>
  40672a:	4240      	negs	r0, r0
  40672c:	eb61 0141 	sbc.w	r1, r1, r1, lsl #1
  406730:	f013 4f00 	tst.w	r3, #2147483648	; 0x80000000
  406734:	ea4f 3303 	mov.w	r3, r3, lsl #12
  406738:	ea4c 3313 	orr.w	r3, ip, r3, lsr #12
  40673c:	d002      	beq.n	406744 <__adddf3+0x84>
  40673e:	4252      	negs	r2, r2
  406740:	eb63 0343 	sbc.w	r3, r3, r3, lsl #1
  406744:	ea94 0f05 	teq	r4, r5
  406748:	f000 80a7 	beq.w	40689a <__adddf3+0x1da>
  40674c:	f1a4 0401 	sub.w	r4, r4, #1
  406750:	f1d5 0e20 	rsbs	lr, r5, #32
  406754:	db0d      	blt.n	406772 <__adddf3+0xb2>
  406756:	fa02 fc0e 	lsl.w	ip, r2, lr
  40675a:	fa22 f205 	lsr.w	r2, r2, r5
  40675e:	1880      	adds	r0, r0, r2
  406760:	f141 0100 	adc.w	r1, r1, #0
  406764:	fa03 f20e 	lsl.w	r2, r3, lr
  406768:	1880      	adds	r0, r0, r2
  40676a:	fa43 f305 	asr.w	r3, r3, r5
  40676e:	4159      	adcs	r1, r3
  406770:	e00e      	b.n	406790 <__adddf3+0xd0>
  406772:	f1a5 0520 	sub.w	r5, r5, #32
  406776:	f10e 0e20 	add.w	lr, lr, #32
  40677a:	2a01      	cmp	r2, #1
  40677c:	fa03 fc0e 	lsl.w	ip, r3, lr
  406780:	bf28      	it	cs
  406782:	f04c 0c02 	orrcs.w	ip, ip, #2
  406786:	fa43 f305 	asr.w	r3, r3, r5
  40678a:	18c0      	adds	r0, r0, r3
  40678c:	eb51 71e3 	adcs.w	r1, r1, r3, asr #31
  406790:	f001 4500 	and.w	r5, r1, #2147483648	; 0x80000000
  406794:	d507      	bpl.n	4067a6 <__adddf3+0xe6>
  406796:	f04f 0e00 	mov.w	lr, #0
  40679a:	f1dc 0c00 	rsbs	ip, ip, #0
  40679e:	eb7e 0000 	sbcs.w	r0, lr, r0
  4067a2:	eb6e 0101 	sbc.w	r1, lr, r1
  4067a6:	f5b1 1f80 	cmp.w	r1, #1048576	; 0x100000
  4067aa:	d31b      	bcc.n	4067e4 <__adddf3+0x124>
  4067ac:	f5b1 1f00 	cmp.w	r1, #2097152	; 0x200000
  4067b0:	d30c      	bcc.n	4067cc <__adddf3+0x10c>
  4067b2:	0849      	lsrs	r1, r1, #1
  4067b4:	ea5f 0030 	movs.w	r0, r0, rrx
  4067b8:	ea4f 0c3c 	mov.w	ip, ip, rrx
  4067bc:	f104 0401 	add.w	r4, r4, #1
  4067c0:	ea4f 5244 	mov.w	r2, r4, lsl #21
  4067c4:	f512 0f80 	cmn.w	r2, #4194304	; 0x400000
  4067c8:	f080 809a 	bcs.w	406900 <__adddf3+0x240>
  4067cc:	f1bc 4f00 	cmp.w	ip, #2147483648	; 0x80000000
  4067d0:	bf08      	it	eq
  4067d2:	ea5f 0c50 	movseq.w	ip, r0, lsr #1
  4067d6:	f150 0000 	adcs.w	r0, r0, #0
  4067da:	eb41 5104 	adc.w	r1, r1, r4, lsl #20
  4067de:	ea41 0105 	orr.w	r1, r1, r5
  4067e2:	bd30      	pop	{r4, r5, pc}
  4067e4:	ea5f 0c4c 	movs.w	ip, ip, lsl #1
  4067e8:	4140      	adcs	r0, r0
  4067ea:	eb41 0101 	adc.w	r1, r1, r1
  4067ee:	f411 1f80 	tst.w	r1, #1048576	; 0x100000
  4067f2:	f1a4 0401 	sub.w	r4, r4, #1
  4067f6:	d1e9      	bne.n	4067cc <__adddf3+0x10c>
  4067f8:	f091 0f00 	teq	r1, #0
  4067fc:	bf04      	itt	eq
  4067fe:	4601      	moveq	r1, r0
  406800:	2000      	moveq	r0, #0
  406802:	fab1 f381 	clz	r3, r1
  406806:	bf08      	it	eq
  406808:	3320      	addeq	r3, #32
  40680a:	f1a3 030b 	sub.w	r3, r3, #11
  40680e:	f1b3 0220 	subs.w	r2, r3, #32
  406812:	da0c      	bge.n	40682e <__adddf3+0x16e>
  406814:	320c      	adds	r2, #12
  406816:	dd08      	ble.n	40682a <__adddf3+0x16a>
  406818:	f102 0c14 	add.w	ip, r2, #20
  40681c:	f1c2 020c 	rsb	r2, r2, #12
  406820:	fa01 f00c 	lsl.w	r0, r1, ip
  406824:	fa21 f102 	lsr.w	r1, r1, r2
  406828:	e00c      	b.n	406844 <__adddf3+0x184>
  40682a:	f102 0214 	add.w	r2, r2, #20
  40682e:	bfd8      	it	le
  406830:	f1c2 0c20 	rsble	ip, r2, #32
  406834:	fa01 f102 	lsl.w	r1, r1, r2
  406838:	fa20 fc0c 	lsr.w	ip, r0, ip
  40683c:	bfdc      	itt	le
  40683e:	ea41 010c 	orrle.w	r1, r1, ip
  406842:	4090      	lslle	r0, r2
  406844:	1ae4      	subs	r4, r4, r3
  406846:	bfa2      	ittt	ge
  406848:	eb01 5104 	addge.w	r1, r1, r4, lsl #20
  40684c:	4329      	orrge	r1, r5
  40684e:	bd30      	popge	{r4, r5, pc}
  406850:	ea6f 0404 	mvn.w	r4, r4
  406854:	3c1f      	subs	r4, #31
  406856:	da1c      	bge.n	406892 <__adddf3+0x1d2>
  406858:	340c      	adds	r4, #12
  40685a:	dc0e      	bgt.n	40687a <__adddf3+0x1ba>
  40685c:	f104 0414 	add.w	r4, r4, #20
  406860:	f1c4 0220 	rsb	r2, r4, #32
  406864:	fa20 f004 	lsr.w	r0, r0, r4
  406868:	fa01 f302 	lsl.w	r3, r1, r2
  40686c:	ea40 0003 	orr.w	r0, r0, r3
  406870:	fa21 f304 	lsr.w	r3, r1, r4
  406874:	ea45 0103 	orr.w	r1, r5, r3
  406878:	bd30      	pop	{r4, r5, pc}
  40687a:	f1c4 040c 	rsb	r4, r4, #12
  40687e:	f1c4 0220 	rsb	r2, r4, #32
  406882:	fa20 f002 	lsr.w	r0, r0, r2
  406886:	fa01 f304 	lsl.w	r3, r1, r4
  40688a:	ea40 0003 	orr.w	r0, r0, r3
  40688e:	4629      	mov	r1, r5
  406890:	bd30      	pop	{r4, r5, pc}
  406892:	fa21 f004 	lsr.w	r0, r1, r4
  406896:	4629      	mov	r1, r5
  406898:	bd30      	pop	{r4, r5, pc}
  40689a:	f094 0f00 	teq	r4, #0
  40689e:	f483 1380 	eor.w	r3, r3, #1048576	; 0x100000
  4068a2:	bf06      	itte	eq
  4068a4:	f481 1180 	eoreq.w	r1, r1, #1048576	; 0x100000
  4068a8:	3401      	addeq	r4, #1
  4068aa:	3d01      	subne	r5, #1
  4068ac:	e74e      	b.n	40674c <__adddf3+0x8c>
  4068ae:	ea7f 5c64 	mvns.w	ip, r4, asr #21
  4068b2:	bf18      	it	ne
  4068b4:	ea7f 5c65 	mvnsne.w	ip, r5, asr #21
  4068b8:	d029      	beq.n	40690e <__adddf3+0x24e>
  4068ba:	ea94 0f05 	teq	r4, r5
  4068be:	bf08      	it	eq
  4068c0:	ea90 0f02 	teqeq	r0, r2
  4068c4:	d005      	beq.n	4068d2 <__adddf3+0x212>
  4068c6:	ea54 0c00 	orrs.w	ip, r4, r0
  4068ca:	bf04      	itt	eq
  4068cc:	4619      	moveq	r1, r3
  4068ce:	4610      	moveq	r0, r2
  4068d0:	bd30      	pop	{r4, r5, pc}
  4068d2:	ea91 0f03 	teq	r1, r3
  4068d6:	bf1e      	ittt	ne
  4068d8:	2100      	movne	r1, #0
  4068da:	2000      	movne	r0, #0
  4068dc:	bd30      	popne	{r4, r5, pc}
  4068de:	ea5f 5c54 	movs.w	ip, r4, lsr #21
  4068e2:	d105      	bne.n	4068f0 <__adddf3+0x230>
  4068e4:	0040      	lsls	r0, r0, #1
  4068e6:	4149      	adcs	r1, r1
  4068e8:	bf28      	it	cs
  4068ea:	f041 4100 	orrcs.w	r1, r1, #2147483648	; 0x80000000
  4068ee:	bd30      	pop	{r4, r5, pc}
  4068f0:	f514 0480 	adds.w	r4, r4, #4194304	; 0x400000
  4068f4:	bf3c      	itt	cc
  4068f6:	f501 1180 	addcc.w	r1, r1, #1048576	; 0x100000
  4068fa:	bd30      	popcc	{r4, r5, pc}
  4068fc:	f001 4500 	and.w	r5, r1, #2147483648	; 0x80000000
  406900:	f045 41fe 	orr.w	r1, r5, #2130706432	; 0x7f000000
  406904:	f441 0170 	orr.w	r1, r1, #15728640	; 0xf00000
  406908:	f04f 0000 	mov.w	r0, #0
  40690c:	bd30      	pop	{r4, r5, pc}
  40690e:	ea7f 5c64 	mvns.w	ip, r4, asr #21
  406912:	bf1a      	itte	ne
  406914:	4619      	movne	r1, r3
  406916:	4610      	movne	r0, r2
  406918:	ea7f 5c65 	mvnseq.w	ip, r5, asr #21
  40691c:	bf1c      	itt	ne
  40691e:	460b      	movne	r3, r1
  406920:	4602      	movne	r2, r0
  406922:	ea50 3401 	orrs.w	r4, r0, r1, lsl #12
  406926:	bf06      	itte	eq
  406928:	ea52 3503 	orrseq.w	r5, r2, r3, lsl #12
  40692c:	ea91 0f03 	teqeq	r1, r3
  406930:	f441 2100 	orrne.w	r1, r1, #524288	; 0x80000
  406934:	bd30      	pop	{r4, r5, pc}
  406936:	bf00      	nop

00406938 <__aeabi_ui2d>:
  406938:	f090 0f00 	teq	r0, #0
  40693c:	bf04      	itt	eq
  40693e:	2100      	moveq	r1, #0
  406940:	4770      	bxeq	lr
  406942:	b530      	push	{r4, r5, lr}
  406944:	f44f 6480 	mov.w	r4, #1024	; 0x400
  406948:	f104 0432 	add.w	r4, r4, #50	; 0x32
  40694c:	f04f 0500 	mov.w	r5, #0
  406950:	f04f 0100 	mov.w	r1, #0
  406954:	e750      	b.n	4067f8 <__adddf3+0x138>
  406956:	bf00      	nop

00406958 <__aeabi_i2d>:
  406958:	f090 0f00 	teq	r0, #0
  40695c:	bf04      	itt	eq
  40695e:	2100      	moveq	r1, #0
  406960:	4770      	bxeq	lr
  406962:	b530      	push	{r4, r5, lr}
  406964:	f44f 6480 	mov.w	r4, #1024	; 0x400
  406968:	f104 0432 	add.w	r4, r4, #50	; 0x32
  40696c:	f010 4500 	ands.w	r5, r0, #2147483648	; 0x80000000
  406970:	bf48      	it	mi
  406972:	4240      	negmi	r0, r0
  406974:	f04f 0100 	mov.w	r1, #0
  406978:	e73e      	b.n	4067f8 <__adddf3+0x138>
  40697a:	bf00      	nop

0040697c <__aeabi_f2d>:
  40697c:	0042      	lsls	r2, r0, #1
  40697e:	ea4f 01e2 	mov.w	r1, r2, asr #3
  406982:	ea4f 0131 	mov.w	r1, r1, rrx
  406986:	ea4f 7002 	mov.w	r0, r2, lsl #28
  40698a:	bf1f      	itttt	ne
  40698c:	f012 437f 	andsne.w	r3, r2, #4278190080	; 0xff000000
  406990:	f093 4f7f 	teqne	r3, #4278190080	; 0xff000000
  406994:	f081 5160 	eorne.w	r1, r1, #939524096	; 0x38000000
  406998:	4770      	bxne	lr
  40699a:	f092 0f00 	teq	r2, #0
  40699e:	bf14      	ite	ne
  4069a0:	f093 4f7f 	teqne	r3, #4278190080	; 0xff000000
  4069a4:	4770      	bxeq	lr
  4069a6:	b530      	push	{r4, r5, lr}
  4069a8:	f44f 7460 	mov.w	r4, #896	; 0x380
  4069ac:	f001 4500 	and.w	r5, r1, #2147483648	; 0x80000000
  4069b0:	f021 4100 	bic.w	r1, r1, #2147483648	; 0x80000000
  4069b4:	e720      	b.n	4067f8 <__adddf3+0x138>
  4069b6:	bf00      	nop

004069b8 <__aeabi_ul2d>:
  4069b8:	ea50 0201 	orrs.w	r2, r0, r1
  4069bc:	bf08      	it	eq
  4069be:	4770      	bxeq	lr
  4069c0:	b530      	push	{r4, r5, lr}
  4069c2:	f04f 0500 	mov.w	r5, #0
  4069c6:	e00a      	b.n	4069de <__aeabi_l2d+0x16>

004069c8 <__aeabi_l2d>:
  4069c8:	ea50 0201 	orrs.w	r2, r0, r1
  4069cc:	bf08      	it	eq
  4069ce:	4770      	bxeq	lr
  4069d0:	b530      	push	{r4, r5, lr}
  4069d2:	f011 4500 	ands.w	r5, r1, #2147483648	; 0x80000000
  4069d6:	d502      	bpl.n	4069de <__aeabi_l2d+0x16>
  4069d8:	4240      	negs	r0, r0
  4069da:	eb61 0141 	sbc.w	r1, r1, r1, lsl #1
  4069de:	f44f 6480 	mov.w	r4, #1024	; 0x400
  4069e2:	f104 0432 	add.w	r4, r4, #50	; 0x32
  4069e6:	ea5f 5c91 	movs.w	ip, r1, lsr #22
  4069ea:	f43f aedc 	beq.w	4067a6 <__adddf3+0xe6>
  4069ee:	f04f 0203 	mov.w	r2, #3
  4069f2:	ea5f 0cdc 	movs.w	ip, ip, lsr #3
  4069f6:	bf18      	it	ne
  4069f8:	3203      	addne	r2, #3
  4069fa:	ea5f 0cdc 	movs.w	ip, ip, lsr #3
  4069fe:	bf18      	it	ne
  406a00:	3203      	addne	r2, #3
  406a02:	eb02 02dc 	add.w	r2, r2, ip, lsr #3
  406a06:	f1c2 0320 	rsb	r3, r2, #32
  406a0a:	fa00 fc03 	lsl.w	ip, r0, r3
  406a0e:	fa20 f002 	lsr.w	r0, r0, r2
  406a12:	fa01 fe03 	lsl.w	lr, r1, r3
  406a16:	ea40 000e 	orr.w	r0, r0, lr
  406a1a:	fa21 f102 	lsr.w	r1, r1, r2
  406a1e:	4414      	add	r4, r2
  406a20:	e6c1      	b.n	4067a6 <__adddf3+0xe6>
  406a22:	bf00      	nop

00406a24 <__aeabi_dmul>:
  406a24:	b570      	push	{r4, r5, r6, lr}
  406a26:	f04f 0cff 	mov.w	ip, #255	; 0xff
  406a2a:	f44c 6ce0 	orr.w	ip, ip, #1792	; 0x700
  406a2e:	ea1c 5411 	ands.w	r4, ip, r1, lsr #20
  406a32:	bf1d      	ittte	ne
  406a34:	ea1c 5513 	andsne.w	r5, ip, r3, lsr #20
  406a38:	ea94 0f0c 	teqne	r4, ip
  406a3c:	ea95 0f0c 	teqne	r5, ip
  406a40:	f000 f8de 	bleq	406c00 <__aeabi_dmul+0x1dc>
  406a44:	442c      	add	r4, r5
  406a46:	ea81 0603 	eor.w	r6, r1, r3
  406a4a:	ea21 514c 	bic.w	r1, r1, ip, lsl #21
  406a4e:	ea23 534c 	bic.w	r3, r3, ip, lsl #21
  406a52:	ea50 3501 	orrs.w	r5, r0, r1, lsl #12
  406a56:	bf18      	it	ne
  406a58:	ea52 3503 	orrsne.w	r5, r2, r3, lsl #12
  406a5c:	f441 1180 	orr.w	r1, r1, #1048576	; 0x100000
  406a60:	f443 1380 	orr.w	r3, r3, #1048576	; 0x100000
  406a64:	d038      	beq.n	406ad8 <__aeabi_dmul+0xb4>
  406a66:	fba0 ce02 	umull	ip, lr, r0, r2
  406a6a:	f04f 0500 	mov.w	r5, #0
  406a6e:	fbe1 e502 	umlal	lr, r5, r1, r2
  406a72:	f006 4200 	and.w	r2, r6, #2147483648	; 0x80000000
  406a76:	fbe0 e503 	umlal	lr, r5, r0, r3
  406a7a:	f04f 0600 	mov.w	r6, #0
  406a7e:	fbe1 5603 	umlal	r5, r6, r1, r3
  406a82:	f09c 0f00 	teq	ip, #0
  406a86:	bf18      	it	ne
  406a88:	f04e 0e01 	orrne.w	lr, lr, #1
  406a8c:	f1a4 04ff 	sub.w	r4, r4, #255	; 0xff
  406a90:	f5b6 7f00 	cmp.w	r6, #512	; 0x200
  406a94:	f564 7440 	sbc.w	r4, r4, #768	; 0x300
  406a98:	d204      	bcs.n	406aa4 <__aeabi_dmul+0x80>
  406a9a:	ea5f 0e4e 	movs.w	lr, lr, lsl #1
  406a9e:	416d      	adcs	r5, r5
  406aa0:	eb46 0606 	adc.w	r6, r6, r6
  406aa4:	ea42 21c6 	orr.w	r1, r2, r6, lsl #11
  406aa8:	ea41 5155 	orr.w	r1, r1, r5, lsr #21
  406aac:	ea4f 20c5 	mov.w	r0, r5, lsl #11
  406ab0:	ea40 505e 	orr.w	r0, r0, lr, lsr #21
  406ab4:	ea4f 2ece 	mov.w	lr, lr, lsl #11
  406ab8:	f1b4 0cfd 	subs.w	ip, r4, #253	; 0xfd
  406abc:	bf88      	it	hi
  406abe:	f5bc 6fe0 	cmphi.w	ip, #1792	; 0x700
  406ac2:	d81e      	bhi.n	406b02 <__aeabi_dmul+0xde>
  406ac4:	f1be 4f00 	cmp.w	lr, #2147483648	; 0x80000000
  406ac8:	bf08      	it	eq
  406aca:	ea5f 0e50 	movseq.w	lr, r0, lsr #1
  406ace:	f150 0000 	adcs.w	r0, r0, #0
  406ad2:	eb41 5104 	adc.w	r1, r1, r4, lsl #20
  406ad6:	bd70      	pop	{r4, r5, r6, pc}
  406ad8:	f006 4600 	and.w	r6, r6, #2147483648	; 0x80000000
  406adc:	ea46 0101 	orr.w	r1, r6, r1
  406ae0:	ea40 0002 	orr.w	r0, r0, r2
  406ae4:	ea81 0103 	eor.w	r1, r1, r3
  406ae8:	ebb4 045c 	subs.w	r4, r4, ip, lsr #1
  406aec:	bfc2      	ittt	gt
  406aee:	ebd4 050c 	rsbsgt	r5, r4, ip
  406af2:	ea41 5104 	orrgt.w	r1, r1, r4, lsl #20
  406af6:	bd70      	popgt	{r4, r5, r6, pc}
  406af8:	f441 1180 	orr.w	r1, r1, #1048576	; 0x100000
  406afc:	f04f 0e00 	mov.w	lr, #0
  406b00:	3c01      	subs	r4, #1
  406b02:	f300 80ab 	bgt.w	406c5c <__aeabi_dmul+0x238>
  406b06:	f114 0f36 	cmn.w	r4, #54	; 0x36
  406b0a:	bfde      	ittt	le
  406b0c:	2000      	movle	r0, #0
  406b0e:	f001 4100 	andle.w	r1, r1, #2147483648	; 0x80000000
  406b12:	bd70      	pople	{r4, r5, r6, pc}
  406b14:	f1c4 0400 	rsb	r4, r4, #0
  406b18:	3c20      	subs	r4, #32
  406b1a:	da35      	bge.n	406b88 <__aeabi_dmul+0x164>
  406b1c:	340c      	adds	r4, #12
  406b1e:	dc1b      	bgt.n	406b58 <__aeabi_dmul+0x134>
  406b20:	f104 0414 	add.w	r4, r4, #20
  406b24:	f1c4 0520 	rsb	r5, r4, #32
  406b28:	fa00 f305 	lsl.w	r3, r0, r5
  406b2c:	fa20 f004 	lsr.w	r0, r0, r4
  406b30:	fa01 f205 	lsl.w	r2, r1, r5
  406b34:	ea40 0002 	orr.w	r0, r0, r2
  406b38:	f001 4200 	and.w	r2, r1, #2147483648	; 0x80000000
  406b3c:	f021 4100 	bic.w	r1, r1, #2147483648	; 0x80000000
  406b40:	eb10 70d3 	adds.w	r0, r0, r3, lsr #31
  406b44:	fa21 f604 	lsr.w	r6, r1, r4
  406b48:	eb42 0106 	adc.w	r1, r2, r6
  406b4c:	ea5e 0e43 	orrs.w	lr, lr, r3, lsl #1
  406b50:	bf08      	it	eq
  406b52:	ea20 70d3 	biceq.w	r0, r0, r3, lsr #31
  406b56:	bd70      	pop	{r4, r5, r6, pc}
  406b58:	f1c4 040c 	rsb	r4, r4, #12
  406b5c:	f1c4 0520 	rsb	r5, r4, #32
  406b60:	fa00 f304 	lsl.w	r3, r0, r4
  406b64:	fa20 f005 	lsr.w	r0, r0, r5
  406b68:	fa01 f204 	lsl.w	r2, r1, r4
  406b6c:	ea40 0002 	orr.w	r0, r0, r2
  406b70:	f001 4100 	and.w	r1, r1, #2147483648	; 0x80000000
  406b74:	eb10 70d3 	adds.w	r0, r0, r3, lsr #31
  406b78:	f141 0100 	adc.w	r1, r1, #0
  406b7c:	ea5e 0e43 	orrs.w	lr, lr, r3, lsl #1
  406b80:	bf08      	it	eq
  406b82:	ea20 70d3 	biceq.w	r0, r0, r3, lsr #31
  406b86:	bd70      	pop	{r4, r5, r6, pc}
  406b88:	f1c4 0520 	rsb	r5, r4, #32
  406b8c:	fa00 f205 	lsl.w	r2, r0, r5
  406b90:	ea4e 0e02 	orr.w	lr, lr, r2
  406b94:	fa20 f304 	lsr.w	r3, r0, r4
  406b98:	fa01 f205 	lsl.w	r2, r1, r5
  406b9c:	ea43 0302 	orr.w	r3, r3, r2
  406ba0:	fa21 f004 	lsr.w	r0, r1, r4
  406ba4:	f001 4100 	and.w	r1, r1, #2147483648	; 0x80000000
  406ba8:	fa21 f204 	lsr.w	r2, r1, r4
  406bac:	ea20 0002 	bic.w	r0, r0, r2
  406bb0:	eb00 70d3 	add.w	r0, r0, r3, lsr #31
  406bb4:	ea5e 0e43 	orrs.w	lr, lr, r3, lsl #1
  406bb8:	bf08      	it	eq
  406bba:	ea20 70d3 	biceq.w	r0, r0, r3, lsr #31
  406bbe:	bd70      	pop	{r4, r5, r6, pc}
  406bc0:	f094 0f00 	teq	r4, #0
  406bc4:	d10f      	bne.n	406be6 <__aeabi_dmul+0x1c2>
  406bc6:	f001 4600 	and.w	r6, r1, #2147483648	; 0x80000000
  406bca:	0040      	lsls	r0, r0, #1
  406bcc:	eb41 0101 	adc.w	r1, r1, r1
  406bd0:	f411 1f80 	tst.w	r1, #1048576	; 0x100000
  406bd4:	bf08      	it	eq
  406bd6:	3c01      	subeq	r4, #1
  406bd8:	d0f7      	beq.n	406bca <__aeabi_dmul+0x1a6>
  406bda:	ea41 0106 	orr.w	r1, r1, r6
  406bde:	f095 0f00 	teq	r5, #0
  406be2:	bf18      	it	ne
  406be4:	4770      	bxne	lr
  406be6:	f003 4600 	and.w	r6, r3, #2147483648	; 0x80000000
  406bea:	0052      	lsls	r2, r2, #1
  406bec:	eb43 0303 	adc.w	r3, r3, r3
  406bf0:	f413 1f80 	tst.w	r3, #1048576	; 0x100000
  406bf4:	bf08      	it	eq
  406bf6:	3d01      	subeq	r5, #1
  406bf8:	d0f7      	beq.n	406bea <__aeabi_dmul+0x1c6>
  406bfa:	ea43 0306 	orr.w	r3, r3, r6
  406bfe:	4770      	bx	lr
  406c00:	ea94 0f0c 	teq	r4, ip
  406c04:	ea0c 5513 	and.w	r5, ip, r3, lsr #20
  406c08:	bf18      	it	ne
  406c0a:	ea95 0f0c 	teqne	r5, ip
  406c0e:	d00c      	beq.n	406c2a <__aeabi_dmul+0x206>
  406c10:	ea50 0641 	orrs.w	r6, r0, r1, lsl #1
  406c14:	bf18      	it	ne
  406c16:	ea52 0643 	orrsne.w	r6, r2, r3, lsl #1
  406c1a:	d1d1      	bne.n	406bc0 <__aeabi_dmul+0x19c>
  406c1c:	ea81 0103 	eor.w	r1, r1, r3
  406c20:	f001 4100 	and.w	r1, r1, #2147483648	; 0x80000000
  406c24:	f04f 0000 	mov.w	r0, #0
  406c28:	bd70      	pop	{r4, r5, r6, pc}
  406c2a:	ea50 0641 	orrs.w	r6, r0, r1, lsl #1
  406c2e:	bf06      	itte	eq
  406c30:	4610      	moveq	r0, r2
  406c32:	4619      	moveq	r1, r3
  406c34:	ea52 0643 	orrsne.w	r6, r2, r3, lsl #1
  406c38:	d019      	beq.n	406c6e <__aeabi_dmul+0x24a>
  406c3a:	ea94 0f0c 	teq	r4, ip
  406c3e:	d102      	bne.n	406c46 <__aeabi_dmul+0x222>
  406c40:	ea50 3601 	orrs.w	r6, r0, r1, lsl #12
  406c44:	d113      	bne.n	406c6e <__aeabi_dmul+0x24a>
  406c46:	ea95 0f0c 	teq	r5, ip
  406c4a:	d105      	bne.n	406c58 <__aeabi_dmul+0x234>
  406c4c:	ea52 3603 	orrs.w	r6, r2, r3, lsl #12
  406c50:	bf1c      	itt	ne
  406c52:	4610      	movne	r0, r2
  406c54:	4619      	movne	r1, r3
  406c56:	d10a      	bne.n	406c6e <__aeabi_dmul+0x24a>
  406c58:	ea81 0103 	eor.w	r1, r1, r3
  406c5c:	f001 4100 	and.w	r1, r1, #2147483648	; 0x80000000
  406c60:	f041 41fe 	orr.w	r1, r1, #2130706432	; 0x7f000000
  406c64:	f441 0170 	orr.w	r1, r1, #15728640	; 0xf00000
  406c68:	f04f 0000 	mov.w	r0, #0
  406c6c:	bd70      	pop	{r4, r5, r6, pc}
  406c6e:	f041 41fe 	orr.w	r1, r1, #2130706432	; 0x7f000000
  406c72:	f441 0178 	orr.w	r1, r1, #16252928	; 0xf80000
  406c76:	bd70      	pop	{r4, r5, r6, pc}

00406c78 <__aeabi_ddiv>:
  406c78:	b570      	push	{r4, r5, r6, lr}
  406c7a:	f04f 0cff 	mov.w	ip, #255	; 0xff
  406c7e:	f44c 6ce0 	orr.w	ip, ip, #1792	; 0x700
  406c82:	ea1c 5411 	ands.w	r4, ip, r1, lsr #20
  406c86:	bf1d      	ittte	ne
  406c88:	ea1c 5513 	andsne.w	r5, ip, r3, lsr #20
  406c8c:	ea94 0f0c 	teqne	r4, ip
  406c90:	ea95 0f0c 	teqne	r5, ip
  406c94:	f000 f8a7 	bleq	406de6 <__aeabi_ddiv+0x16e>
  406c98:	eba4 0405 	sub.w	r4, r4, r5
  406c9c:	ea81 0e03 	eor.w	lr, r1, r3
  406ca0:	ea52 3503 	orrs.w	r5, r2, r3, lsl #12
  406ca4:	ea4f 3101 	mov.w	r1, r1, lsl #12
  406ca8:	f000 8088 	beq.w	406dbc <__aeabi_ddiv+0x144>
  406cac:	ea4f 3303 	mov.w	r3, r3, lsl #12
  406cb0:	f04f 5580 	mov.w	r5, #268435456	; 0x10000000
  406cb4:	ea45 1313 	orr.w	r3, r5, r3, lsr #4
  406cb8:	ea43 6312 	orr.w	r3, r3, r2, lsr #24
  406cbc:	ea4f 2202 	mov.w	r2, r2, lsl #8
  406cc0:	ea45 1511 	orr.w	r5, r5, r1, lsr #4
  406cc4:	ea45 6510 	orr.w	r5, r5, r0, lsr #24
  406cc8:	ea4f 2600 	mov.w	r6, r0, lsl #8
  406ccc:	f00e 4100 	and.w	r1, lr, #2147483648	; 0x80000000
  406cd0:	429d      	cmp	r5, r3
  406cd2:	bf08      	it	eq
  406cd4:	4296      	cmpeq	r6, r2
  406cd6:	f144 04fd 	adc.w	r4, r4, #253	; 0xfd
  406cda:	f504 7440 	add.w	r4, r4, #768	; 0x300
  406cde:	d202      	bcs.n	406ce6 <__aeabi_ddiv+0x6e>
  406ce0:	085b      	lsrs	r3, r3, #1
  406ce2:	ea4f 0232 	mov.w	r2, r2, rrx
  406ce6:	1ab6      	subs	r6, r6, r2
  406ce8:	eb65 0503 	sbc.w	r5, r5, r3
  406cec:	085b      	lsrs	r3, r3, #1
  406cee:	ea4f 0232 	mov.w	r2, r2, rrx
  406cf2:	f44f 1080 	mov.w	r0, #1048576	; 0x100000
  406cf6:	f44f 2c00 	mov.w	ip, #524288	; 0x80000
  406cfa:	ebb6 0e02 	subs.w	lr, r6, r2
  406cfe:	eb75 0e03 	sbcs.w	lr, r5, r3
  406d02:	bf22      	ittt	cs
  406d04:	1ab6      	subcs	r6, r6, r2
  406d06:	4675      	movcs	r5, lr
  406d08:	ea40 000c 	orrcs.w	r0, r0, ip
  406d0c:	085b      	lsrs	r3, r3, #1
  406d0e:	ea4f 0232 	mov.w	r2, r2, rrx
  406d12:	ebb6 0e02 	subs.w	lr, r6, r2
  406d16:	eb75 0e03 	sbcs.w	lr, r5, r3
  406d1a:	bf22      	ittt	cs
  406d1c:	1ab6      	subcs	r6, r6, r2
  406d1e:	4675      	movcs	r5, lr
  406d20:	ea40 005c 	orrcs.w	r0, r0, ip, lsr #1
  406d24:	085b      	lsrs	r3, r3, #1
  406d26:	ea4f 0232 	mov.w	r2, r2, rrx
  406d2a:	ebb6 0e02 	subs.w	lr, r6, r2
  406d2e:	eb75 0e03 	sbcs.w	lr, r5, r3
  406d32:	bf22      	ittt	cs
  406d34:	1ab6      	subcs	r6, r6, r2
  406d36:	4675      	movcs	r5, lr
  406d38:	ea40 009c 	orrcs.w	r0, r0, ip, lsr #2
  406d3c:	085b      	lsrs	r3, r3, #1
  406d3e:	ea4f 0232 	mov.w	r2, r2, rrx
  406d42:	ebb6 0e02 	subs.w	lr, r6, r2
  406d46:	eb75 0e03 	sbcs.w	lr, r5, r3
  406d4a:	bf22      	ittt	cs
  406d4c:	1ab6      	subcs	r6, r6, r2
  406d4e:	4675      	movcs	r5, lr
  406d50:	ea40 00dc 	orrcs.w	r0, r0, ip, lsr #3
  406d54:	ea55 0e06 	orrs.w	lr, r5, r6
  406d58:	d018      	beq.n	406d8c <__aeabi_ddiv+0x114>
  406d5a:	ea4f 1505 	mov.w	r5, r5, lsl #4
  406d5e:	ea45 7516 	orr.w	r5, r5, r6, lsr #28
  406d62:	ea4f 1606 	mov.w	r6, r6, lsl #4
  406d66:	ea4f 03c3 	mov.w	r3, r3, lsl #3
  406d6a:	ea43 7352 	orr.w	r3, r3, r2, lsr #29
  406d6e:	ea4f 02c2 	mov.w	r2, r2, lsl #3
  406d72:	ea5f 1c1c 	movs.w	ip, ip, lsr #4
  406d76:	d1c0      	bne.n	406cfa <__aeabi_ddiv+0x82>
  406d78:	f411 1f80 	tst.w	r1, #1048576	; 0x100000
  406d7c:	d10b      	bne.n	406d96 <__aeabi_ddiv+0x11e>
  406d7e:	ea41 0100 	orr.w	r1, r1, r0
  406d82:	f04f 0000 	mov.w	r0, #0
  406d86:	f04f 4c00 	mov.w	ip, #2147483648	; 0x80000000
  406d8a:	e7b6      	b.n	406cfa <__aeabi_ddiv+0x82>
  406d8c:	f411 1f80 	tst.w	r1, #1048576	; 0x100000
  406d90:	bf04      	itt	eq
  406d92:	4301      	orreq	r1, r0
  406d94:	2000      	moveq	r0, #0
  406d96:	f1b4 0cfd 	subs.w	ip, r4, #253	; 0xfd
  406d9a:	bf88      	it	hi
  406d9c:	f5bc 6fe0 	cmphi.w	ip, #1792	; 0x700
  406da0:	f63f aeaf 	bhi.w	406b02 <__aeabi_dmul+0xde>
  406da4:	ebb5 0c03 	subs.w	ip, r5, r3
  406da8:	bf04      	itt	eq
  406daa:	ebb6 0c02 	subseq.w	ip, r6, r2
  406dae:	ea5f 0c50 	movseq.w	ip, r0, lsr #1
  406db2:	f150 0000 	adcs.w	r0, r0, #0
  406db6:	eb41 5104 	adc.w	r1, r1, r4, lsl #20
  406dba:	bd70      	pop	{r4, r5, r6, pc}
  406dbc:	f00e 4e00 	and.w	lr, lr, #2147483648	; 0x80000000
  406dc0:	ea4e 3111 	orr.w	r1, lr, r1, lsr #12
  406dc4:	eb14 045c 	adds.w	r4, r4, ip, lsr #1
  406dc8:	bfc2      	ittt	gt
  406dca:	ebd4 050c 	rsbsgt	r5, r4, ip
  406dce:	ea41 5104 	orrgt.w	r1, r1, r4, lsl #20
  406dd2:	bd70      	popgt	{r4, r5, r6, pc}
  406dd4:	f441 1180 	orr.w	r1, r1, #1048576	; 0x100000
  406dd8:	f04f 0e00 	mov.w	lr, #0
  406ddc:	3c01      	subs	r4, #1
  406dde:	e690      	b.n	406b02 <__aeabi_dmul+0xde>
  406de0:	ea45 0e06 	orr.w	lr, r5, r6
  406de4:	e68d      	b.n	406b02 <__aeabi_dmul+0xde>
  406de6:	ea0c 5513 	and.w	r5, ip, r3, lsr #20
  406dea:	ea94 0f0c 	teq	r4, ip
  406dee:	bf08      	it	eq
  406df0:	ea95 0f0c 	teqeq	r5, ip
  406df4:	f43f af3b 	beq.w	406c6e <__aeabi_dmul+0x24a>
  406df8:	ea94 0f0c 	teq	r4, ip
  406dfc:	d10a      	bne.n	406e14 <__aeabi_ddiv+0x19c>
  406dfe:	ea50 3401 	orrs.w	r4, r0, r1, lsl #12
  406e02:	f47f af34 	bne.w	406c6e <__aeabi_dmul+0x24a>
  406e06:	ea95 0f0c 	teq	r5, ip
  406e0a:	f47f af25 	bne.w	406c58 <__aeabi_dmul+0x234>
  406e0e:	4610      	mov	r0, r2
  406e10:	4619      	mov	r1, r3
  406e12:	e72c      	b.n	406c6e <__aeabi_dmul+0x24a>
  406e14:	ea95 0f0c 	teq	r5, ip
  406e18:	d106      	bne.n	406e28 <__aeabi_ddiv+0x1b0>
  406e1a:	ea52 3503 	orrs.w	r5, r2, r3, lsl #12
  406e1e:	f43f aefd 	beq.w	406c1c <__aeabi_dmul+0x1f8>
  406e22:	4610      	mov	r0, r2
  406e24:	4619      	mov	r1, r3
  406e26:	e722      	b.n	406c6e <__aeabi_dmul+0x24a>
  406e28:	ea50 0641 	orrs.w	r6, r0, r1, lsl #1
  406e2c:	bf18      	it	ne
  406e2e:	ea52 0643 	orrsne.w	r6, r2, r3, lsl #1
  406e32:	f47f aec5 	bne.w	406bc0 <__aeabi_dmul+0x19c>
  406e36:	ea50 0441 	orrs.w	r4, r0, r1, lsl #1
  406e3a:	f47f af0d 	bne.w	406c58 <__aeabi_dmul+0x234>
  406e3e:	ea52 0543 	orrs.w	r5, r2, r3, lsl #1
  406e42:	f47f aeeb 	bne.w	406c1c <__aeabi_dmul+0x1f8>
  406e46:	e712      	b.n	406c6e <__aeabi_dmul+0x24a>

00406e48 <__gedf2>:
  406e48:	f04f 3cff 	mov.w	ip, #4294967295
  406e4c:	e006      	b.n	406e5c <__cmpdf2+0x4>
  406e4e:	bf00      	nop

00406e50 <__ledf2>:
  406e50:	f04f 0c01 	mov.w	ip, #1
  406e54:	e002      	b.n	406e5c <__cmpdf2+0x4>
  406e56:	bf00      	nop

00406e58 <__cmpdf2>:
  406e58:	f04f 0c01 	mov.w	ip, #1
  406e5c:	f84d cd04 	str.w	ip, [sp, #-4]!
  406e60:	ea4f 0c41 	mov.w	ip, r1, lsl #1
  406e64:	ea7f 5c6c 	mvns.w	ip, ip, asr #21
  406e68:	ea4f 0c43 	mov.w	ip, r3, lsl #1
  406e6c:	bf18      	it	ne
  406e6e:	ea7f 5c6c 	mvnsne.w	ip, ip, asr #21
  406e72:	d01b      	beq.n	406eac <__cmpdf2+0x54>
  406e74:	b001      	add	sp, #4
  406e76:	ea50 0c41 	orrs.w	ip, r0, r1, lsl #1
  406e7a:	bf0c      	ite	eq
  406e7c:	ea52 0c43 	orrseq.w	ip, r2, r3, lsl #1
  406e80:	ea91 0f03 	teqne	r1, r3
  406e84:	bf02      	ittt	eq
  406e86:	ea90 0f02 	teqeq	r0, r2
  406e8a:	2000      	moveq	r0, #0
  406e8c:	4770      	bxeq	lr
  406e8e:	f110 0f00 	cmn.w	r0, #0
  406e92:	ea91 0f03 	teq	r1, r3
  406e96:	bf58      	it	pl
  406e98:	4299      	cmppl	r1, r3
  406e9a:	bf08      	it	eq
  406e9c:	4290      	cmpeq	r0, r2
  406e9e:	bf2c      	ite	cs
  406ea0:	17d8      	asrcs	r0, r3, #31
  406ea2:	ea6f 70e3 	mvncc.w	r0, r3, asr #31
  406ea6:	f040 0001 	orr.w	r0, r0, #1
  406eaa:	4770      	bx	lr
  406eac:	ea4f 0c41 	mov.w	ip, r1, lsl #1
  406eb0:	ea7f 5c6c 	mvns.w	ip, ip, asr #21
  406eb4:	d102      	bne.n	406ebc <__cmpdf2+0x64>
  406eb6:	ea50 3c01 	orrs.w	ip, r0, r1, lsl #12
  406eba:	d107      	bne.n	406ecc <__cmpdf2+0x74>
  406ebc:	ea4f 0c43 	mov.w	ip, r3, lsl #1
  406ec0:	ea7f 5c6c 	mvns.w	ip, ip, asr #21
  406ec4:	d1d6      	bne.n	406e74 <__cmpdf2+0x1c>
  406ec6:	ea52 3c03 	orrs.w	ip, r2, r3, lsl #12
  406eca:	d0d3      	beq.n	406e74 <__cmpdf2+0x1c>
  406ecc:	f85d 0b04 	ldr.w	r0, [sp], #4
  406ed0:	4770      	bx	lr
  406ed2:	bf00      	nop

00406ed4 <__aeabi_cdrcmple>:
  406ed4:	4684      	mov	ip, r0
  406ed6:	4610      	mov	r0, r2
  406ed8:	4662      	mov	r2, ip
  406eda:	468c      	mov	ip, r1
  406edc:	4619      	mov	r1, r3
  406ede:	4663      	mov	r3, ip
  406ee0:	e000      	b.n	406ee4 <__aeabi_cdcmpeq>
  406ee2:	bf00      	nop

00406ee4 <__aeabi_cdcmpeq>:
  406ee4:	b501      	push	{r0, lr}
  406ee6:	f7ff ffb7 	bl	406e58 <__cmpdf2>
  406eea:	2800      	cmp	r0, #0
  406eec:	bf48      	it	mi
  406eee:	f110 0f00 	cmnmi.w	r0, #0
  406ef2:	bd01      	pop	{r0, pc}

00406ef4 <__aeabi_dcmpeq>:
  406ef4:	f84d ed08 	str.w	lr, [sp, #-8]!
  406ef8:	f7ff fff4 	bl	406ee4 <__aeabi_cdcmpeq>
  406efc:	bf0c      	ite	eq
  406efe:	2001      	moveq	r0, #1
  406f00:	2000      	movne	r0, #0
  406f02:	f85d fb08 	ldr.w	pc, [sp], #8
  406f06:	bf00      	nop

00406f08 <__aeabi_dcmplt>:
  406f08:	f84d ed08 	str.w	lr, [sp, #-8]!
  406f0c:	f7ff ffea 	bl	406ee4 <__aeabi_cdcmpeq>
  406f10:	bf34      	ite	cc
  406f12:	2001      	movcc	r0, #1
  406f14:	2000      	movcs	r0, #0
  406f16:	f85d fb08 	ldr.w	pc, [sp], #8
  406f1a:	bf00      	nop

00406f1c <__aeabi_dcmple>:
  406f1c:	f84d ed08 	str.w	lr, [sp, #-8]!
  406f20:	f7ff ffe0 	bl	406ee4 <__aeabi_cdcmpeq>
  406f24:	bf94      	ite	ls
  406f26:	2001      	movls	r0, #1
  406f28:	2000      	movhi	r0, #0
  406f2a:	f85d fb08 	ldr.w	pc, [sp], #8
  406f2e:	bf00      	nop

00406f30 <__aeabi_dcmpge>:
  406f30:	f84d ed08 	str.w	lr, [sp, #-8]!
  406f34:	f7ff ffce 	bl	406ed4 <__aeabi_cdrcmple>
  406f38:	bf94      	ite	ls
  406f3a:	2001      	movls	r0, #1
  406f3c:	2000      	movhi	r0, #0
  406f3e:	f85d fb08 	ldr.w	pc, [sp], #8
  406f42:	bf00      	nop

00406f44 <__aeabi_dcmpgt>:
  406f44:	f84d ed08 	str.w	lr, [sp, #-8]!
  406f48:	f7ff ffc4 	bl	406ed4 <__aeabi_cdrcmple>
  406f4c:	bf34      	ite	cc
  406f4e:	2001      	movcc	r0, #1
  406f50:	2000      	movcs	r0, #0
  406f52:	f85d fb08 	ldr.w	pc, [sp], #8
  406f56:	bf00      	nop

00406f58 <__aeabi_dcmpun>:
  406f58:	ea4f 0c41 	mov.w	ip, r1, lsl #1
  406f5c:	ea7f 5c6c 	mvns.w	ip, ip, asr #21
  406f60:	d102      	bne.n	406f68 <__aeabi_dcmpun+0x10>
  406f62:	ea50 3c01 	orrs.w	ip, r0, r1, lsl #12
  406f66:	d10a      	bne.n	406f7e <__aeabi_dcmpun+0x26>
  406f68:	ea4f 0c43 	mov.w	ip, r3, lsl #1
  406f6c:	ea7f 5c6c 	mvns.w	ip, ip, asr #21
  406f70:	d102      	bne.n	406f78 <__aeabi_dcmpun+0x20>
  406f72:	ea52 3c03 	orrs.w	ip, r2, r3, lsl #12
  406f76:	d102      	bne.n	406f7e <__aeabi_dcmpun+0x26>
  406f78:	f04f 0000 	mov.w	r0, #0
  406f7c:	4770      	bx	lr
  406f7e:	f04f 0001 	mov.w	r0, #1
  406f82:	4770      	bx	lr

00406f84 <__aeabi_d2iz>:
  406f84:	ea4f 0241 	mov.w	r2, r1, lsl #1
  406f88:	f512 1200 	adds.w	r2, r2, #2097152	; 0x200000
  406f8c:	d215      	bcs.n	406fba <__aeabi_d2iz+0x36>
  406f8e:	d511      	bpl.n	406fb4 <__aeabi_d2iz+0x30>
  406f90:	f46f 7378 	mvn.w	r3, #992	; 0x3e0
  406f94:	ebb3 5262 	subs.w	r2, r3, r2, asr #21
  406f98:	d912      	bls.n	406fc0 <__aeabi_d2iz+0x3c>
  406f9a:	ea4f 23c1 	mov.w	r3, r1, lsl #11
  406f9e:	f043 4300 	orr.w	r3, r3, #2147483648	; 0x80000000
  406fa2:	ea43 5350 	orr.w	r3, r3, r0, lsr #21
  406fa6:	f011 4f00 	tst.w	r1, #2147483648	; 0x80000000
  406faa:	fa23 f002 	lsr.w	r0, r3, r2
  406fae:	bf18      	it	ne
  406fb0:	4240      	negne	r0, r0
  406fb2:	4770      	bx	lr
  406fb4:	f04f 0000 	mov.w	r0, #0
  406fb8:	4770      	bx	lr
  406fba:	ea50 3001 	orrs.w	r0, r0, r1, lsl #12
  406fbe:	d105      	bne.n	406fcc <__aeabi_d2iz+0x48>
  406fc0:	f011 4000 	ands.w	r0, r1, #2147483648	; 0x80000000
  406fc4:	bf08      	it	eq
  406fc6:	f06f 4000 	mvneq.w	r0, #2147483648	; 0x80000000
  406fca:	4770      	bx	lr
  406fcc:	f04f 0000 	mov.w	r0, #0
  406fd0:	4770      	bx	lr
  406fd2:	bf00      	nop

00406fd4 <__aeabi_d2f>:
  406fd4:	ea4f 0241 	mov.w	r2, r1, lsl #1
  406fd8:	f1b2 43e0 	subs.w	r3, r2, #1879048192	; 0x70000000
  406fdc:	bf24      	itt	cs
  406fde:	f5b3 1c00 	subscs.w	ip, r3, #2097152	; 0x200000
  406fe2:	f1dc 5cfe 	rsbscs	ip, ip, #532676608	; 0x1fc00000
  406fe6:	d90d      	bls.n	407004 <__aeabi_d2f+0x30>
  406fe8:	f001 4c00 	and.w	ip, r1, #2147483648	; 0x80000000
  406fec:	ea4f 02c0 	mov.w	r2, r0, lsl #3
  406ff0:	ea4c 7050 	orr.w	r0, ip, r0, lsr #29
  406ff4:	f1b2 4f00 	cmp.w	r2, #2147483648	; 0x80000000
  406ff8:	eb40 0083 	adc.w	r0, r0, r3, lsl #2
  406ffc:	bf08      	it	eq
  406ffe:	f020 0001 	biceq.w	r0, r0, #1
  407002:	4770      	bx	lr
  407004:	f011 4f80 	tst.w	r1, #1073741824	; 0x40000000
  407008:	d121      	bne.n	40704e <__aeabi_d2f+0x7a>
  40700a:	f113 7238 	adds.w	r2, r3, #48234496	; 0x2e00000
  40700e:	bfbc      	itt	lt
  407010:	f001 4000 	andlt.w	r0, r1, #2147483648	; 0x80000000
  407014:	4770      	bxlt	lr
  407016:	f441 1180 	orr.w	r1, r1, #1048576	; 0x100000
  40701a:	ea4f 5252 	mov.w	r2, r2, lsr #21
  40701e:	f1c2 0218 	rsb	r2, r2, #24
  407022:	f1c2 0c20 	rsb	ip, r2, #32
  407026:	fa10 f30c 	lsls.w	r3, r0, ip
  40702a:	fa20 f002 	lsr.w	r0, r0, r2
  40702e:	bf18      	it	ne
  407030:	f040 0001 	orrne.w	r0, r0, #1
  407034:	ea4f 23c1 	mov.w	r3, r1, lsl #11
  407038:	ea4f 23d3 	mov.w	r3, r3, lsr #11
  40703c:	fa03 fc0c 	lsl.w	ip, r3, ip
  407040:	ea40 000c 	orr.w	r0, r0, ip
  407044:	fa23 f302 	lsr.w	r3, r3, r2
  407048:	ea4f 0343 	mov.w	r3, r3, lsl #1
  40704c:	e7cc      	b.n	406fe8 <__aeabi_d2f+0x14>
  40704e:	ea7f 5362 	mvns.w	r3, r2, asr #21
  407052:	d107      	bne.n	407064 <__aeabi_d2f+0x90>
  407054:	ea50 3301 	orrs.w	r3, r0, r1, lsl #12
  407058:	bf1e      	ittt	ne
  40705a:	f04f 40fe 	movne.w	r0, #2130706432	; 0x7f000000
  40705e:	f440 0040 	orrne.w	r0, r0, #12582912	; 0xc00000
  407062:	4770      	bxne	lr
  407064:	f001 4000 	and.w	r0, r1, #2147483648	; 0x80000000
  407068:	f040 40fe 	orr.w	r0, r0, #2130706432	; 0x7f000000
  40706c:	f440 0000 	orr.w	r0, r0, #8388608	; 0x800000
  407070:	4770      	bx	lr
  407072:	bf00      	nop

00407074 <__aeabi_frsub>:
  407074:	f080 4000 	eor.w	r0, r0, #2147483648	; 0x80000000
  407078:	e002      	b.n	407080 <__addsf3>
  40707a:	bf00      	nop

0040707c <__aeabi_fsub>:
  40707c:	f081 4100 	eor.w	r1, r1, #2147483648	; 0x80000000

00407080 <__addsf3>:
  407080:	0042      	lsls	r2, r0, #1
  407082:	bf1f      	itttt	ne
  407084:	ea5f 0341 	movsne.w	r3, r1, lsl #1
  407088:	ea92 0f03 	teqne	r2, r3
  40708c:	ea7f 6c22 	mvnsne.w	ip, r2, asr #24
  407090:	ea7f 6c23 	mvnsne.w	ip, r3, asr #24
  407094:	d06a      	beq.n	40716c <__addsf3+0xec>
  407096:	ea4f 6212 	mov.w	r2, r2, lsr #24
  40709a:	ebd2 6313 	rsbs	r3, r2, r3, lsr #24
  40709e:	bfc1      	itttt	gt
  4070a0:	18d2      	addgt	r2, r2, r3
  4070a2:	4041      	eorgt	r1, r0
  4070a4:	4048      	eorgt	r0, r1
  4070a6:	4041      	eorgt	r1, r0
  4070a8:	bfb8      	it	lt
  4070aa:	425b      	neglt	r3, r3
  4070ac:	2b19      	cmp	r3, #25
  4070ae:	bf88      	it	hi
  4070b0:	4770      	bxhi	lr
  4070b2:	f010 4f00 	tst.w	r0, #2147483648	; 0x80000000
  4070b6:	f440 0000 	orr.w	r0, r0, #8388608	; 0x800000
  4070ba:	f020 407f 	bic.w	r0, r0, #4278190080	; 0xff000000
  4070be:	bf18      	it	ne
  4070c0:	4240      	negne	r0, r0
  4070c2:	f011 4f00 	tst.w	r1, #2147483648	; 0x80000000
  4070c6:	f441 0100 	orr.w	r1, r1, #8388608	; 0x800000
  4070ca:	f021 417f 	bic.w	r1, r1, #4278190080	; 0xff000000
  4070ce:	bf18      	it	ne
  4070d0:	4249      	negne	r1, r1
  4070d2:	ea92 0f03 	teq	r2, r3
  4070d6:	d03f      	beq.n	407158 <__addsf3+0xd8>
  4070d8:	f1a2 0201 	sub.w	r2, r2, #1
  4070dc:	fa41 fc03 	asr.w	ip, r1, r3
  4070e0:	eb10 000c 	adds.w	r0, r0, ip
  4070e4:	f1c3 0320 	rsb	r3, r3, #32
  4070e8:	fa01 f103 	lsl.w	r1, r1, r3
  4070ec:	f000 4300 	and.w	r3, r0, #2147483648	; 0x80000000
  4070f0:	d502      	bpl.n	4070f8 <__addsf3+0x78>
  4070f2:	4249      	negs	r1, r1
  4070f4:	eb60 0040 	sbc.w	r0, r0, r0, lsl #1
  4070f8:	f5b0 0f00 	cmp.w	r0, #8388608	; 0x800000
  4070fc:	d313      	bcc.n	407126 <__addsf3+0xa6>
  4070fe:	f1b0 7f80 	cmp.w	r0, #16777216	; 0x1000000
  407102:	d306      	bcc.n	407112 <__addsf3+0x92>
  407104:	0840      	lsrs	r0, r0, #1
  407106:	ea4f 0131 	mov.w	r1, r1, rrx
  40710a:	f102 0201 	add.w	r2, r2, #1
  40710e:	2afe      	cmp	r2, #254	; 0xfe
  407110:	d251      	bcs.n	4071b6 <__addsf3+0x136>
  407112:	f1b1 4f00 	cmp.w	r1, #2147483648	; 0x80000000
  407116:	eb40 50c2 	adc.w	r0, r0, r2, lsl #23
  40711a:	bf08      	it	eq
  40711c:	f020 0001 	biceq.w	r0, r0, #1
  407120:	ea40 0003 	orr.w	r0, r0, r3
  407124:	4770      	bx	lr
  407126:	0049      	lsls	r1, r1, #1
  407128:	eb40 0000 	adc.w	r0, r0, r0
  40712c:	f410 0f00 	tst.w	r0, #8388608	; 0x800000
  407130:	f1a2 0201 	sub.w	r2, r2, #1
  407134:	d1ed      	bne.n	407112 <__addsf3+0x92>
  407136:	fab0 fc80 	clz	ip, r0
  40713a:	f1ac 0c08 	sub.w	ip, ip, #8
  40713e:	ebb2 020c 	subs.w	r2, r2, ip
  407142:	fa00 f00c 	lsl.w	r0, r0, ip
  407146:	bfaa      	itet	ge
  407148:	eb00 50c2 	addge.w	r0, r0, r2, lsl #23
  40714c:	4252      	neglt	r2, r2
  40714e:	4318      	orrge	r0, r3
  407150:	bfbc      	itt	lt
  407152:	40d0      	lsrlt	r0, r2
  407154:	4318      	orrlt	r0, r3
  407156:	4770      	bx	lr
  407158:	f092 0f00 	teq	r2, #0
  40715c:	f481 0100 	eor.w	r1, r1, #8388608	; 0x800000
  407160:	bf06      	itte	eq
  407162:	f480 0000 	eoreq.w	r0, r0, #8388608	; 0x800000
  407166:	3201      	addeq	r2, #1
  407168:	3b01      	subne	r3, #1
  40716a:	e7b5      	b.n	4070d8 <__addsf3+0x58>
  40716c:	ea4f 0341 	mov.w	r3, r1, lsl #1
  407170:	ea7f 6c22 	mvns.w	ip, r2, asr #24
  407174:	bf18      	it	ne
  407176:	ea7f 6c23 	mvnsne.w	ip, r3, asr #24
  40717a:	d021      	beq.n	4071c0 <__addsf3+0x140>
  40717c:	ea92 0f03 	teq	r2, r3
  407180:	d004      	beq.n	40718c <__addsf3+0x10c>
  407182:	f092 0f00 	teq	r2, #0
  407186:	bf08      	it	eq
  407188:	4608      	moveq	r0, r1
  40718a:	4770      	bx	lr
  40718c:	ea90 0f01 	teq	r0, r1
  407190:	bf1c      	itt	ne
  407192:	2000      	movne	r0, #0
  407194:	4770      	bxne	lr
  407196:	f012 4f7f 	tst.w	r2, #4278190080	; 0xff000000
  40719a:	d104      	bne.n	4071a6 <__addsf3+0x126>
  40719c:	0040      	lsls	r0, r0, #1
  40719e:	bf28      	it	cs
  4071a0:	f040 4000 	orrcs.w	r0, r0, #2147483648	; 0x80000000
  4071a4:	4770      	bx	lr
  4071a6:	f112 7200 	adds.w	r2, r2, #33554432	; 0x2000000
  4071aa:	bf3c      	itt	cc
  4071ac:	f500 0000 	addcc.w	r0, r0, #8388608	; 0x800000
  4071b0:	4770      	bxcc	lr
  4071b2:	f000 4300 	and.w	r3, r0, #2147483648	; 0x80000000
  4071b6:	f043 40fe 	orr.w	r0, r3, #2130706432	; 0x7f000000
  4071ba:	f440 0000 	orr.w	r0, r0, #8388608	; 0x800000
  4071be:	4770      	bx	lr
  4071c0:	ea7f 6222 	mvns.w	r2, r2, asr #24
  4071c4:	bf16      	itet	ne
  4071c6:	4608      	movne	r0, r1
  4071c8:	ea7f 6323 	mvnseq.w	r3, r3, asr #24
  4071cc:	4601      	movne	r1, r0
  4071ce:	0242      	lsls	r2, r0, #9
  4071d0:	bf06      	itte	eq
  4071d2:	ea5f 2341 	movseq.w	r3, r1, lsl #9
  4071d6:	ea90 0f01 	teqeq	r0, r1
  4071da:	f440 0080 	orrne.w	r0, r0, #4194304	; 0x400000
  4071de:	4770      	bx	lr

004071e0 <__aeabi_ui2f>:
  4071e0:	f04f 0300 	mov.w	r3, #0
  4071e4:	e004      	b.n	4071f0 <__aeabi_i2f+0x8>
  4071e6:	bf00      	nop

004071e8 <__aeabi_i2f>:
  4071e8:	f010 4300 	ands.w	r3, r0, #2147483648	; 0x80000000
  4071ec:	bf48      	it	mi
  4071ee:	4240      	negmi	r0, r0
  4071f0:	ea5f 0c00 	movs.w	ip, r0
  4071f4:	bf08      	it	eq
  4071f6:	4770      	bxeq	lr
  4071f8:	f043 4396 	orr.w	r3, r3, #1258291200	; 0x4b000000
  4071fc:	4601      	mov	r1, r0
  4071fe:	f04f 0000 	mov.w	r0, #0
  407202:	e01c      	b.n	40723e <__aeabi_l2f+0x2a>

00407204 <__aeabi_ul2f>:
  407204:	ea50 0201 	orrs.w	r2, r0, r1
  407208:	bf08      	it	eq
  40720a:	4770      	bxeq	lr
  40720c:	f04f 0300 	mov.w	r3, #0
  407210:	e00a      	b.n	407228 <__aeabi_l2f+0x14>
  407212:	bf00      	nop

00407214 <__aeabi_l2f>:
  407214:	ea50 0201 	orrs.w	r2, r0, r1
  407218:	bf08      	it	eq
  40721a:	4770      	bxeq	lr
  40721c:	f011 4300 	ands.w	r3, r1, #2147483648	; 0x80000000
  407220:	d502      	bpl.n	407228 <__aeabi_l2f+0x14>
  407222:	4240      	negs	r0, r0
  407224:	eb61 0141 	sbc.w	r1, r1, r1, lsl #1
  407228:	ea5f 0c01 	movs.w	ip, r1
  40722c:	bf02      	ittt	eq
  40722e:	4684      	moveq	ip, r0
  407230:	4601      	moveq	r1, r0
  407232:	2000      	moveq	r0, #0
  407234:	f043 43b6 	orr.w	r3, r3, #1526726656	; 0x5b000000
  407238:	bf08      	it	eq
  40723a:	f1a3 5380 	subeq.w	r3, r3, #268435456	; 0x10000000
  40723e:	f5a3 0300 	sub.w	r3, r3, #8388608	; 0x800000
  407242:	fabc f28c 	clz	r2, ip
  407246:	3a08      	subs	r2, #8
  407248:	eba3 53c2 	sub.w	r3, r3, r2, lsl #23
  40724c:	db10      	blt.n	407270 <__aeabi_l2f+0x5c>
  40724e:	fa01 fc02 	lsl.w	ip, r1, r2
  407252:	4463      	add	r3, ip
  407254:	fa00 fc02 	lsl.w	ip, r0, r2
  407258:	f1c2 0220 	rsb	r2, r2, #32
  40725c:	f1bc 4f00 	cmp.w	ip, #2147483648	; 0x80000000
  407260:	fa20 f202 	lsr.w	r2, r0, r2
  407264:	eb43 0002 	adc.w	r0, r3, r2
  407268:	bf08      	it	eq
  40726a:	f020 0001 	biceq.w	r0, r0, #1
  40726e:	4770      	bx	lr
  407270:	f102 0220 	add.w	r2, r2, #32
  407274:	fa01 fc02 	lsl.w	ip, r1, r2
  407278:	f1c2 0220 	rsb	r2, r2, #32
  40727c:	ea50 004c 	orrs.w	r0, r0, ip, lsl #1
  407280:	fa21 f202 	lsr.w	r2, r1, r2
  407284:	eb43 0002 	adc.w	r0, r3, r2
  407288:	bf08      	it	eq
  40728a:	ea20 70dc 	biceq.w	r0, r0, ip, lsr #31
  40728e:	4770      	bx	lr

00407290 <__aeabi_fmul>:
  407290:	f04f 0cff 	mov.w	ip, #255	; 0xff
  407294:	ea1c 52d0 	ands.w	r2, ip, r0, lsr #23
  407298:	bf1e      	ittt	ne
  40729a:	ea1c 53d1 	andsne.w	r3, ip, r1, lsr #23
  40729e:	ea92 0f0c 	teqne	r2, ip
  4072a2:	ea93 0f0c 	teqne	r3, ip
  4072a6:	d06f      	beq.n	407388 <__aeabi_fmul+0xf8>
  4072a8:	441a      	add	r2, r3
  4072aa:	ea80 0c01 	eor.w	ip, r0, r1
  4072ae:	0240      	lsls	r0, r0, #9
  4072b0:	bf18      	it	ne
  4072b2:	ea5f 2141 	movsne.w	r1, r1, lsl #9
  4072b6:	d01e      	beq.n	4072f6 <__aeabi_fmul+0x66>
  4072b8:	f04f 6300 	mov.w	r3, #134217728	; 0x8000000
  4072bc:	ea43 1050 	orr.w	r0, r3, r0, lsr #5
  4072c0:	ea43 1151 	orr.w	r1, r3, r1, lsr #5
  4072c4:	fba0 3101 	umull	r3, r1, r0, r1
  4072c8:	f00c 4000 	and.w	r0, ip, #2147483648	; 0x80000000
  4072cc:	f5b1 0f00 	cmp.w	r1, #8388608	; 0x800000
  4072d0:	bf3e      	ittt	cc
  4072d2:	0049      	lslcc	r1, r1, #1
  4072d4:	ea41 71d3 	orrcc.w	r1, r1, r3, lsr #31
  4072d8:	005b      	lslcc	r3, r3, #1
  4072da:	ea40 0001 	orr.w	r0, r0, r1
  4072de:	f162 027f 	sbc.w	r2, r2, #127	; 0x7f
  4072e2:	2afd      	cmp	r2, #253	; 0xfd
  4072e4:	d81d      	bhi.n	407322 <__aeabi_fmul+0x92>
  4072e6:	f1b3 4f00 	cmp.w	r3, #2147483648	; 0x80000000
  4072ea:	eb40 50c2 	adc.w	r0, r0, r2, lsl #23
  4072ee:	bf08      	it	eq
  4072f0:	f020 0001 	biceq.w	r0, r0, #1
  4072f4:	4770      	bx	lr
  4072f6:	f090 0f00 	teq	r0, #0
  4072fa:	f00c 4c00 	and.w	ip, ip, #2147483648	; 0x80000000
  4072fe:	bf08      	it	eq
  407300:	0249      	lsleq	r1, r1, #9
  407302:	ea4c 2050 	orr.w	r0, ip, r0, lsr #9
  407306:	ea40 2051 	orr.w	r0, r0, r1, lsr #9
  40730a:	3a7f      	subs	r2, #127	; 0x7f
  40730c:	bfc2      	ittt	gt
  40730e:	f1d2 03ff 	rsbsgt	r3, r2, #255	; 0xff
  407312:	ea40 50c2 	orrgt.w	r0, r0, r2, lsl #23
  407316:	4770      	bxgt	lr
  407318:	f440 0000 	orr.w	r0, r0, #8388608	; 0x800000
  40731c:	f04f 0300 	mov.w	r3, #0
  407320:	3a01      	subs	r2, #1
  407322:	dc5d      	bgt.n	4073e0 <__aeabi_fmul+0x150>
  407324:	f112 0f19 	cmn.w	r2, #25
  407328:	bfdc      	itt	le
  40732a:	f000 4000 	andle.w	r0, r0, #2147483648	; 0x80000000
  40732e:	4770      	bxle	lr
  407330:	f1c2 0200 	rsb	r2, r2, #0
  407334:	0041      	lsls	r1, r0, #1
  407336:	fa21 f102 	lsr.w	r1, r1, r2
  40733a:	f1c2 0220 	rsb	r2, r2, #32
  40733e:	fa00 fc02 	lsl.w	ip, r0, r2
  407342:	ea5f 0031 	movs.w	r0, r1, rrx
  407346:	f140 0000 	adc.w	r0, r0, #0
  40734a:	ea53 034c 	orrs.w	r3, r3, ip, lsl #1
  40734e:	bf08      	it	eq
  407350:	ea20 70dc 	biceq.w	r0, r0, ip, lsr #31
  407354:	4770      	bx	lr
  407356:	f092 0f00 	teq	r2, #0
  40735a:	f000 4c00 	and.w	ip, r0, #2147483648	; 0x80000000
  40735e:	bf02      	ittt	eq
  407360:	0040      	lsleq	r0, r0, #1
  407362:	f410 0f00 	tsteq.w	r0, #8388608	; 0x800000
  407366:	3a01      	subeq	r2, #1
  407368:	d0f9      	beq.n	40735e <__aeabi_fmul+0xce>
  40736a:	ea40 000c 	orr.w	r0, r0, ip
  40736e:	f093 0f00 	teq	r3, #0
  407372:	f001 4c00 	and.w	ip, r1, #2147483648	; 0x80000000
  407376:	bf02      	ittt	eq
  407378:	0049      	lsleq	r1, r1, #1
  40737a:	f411 0f00 	tsteq.w	r1, #8388608	; 0x800000
  40737e:	3b01      	subeq	r3, #1
  407380:	d0f9      	beq.n	407376 <__aeabi_fmul+0xe6>
  407382:	ea41 010c 	orr.w	r1, r1, ip
  407386:	e78f      	b.n	4072a8 <__aeabi_fmul+0x18>
  407388:	ea0c 53d1 	and.w	r3, ip, r1, lsr #23
  40738c:	ea92 0f0c 	teq	r2, ip
  407390:	bf18      	it	ne
  407392:	ea93 0f0c 	teqne	r3, ip
  407396:	d00a      	beq.n	4073ae <__aeabi_fmul+0x11e>
  407398:	f030 4c00 	bics.w	ip, r0, #2147483648	; 0x80000000
  40739c:	bf18      	it	ne
  40739e:	f031 4c00 	bicsne.w	ip, r1, #2147483648	; 0x80000000
  4073a2:	d1d8      	bne.n	407356 <__aeabi_fmul+0xc6>
  4073a4:	ea80 0001 	eor.w	r0, r0, r1
  4073a8:	f000 4000 	and.w	r0, r0, #2147483648	; 0x80000000
  4073ac:	4770      	bx	lr
  4073ae:	f090 0f00 	teq	r0, #0
  4073b2:	bf17      	itett	ne
  4073b4:	f090 4f00 	teqne	r0, #2147483648	; 0x80000000
  4073b8:	4608      	moveq	r0, r1
  4073ba:	f091 0f00 	teqne	r1, #0
  4073be:	f091 4f00 	teqne	r1, #2147483648	; 0x80000000
  4073c2:	d014      	beq.n	4073ee <__aeabi_fmul+0x15e>
  4073c4:	ea92 0f0c 	teq	r2, ip
  4073c8:	d101      	bne.n	4073ce <__aeabi_fmul+0x13e>
  4073ca:	0242      	lsls	r2, r0, #9
  4073cc:	d10f      	bne.n	4073ee <__aeabi_fmul+0x15e>
  4073ce:	ea93 0f0c 	teq	r3, ip
  4073d2:	d103      	bne.n	4073dc <__aeabi_fmul+0x14c>
  4073d4:	024b      	lsls	r3, r1, #9
  4073d6:	bf18      	it	ne
  4073d8:	4608      	movne	r0, r1
  4073da:	d108      	bne.n	4073ee <__aeabi_fmul+0x15e>
  4073dc:	ea80 0001 	eor.w	r0, r0, r1
  4073e0:	f000 4000 	and.w	r0, r0, #2147483648	; 0x80000000
  4073e4:	f040 40fe 	orr.w	r0, r0, #2130706432	; 0x7f000000
  4073e8:	f440 0000 	orr.w	r0, r0, #8388608	; 0x800000
  4073ec:	4770      	bx	lr
  4073ee:	f040 40fe 	orr.w	r0, r0, #2130706432	; 0x7f000000
  4073f2:	f440 0040 	orr.w	r0, r0, #12582912	; 0xc00000
  4073f6:	4770      	bx	lr

004073f8 <__aeabi_fdiv>:
  4073f8:	f04f 0cff 	mov.w	ip, #255	; 0xff
  4073fc:	ea1c 52d0 	ands.w	r2, ip, r0, lsr #23
  407400:	bf1e      	ittt	ne
  407402:	ea1c 53d1 	andsne.w	r3, ip, r1, lsr #23
  407406:	ea92 0f0c 	teqne	r2, ip
  40740a:	ea93 0f0c 	teqne	r3, ip
  40740e:	d069      	beq.n	4074e4 <__aeabi_fdiv+0xec>
  407410:	eba2 0203 	sub.w	r2, r2, r3
  407414:	ea80 0c01 	eor.w	ip, r0, r1
  407418:	0249      	lsls	r1, r1, #9
  40741a:	ea4f 2040 	mov.w	r0, r0, lsl #9
  40741e:	d037      	beq.n	407490 <__aeabi_fdiv+0x98>
  407420:	f04f 5380 	mov.w	r3, #268435456	; 0x10000000
  407424:	ea43 1111 	orr.w	r1, r3, r1, lsr #4
  407428:	ea43 1310 	orr.w	r3, r3, r0, lsr #4
  40742c:	f00c 4000 	and.w	r0, ip, #2147483648	; 0x80000000
  407430:	428b      	cmp	r3, r1
  407432:	bf38      	it	cc
  407434:	005b      	lslcc	r3, r3, #1
  407436:	f142 027d 	adc.w	r2, r2, #125	; 0x7d
  40743a:	f44f 0c00 	mov.w	ip, #8388608	; 0x800000
  40743e:	428b      	cmp	r3, r1
  407440:	bf24      	itt	cs
  407442:	1a5b      	subcs	r3, r3, r1
  407444:	ea40 000c 	orrcs.w	r0, r0, ip
  407448:	ebb3 0f51 	cmp.w	r3, r1, lsr #1
  40744c:	bf24      	itt	cs
  40744e:	eba3 0351 	subcs.w	r3, r3, r1, lsr #1
  407452:	ea40 005c 	orrcs.w	r0, r0, ip, lsr #1
  407456:	ebb3 0f91 	cmp.w	r3, r1, lsr #2
  40745a:	bf24      	itt	cs
  40745c:	eba3 0391 	subcs.w	r3, r3, r1, lsr #2
  407460:	ea40 009c 	orrcs.w	r0, r0, ip, lsr #2
  407464:	ebb3 0fd1 	cmp.w	r3, r1, lsr #3
  407468:	bf24      	itt	cs
  40746a:	eba3 03d1 	subcs.w	r3, r3, r1, lsr #3
  40746e:	ea40 00dc 	orrcs.w	r0, r0, ip, lsr #3
  407472:	011b      	lsls	r3, r3, #4
  407474:	bf18      	it	ne
  407476:	ea5f 1c1c 	movsne.w	ip, ip, lsr #4
  40747a:	d1e0      	bne.n	40743e <__aeabi_fdiv+0x46>
  40747c:	2afd      	cmp	r2, #253	; 0xfd
  40747e:	f63f af50 	bhi.w	407322 <__aeabi_fmul+0x92>
  407482:	428b      	cmp	r3, r1
  407484:	eb40 50c2 	adc.w	r0, r0, r2, lsl #23
  407488:	bf08      	it	eq
  40748a:	f020 0001 	biceq.w	r0, r0, #1
  40748e:	4770      	bx	lr
  407490:	f00c 4c00 	and.w	ip, ip, #2147483648	; 0x80000000
  407494:	ea4c 2050 	orr.w	r0, ip, r0, lsr #9
  407498:	327f      	adds	r2, #127	; 0x7f
  40749a:	bfc2      	ittt	gt
  40749c:	f1d2 03ff 	rsbsgt	r3, r2, #255	; 0xff
  4074a0:	ea40 50c2 	orrgt.w	r0, r0, r2, lsl #23
  4074a4:	4770      	bxgt	lr
  4074a6:	f440 0000 	orr.w	r0, r0, #8388608	; 0x800000
  4074aa:	f04f 0300 	mov.w	r3, #0
  4074ae:	3a01      	subs	r2, #1
  4074b0:	e737      	b.n	407322 <__aeabi_fmul+0x92>
  4074b2:	f092 0f00 	teq	r2, #0
  4074b6:	f000 4c00 	and.w	ip, r0, #2147483648	; 0x80000000
  4074ba:	bf02      	ittt	eq
  4074bc:	0040      	lsleq	r0, r0, #1
  4074be:	f410 0f00 	tsteq.w	r0, #8388608	; 0x800000
  4074c2:	3a01      	subeq	r2, #1
  4074c4:	d0f9      	beq.n	4074ba <__aeabi_fdiv+0xc2>
  4074c6:	ea40 000c 	orr.w	r0, r0, ip
  4074ca:	f093 0f00 	teq	r3, #0
  4074ce:	f001 4c00 	and.w	ip, r1, #2147483648	; 0x80000000
  4074d2:	bf02      	ittt	eq
  4074d4:	0049      	lsleq	r1, r1, #1
  4074d6:	f411 0f00 	tsteq.w	r1, #8388608	; 0x800000
  4074da:	3b01      	subeq	r3, #1
  4074dc:	d0f9      	beq.n	4074d2 <__aeabi_fdiv+0xda>
  4074de:	ea41 010c 	orr.w	r1, r1, ip
  4074e2:	e795      	b.n	407410 <__aeabi_fdiv+0x18>
  4074e4:	ea0c 53d1 	and.w	r3, ip, r1, lsr #23
  4074e8:	ea92 0f0c 	teq	r2, ip
  4074ec:	d108      	bne.n	407500 <__aeabi_fdiv+0x108>
  4074ee:	0242      	lsls	r2, r0, #9
  4074f0:	f47f af7d 	bne.w	4073ee <__aeabi_fmul+0x15e>
  4074f4:	ea93 0f0c 	teq	r3, ip
  4074f8:	f47f af70 	bne.w	4073dc <__aeabi_fmul+0x14c>
  4074fc:	4608      	mov	r0, r1
  4074fe:	e776      	b.n	4073ee <__aeabi_fmul+0x15e>
  407500:	ea93 0f0c 	teq	r3, ip
  407504:	d104      	bne.n	407510 <__aeabi_fdiv+0x118>
  407506:	024b      	lsls	r3, r1, #9
  407508:	f43f af4c 	beq.w	4073a4 <__aeabi_fmul+0x114>
  40750c:	4608      	mov	r0, r1
  40750e:	e76e      	b.n	4073ee <__aeabi_fmul+0x15e>
  407510:	f030 4c00 	bics.w	ip, r0, #2147483648	; 0x80000000
  407514:	bf18      	it	ne
  407516:	f031 4c00 	bicsne.w	ip, r1, #2147483648	; 0x80000000
  40751a:	d1ca      	bne.n	4074b2 <__aeabi_fdiv+0xba>
  40751c:	f030 4200 	bics.w	r2, r0, #2147483648	; 0x80000000
  407520:	f47f af5c 	bne.w	4073dc <__aeabi_fmul+0x14c>
  407524:	f031 4300 	bics.w	r3, r1, #2147483648	; 0x80000000
  407528:	f47f af3c 	bne.w	4073a4 <__aeabi_fmul+0x114>
  40752c:	e75f      	b.n	4073ee <__aeabi_fmul+0x15e>
  40752e:	bf00      	nop

00407530 <__gesf2>:
  407530:	f04f 3cff 	mov.w	ip, #4294967295
  407534:	e006      	b.n	407544 <__cmpsf2+0x4>
  407536:	bf00      	nop

00407538 <__lesf2>:
  407538:	f04f 0c01 	mov.w	ip, #1
  40753c:	e002      	b.n	407544 <__cmpsf2+0x4>
  40753e:	bf00      	nop

00407540 <__cmpsf2>:
  407540:	f04f 0c01 	mov.w	ip, #1
  407544:	f84d cd04 	str.w	ip, [sp, #-4]!
  407548:	ea4f 0240 	mov.w	r2, r0, lsl #1
  40754c:	ea4f 0341 	mov.w	r3, r1, lsl #1
  407550:	ea7f 6c22 	mvns.w	ip, r2, asr #24
  407554:	bf18      	it	ne
  407556:	ea7f 6c23 	mvnsne.w	ip, r3, asr #24
  40755a:	d011      	beq.n	407580 <__cmpsf2+0x40>
  40755c:	b001      	add	sp, #4
  40755e:	ea52 0c53 	orrs.w	ip, r2, r3, lsr #1
  407562:	bf18      	it	ne
  407564:	ea90 0f01 	teqne	r0, r1
  407568:	bf58      	it	pl
  40756a:	ebb2 0003 	subspl.w	r0, r2, r3
  40756e:	bf88      	it	hi
  407570:	17c8      	asrhi	r0, r1, #31
  407572:	bf38      	it	cc
  407574:	ea6f 70e1 	mvncc.w	r0, r1, asr #31
  407578:	bf18      	it	ne
  40757a:	f040 0001 	orrne.w	r0, r0, #1
  40757e:	4770      	bx	lr
  407580:	ea7f 6c22 	mvns.w	ip, r2, asr #24
  407584:	d102      	bne.n	40758c <__cmpsf2+0x4c>
  407586:	ea5f 2c40 	movs.w	ip, r0, lsl #9
  40758a:	d105      	bne.n	407598 <__cmpsf2+0x58>
  40758c:	ea7f 6c23 	mvns.w	ip, r3, asr #24
  407590:	d1e4      	bne.n	40755c <__cmpsf2+0x1c>
  407592:	ea5f 2c41 	movs.w	ip, r1, lsl #9
  407596:	d0e1      	beq.n	40755c <__cmpsf2+0x1c>
  407598:	f85d 0b04 	ldr.w	r0, [sp], #4
  40759c:	4770      	bx	lr
  40759e:	bf00      	nop

004075a0 <__aeabi_cfrcmple>:
  4075a0:	4684      	mov	ip, r0
  4075a2:	4608      	mov	r0, r1
  4075a4:	4661      	mov	r1, ip
  4075a6:	e7ff      	b.n	4075a8 <__aeabi_cfcmpeq>

004075a8 <__aeabi_cfcmpeq>:
  4075a8:	b50f      	push	{r0, r1, r2, r3, lr}
  4075aa:	f7ff ffc9 	bl	407540 <__cmpsf2>
  4075ae:	2800      	cmp	r0, #0
  4075b0:	bf48      	it	mi
  4075b2:	f110 0f00 	cmnmi.w	r0, #0
  4075b6:	bd0f      	pop	{r0, r1, r2, r3, pc}

004075b8 <__aeabi_fcmpeq>:
  4075b8:	f84d ed08 	str.w	lr, [sp, #-8]!
  4075bc:	f7ff fff4 	bl	4075a8 <__aeabi_cfcmpeq>
  4075c0:	bf0c      	ite	eq
  4075c2:	2001      	moveq	r0, #1
  4075c4:	2000      	movne	r0, #0
  4075c6:	f85d fb08 	ldr.w	pc, [sp], #8
  4075ca:	bf00      	nop

004075cc <__aeabi_fcmplt>:
  4075cc:	f84d ed08 	str.w	lr, [sp, #-8]!
  4075d0:	f7ff ffea 	bl	4075a8 <__aeabi_cfcmpeq>
  4075d4:	bf34      	ite	cc
  4075d6:	2001      	movcc	r0, #1
  4075d8:	2000      	movcs	r0, #0
  4075da:	f85d fb08 	ldr.w	pc, [sp], #8
  4075de:	bf00      	nop

004075e0 <__aeabi_fcmple>:
  4075e0:	f84d ed08 	str.w	lr, [sp, #-8]!
  4075e4:	f7ff ffe0 	bl	4075a8 <__aeabi_cfcmpeq>
  4075e8:	bf94      	ite	ls
  4075ea:	2001      	movls	r0, #1
  4075ec:	2000      	movhi	r0, #0
  4075ee:	f85d fb08 	ldr.w	pc, [sp], #8
  4075f2:	bf00      	nop

004075f4 <__aeabi_fcmpge>:
  4075f4:	f84d ed08 	str.w	lr, [sp, #-8]!
  4075f8:	f7ff ffd2 	bl	4075a0 <__aeabi_cfrcmple>
  4075fc:	bf94      	ite	ls
  4075fe:	2001      	movls	r0, #1
  407600:	2000      	movhi	r0, #0
  407602:	f85d fb08 	ldr.w	pc, [sp], #8
  407606:	bf00      	nop

00407608 <__aeabi_fcmpgt>:
  407608:	f84d ed08 	str.w	lr, [sp, #-8]!
  40760c:	f7ff ffc8 	bl	4075a0 <__aeabi_cfrcmple>
  407610:	bf34      	ite	cc
  407612:	2001      	movcc	r0, #1
  407614:	2000      	movcs	r0, #0
  407616:	f85d fb08 	ldr.w	pc, [sp], #8
  40761a:	bf00      	nop

0040761c <__aeabi_f2iz>:
  40761c:	ea4f 0240 	mov.w	r2, r0, lsl #1
  407620:	f1b2 4ffe 	cmp.w	r2, #2130706432	; 0x7f000000
  407624:	d30f      	bcc.n	407646 <__aeabi_f2iz+0x2a>
  407626:	f04f 039e 	mov.w	r3, #158	; 0x9e
  40762a:	ebb3 6212 	subs.w	r2, r3, r2, lsr #24
  40762e:	d90d      	bls.n	40764c <__aeabi_f2iz+0x30>
  407630:	ea4f 2300 	mov.w	r3, r0, lsl #8
  407634:	f043 4300 	orr.w	r3, r3, #2147483648	; 0x80000000
  407638:	f010 4f00 	tst.w	r0, #2147483648	; 0x80000000
  40763c:	fa23 f002 	lsr.w	r0, r3, r2
  407640:	bf18      	it	ne
  407642:	4240      	negne	r0, r0
  407644:	4770      	bx	lr
  407646:	f04f 0000 	mov.w	r0, #0
  40764a:	4770      	bx	lr
  40764c:	f112 0f61 	cmn.w	r2, #97	; 0x61
  407650:	d101      	bne.n	407656 <__aeabi_f2iz+0x3a>
  407652:	0242      	lsls	r2, r0, #9
  407654:	d105      	bne.n	407662 <__aeabi_f2iz+0x46>
  407656:	f010 4000 	ands.w	r0, r0, #2147483648	; 0x80000000
  40765a:	bf08      	it	eq
  40765c:	f06f 4000 	mvneq.w	r0, #2147483648	; 0x80000000
  407660:	4770      	bx	lr
  407662:	f04f 0000 	mov.w	r0, #0
  407666:	4770      	bx	lr

00407668 <__errno>:
  407668:	4b01      	ldr	r3, [pc, #4]	; (407670 <__errno+0x8>)
  40766a:	6818      	ldr	r0, [r3, #0]
  40766c:	4770      	bx	lr
  40766e:	bf00      	nop
  407670:	20000460 	.word	0x20000460

00407674 <__libc_init_array>:
  407674:	b570      	push	{r4, r5, r6, lr}
  407676:	4e0f      	ldr	r6, [pc, #60]	; (4076b4 <__libc_init_array+0x40>)
  407678:	4d0f      	ldr	r5, [pc, #60]	; (4076b8 <__libc_init_array+0x44>)
  40767a:	1b76      	subs	r6, r6, r5
  40767c:	10b6      	asrs	r6, r6, #2
  40767e:	bf18      	it	ne
  407680:	2400      	movne	r4, #0
  407682:	d005      	beq.n	407690 <__libc_init_array+0x1c>
  407684:	3401      	adds	r4, #1
  407686:	f855 3b04 	ldr.w	r3, [r5], #4
  40768a:	4798      	blx	r3
  40768c:	42a6      	cmp	r6, r4
  40768e:	d1f9      	bne.n	407684 <__libc_init_array+0x10>
  407690:	4e0a      	ldr	r6, [pc, #40]	; (4076bc <__libc_init_array+0x48>)
  407692:	4d0b      	ldr	r5, [pc, #44]	; (4076c0 <__libc_init_array+0x4c>)
  407694:	1b76      	subs	r6, r6, r5
  407696:	f000 fb3b 	bl	407d10 <_init>
  40769a:	10b6      	asrs	r6, r6, #2
  40769c:	bf18      	it	ne
  40769e:	2400      	movne	r4, #0
  4076a0:	d006      	beq.n	4076b0 <__libc_init_array+0x3c>
  4076a2:	3401      	adds	r4, #1
  4076a4:	f855 3b04 	ldr.w	r3, [r5], #4
  4076a8:	4798      	blx	r3
  4076aa:	42a6      	cmp	r6, r4
  4076ac:	d1f9      	bne.n	4076a2 <__libc_init_array+0x2e>
  4076ae:	bd70      	pop	{r4, r5, r6, pc}
  4076b0:	bd70      	pop	{r4, r5, r6, pc}
  4076b2:	bf00      	nop
  4076b4:	00407d1c 	.word	0x00407d1c
  4076b8:	00407d1c 	.word	0x00407d1c
  4076bc:	00407d24 	.word	0x00407d24
  4076c0:	00407d1c 	.word	0x00407d1c

004076c4 <memcmp>:
  4076c4:	2a03      	cmp	r2, #3
  4076c6:	b470      	push	{r4, r5, r6}
  4076c8:	d926      	bls.n	407718 <memcmp+0x54>
  4076ca:	ea40 0301 	orr.w	r3, r0, r1
  4076ce:	079b      	lsls	r3, r3, #30
  4076d0:	d011      	beq.n	4076f6 <memcmp+0x32>
  4076d2:	7804      	ldrb	r4, [r0, #0]
  4076d4:	780d      	ldrb	r5, [r1, #0]
  4076d6:	42ac      	cmp	r4, r5
  4076d8:	d122      	bne.n	407720 <memcmp+0x5c>
  4076da:	4402      	add	r2, r0
  4076dc:	1c43      	adds	r3, r0, #1
  4076de:	e005      	b.n	4076ec <memcmp+0x28>
  4076e0:	f813 4b01 	ldrb.w	r4, [r3], #1
  4076e4:	f811 5f01 	ldrb.w	r5, [r1, #1]!
  4076e8:	42ac      	cmp	r4, r5
  4076ea:	d119      	bne.n	407720 <memcmp+0x5c>
  4076ec:	4293      	cmp	r3, r2
  4076ee:	d1f7      	bne.n	4076e0 <memcmp+0x1c>
  4076f0:	2000      	movs	r0, #0
  4076f2:	bc70      	pop	{r4, r5, r6}
  4076f4:	4770      	bx	lr
  4076f6:	460c      	mov	r4, r1
  4076f8:	4603      	mov	r3, r0
  4076fa:	681e      	ldr	r6, [r3, #0]
  4076fc:	6825      	ldr	r5, [r4, #0]
  4076fe:	42ae      	cmp	r6, r5
  407700:	4618      	mov	r0, r3
  407702:	4621      	mov	r1, r4
  407704:	f103 0304 	add.w	r3, r3, #4
  407708:	f104 0404 	add.w	r4, r4, #4
  40770c:	d1e1      	bne.n	4076d2 <memcmp+0xe>
  40770e:	3a04      	subs	r2, #4
  407710:	2a03      	cmp	r2, #3
  407712:	4618      	mov	r0, r3
  407714:	4621      	mov	r1, r4
  407716:	d8f0      	bhi.n	4076fa <memcmp+0x36>
  407718:	2a00      	cmp	r2, #0
  40771a:	d1da      	bne.n	4076d2 <memcmp+0xe>
  40771c:	4610      	mov	r0, r2
  40771e:	e7e8      	b.n	4076f2 <memcmp+0x2e>
  407720:	1b60      	subs	r0, r4, r5
  407722:	bc70      	pop	{r4, r5, r6}
  407724:	4770      	bx	lr
  407726:	bf00      	nop

00407728 <memcpy>:
  407728:	4684      	mov	ip, r0
  40772a:	ea41 0300 	orr.w	r3, r1, r0
  40772e:	f013 0303 	ands.w	r3, r3, #3
  407732:	d16d      	bne.n	407810 <memcpy+0xe8>
  407734:	3a40      	subs	r2, #64	; 0x40
  407736:	d341      	bcc.n	4077bc <memcpy+0x94>
  407738:	f851 3b04 	ldr.w	r3, [r1], #4
  40773c:	f840 3b04 	str.w	r3, [r0], #4
  407740:	f851 3b04 	ldr.w	r3, [r1], #4
  407744:	f840 3b04 	str.w	r3, [r0], #4
  407748:	f851 3b04 	ldr.w	r3, [r1], #4
  40774c:	f840 3b04 	str.w	r3, [r0], #4
  407750:	f851 3b04 	ldr.w	r3, [r1], #4
  407754:	f840 3b04 	str.w	r3, [r0], #4
  407758:	f851 3b04 	ldr.w	r3, [r1], #4
  40775c:	f840 3b04 	str.w	r3, [r0], #4
  407760:	f851 3b04 	ldr.w	r3, [r1], #4
  407764:	f840 3b04 	str.w	r3, [r0], #4
  407768:	f851 3b04 	ldr.w	r3, [r1], #4
  40776c:	f840 3b04 	str.w	r3, [r0], #4
  407770:	f851 3b04 	ldr.w	r3, [r1], #4
  407774:	f840 3b04 	str.w	r3, [r0], #4
  407778:	f851 3b04 	ldr.w	r3, [r1], #4
  40777c:	f840 3b04 	str.w	r3, [r0], #4
  407780:	f851 3b04 	ldr.w	r3, [r1], #4
  407784:	f840 3b04 	str.w	r3, [r0], #4
  407788:	f851 3b04 	ldr.w	r3, [r1], #4
  40778c:	f840 3b04 	str.w	r3, [r0], #4
  407790:	f851 3b04 	ldr.w	r3, [r1], #4
  407794:	f840 3b04 	str.w	r3, [r0], #4
  407798:	f851 3b04 	ldr.w	r3, [r1], #4
  40779c:	f840 3b04 	str.w	r3, [r0], #4
  4077a0:	f851 3b04 	ldr.w	r3, [r1], #4
  4077a4:	f840 3b04 	str.w	r3, [r0], #4
  4077a8:	f851 3b04 	ldr.w	r3, [r1], #4
  4077ac:	f840 3b04 	str.w	r3, [r0], #4
  4077b0:	f851 3b04 	ldr.w	r3, [r1], #4
  4077b4:	f840 3b04 	str.w	r3, [r0], #4
  4077b8:	3a40      	subs	r2, #64	; 0x40
  4077ba:	d2bd      	bcs.n	407738 <memcpy+0x10>
  4077bc:	3230      	adds	r2, #48	; 0x30
  4077be:	d311      	bcc.n	4077e4 <memcpy+0xbc>
  4077c0:	f851 3b04 	ldr.w	r3, [r1], #4
  4077c4:	f840 3b04 	str.w	r3, [r0], #4
  4077c8:	f851 3b04 	ldr.w	r3, [r1], #4
  4077cc:	f840 3b04 	str.w	r3, [r0], #4
  4077d0:	f851 3b04 	ldr.w	r3, [r1], #4
  4077d4:	f840 3b04 	str.w	r3, [r0], #4
  4077d8:	f851 3b04 	ldr.w	r3, [r1], #4
  4077dc:	f840 3b04 	str.w	r3, [r0], #4
  4077e0:	3a10      	subs	r2, #16
  4077e2:	d2ed      	bcs.n	4077c0 <memcpy+0x98>
  4077e4:	320c      	adds	r2, #12
  4077e6:	d305      	bcc.n	4077f4 <memcpy+0xcc>
  4077e8:	f851 3b04 	ldr.w	r3, [r1], #4
  4077ec:	f840 3b04 	str.w	r3, [r0], #4
  4077f0:	3a04      	subs	r2, #4
  4077f2:	d2f9      	bcs.n	4077e8 <memcpy+0xc0>
  4077f4:	3204      	adds	r2, #4
  4077f6:	d008      	beq.n	40780a <memcpy+0xe2>
  4077f8:	07d2      	lsls	r2, r2, #31
  4077fa:	bf1c      	itt	ne
  4077fc:	f811 3b01 	ldrbne.w	r3, [r1], #1
  407800:	f800 3b01 	strbne.w	r3, [r0], #1
  407804:	d301      	bcc.n	40780a <memcpy+0xe2>
  407806:	880b      	ldrh	r3, [r1, #0]
  407808:	8003      	strh	r3, [r0, #0]
  40780a:	4660      	mov	r0, ip
  40780c:	4770      	bx	lr
  40780e:	bf00      	nop
  407810:	2a08      	cmp	r2, #8
  407812:	d313      	bcc.n	40783c <memcpy+0x114>
  407814:	078b      	lsls	r3, r1, #30
  407816:	d08d      	beq.n	407734 <memcpy+0xc>
  407818:	f010 0303 	ands.w	r3, r0, #3
  40781c:	d08a      	beq.n	407734 <memcpy+0xc>
  40781e:	f1c3 0304 	rsb	r3, r3, #4
  407822:	1ad2      	subs	r2, r2, r3
  407824:	07db      	lsls	r3, r3, #31
  407826:	bf1c      	itt	ne
  407828:	f811 3b01 	ldrbne.w	r3, [r1], #1
  40782c:	f800 3b01 	strbne.w	r3, [r0], #1
  407830:	d380      	bcc.n	407734 <memcpy+0xc>
  407832:	f831 3b02 	ldrh.w	r3, [r1], #2
  407836:	f820 3b02 	strh.w	r3, [r0], #2
  40783a:	e77b      	b.n	407734 <memcpy+0xc>
  40783c:	3a04      	subs	r2, #4
  40783e:	d3d9      	bcc.n	4077f4 <memcpy+0xcc>
  407840:	3a01      	subs	r2, #1
  407842:	f811 3b01 	ldrb.w	r3, [r1], #1
  407846:	f800 3b01 	strb.w	r3, [r0], #1
  40784a:	d2f9      	bcs.n	407840 <memcpy+0x118>
  40784c:	780b      	ldrb	r3, [r1, #0]
  40784e:	7003      	strb	r3, [r0, #0]
  407850:	784b      	ldrb	r3, [r1, #1]
  407852:	7043      	strb	r3, [r0, #1]
  407854:	788b      	ldrb	r3, [r1, #2]
  407856:	7083      	strb	r3, [r0, #2]
  407858:	4660      	mov	r0, ip
  40785a:	4770      	bx	lr

0040785c <memset>:
  40785c:	b470      	push	{r4, r5, r6}
  40785e:	0784      	lsls	r4, r0, #30
  407860:	d046      	beq.n	4078f0 <memset+0x94>
  407862:	1e54      	subs	r4, r2, #1
  407864:	2a00      	cmp	r2, #0
  407866:	d041      	beq.n	4078ec <memset+0x90>
  407868:	b2cd      	uxtb	r5, r1
  40786a:	4603      	mov	r3, r0
  40786c:	e002      	b.n	407874 <memset+0x18>
  40786e:	1e62      	subs	r2, r4, #1
  407870:	b3e4      	cbz	r4, 4078ec <memset+0x90>
  407872:	4614      	mov	r4, r2
  407874:	f803 5b01 	strb.w	r5, [r3], #1
  407878:	079a      	lsls	r2, r3, #30
  40787a:	d1f8      	bne.n	40786e <memset+0x12>
  40787c:	2c03      	cmp	r4, #3
  40787e:	d92e      	bls.n	4078de <memset+0x82>
  407880:	b2cd      	uxtb	r5, r1
  407882:	ea45 2505 	orr.w	r5, r5, r5, lsl #8
  407886:	2c0f      	cmp	r4, #15
  407888:	ea45 4505 	orr.w	r5, r5, r5, lsl #16
  40788c:	d919      	bls.n	4078c2 <memset+0x66>
  40788e:	f103 0210 	add.w	r2, r3, #16
  407892:	4626      	mov	r6, r4
  407894:	3e10      	subs	r6, #16
  407896:	2e0f      	cmp	r6, #15
  407898:	f842 5c10 	str.w	r5, [r2, #-16]
  40789c:	f842 5c0c 	str.w	r5, [r2, #-12]
  4078a0:	f842 5c08 	str.w	r5, [r2, #-8]
  4078a4:	f842 5c04 	str.w	r5, [r2, #-4]
  4078a8:	f102 0210 	add.w	r2, r2, #16
  4078ac:	d8f2      	bhi.n	407894 <memset+0x38>
  4078ae:	f1a4 0210 	sub.w	r2, r4, #16
  4078b2:	f022 020f 	bic.w	r2, r2, #15
  4078b6:	f004 040f 	and.w	r4, r4, #15
  4078ba:	3210      	adds	r2, #16
  4078bc:	2c03      	cmp	r4, #3
  4078be:	4413      	add	r3, r2
  4078c0:	d90d      	bls.n	4078de <memset+0x82>
  4078c2:	461e      	mov	r6, r3
  4078c4:	4622      	mov	r2, r4
  4078c6:	3a04      	subs	r2, #4
  4078c8:	2a03      	cmp	r2, #3
  4078ca:	f846 5b04 	str.w	r5, [r6], #4
  4078ce:	d8fa      	bhi.n	4078c6 <memset+0x6a>
  4078d0:	1f22      	subs	r2, r4, #4
  4078d2:	f022 0203 	bic.w	r2, r2, #3
  4078d6:	3204      	adds	r2, #4
  4078d8:	4413      	add	r3, r2
  4078da:	f004 0403 	and.w	r4, r4, #3
  4078de:	b12c      	cbz	r4, 4078ec <memset+0x90>
  4078e0:	b2c9      	uxtb	r1, r1
  4078e2:	441c      	add	r4, r3
  4078e4:	f803 1b01 	strb.w	r1, [r3], #1
  4078e8:	42a3      	cmp	r3, r4
  4078ea:	d1fb      	bne.n	4078e4 <memset+0x88>
  4078ec:	bc70      	pop	{r4, r5, r6}
  4078ee:	4770      	bx	lr
  4078f0:	4614      	mov	r4, r2
  4078f2:	4603      	mov	r3, r0
  4078f4:	e7c2      	b.n	40787c <memset+0x20>
  4078f6:	bf00      	nop

004078f8 <strncpy>:
  4078f8:	ea40 0301 	orr.w	r3, r0, r1
  4078fc:	079b      	lsls	r3, r3, #30
  4078fe:	b470      	push	{r4, r5, r6}
  407900:	d12b      	bne.n	40795a <strncpy+0x62>
  407902:	2a03      	cmp	r2, #3
  407904:	d929      	bls.n	40795a <strncpy+0x62>
  407906:	460c      	mov	r4, r1
  407908:	4603      	mov	r3, r0
  40790a:	4621      	mov	r1, r4
  40790c:	f854 6b04 	ldr.w	r6, [r4], #4
  407910:	f1a6 3501 	sub.w	r5, r6, #16843009	; 0x1010101
  407914:	ea25 0506 	bic.w	r5, r5, r6
  407918:	f015 3f80 	tst.w	r5, #2155905152	; 0x80808080
  40791c:	d106      	bne.n	40792c <strncpy+0x34>
  40791e:	3a04      	subs	r2, #4
  407920:	2a03      	cmp	r2, #3
  407922:	f843 6b04 	str.w	r6, [r3], #4
  407926:	4621      	mov	r1, r4
  407928:	d8ef      	bhi.n	40790a <strncpy+0x12>
  40792a:	b1a2      	cbz	r2, 407956 <strncpy+0x5e>
  40792c:	780c      	ldrb	r4, [r1, #0]
  40792e:	701c      	strb	r4, [r3, #0]
  407930:	3a01      	subs	r2, #1
  407932:	3301      	adds	r3, #1
  407934:	3101      	adds	r1, #1
  407936:	b13c      	cbz	r4, 407948 <strncpy+0x50>
  407938:	b16a      	cbz	r2, 407956 <strncpy+0x5e>
  40793a:	f811 4b01 	ldrb.w	r4, [r1], #1
  40793e:	f803 4b01 	strb.w	r4, [r3], #1
  407942:	3a01      	subs	r2, #1
  407944:	2c00      	cmp	r4, #0
  407946:	d1f7      	bne.n	407938 <strncpy+0x40>
  407948:	b12a      	cbz	r2, 407956 <strncpy+0x5e>
  40794a:	441a      	add	r2, r3
  40794c:	2100      	movs	r1, #0
  40794e:	f803 1b01 	strb.w	r1, [r3], #1
  407952:	429a      	cmp	r2, r3
  407954:	d1fb      	bne.n	40794e <strncpy+0x56>
  407956:	bc70      	pop	{r4, r5, r6}
  407958:	4770      	bx	lr
  40795a:	4603      	mov	r3, r0
  40795c:	e7e5      	b.n	40792a <strncpy+0x32>
  40795e:	bf00      	nop

00407960 <register_fini>:
  407960:	4b02      	ldr	r3, [pc, #8]	; (40796c <register_fini+0xc>)
  407962:	b113      	cbz	r3, 40796a <register_fini+0xa>
  407964:	4802      	ldr	r0, [pc, #8]	; (407970 <register_fini+0x10>)
  407966:	f000 b805 	b.w	407974 <atexit>
  40796a:	4770      	bx	lr
  40796c:	00000000 	.word	0x00000000
  407970:	00407981 	.word	0x00407981

00407974 <atexit>:
  407974:	2300      	movs	r3, #0
  407976:	4601      	mov	r1, r0
  407978:	461a      	mov	r2, r3
  40797a:	4618      	mov	r0, r3
  40797c:	f000 b814 	b.w	4079a8 <__register_exitproc>

00407980 <__libc_fini_array>:
  407980:	b538      	push	{r3, r4, r5, lr}
  407982:	4d07      	ldr	r5, [pc, #28]	; (4079a0 <__libc_fini_array+0x20>)
  407984:	4c07      	ldr	r4, [pc, #28]	; (4079a4 <__libc_fini_array+0x24>)
  407986:	1b2c      	subs	r4, r5, r4
  407988:	10a4      	asrs	r4, r4, #2
  40798a:	d005      	beq.n	407998 <__libc_fini_array+0x18>
  40798c:	3c01      	subs	r4, #1
  40798e:	f855 3d04 	ldr.w	r3, [r5, #-4]!
  407992:	4798      	blx	r3
  407994:	2c00      	cmp	r4, #0
  407996:	d1f9      	bne.n	40798c <__libc_fini_array+0xc>
  407998:	e8bd 4038 	ldmia.w	sp!, {r3, r4, r5, lr}
  40799c:	f000 b9c2 	b.w	407d24 <_fini>
  4079a0:	00407d34 	.word	0x00407d34
  4079a4:	00407d30 	.word	0x00407d30

004079a8 <__register_exitproc>:
  4079a8:	e92d 47f0 	stmdb	sp!, {r4, r5, r6, r7, r8, r9, sl, lr}
  4079ac:	4c25      	ldr	r4, [pc, #148]	; (407a44 <__register_exitproc+0x9c>)
  4079ae:	6825      	ldr	r5, [r4, #0]
  4079b0:	f8d5 4148 	ldr.w	r4, [r5, #328]	; 0x148
  4079b4:	4606      	mov	r6, r0
  4079b6:	4688      	mov	r8, r1
  4079b8:	4692      	mov	sl, r2
  4079ba:	4699      	mov	r9, r3
  4079bc:	b3c4      	cbz	r4, 407a30 <__register_exitproc+0x88>
  4079be:	6860      	ldr	r0, [r4, #4]
  4079c0:	281f      	cmp	r0, #31
  4079c2:	dc17      	bgt.n	4079f4 <__register_exitproc+0x4c>
  4079c4:	1c43      	adds	r3, r0, #1
  4079c6:	b176      	cbz	r6, 4079e6 <__register_exitproc+0x3e>
  4079c8:	eb04 0580 	add.w	r5, r4, r0, lsl #2
  4079cc:	2201      	movs	r2, #1
  4079ce:	f8c5 a088 	str.w	sl, [r5, #136]	; 0x88
  4079d2:	f8d4 1188 	ldr.w	r1, [r4, #392]	; 0x188
  4079d6:	4082      	lsls	r2, r0
  4079d8:	4311      	orrs	r1, r2
  4079da:	2e02      	cmp	r6, #2
  4079dc:	f8c4 1188 	str.w	r1, [r4, #392]	; 0x188
  4079e0:	f8c5 9108 	str.w	r9, [r5, #264]	; 0x108
  4079e4:	d01e      	beq.n	407a24 <__register_exitproc+0x7c>
  4079e6:	3002      	adds	r0, #2
  4079e8:	6063      	str	r3, [r4, #4]
  4079ea:	f844 8020 	str.w	r8, [r4, r0, lsl #2]
  4079ee:	2000      	movs	r0, #0
  4079f0:	e8bd 87f0 	ldmia.w	sp!, {r4, r5, r6, r7, r8, r9, sl, pc}
  4079f4:	4b14      	ldr	r3, [pc, #80]	; (407a48 <__register_exitproc+0xa0>)
  4079f6:	b303      	cbz	r3, 407a3a <__register_exitproc+0x92>
  4079f8:	f44f 70c8 	mov.w	r0, #400	; 0x190
  4079fc:	f3af 8000 	nop.w
  407a00:	4604      	mov	r4, r0
  407a02:	b1d0      	cbz	r0, 407a3a <__register_exitproc+0x92>
  407a04:	f8d5 3148 	ldr.w	r3, [r5, #328]	; 0x148
  407a08:	2700      	movs	r7, #0
  407a0a:	e880 0088 	stmia.w	r0, {r3, r7}
  407a0e:	f8c5 4148 	str.w	r4, [r5, #328]	; 0x148
  407a12:	4638      	mov	r0, r7
  407a14:	2301      	movs	r3, #1
  407a16:	f8c4 7188 	str.w	r7, [r4, #392]	; 0x188
  407a1a:	f8c4 718c 	str.w	r7, [r4, #396]	; 0x18c
  407a1e:	2e00      	cmp	r6, #0
  407a20:	d0e1      	beq.n	4079e6 <__register_exitproc+0x3e>
  407a22:	e7d1      	b.n	4079c8 <__register_exitproc+0x20>
  407a24:	f8d4 118c 	ldr.w	r1, [r4, #396]	; 0x18c
  407a28:	430a      	orrs	r2, r1
  407a2a:	f8c4 218c 	str.w	r2, [r4, #396]	; 0x18c
  407a2e:	e7da      	b.n	4079e6 <__register_exitproc+0x3e>
  407a30:	f505 74a6 	add.w	r4, r5, #332	; 0x14c
  407a34:	f8c5 4148 	str.w	r4, [r5, #328]	; 0x148
  407a38:	e7c1      	b.n	4079be <__register_exitproc+0x16>
  407a3a:	f04f 30ff 	mov.w	r0, #4294967295
  407a3e:	e8bd 87f0 	ldmia.w	sp!, {r4, r5, r6, r7, r8, r9, sl, pc}
  407a42:	bf00      	nop
  407a44:	00407d0c 	.word	0x00407d0c
  407a48:	00000000 	.word	0x00000000
  407a4c:	00002580 	.word	0x00002580
  407a50:	000000c0 	.word	0x000000c0
  407a54:	00000800 	.word	0x00000800
	...

00407a64 <all_twi_definitions>:
  407a64:	40018000 40018100 00000013 00000013     ...@...@........
  407a74:	4001c000 4001c100 00000014 00000014     ...@...@........

00407a84 <all_usart_definitions>:
  407a84:	40024000 40024100 0000000e 0000000e     .@.@.A.@........
  407a94:	40028000 40028100 0000000f 0000000f     ...@...@........

00407aa4 <ucExpectedStackBytes.6087>:
  407aa4:	a5a5a5a5 a5a5a5a5 a5a5a5a5 a5a5a5a5     ................
  407ab4:	a5a5a5a5 454c4449 726d5400 63765320     ....IDLE.Tmr Svc
  407ac4:	00765000 6d6d6f43 696c4200 00796b6e     .Pv.Comm.Blinky.
  407ad4:	736f6361 00000000 6e697361 00000000     acos....asin....
  407ae4:	74727173 00000000                       sqrt....

00407aec <npio2_hw>:
  407aec:	3ff921fb 400921fb 4012d97c 401921fb     .!.?.!.@|..@.!.@
  407afc:	401f6a7a 4022d97c 4025fdbb 402921fb     zj.@|."@..%@.!)@
  407b0c:	402c463a 402f6a7a 4031475c 4032d97c     :F,@zj/@\G1@|.2@
  407b1c:	40346b9c 4035fdbb 40378fdb 403921fb     .k4@..5@..7@.!9@
  407b2c:	403ab41b 403c463a 403dd85a 403f6a7a     ..:@:F<@Z.=@zj?@
  407b3c:	40407e4c 4041475c 4042106c 4042d97c     L~@@\GA@l.B@|.B@
  407b4c:	4043a28c 40446b9c 404534ac 4045fdbb     ..C@.kD@.4E@..E@
  407b5c:	4046c6cb 40478fdb 404858eb 404921fb     ..F@..G@.XH@.!I@

00407b6c <two_over_pi>:
  407b6c:	00a2f983 006e4e44 001529fc 002757d1     ....DNn..)...W'.
  407b7c:	00f534dd 00c0db62 0095993c 00439041     .4..b...<...A.C.
  407b8c:	00fe5163 00abdebb 00c561b7 00246e3a     cQ.......a..:n$.
  407b9c:	00424dd2 00e00649 002eea09 00d1921c     .MB.I...........
  407bac:	00fe1deb 001cb129 00a73ee8 008235f5     ....)....>...5..
  407bbc:	002ebb44 0084e99c 007026b4 005f7e41     D........&p.A~_.
  407bcc:	003991d6 00398353 0039f49c 00845f8b     ..9.S.9...9.._..
  407bdc:	00bdf928 003b1ff8 0097ffde 0005980f     (.....;.........
  407bec:	00ef2f11 008b5a0a 006d1f6d 00367ecf     ./...Z..m.m..~6.
  407bfc:	0027cb09 00b74f46 003f669e 005fea2d     ..'.FO...f?.-._.
  407c0c:	007527ba 00c7ebe5 00f17b3d 000739f7     .'u.....={...9..
  407c1c:	008a5292 00ea6bfb 005fb11f 008d5d08     .R...k...._..]..
  407c2c:	00560330 0046fc7b 006babf0 00cfbc20     0.V.{.F...k. ...
  407c3c:	009af436 001da9e3 0091615e 00e61b08     6.......^a......
  407c4c:	00659985 005f14a0 0068408d 00ffd880     ..e..._..@h.....
  407c5c:	004d7327 00310606 001556ca 0073a8c9     'sM...1..V....s.
  407c6c:	0060e27b 00c08c6b                       {.`.k...

00407c74 <init_jk>:
  407c74:	00000002 00000003 00000004 00000006     ................
  407c84:	00000000                                ....

00407c88 <PIo2>:
  407c88:	40000000 3ff921fb 00000000 3e74442d     ...@.!.?....-Dt>
  407c98:	80000000 3cf84698 60000000 3b78cc51     .....F.<...`Q.x;
  407ca8:	80000000 39f01b83 40000000 387a2520     .......9...@ %z8
  407cb8:	80000000 36e38222 00000000 3569f31d     ...."..6......i5

00407cc8 <atanlo>:
  407cc8:	222f65e2 3c7a2b7f 33145c07 3c81a626     .e/".+z<.\.3&..<
  407cd8:	7af0cbbd 3c700788 33145c07 3c91a626     ...z..p<.\.3&..<

00407ce8 <atanhi>:
  407ce8:	0561bb4f 3fddac67 54442d18 3fe921fb     O.a.g..?.-DT.!.?
  407cf8:	d281f69b 3fef730b 54442d18 3ff921fb     .....s.?.-DT.!.?
  407d08:	00000043                                C...

00407d0c <_global_impure_ptr>:
  407d0c:	20000038                                8.. 

00407d10 <_init>:
  407d10:	b5f8      	push	{r3, r4, r5, r6, r7, lr}
  407d12:	bf00      	nop
  407d14:	bcf8      	pop	{r3, r4, r5, r6, r7}
  407d16:	bc08      	pop	{r3}
  407d18:	469e      	mov	lr, r3
  407d1a:	4770      	bx	lr

00407d1c <__init_array_start>:
  407d1c:	00407961 	.word	0x00407961

00407d20 <__frame_dummy_init_array_entry>:
  407d20:	004000f1                                ..@.

00407d24 <_fini>:
  407d24:	b5f8      	push	{r3, r4, r5, r6, r7, lr}
  407d26:	bf00      	nop
  407d28:	bcf8      	pop	{r3, r4, r5, r6, r7}
  407d2a:	bc08      	pop	{r3}
  407d2c:	469e      	mov	lr, r3
  407d2e:	4770      	bx	lr

00407d30 <__fini_array_start>:
  407d30:	004000cd 	.word	0x004000cd

Disassembly of section .relocate:

20000000 <portable_delay_cycles>:
20000000:	f3bf 8f5f 	dmb	sy
20000004:	3801      	subs	r0, #1
20000006:	d1fb      	bne.n	20000000 <portable_delay_cycles>
20000008:	4770      	bx	lr
	...

2000000c <timeZone>:
2000000c:	0000 40b0                                   ...@

20000010 <dist>:
20000010:	0000 40a0                                   ...@

20000014 <pvAngleRng>:
20000014:	0000 422c                                   ..,B

20000018 <lat>:
20000018:	ba88 418b                                   ...A

2000001c <lon>:
2000001c:	e153 429c                                   S..B

20000020 <width>:
20000020:	0000 4000                                   ...@

20000024 <SystemCoreClock>:
20000024:	0900 003d                                   ..=.

20000028 <uxCriticalNesting>:
20000028:	aaaa aaaa                                   ....

2000002c <xFreeBytesRemaining>:
2000002c:	2000 0000                                   . ..

20000030 <xNextTaskUnblockTime>:
20000030:	ffff ffff                                   ....

20000034 <slaveAddr>:
20000034:	0101                                             .

20000035 <__fdlib_version>:
20000035:	0001 0000                                        ...

20000038 <impure_data>:
20000038:	0000 0000 0324 2000 038c 2000 03f4 2000     ....$.. ... ... 
	...
2000006c:	7d08 0040 0000 0000 0000 0000 0000 0000     .}@.............
	...
200000e0:	0001 0000 0000 0000 330e abcd 1234 e66d     .........3..4.m.
200000f0:	deec 0005 000b 0000 0000 0000 0000 0000     ................
	...

20000460 <_impure_ptr>:
20000460:	0038 2000                                   8.. 
