
SAMSEPTRKR.elf:     file format elf32-littlearm

Sections:
Idx Name          Size      VMA       LMA       File off  Algn
  0 .text         0000b39c  00400000  00400000  00010000  2**3
                  CONTENTS, ALLOC, LOAD, READONLY, CODE
  1 .ARM.exidx    00000008  0040b39c  0040b39c  0001b39c  2**2
                  CONTENTS, ALLOC, LOAD, READONLY, DATA
  2 .relocate     0000055c  20000000  0040b3a4  00020000  2**3
                  CONTENTS, ALLOC, LOAD, CODE
  3 .bss          000024b8  20000560  0040b908  00020560  2**3
                  ALLOC
  4 .stack        00003000  20002a18  0040ddc0  00020560  2**0
                  ALLOC
  5 .ARM.attributes 0000002a  00000000  00000000  0002055c  2**0
                  CONTENTS, READONLY
  6 .comment      00000059  00000000  00000000  00020586  2**0
                  CONTENTS, READONLY
  7 .debug_info   0000fbdf  00000000  00000000  000205df  2**0
                  CONTENTS, READONLY, DEBUGGING
  8 .debug_abbrev 00002fc0  00000000  00000000  000301be  2**0
                  CONTENTS, READONLY, DEBUGGING
  9 .debug_loc    00009da5  00000000  00000000  0003317e  2**0
                  CONTENTS, READONLY, DEBUGGING
 10 .debug_aranges 00001280  00000000  00000000  0003cf23  2**0
                  CONTENTS, READONLY, DEBUGGING
 11 .debug_ranges 000010a0  00000000  00000000  0003e1a3  2**0
                  CONTENTS, READONLY, DEBUGGING
 12 .debug_macro  00017d60  00000000  00000000  0003f243  2**0
                  CONTENTS, READONLY, DEBUGGING
 13 .debug_line   00018465  00000000  00000000  00056fa3  2**0
                  CONTENTS, READONLY, DEBUGGING
 14 .debug_str    000541ab  00000000  00000000  0006f408  2**0
                  CONTENTS, READONLY, DEBUGGING
 15 .debug_frame  000051ac  00000000  00000000  000c35b4  2**2
                  CONTENTS, READONLY, DEBUGGING

Disassembly of section .text:

00400000 <_sfixed>:
  400000:	20005a18 	.word	0x20005a18
  400004:	004046b1 	.word	0x004046b1
  400008:	00404779 	.word	0x00404779
  40000c:	00404779 	.word	0x00404779
  400010:	00404779 	.word	0x00404779
  400014:	00404779 	.word	0x00404779
  400018:	00404779 	.word	0x00404779
	...
  40002c:	00404c11 	.word	0x00404c11
  400030:	00404779 	.word	0x00404779
  400034:	00000000 	.word	0x00000000
  400038:	00404d09 	.word	0x00404d09
  40003c:	00404d49 	.word	0x00404d49
  400040:	00404779 	.word	0x00404779
  400044:	00404779 	.word	0x00404779
  400048:	00404779 	.word	0x00404779
  40004c:	00404779 	.word	0x00404779
  400050:	00404779 	.word	0x00404779
  400054:	00404779 	.word	0x00404779
  400058:	00404779 	.word	0x00404779
  40005c:	00000000 	.word	0x00000000
  400060:	00404779 	.word	0x00404779
  400064:	00404779 	.word	0x00404779
  400068:	00000000 	.word	0x00000000
  40006c:	00404331 	.word	0x00404331
  400070:	00404349 	.word	0x00404349
  400074:	00000000 	.word	0x00000000
  400078:	00402d39 	.word	0x00402d39
  40007c:	00402d4d 	.word	0x00402d4d
	...
  400088:	00404779 	.word	0x00404779
  40008c:	00402a35 	.word	0x00402a35
  400090:	00402a49 	.word	0x00402a49
  400094:	00404779 	.word	0x00404779
  400098:	00404779 	.word	0x00404779
  40009c:	00404779 	.word	0x00404779
  4000a0:	00404779 	.word	0x00404779
  4000a4:	00404779 	.word	0x00404779
	...
  4000b4:	00404779 	.word	0x00404779
  4000b8:	00404779 	.word	0x00404779
  4000bc:	00404779 	.word	0x00404779
  4000c0:	00404779 	.word	0x00404779
  4000c4:	00404779 	.word	0x00404779
  4000c8:	00404779 	.word	0x00404779

004000cc <__do_global_dtors_aux>:
  4000cc:	b510      	push	{r4, lr}
  4000ce:	4c05      	ldr	r4, [pc, #20]	; (4000e4 <__do_global_dtors_aux+0x18>)
  4000d0:	7823      	ldrb	r3, [r4, #0]
  4000d2:	b933      	cbnz	r3, 4000e2 <__do_global_dtors_aux+0x16>
  4000d4:	4b04      	ldr	r3, [pc, #16]	; (4000e8 <__do_global_dtors_aux+0x1c>)
  4000d6:	b113      	cbz	r3, 4000de <__do_global_dtors_aux+0x12>
  4000d8:	4804      	ldr	r0, [pc, #16]	; (4000ec <__do_global_dtors_aux+0x20>)
  4000da:	f3af 8000 	nop.w
  4000de:	2301      	movs	r3, #1
  4000e0:	7023      	strb	r3, [r4, #0]
  4000e2:	bd10      	pop	{r4, pc}
  4000e4:	20000560 	.word	0x20000560
  4000e8:	00000000 	.word	0x00000000
  4000ec:	0040b3a4 	.word	0x0040b3a4

004000f0 <frame_dummy>:
  4000f0:	4b08      	ldr	r3, [pc, #32]	; (400114 <frame_dummy+0x24>)
  4000f2:	b510      	push	{r4, lr}
  4000f4:	b11b      	cbz	r3, 4000fe <frame_dummy+0xe>
  4000f6:	4908      	ldr	r1, [pc, #32]	; (400118 <frame_dummy+0x28>)
  4000f8:	4808      	ldr	r0, [pc, #32]	; (40011c <frame_dummy+0x2c>)
  4000fa:	f3af 8000 	nop.w
  4000fe:	4808      	ldr	r0, [pc, #32]	; (400120 <frame_dummy+0x30>)
  400100:	6803      	ldr	r3, [r0, #0]
  400102:	b903      	cbnz	r3, 400106 <frame_dummy+0x16>
  400104:	bd10      	pop	{r4, pc}
  400106:	4b07      	ldr	r3, [pc, #28]	; (400124 <frame_dummy+0x34>)
  400108:	2b00      	cmp	r3, #0
  40010a:	d0fb      	beq.n	400104 <frame_dummy+0x14>
  40010c:	e8bd 4010 	ldmia.w	sp!, {r4, lr}
  400110:	4718      	bx	r3
  400112:	bf00      	nop
  400114:	00000000 	.word	0x00000000
  400118:	20000564 	.word	0x20000564
  40011c:	0040b3a4 	.word	0x0040b3a4
  400120:	0040b3a4 	.word	0x0040b3a4
  400124:	00000000 	.word	0x00000000

00400128 <nvm_write>:
  400128:	b590      	push	{r4, r7, lr}
  40012a:	b085      	sub	sp, #20
  40012c:	af00      	add	r7, sp, #0
  40012e:	60b9      	str	r1, [r7, #8]
  400130:	607a      	str	r2, [r7, #4]
  400132:	603b      	str	r3, [r7, #0]
  400134:	4603      	mov	r3, r0
  400136:	73fb      	strb	r3, [r7, #15]
  400138:	7bfb      	ldrb	r3, [r7, #15]
  40013a:	2b00      	cmp	r3, #0
  40013c:	d002      	beq.n	400144 <nvm_write+0x1c>
  40013e:	2b01      	cmp	r3, #1
  400140:	d00c      	beq.n	40015c <nvm_write+0x34>
  400142:	e015      	b.n	400170 <nvm_write+0x48>
  400144:	2300      	movs	r3, #0
  400146:	683a      	ldr	r2, [r7, #0]
  400148:	6879      	ldr	r1, [r7, #4]
  40014a:	68b8      	ldr	r0, [r7, #8]
  40014c:	4c0e      	ldr	r4, [pc, #56]	; (400188 <nvm_write+0x60>)
  40014e:	47a0      	blx	r4
  400150:	4603      	mov	r3, r0
  400152:	2b00      	cmp	r3, #0
  400154:	d00f      	beq.n	400176 <nvm_write+0x4e>
  400156:	f06f 0307 	mvn.w	r3, #7
  40015a:	e010      	b.n	40017e <nvm_write+0x56>
  40015c:	6839      	ldr	r1, [r7, #0]
  40015e:	6878      	ldr	r0, [r7, #4]
  400160:	4b0a      	ldr	r3, [pc, #40]	; (40018c <nvm_write+0x64>)
  400162:	4798      	blx	r3
  400164:	4603      	mov	r3, r0
  400166:	2b00      	cmp	r3, #0
  400168:	d007      	beq.n	40017a <nvm_write+0x52>
  40016a:	f06f 0307 	mvn.w	r3, #7
  40016e:	e006      	b.n	40017e <nvm_write+0x56>
  400170:	f06f 0307 	mvn.w	r3, #7
  400174:	e003      	b.n	40017e <nvm_write+0x56>
  400176:	bf00      	nop
  400178:	e000      	b.n	40017c <nvm_write+0x54>
  40017a:	bf00      	nop
  40017c:	2300      	movs	r3, #0
  40017e:	4618      	mov	r0, r3
  400180:	3714      	adds	r7, #20
  400182:	46bd      	mov	sp, r7
  400184:	bd90      	pop	{r4, r7, pc}
  400186:	bf00      	nop
  400188:	00400309 	.word	0x00400309
  40018c:	00400439 	.word	0x00400439

00400190 <cpu_irq_save>:
  400190:	b480      	push	{r7}
  400192:	b083      	sub	sp, #12
  400194:	af00      	add	r7, sp, #0
  400196:	f3ef 8310 	mrs	r3, PRIMASK
  40019a:	607b      	str	r3, [r7, #4]
  40019c:	687b      	ldr	r3, [r7, #4]
  40019e:	2b00      	cmp	r3, #0
  4001a0:	bf0c      	ite	eq
  4001a2:	2301      	moveq	r3, #1
  4001a4:	2300      	movne	r3, #0
  4001a6:	b2db      	uxtb	r3, r3
  4001a8:	603b      	str	r3, [r7, #0]
  4001aa:	b672      	cpsid	i
  4001ac:	f3bf 8f5f 	dmb	sy
  4001b0:	4b04      	ldr	r3, [pc, #16]	; (4001c4 <cpu_irq_save+0x34>)
  4001b2:	2200      	movs	r2, #0
  4001b4:	701a      	strb	r2, [r3, #0]
  4001b6:	683b      	ldr	r3, [r7, #0]
  4001b8:	4618      	mov	r0, r3
  4001ba:	370c      	adds	r7, #12
  4001bc:	46bd      	mov	sp, r7
  4001be:	bc80      	pop	{r7}
  4001c0:	4770      	bx	lr
  4001c2:	bf00      	nop
  4001c4:	20000114 	.word	0x20000114

004001c8 <cpu_irq_is_enabled_flags>:
  4001c8:	b480      	push	{r7}
  4001ca:	b083      	sub	sp, #12
  4001cc:	af00      	add	r7, sp, #0
  4001ce:	6078      	str	r0, [r7, #4]
  4001d0:	687b      	ldr	r3, [r7, #4]
  4001d2:	2b00      	cmp	r3, #0
  4001d4:	bf14      	ite	ne
  4001d6:	2301      	movne	r3, #1
  4001d8:	2300      	moveq	r3, #0
  4001da:	b2db      	uxtb	r3, r3
  4001dc:	4618      	mov	r0, r3
  4001de:	370c      	adds	r7, #12
  4001e0:	46bd      	mov	sp, r7
  4001e2:	bc80      	pop	{r7}
  4001e4:	4770      	bx	lr
  4001e6:	bf00      	nop

004001e8 <cpu_irq_restore>:
  4001e8:	b580      	push	{r7, lr}
  4001ea:	b082      	sub	sp, #8
  4001ec:	af00      	add	r7, sp, #0
  4001ee:	6078      	str	r0, [r7, #4]
  4001f0:	6878      	ldr	r0, [r7, #4]
  4001f2:	4b07      	ldr	r3, [pc, #28]	; (400210 <cpu_irq_restore+0x28>)
  4001f4:	4798      	blx	r3
  4001f6:	4603      	mov	r3, r0
  4001f8:	2b00      	cmp	r3, #0
  4001fa:	d005      	beq.n	400208 <cpu_irq_restore+0x20>
  4001fc:	4b05      	ldr	r3, [pc, #20]	; (400214 <cpu_irq_restore+0x2c>)
  4001fe:	2201      	movs	r2, #1
  400200:	701a      	strb	r2, [r3, #0]
  400202:	f3bf 8f5f 	dmb	sy
  400206:	b662      	cpsie	i
  400208:	bf00      	nop
  40020a:	3708      	adds	r7, #8
  40020c:	46bd      	mov	sp, r7
  40020e:	bd80      	pop	{r7, pc}
  400210:	004001c9 	.word	0x004001c9
  400214:	20000114 	.word	0x20000114

00400218 <efc_perform_command>:
  400218:	b580      	push	{r7, lr}
  40021a:	b086      	sub	sp, #24
  40021c:	af00      	add	r7, sp, #0
  40021e:	60f8      	str	r0, [r7, #12]
  400220:	60b9      	str	r1, [r7, #8]
  400222:	607a      	str	r2, [r7, #4]
  400224:	68bb      	ldr	r3, [r7, #8]
  400226:	2b0e      	cmp	r3, #14
  400228:	d002      	beq.n	400230 <efc_perform_command+0x18>
  40022a:	68bb      	ldr	r3, [r7, #8]
  40022c:	2b0f      	cmp	r3, #15
  40022e:	d102      	bne.n	400236 <efc_perform_command+0x1e>
  400230:	f04f 33ff 	mov.w	r3, #4294967295
  400234:	e016      	b.n	400264 <efc_perform_command+0x4c>
  400236:	4b0d      	ldr	r3, [pc, #52]	; (40026c <efc_perform_command+0x54>)
  400238:	4798      	blx	r3
  40023a:	6178      	str	r0, [r7, #20]
  40023c:	687b      	ldr	r3, [r7, #4]
  40023e:	021b      	lsls	r3, r3, #8
  400240:	f023 437f 	bic.w	r3, r3, #4278190080	; 0xff000000
  400244:	f023 03ff 	bic.w	r3, r3, #255	; 0xff
  400248:	68ba      	ldr	r2, [r7, #8]
  40024a:	b2d2      	uxtb	r2, r2
  40024c:	4313      	orrs	r3, r2
  40024e:	f043 43b4 	orr.w	r3, r3, #1509949440	; 0x5a000000
  400252:	4619      	mov	r1, r3
  400254:	68f8      	ldr	r0, [r7, #12]
  400256:	4b06      	ldr	r3, [pc, #24]	; (400270 <efc_perform_command+0x58>)
  400258:	4798      	blx	r3
  40025a:	6138      	str	r0, [r7, #16]
  40025c:	6978      	ldr	r0, [r7, #20]
  40025e:	4b05      	ldr	r3, [pc, #20]	; (400274 <efc_perform_command+0x5c>)
  400260:	4798      	blx	r3
  400262:	693b      	ldr	r3, [r7, #16]
  400264:	4618      	mov	r0, r3
  400266:	3718      	adds	r7, #24
  400268:	46bd      	mov	sp, r7
  40026a:	bd80      	pop	{r7, pc}
  40026c:	00400191 	.word	0x00400191
  400270:	200000c1 	.word	0x200000c1
  400274:	004001e9 	.word	0x004001e9

00400278 <translate_address>:
  400278:	b480      	push	{r7}
  40027a:	b087      	sub	sp, #28
  40027c:	af00      	add	r7, sp, #0
  40027e:	60f8      	str	r0, [r7, #12]
  400280:	60b9      	str	r1, [r7, #8]
  400282:	607a      	str	r2, [r7, #4]
  400284:	603b      	str	r3, [r7, #0]
  400286:	4b11      	ldr	r3, [pc, #68]	; (4002cc <translate_address+0x54>)
  400288:	617b      	str	r3, [r7, #20]
  40028a:	68bb      	ldr	r3, [r7, #8]
  40028c:	f5a3 0380 	sub.w	r3, r3, #4194304	; 0x400000
  400290:	0a5b      	lsrs	r3, r3, #9
  400292:	827b      	strh	r3, [r7, #18]
  400294:	68bb      	ldr	r3, [r7, #8]
  400296:	b29b      	uxth	r3, r3
  400298:	f3c3 0308 	ubfx	r3, r3, #0, #9
  40029c:	823b      	strh	r3, [r7, #16]
  40029e:	68fb      	ldr	r3, [r7, #12]
  4002a0:	2b00      	cmp	r3, #0
  4002a2:	d002      	beq.n	4002aa <translate_address+0x32>
  4002a4:	68fb      	ldr	r3, [r7, #12]
  4002a6:	697a      	ldr	r2, [r7, #20]
  4002a8:	601a      	str	r2, [r3, #0]
  4002aa:	687b      	ldr	r3, [r7, #4]
  4002ac:	2b00      	cmp	r3, #0
  4002ae:	d002      	beq.n	4002b6 <translate_address+0x3e>
  4002b0:	687b      	ldr	r3, [r7, #4]
  4002b2:	8a7a      	ldrh	r2, [r7, #18]
  4002b4:	801a      	strh	r2, [r3, #0]
  4002b6:	683b      	ldr	r3, [r7, #0]
  4002b8:	2b00      	cmp	r3, #0
  4002ba:	d002      	beq.n	4002c2 <translate_address+0x4a>
  4002bc:	683b      	ldr	r3, [r7, #0]
  4002be:	8a3a      	ldrh	r2, [r7, #16]
  4002c0:	801a      	strh	r2, [r3, #0]
  4002c2:	bf00      	nop
  4002c4:	371c      	adds	r7, #28
  4002c6:	46bd      	mov	sp, r7
  4002c8:	bc80      	pop	{r7}
  4002ca:	4770      	bx	lr
  4002cc:	400e0a00 	.word	0x400e0a00

004002d0 <compute_address>:
  4002d0:	b480      	push	{r7}
  4002d2:	b087      	sub	sp, #28
  4002d4:	af00      	add	r7, sp, #0
  4002d6:	60f8      	str	r0, [r7, #12]
  4002d8:	607b      	str	r3, [r7, #4]
  4002da:	460b      	mov	r3, r1
  4002dc:	817b      	strh	r3, [r7, #10]
  4002de:	4613      	mov	r3, r2
  4002e0:	813b      	strh	r3, [r7, #8]
  4002e2:	897b      	ldrh	r3, [r7, #10]
  4002e4:	f503 5300 	add.w	r3, r3, #8192	; 0x2000
  4002e8:	025a      	lsls	r2, r3, #9
  4002ea:	893b      	ldrh	r3, [r7, #8]
  4002ec:	4413      	add	r3, r2
  4002ee:	617b      	str	r3, [r7, #20]
  4002f0:	687b      	ldr	r3, [r7, #4]
  4002f2:	2b00      	cmp	r3, #0
  4002f4:	d002      	beq.n	4002fc <compute_address+0x2c>
  4002f6:	687b      	ldr	r3, [r7, #4]
  4002f8:	697a      	ldr	r2, [r7, #20]
  4002fa:	601a      	str	r2, [r3, #0]
  4002fc:	bf00      	nop
  4002fe:	371c      	adds	r7, #28
  400300:	46bd      	mov	sp, r7
  400302:	bc80      	pop	{r7}
  400304:	4770      	bx	lr
  400306:	bf00      	nop

00400308 <flash_write>:
  400308:	b590      	push	{r4, r7, lr}
  40030a:	b08f      	sub	sp, #60	; 0x3c
  40030c:	af00      	add	r7, sp, #0
  40030e:	60f8      	str	r0, [r7, #12]
  400310:	60b9      	str	r1, [r7, #8]
  400312:	607a      	str	r2, [r7, #4]
  400314:	603b      	str	r3, [r7, #0]
  400316:	4b43      	ldr	r3, [pc, #268]	; (400424 <flash_write+0x11c>)
  400318:	62bb      	str	r3, [r7, #40]	; 0x28
  40031a:	f107 0318 	add.w	r3, r7, #24
  40031e:	f107 021a 	add.w	r2, r7, #26
  400322:	f107 001c 	add.w	r0, r7, #28
  400326:	68f9      	ldr	r1, [r7, #12]
  400328:	4c3f      	ldr	r4, [pc, #252]	; (400428 <flash_write+0x120>)
  40032a:	47a0      	blx	r4
  40032c:	e071      	b.n	400412 <flash_write+0x10a>
  40032e:	8b3b      	ldrh	r3, [r7, #24]
  400330:	f5c3 7200 	rsb	r2, r3, #512	; 0x200
  400334:	687b      	ldr	r3, [r7, #4]
  400336:	4293      	cmp	r3, r2
  400338:	bf28      	it	cs
  40033a:	4613      	movcs	r3, r2
  40033c:	627b      	str	r3, [r7, #36]	; 0x24
  40033e:	69f8      	ldr	r0, [r7, #28]
  400340:	8b79      	ldrh	r1, [r7, #26]
  400342:	f107 0314 	add.w	r3, r7, #20
  400346:	2200      	movs	r2, #0
  400348:	4c38      	ldr	r4, [pc, #224]	; (40042c <flash_write+0x124>)
  40034a:	47a0      	blx	r4
  40034c:	8b3b      	ldrh	r3, [r7, #24]
  40034e:	425b      	negs	r3, r3
  400350:	b29a      	uxth	r2, r3
  400352:	6a7b      	ldr	r3, [r7, #36]	; 0x24
  400354:	b29b      	uxth	r3, r3
  400356:	1ad3      	subs	r3, r2, r3
  400358:	b29b      	uxth	r3, r3
  40035a:	f503 7300 	add.w	r3, r3, #512	; 0x200
  40035e:	847b      	strh	r3, [r7, #34]	; 0x22
  400360:	697b      	ldr	r3, [r7, #20]
  400362:	4619      	mov	r1, r3
  400364:	8b3b      	ldrh	r3, [r7, #24]
  400366:	461a      	mov	r2, r3
  400368:	6ab8      	ldr	r0, [r7, #40]	; 0x28
  40036a:	4b31      	ldr	r3, [pc, #196]	; (400430 <flash_write+0x128>)
  40036c:	4798      	blx	r3
  40036e:	8b3b      	ldrh	r3, [r7, #24]
  400370:	461a      	mov	r2, r3
  400372:	6abb      	ldr	r3, [r7, #40]	; 0x28
  400374:	4413      	add	r3, r2
  400376:	6a7a      	ldr	r2, [r7, #36]	; 0x24
  400378:	68b9      	ldr	r1, [r7, #8]
  40037a:	4618      	mov	r0, r3
  40037c:	4b2c      	ldr	r3, [pc, #176]	; (400430 <flash_write+0x128>)
  40037e:	4798      	blx	r3
  400380:	8b3b      	ldrh	r3, [r7, #24]
  400382:	461a      	mov	r2, r3
  400384:	6a7b      	ldr	r3, [r7, #36]	; 0x24
  400386:	4413      	add	r3, r2
  400388:	6aba      	ldr	r2, [r7, #40]	; 0x28
  40038a:	18d0      	adds	r0, r2, r3
  40038c:	8b3b      	ldrh	r3, [r7, #24]
  40038e:	461a      	mov	r2, r3
  400390:	697b      	ldr	r3, [r7, #20]
  400392:	441a      	add	r2, r3
  400394:	6a7b      	ldr	r3, [r7, #36]	; 0x24
  400396:	4413      	add	r3, r2
  400398:	4619      	mov	r1, r3
  40039a:	8c7b      	ldrh	r3, [r7, #34]	; 0x22
  40039c:	461a      	mov	r2, r3
  40039e:	4b24      	ldr	r3, [pc, #144]	; (400430 <flash_write+0x128>)
  4003a0:	4798      	blx	r3
  4003a2:	697b      	ldr	r3, [r7, #20]
  4003a4:	62fb      	str	r3, [r7, #44]	; 0x2c
  4003a6:	2300      	movs	r3, #0
  4003a8:	633b      	str	r3, [r7, #48]	; 0x30
  4003aa:	e00a      	b.n	4003c2 <flash_write+0xba>
  4003ac:	6afb      	ldr	r3, [r7, #44]	; 0x2c
  4003ae:	1d1a      	adds	r2, r3, #4
  4003b0:	62fa      	str	r2, [r7, #44]	; 0x2c
  4003b2:	491c      	ldr	r1, [pc, #112]	; (400424 <flash_write+0x11c>)
  4003b4:	6b3a      	ldr	r2, [r7, #48]	; 0x30
  4003b6:	f851 2022 	ldr.w	r2, [r1, r2, lsl #2]
  4003ba:	601a      	str	r2, [r3, #0]
  4003bc:	6b3b      	ldr	r3, [r7, #48]	; 0x30
  4003be:	3301      	adds	r3, #1
  4003c0:	633b      	str	r3, [r7, #48]	; 0x30
  4003c2:	6b3b      	ldr	r3, [r7, #48]	; 0x30
  4003c4:	2b7f      	cmp	r3, #127	; 0x7f
  4003c6:	d9f1      	bls.n	4003ac <flash_write+0xa4>
  4003c8:	683b      	ldr	r3, [r7, #0]
  4003ca:	2b00      	cmp	r3, #0
  4003cc:	d007      	beq.n	4003de <flash_write+0xd6>
  4003ce:	69fb      	ldr	r3, [r7, #28]
  4003d0:	8b7a      	ldrh	r2, [r7, #26]
  4003d2:	2103      	movs	r1, #3
  4003d4:	4618      	mov	r0, r3
  4003d6:	4b17      	ldr	r3, [pc, #92]	; (400434 <flash_write+0x12c>)
  4003d8:	4798      	blx	r3
  4003da:	6378      	str	r0, [r7, #52]	; 0x34
  4003dc:	e006      	b.n	4003ec <flash_write+0xe4>
  4003de:	69fb      	ldr	r3, [r7, #28]
  4003e0:	8b7a      	ldrh	r2, [r7, #26]
  4003e2:	2101      	movs	r1, #1
  4003e4:	4618      	mov	r0, r3
  4003e6:	4b13      	ldr	r3, [pc, #76]	; (400434 <flash_write+0x12c>)
  4003e8:	4798      	blx	r3
  4003ea:	6378      	str	r0, [r7, #52]	; 0x34
  4003ec:	6b7b      	ldr	r3, [r7, #52]	; 0x34
  4003ee:	2b00      	cmp	r3, #0
  4003f0:	d001      	beq.n	4003f6 <flash_write+0xee>
  4003f2:	6b7b      	ldr	r3, [r7, #52]	; 0x34
  4003f4:	e011      	b.n	40041a <flash_write+0x112>
  4003f6:	68ba      	ldr	r2, [r7, #8]
  4003f8:	6a7b      	ldr	r3, [r7, #36]	; 0x24
  4003fa:	4413      	add	r3, r2
  4003fc:	60bb      	str	r3, [r7, #8]
  4003fe:	687a      	ldr	r2, [r7, #4]
  400400:	6a7b      	ldr	r3, [r7, #36]	; 0x24
  400402:	1ad3      	subs	r3, r2, r3
  400404:	607b      	str	r3, [r7, #4]
  400406:	8b7b      	ldrh	r3, [r7, #26]
  400408:	3301      	adds	r3, #1
  40040a:	b29b      	uxth	r3, r3
  40040c:	837b      	strh	r3, [r7, #26]
  40040e:	2300      	movs	r3, #0
  400410:	833b      	strh	r3, [r7, #24]
  400412:	687b      	ldr	r3, [r7, #4]
  400414:	2b00      	cmp	r3, #0
  400416:	d18a      	bne.n	40032e <flash_write+0x26>
  400418:	2300      	movs	r3, #0
  40041a:	4618      	mov	r0, r3
  40041c:	373c      	adds	r7, #60	; 0x3c
  40041e:	46bd      	mov	sp, r7
  400420:	bd90      	pop	{r4, r7, pc}
  400422:	bf00      	nop
  400424:	2000057c 	.word	0x2000057c
  400428:	00400279 	.word	0x00400279
  40042c:	004002d1 	.word	0x004002d1
  400430:	0040ad9d 	.word	0x0040ad9d
  400434:	00400219 	.word	0x00400219

00400438 <flash_write_user_signature>:
  400438:	b580      	push	{r7, lr}
  40043a:	b084      	sub	sp, #16
  40043c:	af00      	add	r7, sp, #0
  40043e:	6078      	str	r0, [r7, #4]
  400440:	6039      	str	r1, [r7, #0]
  400442:	683b      	ldr	r3, [r7, #0]
  400444:	2b80      	cmp	r3, #128	; 0x80
  400446:	d901      	bls.n	40044c <flash_write_user_signature+0x14>
  400448:	2311      	movs	r3, #17
  40044a:	e025      	b.n	400498 <flash_write_user_signature+0x60>
  40044c:	683b      	ldr	r3, [r7, #0]
  40044e:	009b      	lsls	r3, r3, #2
  400450:	461a      	mov	r2, r3
  400452:	6879      	ldr	r1, [r7, #4]
  400454:	4812      	ldr	r0, [pc, #72]	; (4004a0 <flash_write_user_signature+0x68>)
  400456:	4b13      	ldr	r3, [pc, #76]	; (4004a4 <flash_write_user_signature+0x6c>)
  400458:	4798      	blx	r3
  40045a:	f44f 0380 	mov.w	r3, #4194304	; 0x400000
  40045e:	60bb      	str	r3, [r7, #8]
  400460:	2300      	movs	r3, #0
  400462:	60fb      	str	r3, [r7, #12]
  400464:	e00a      	b.n	40047c <flash_write_user_signature+0x44>
  400466:	68bb      	ldr	r3, [r7, #8]
  400468:	1d1a      	adds	r2, r3, #4
  40046a:	60ba      	str	r2, [r7, #8]
  40046c:	490c      	ldr	r1, [pc, #48]	; (4004a0 <flash_write_user_signature+0x68>)
  40046e:	68fa      	ldr	r2, [r7, #12]
  400470:	f851 2022 	ldr.w	r2, [r1, r2, lsl #2]
  400474:	601a      	str	r2, [r3, #0]
  400476:	68fb      	ldr	r3, [r7, #12]
  400478:	3301      	adds	r3, #1
  40047a:	60fb      	str	r3, [r7, #12]
  40047c:	68fb      	ldr	r3, [r7, #12]
  40047e:	2b7f      	cmp	r3, #127	; 0x7f
  400480:	d9f1      	bls.n	400466 <flash_write_user_signature+0x2e>
  400482:	2200      	movs	r2, #0
  400484:	2112      	movs	r1, #18
  400486:	4808      	ldr	r0, [pc, #32]	; (4004a8 <flash_write_user_signature+0x70>)
  400488:	4b08      	ldr	r3, [pc, #32]	; (4004ac <flash_write_user_signature+0x74>)
  40048a:	4798      	blx	r3
  40048c:	4603      	mov	r3, r0
  40048e:	2b00      	cmp	r3, #0
  400490:	d001      	beq.n	400496 <flash_write_user_signature+0x5e>
  400492:	2310      	movs	r3, #16
  400494:	e000      	b.n	400498 <flash_write_user_signature+0x60>
  400496:	2300      	movs	r3, #0
  400498:	4618      	mov	r0, r3
  40049a:	3710      	adds	r7, #16
  40049c:	46bd      	mov	sp, r7
  40049e:	bd80      	pop	{r7, pc}
  4004a0:	2000057c 	.word	0x2000057c
  4004a4:	0040ad9d 	.word	0x0040ad9d
  4004a8:	400e0a00 	.word	0x400e0a00
  4004ac:	00400219 	.word	0x00400219

004004b0 <DSGetTime>:
  4004b0:	b580      	push	{r7, lr}
  4004b2:	b088      	sub	sp, #32
  4004b4:	af00      	add	r7, sp, #0
  4004b6:	6078      	str	r0, [r7, #4]
  4004b8:	6039      	str	r1, [r7, #0]
  4004ba:	2368      	movs	r3, #104	; 0x68
  4004bc:	763b      	strb	r3, [r7, #24]
  4004be:	2300      	movs	r3, #0
  4004c0:	723b      	strb	r3, [r7, #8]
  4004c2:	2301      	movs	r3, #1
  4004c4:	60fb      	str	r3, [r7, #12]
  4004c6:	f107 031c 	add.w	r3, r7, #28
  4004ca:	613b      	str	r3, [r7, #16]
  4004cc:	2303      	movs	r3, #3
  4004ce:	617b      	str	r3, [r7, #20]
  4004d0:	f107 0308 	add.w	r3, r7, #8
  4004d4:	4619      	mov	r1, r3
  4004d6:	6878      	ldr	r0, [r7, #4]
  4004d8:	4b09      	ldr	r3, [pc, #36]	; (400500 <DSGetTime+0x50>)
  4004da:	4798      	blx	r3
  4004dc:	7f3b      	ldrb	r3, [r7, #28]
  4004de:	b29a      	uxth	r2, r3
  4004e0:	683b      	ldr	r3, [r7, #0]
  4004e2:	801a      	strh	r2, [r3, #0]
  4004e4:	683b      	ldr	r3, [r7, #0]
  4004e6:	3302      	adds	r3, #2
  4004e8:	7f7a      	ldrb	r2, [r7, #29]
  4004ea:	b292      	uxth	r2, r2
  4004ec:	801a      	strh	r2, [r3, #0]
  4004ee:	683b      	ldr	r3, [r7, #0]
  4004f0:	3304      	adds	r3, #4
  4004f2:	7fba      	ldrb	r2, [r7, #30]
  4004f4:	b292      	uxth	r2, r2
  4004f6:	801a      	strh	r2, [r3, #0]
  4004f8:	bf00      	nop
  4004fa:	3720      	adds	r7, #32
  4004fc:	46bd      	mov	sp, r7
  4004fe:	bd80      	pop	{r7, pc}
  400500:	00403019 	.word	0x00403019

00400504 <DSSetSecs>:
  400504:	b580      	push	{r7, lr}
  400506:	b082      	sub	sp, #8
  400508:	af00      	add	r7, sp, #0
  40050a:	6078      	str	r0, [r7, #4]
  40050c:	460b      	mov	r3, r1
  40050e:	70fb      	strb	r3, [r7, #3]
  400510:	78fb      	ldrb	r3, [r7, #3]
  400512:	461a      	mov	r2, r3
  400514:	2100      	movs	r1, #0
  400516:	6878      	ldr	r0, [r7, #4]
  400518:	4b02      	ldr	r3, [pc, #8]	; (400524 <DSSetSecs+0x20>)
  40051a:	4798      	blx	r3
  40051c:	bf00      	nop
  40051e:	3708      	adds	r7, #8
  400520:	46bd      	mov	sp, r7
  400522:	bd80      	pop	{r7, pc}
  400524:	004006d1 	.word	0x004006d1

00400528 <DSSetMins>:
  400528:	b580      	push	{r7, lr}
  40052a:	b082      	sub	sp, #8
  40052c:	af00      	add	r7, sp, #0
  40052e:	6078      	str	r0, [r7, #4]
  400530:	460b      	mov	r3, r1
  400532:	70fb      	strb	r3, [r7, #3]
  400534:	78fb      	ldrb	r3, [r7, #3]
  400536:	461a      	mov	r2, r3
  400538:	2101      	movs	r1, #1
  40053a:	6878      	ldr	r0, [r7, #4]
  40053c:	4b02      	ldr	r3, [pc, #8]	; (400548 <DSSetMins+0x20>)
  40053e:	4798      	blx	r3
  400540:	bf00      	nop
  400542:	3708      	adds	r7, #8
  400544:	46bd      	mov	sp, r7
  400546:	bd80      	pop	{r7, pc}
  400548:	004006d1 	.word	0x004006d1

0040054c <DSSetHrs>:
  40054c:	b580      	push	{r7, lr}
  40054e:	b082      	sub	sp, #8
  400550:	af00      	add	r7, sp, #0
  400552:	6078      	str	r0, [r7, #4]
  400554:	460b      	mov	r3, r1
  400556:	70fb      	strb	r3, [r7, #3]
  400558:	78fb      	ldrb	r3, [r7, #3]
  40055a:	461a      	mov	r2, r3
  40055c:	2102      	movs	r1, #2
  40055e:	6878      	ldr	r0, [r7, #4]
  400560:	4b02      	ldr	r3, [pc, #8]	; (40056c <DSSetHrs+0x20>)
  400562:	4798      	blx	r3
  400564:	bf00      	nop
  400566:	3708      	adds	r7, #8
  400568:	46bd      	mov	sp, r7
  40056a:	bd80      	pop	{r7, pc}
  40056c:	004006d1 	.word	0x004006d1

00400570 <DSGetFullDate>:
  400570:	b580      	push	{r7, lr}
  400572:	b088      	sub	sp, #32
  400574:	af00      	add	r7, sp, #0
  400576:	6078      	str	r0, [r7, #4]
  400578:	6039      	str	r1, [r7, #0]
  40057a:	2368      	movs	r3, #104	; 0x68
  40057c:	763b      	strb	r3, [r7, #24]
  40057e:	2303      	movs	r3, #3
  400580:	723b      	strb	r3, [r7, #8]
  400582:	2301      	movs	r3, #1
  400584:	60fb      	str	r3, [r7, #12]
  400586:	f107 031c 	add.w	r3, r7, #28
  40058a:	613b      	str	r3, [r7, #16]
  40058c:	2304      	movs	r3, #4
  40058e:	617b      	str	r3, [r7, #20]
  400590:	f107 0308 	add.w	r3, r7, #8
  400594:	4619      	mov	r1, r3
  400596:	6878      	ldr	r0, [r7, #4]
  400598:	4b0c      	ldr	r3, [pc, #48]	; (4005cc <DSGetFullDate+0x5c>)
  40059a:	4798      	blx	r3
  40059c:	7f3b      	ldrb	r3, [r7, #28]
  40059e:	b29a      	uxth	r2, r3
  4005a0:	683b      	ldr	r3, [r7, #0]
  4005a2:	801a      	strh	r2, [r3, #0]
  4005a4:	683b      	ldr	r3, [r7, #0]
  4005a6:	3302      	adds	r3, #2
  4005a8:	7f7a      	ldrb	r2, [r7, #29]
  4005aa:	b292      	uxth	r2, r2
  4005ac:	801a      	strh	r2, [r3, #0]
  4005ae:	683b      	ldr	r3, [r7, #0]
  4005b0:	3304      	adds	r3, #4
  4005b2:	7fba      	ldrb	r2, [r7, #30]
  4005b4:	b292      	uxth	r2, r2
  4005b6:	801a      	strh	r2, [r3, #0]
  4005b8:	683b      	ldr	r3, [r7, #0]
  4005ba:	3306      	adds	r3, #6
  4005bc:	7ffa      	ldrb	r2, [r7, #31]
  4005be:	b292      	uxth	r2, r2
  4005c0:	801a      	strh	r2, [r3, #0]
  4005c2:	bf00      	nop
  4005c4:	3720      	adds	r7, #32
  4005c6:	46bd      	mov	sp, r7
  4005c8:	bd80      	pop	{r7, pc}
  4005ca:	bf00      	nop
  4005cc:	00403019 	.word	0x00403019

004005d0 <DSSetDay>:
  4005d0:	b580      	push	{r7, lr}
  4005d2:	b082      	sub	sp, #8
  4005d4:	af00      	add	r7, sp, #0
  4005d6:	6078      	str	r0, [r7, #4]
  4005d8:	460b      	mov	r3, r1
  4005da:	70fb      	strb	r3, [r7, #3]
  4005dc:	78fb      	ldrb	r3, [r7, #3]
  4005de:	461a      	mov	r2, r3
  4005e0:	2103      	movs	r1, #3
  4005e2:	6878      	ldr	r0, [r7, #4]
  4005e4:	4b02      	ldr	r3, [pc, #8]	; (4005f0 <DSSetDay+0x20>)
  4005e6:	4798      	blx	r3
  4005e8:	bf00      	nop
  4005ea:	3708      	adds	r7, #8
  4005ec:	46bd      	mov	sp, r7
  4005ee:	bd80      	pop	{r7, pc}
  4005f0:	004006d1 	.word	0x004006d1

004005f4 <DSSetDate>:
  4005f4:	b580      	push	{r7, lr}
  4005f6:	b082      	sub	sp, #8
  4005f8:	af00      	add	r7, sp, #0
  4005fa:	6078      	str	r0, [r7, #4]
  4005fc:	460b      	mov	r3, r1
  4005fe:	70fb      	strb	r3, [r7, #3]
  400600:	78fb      	ldrb	r3, [r7, #3]
  400602:	461a      	mov	r2, r3
  400604:	2104      	movs	r1, #4
  400606:	6878      	ldr	r0, [r7, #4]
  400608:	4b02      	ldr	r3, [pc, #8]	; (400614 <DSSetDate+0x20>)
  40060a:	4798      	blx	r3
  40060c:	bf00      	nop
  40060e:	3708      	adds	r7, #8
  400610:	46bd      	mov	sp, r7
  400612:	bd80      	pop	{r7, pc}
  400614:	004006d1 	.word	0x004006d1

00400618 <DSSetMonth>:
  400618:	b580      	push	{r7, lr}
  40061a:	b082      	sub	sp, #8
  40061c:	af00      	add	r7, sp, #0
  40061e:	6078      	str	r0, [r7, #4]
  400620:	460b      	mov	r3, r1
  400622:	70fb      	strb	r3, [r7, #3]
  400624:	78fb      	ldrb	r3, [r7, #3]
  400626:	461a      	mov	r2, r3
  400628:	2105      	movs	r1, #5
  40062a:	6878      	ldr	r0, [r7, #4]
  40062c:	4b02      	ldr	r3, [pc, #8]	; (400638 <DSSetMonth+0x20>)
  40062e:	4798      	blx	r3
  400630:	bf00      	nop
  400632:	3708      	adds	r7, #8
  400634:	46bd      	mov	sp, r7
  400636:	bd80      	pop	{r7, pc}
  400638:	004006d1 	.word	0x004006d1

0040063c <DSSetYear>:
  40063c:	b580      	push	{r7, lr}
  40063e:	b082      	sub	sp, #8
  400640:	af00      	add	r7, sp, #0
  400642:	6078      	str	r0, [r7, #4]
  400644:	460b      	mov	r3, r1
  400646:	70fb      	strb	r3, [r7, #3]
  400648:	78fb      	ldrb	r3, [r7, #3]
  40064a:	461a      	mov	r2, r3
  40064c:	2106      	movs	r1, #6
  40064e:	6878      	ldr	r0, [r7, #4]
  400650:	4b02      	ldr	r3, [pc, #8]	; (40065c <DSSetYear+0x20>)
  400652:	4798      	blx	r3
  400654:	bf00      	nop
  400656:	3708      	adds	r7, #8
  400658:	46bd      	mov	sp, r7
  40065a:	bd80      	pop	{r7, pc}
  40065c:	004006d1 	.word	0x004006d1

00400660 <DSEnAL2>:
  400660:	b580      	push	{r7, lr}
  400662:	b088      	sub	sp, #32
  400664:	af00      	add	r7, sp, #0
  400666:	6078      	str	r0, [r7, #4]
  400668:	460b      	mov	r3, r1
  40066a:	70fb      	strb	r3, [r7, #3]
  40066c:	78fb      	ldrb	r3, [r7, #3]
  40066e:	2b00      	cmp	r3, #0
  400670:	d021      	beq.n	4006b6 <DSEnAL2+0x56>
  400672:	2368      	movs	r3, #104	; 0x68
  400674:	763b      	strb	r3, [r7, #24]
  400676:	230b      	movs	r3, #11
  400678:	723b      	strb	r3, [r7, #8]
  40067a:	2301      	movs	r3, #1
  40067c:	60fb      	str	r3, [r7, #12]
  40067e:	f107 031c 	add.w	r3, r7, #28
  400682:	613b      	str	r3, [r7, #16]
  400684:	2303      	movs	r3, #3
  400686:	617b      	str	r3, [r7, #20]
  400688:	2380      	movs	r3, #128	; 0x80
  40068a:	773b      	strb	r3, [r7, #28]
  40068c:	2380      	movs	r3, #128	; 0x80
  40068e:	777b      	strb	r3, [r7, #29]
  400690:	2380      	movs	r3, #128	; 0x80
  400692:	77bb      	strb	r3, [r7, #30]
  400694:	f107 0308 	add.w	r3, r7, #8
  400698:	4619      	mov	r1, r3
  40069a:	6878      	ldr	r0, [r7, #4]
  40069c:	4b0a      	ldr	r3, [pc, #40]	; (4006c8 <DSEnAL2+0x68>)
  40069e:	4798      	blx	r3
  4006a0:	2206      	movs	r2, #6
  4006a2:	210e      	movs	r1, #14
  4006a4:	6878      	ldr	r0, [r7, #4]
  4006a6:	4b09      	ldr	r3, [pc, #36]	; (4006cc <DSEnAL2+0x6c>)
  4006a8:	4798      	blx	r3
  4006aa:	2280      	movs	r2, #128	; 0x80
  4006ac:	210f      	movs	r1, #15
  4006ae:	6878      	ldr	r0, [r7, #4]
  4006b0:	4b06      	ldr	r3, [pc, #24]	; (4006cc <DSEnAL2+0x6c>)
  4006b2:	4798      	blx	r3
  4006b4:	e004      	b.n	4006c0 <DSEnAL2+0x60>
  4006b6:	2204      	movs	r2, #4
  4006b8:	210e      	movs	r1, #14
  4006ba:	6878      	ldr	r0, [r7, #4]
  4006bc:	4b03      	ldr	r3, [pc, #12]	; (4006cc <DSEnAL2+0x6c>)
  4006be:	4798      	blx	r3
  4006c0:	bf00      	nop
  4006c2:	3720      	adds	r7, #32
  4006c4:	46bd      	mov	sp, r7
  4006c6:	bd80      	pop	{r7, pc}
  4006c8:	00403125 	.word	0x00403125
  4006cc:	004006d1 	.word	0x004006d1

004006d0 <DSWriteByte>:
  4006d0:	b580      	push	{r7, lr}
  4006d2:	b088      	sub	sp, #32
  4006d4:	af00      	add	r7, sp, #0
  4006d6:	6078      	str	r0, [r7, #4]
  4006d8:	460b      	mov	r3, r1
  4006da:	70fb      	strb	r3, [r7, #3]
  4006dc:	4613      	mov	r3, r2
  4006de:	70bb      	strb	r3, [r7, #2]
  4006e0:	2368      	movs	r3, #104	; 0x68
  4006e2:	773b      	strb	r3, [r7, #28]
  4006e4:	78fb      	ldrb	r3, [r7, #3]
  4006e6:	733b      	strb	r3, [r7, #12]
  4006e8:	2301      	movs	r3, #1
  4006ea:	613b      	str	r3, [r7, #16]
  4006ec:	1cbb      	adds	r3, r7, #2
  4006ee:	617b      	str	r3, [r7, #20]
  4006f0:	2301      	movs	r3, #1
  4006f2:	61bb      	str	r3, [r7, #24]
  4006f4:	f107 030c 	add.w	r3, r7, #12
  4006f8:	4619      	mov	r1, r3
  4006fa:	6878      	ldr	r0, [r7, #4]
  4006fc:	4b02      	ldr	r3, [pc, #8]	; (400708 <DSWriteByte+0x38>)
  4006fe:	4798      	blx	r3
  400700:	bf00      	nop
  400702:	3720      	adds	r7, #32
  400704:	46bd      	mov	sp, r7
  400706:	bd80      	pop	{r7, pc}
  400708:	00403125 	.word	0x00403125

0040070c <DSReadByte>:
  40070c:	b580      	push	{r7, lr}
  40070e:	b08a      	sub	sp, #40	; 0x28
  400710:	af00      	add	r7, sp, #0
  400712:	60f8      	str	r0, [r7, #12]
  400714:	460b      	mov	r3, r1
  400716:	607a      	str	r2, [r7, #4]
  400718:	72fb      	strb	r3, [r7, #11]
  40071a:	2368      	movs	r3, #104	; 0x68
  40071c:	f887 3024 	strb.w	r3, [r7, #36]	; 0x24
  400720:	7afb      	ldrb	r3, [r7, #11]
  400722:	753b      	strb	r3, [r7, #20]
  400724:	2301      	movs	r3, #1
  400726:	61bb      	str	r3, [r7, #24]
  400728:	687b      	ldr	r3, [r7, #4]
  40072a:	61fb      	str	r3, [r7, #28]
  40072c:	2301      	movs	r3, #1
  40072e:	623b      	str	r3, [r7, #32]
  400730:	f107 0314 	add.w	r3, r7, #20
  400734:	4619      	mov	r1, r3
  400736:	68f8      	ldr	r0, [r7, #12]
  400738:	4b02      	ldr	r3, [pc, #8]	; (400744 <DSReadByte+0x38>)
  40073a:	4798      	blx	r3
  40073c:	bf00      	nop
  40073e:	3728      	adds	r7, #40	; 0x28
  400740:	46bd      	mov	sp, r7
  400742:	bd80      	pop	{r7, pc}
  400744:	00403019 	.word	0x00403019

00400748 <ICMInitialize>:
  400748:	b590      	push	{r4, r7, lr}
  40074a:	b083      	sub	sp, #12
  40074c:	af00      	add	r7, sp, #0
  40074e:	6078      	str	r0, [r7, #4]
  400750:	460b      	mov	r3, r1
  400752:	70fb      	strb	r3, [r7, #3]
  400754:	78f9      	ldrb	r1, [r7, #3]
  400756:	2300      	movs	r3, #0
  400758:	227f      	movs	r2, #127	; 0x7f
  40075a:	6878      	ldr	r0, [r7, #4]
  40075c:	4c11      	ldr	r4, [pc, #68]	; (4007a4 <ICMInitialize+0x5c>)
  40075e:	47a0      	blx	r4
  400760:	78f9      	ldrb	r1, [r7, #3]
  400762:	2301      	movs	r3, #1
  400764:	2206      	movs	r2, #6
  400766:	6878      	ldr	r0, [r7, #4]
  400768:	4c0e      	ldr	r4, [pc, #56]	; (4007a4 <ICMInitialize+0x5c>)
  40076a:	47a0      	blx	r4
  40076c:	78f9      	ldrb	r1, [r7, #3]
  40076e:	2320      	movs	r3, #32
  400770:	227f      	movs	r2, #127	; 0x7f
  400772:	6878      	ldr	r0, [r7, #4]
  400774:	4c0b      	ldr	r4, [pc, #44]	; (4007a4 <ICMInitialize+0x5c>)
  400776:	47a0      	blx	r4
  400778:	78f9      	ldrb	r1, [r7, #3]
  40077a:	2331      	movs	r3, #49	; 0x31
  40077c:	2214      	movs	r2, #20
  40077e:	6878      	ldr	r0, [r7, #4]
  400780:	4c08      	ldr	r4, [pc, #32]	; (4007a4 <ICMInitialize+0x5c>)
  400782:	47a0      	blx	r4
  400784:	78f9      	ldrb	r1, [r7, #3]
  400786:	2300      	movs	r3, #0
  400788:	2210      	movs	r2, #16
  40078a:	6878      	ldr	r0, [r7, #4]
  40078c:	4c05      	ldr	r4, [pc, #20]	; (4007a4 <ICMInitialize+0x5c>)
  40078e:	47a0      	blx	r4
  400790:	78f9      	ldrb	r1, [r7, #3]
  400792:	233f      	movs	r3, #63	; 0x3f
  400794:	2211      	movs	r2, #17
  400796:	6878      	ldr	r0, [r7, #4]
  400798:	4c02      	ldr	r4, [pc, #8]	; (4007a4 <ICMInitialize+0x5c>)
  40079a:	47a0      	blx	r4
  40079c:	bf00      	nop
  40079e:	370c      	adds	r7, #12
  4007a0:	46bd      	mov	sp, r7
  4007a2:	bd90      	pop	{r4, r7, pc}
  4007a4:	00400825 	.word	0x00400825

004007a8 <ICMReadAccDataAll>:
  4007a8:	b590      	push	{r4, r7, lr}
  4007aa:	b085      	sub	sp, #20
  4007ac:	af00      	add	r7, sp, #0
  4007ae:	60f8      	str	r0, [r7, #12]
  4007b0:	460b      	mov	r3, r1
  4007b2:	607a      	str	r2, [r7, #4]
  4007b4:	72fb      	strb	r3, [r7, #11]
  4007b6:	7af9      	ldrb	r1, [r7, #11]
  4007b8:	2300      	movs	r3, #0
  4007ba:	227f      	movs	r2, #127	; 0x7f
  4007bc:	68f8      	ldr	r0, [r7, #12]
  4007be:	4c17      	ldr	r4, [pc, #92]	; (40081c <ICMReadAccDataAll+0x74>)
  4007c0:	47a0      	blx	r4
  4007c2:	687b      	ldr	r3, [r7, #4]
  4007c4:	3301      	adds	r3, #1
  4007c6:	7af9      	ldrb	r1, [r7, #11]
  4007c8:	222d      	movs	r2, #45	; 0x2d
  4007ca:	68f8      	ldr	r0, [r7, #12]
  4007cc:	4c14      	ldr	r4, [pc, #80]	; (400820 <ICMReadAccDataAll+0x78>)
  4007ce:	47a0      	blx	r4
  4007d0:	7af9      	ldrb	r1, [r7, #11]
  4007d2:	687b      	ldr	r3, [r7, #4]
  4007d4:	222e      	movs	r2, #46	; 0x2e
  4007d6:	68f8      	ldr	r0, [r7, #12]
  4007d8:	4c11      	ldr	r4, [pc, #68]	; (400820 <ICMReadAccDataAll+0x78>)
  4007da:	47a0      	blx	r4
  4007dc:	687b      	ldr	r3, [r7, #4]
  4007de:	3303      	adds	r3, #3
  4007e0:	7af9      	ldrb	r1, [r7, #11]
  4007e2:	222f      	movs	r2, #47	; 0x2f
  4007e4:	68f8      	ldr	r0, [r7, #12]
  4007e6:	4c0e      	ldr	r4, [pc, #56]	; (400820 <ICMReadAccDataAll+0x78>)
  4007e8:	47a0      	blx	r4
  4007ea:	687b      	ldr	r3, [r7, #4]
  4007ec:	3302      	adds	r3, #2
  4007ee:	7af9      	ldrb	r1, [r7, #11]
  4007f0:	2230      	movs	r2, #48	; 0x30
  4007f2:	68f8      	ldr	r0, [r7, #12]
  4007f4:	4c0a      	ldr	r4, [pc, #40]	; (400820 <ICMReadAccDataAll+0x78>)
  4007f6:	47a0      	blx	r4
  4007f8:	687b      	ldr	r3, [r7, #4]
  4007fa:	3305      	adds	r3, #5
  4007fc:	7af9      	ldrb	r1, [r7, #11]
  4007fe:	2231      	movs	r2, #49	; 0x31
  400800:	68f8      	ldr	r0, [r7, #12]
  400802:	4c07      	ldr	r4, [pc, #28]	; (400820 <ICMReadAccDataAll+0x78>)
  400804:	47a0      	blx	r4
  400806:	687b      	ldr	r3, [r7, #4]
  400808:	3304      	adds	r3, #4
  40080a:	7af9      	ldrb	r1, [r7, #11]
  40080c:	2232      	movs	r2, #50	; 0x32
  40080e:	68f8      	ldr	r0, [r7, #12]
  400810:	4c03      	ldr	r4, [pc, #12]	; (400820 <ICMReadAccDataAll+0x78>)
  400812:	47a0      	blx	r4
  400814:	bf00      	nop
  400816:	3714      	adds	r7, #20
  400818:	46bd      	mov	sp, r7
  40081a:	bd90      	pop	{r4, r7, pc}
  40081c:	00400825 	.word	0x00400825
  400820:	0040086d 	.word	0x0040086d

00400824 <ICMWriteByte>:
  400824:	b580      	push	{r7, lr}
  400826:	b088      	sub	sp, #32
  400828:	af00      	add	r7, sp, #0
  40082a:	6078      	str	r0, [r7, #4]
  40082c:	4608      	mov	r0, r1
  40082e:	4611      	mov	r1, r2
  400830:	461a      	mov	r2, r3
  400832:	4603      	mov	r3, r0
  400834:	70fb      	strb	r3, [r7, #3]
  400836:	460b      	mov	r3, r1
  400838:	70bb      	strb	r3, [r7, #2]
  40083a:	4613      	mov	r3, r2
  40083c:	707b      	strb	r3, [r7, #1]
  40083e:	78fb      	ldrb	r3, [r7, #3]
  400840:	773b      	strb	r3, [r7, #28]
  400842:	78bb      	ldrb	r3, [r7, #2]
  400844:	733b      	strb	r3, [r7, #12]
  400846:	2301      	movs	r3, #1
  400848:	613b      	str	r3, [r7, #16]
  40084a:	1c7b      	adds	r3, r7, #1
  40084c:	617b      	str	r3, [r7, #20]
  40084e:	2301      	movs	r3, #1
  400850:	61bb      	str	r3, [r7, #24]
  400852:	f107 030c 	add.w	r3, r7, #12
  400856:	4619      	mov	r1, r3
  400858:	6878      	ldr	r0, [r7, #4]
  40085a:	4b03      	ldr	r3, [pc, #12]	; (400868 <ICMWriteByte+0x44>)
  40085c:	4798      	blx	r3
  40085e:	bf00      	nop
  400860:	3720      	adds	r7, #32
  400862:	46bd      	mov	sp, r7
  400864:	bd80      	pop	{r7, pc}
  400866:	bf00      	nop
  400868:	00403125 	.word	0x00403125

0040086c <ICMReadByte>:
  40086c:	b580      	push	{r7, lr}
  40086e:	b08a      	sub	sp, #40	; 0x28
  400870:	af00      	add	r7, sp, #0
  400872:	60f8      	str	r0, [r7, #12]
  400874:	607b      	str	r3, [r7, #4]
  400876:	460b      	mov	r3, r1
  400878:	72fb      	strb	r3, [r7, #11]
  40087a:	4613      	mov	r3, r2
  40087c:	72bb      	strb	r3, [r7, #10]
  40087e:	7afb      	ldrb	r3, [r7, #11]
  400880:	f887 3024 	strb.w	r3, [r7, #36]	; 0x24
  400884:	7abb      	ldrb	r3, [r7, #10]
  400886:	753b      	strb	r3, [r7, #20]
  400888:	2301      	movs	r3, #1
  40088a:	61bb      	str	r3, [r7, #24]
  40088c:	687b      	ldr	r3, [r7, #4]
  40088e:	61fb      	str	r3, [r7, #28]
  400890:	2301      	movs	r3, #1
  400892:	623b      	str	r3, [r7, #32]
  400894:	f107 0314 	add.w	r3, r7, #20
  400898:	4619      	mov	r1, r3
  40089a:	68f8      	ldr	r0, [r7, #12]
  40089c:	4b02      	ldr	r3, [pc, #8]	; (4008a8 <ICMReadByte+0x3c>)
  40089e:	4798      	blx	r3
  4008a0:	bf00      	nop
  4008a2:	3728      	adds	r7, #40	; 0x28
  4008a4:	46bd      	mov	sp, r7
  4008a6:	bd80      	pop	{r7, pc}
  4008a8:	00403019 	.word	0x00403019

004008ac <ParseMbusPkt>:
  4008ac:	b580      	push	{r7, lr}
  4008ae:	b08a      	sub	sp, #40	; 0x28
  4008b0:	af00      	add	r7, sp, #0
  4008b2:	60b9      	str	r1, [r7, #8]
  4008b4:	607b      	str	r3, [r7, #4]
  4008b6:	4603      	mov	r3, r0
  4008b8:	73fb      	strb	r3, [r7, #15]
  4008ba:	4613      	mov	r3, r2
  4008bc:	73bb      	strb	r3, [r7, #14]
  4008be:	2300      	movs	r3, #0
  4008c0:	83fb      	strh	r3, [r7, #30]
  4008c2:	2300      	movs	r3, #0
  4008c4:	83bb      	strh	r3, [r7, #28]
  4008c6:	2300      	movs	r3, #0
  4008c8:	837b      	strh	r3, [r7, #26]
  4008ca:	2300      	movs	r3, #0
  4008cc:	833b      	strh	r3, [r7, #24]
  4008ce:	2300      	movs	r3, #0
  4008d0:	84fb      	strh	r3, [r7, #38]	; 0x26
  4008d2:	2300      	movs	r3, #0
  4008d4:	75fb      	strb	r3, [r7, #23]
  4008d6:	2300      	movs	r3, #0
  4008d8:	f887 3025 	strb.w	r3, [r7, #37]	; 0x25
  4008dc:	2300      	movs	r3, #0
  4008de:	f887 3024 	strb.w	r3, [r7, #36]	; 0x24
  4008e2:	2300      	movs	r3, #0
  4008e4:	f887 3023 	strb.w	r3, [r7, #35]	; 0x23
  4008e8:	2300      	movs	r3, #0
  4008ea:	f887 3022 	strb.w	r3, [r7, #34]	; 0x22
  4008ee:	2300      	movs	r3, #0
  4008f0:	f887 3021 	strb.w	r3, [r7, #33]	; 0x21
  4008f4:	68bb      	ldr	r3, [r7, #8]
  4008f6:	781b      	ldrb	r3, [r3, #0]
  4008f8:	7bfa      	ldrb	r2, [r7, #15]
  4008fa:	429a      	cmp	r2, r3
  4008fc:	d004      	beq.n	400908 <ParseMbusPkt+0x5c>
  4008fe:	68bb      	ldr	r3, [r7, #8]
  400900:	781b      	ldrb	r3, [r3, #0]
  400902:	2b00      	cmp	r3, #0
  400904:	f040 81fb 	bne.w	400cfe <ParseMbusPkt+0x452>
  400908:	7bbb      	ldrb	r3, [r7, #14]
  40090a:	3b01      	subs	r3, #1
  40090c:	68ba      	ldr	r2, [r7, #8]
  40090e:	4413      	add	r3, r2
  400910:	781b      	ldrb	r3, [r3, #0]
  400912:	021b      	lsls	r3, r3, #8
  400914:	b21a      	sxth	r2, r3
  400916:	7bbb      	ldrb	r3, [r7, #14]
  400918:	3b02      	subs	r3, #2
  40091a:	68b9      	ldr	r1, [r7, #8]
  40091c:	440b      	add	r3, r1
  40091e:	781b      	ldrb	r3, [r3, #0]
  400920:	b21b      	sxth	r3, r3
  400922:	4313      	orrs	r3, r2
  400924:	b21b      	sxth	r3, r3
  400926:	83bb      	strh	r3, [r7, #28]
  400928:	7bbb      	ldrb	r3, [r7, #14]
  40092a:	3b02      	subs	r3, #2
  40092c:	b2db      	uxtb	r3, r3
  40092e:	4619      	mov	r1, r3
  400930:	68b8      	ldr	r0, [r7, #8]
  400932:	4b90      	ldr	r3, [pc, #576]	; (400b74 <ParseMbusPkt+0x2c8>)
  400934:	4798      	blx	r3
  400936:	4603      	mov	r3, r0
  400938:	83fb      	strh	r3, [r7, #30]
  40093a:	8bfa      	ldrh	r2, [r7, #30]
  40093c:	8bbb      	ldrh	r3, [r7, #28]
  40093e:	429a      	cmp	r2, r3
  400940:	f040 81e0 	bne.w	400d04 <ParseMbusPkt+0x458>
  400944:	68bb      	ldr	r3, [r7, #8]
  400946:	785b      	ldrb	r3, [r3, #1]
  400948:	75fb      	strb	r3, [r7, #23]
  40094a:	7dfb      	ldrb	r3, [r7, #23]
  40094c:	2b06      	cmp	r3, #6
  40094e:	f000 80a9 	beq.w	400aa4 <ParseMbusPkt+0x1f8>
  400952:	2b10      	cmp	r3, #16
  400954:	f000 8114 	beq.w	400b80 <ParseMbusPkt+0x2d4>
  400958:	2b03      	cmp	r3, #3
  40095a:	f040 81c2 	bne.w	400ce2 <ParseMbusPkt+0x436>
  40095e:	68bb      	ldr	r3, [r7, #8]
  400960:	3304      	adds	r3, #4
  400962:	781b      	ldrb	r3, [r3, #0]
  400964:	021b      	lsls	r3, r3, #8
  400966:	b21a      	sxth	r2, r3
  400968:	68bb      	ldr	r3, [r7, #8]
  40096a:	3305      	adds	r3, #5
  40096c:	781b      	ldrb	r3, [r3, #0]
  40096e:	b21b      	sxth	r3, r3
  400970:	4313      	orrs	r3, r2
  400972:	b21b      	sxth	r3, r3
  400974:	833b      	strh	r3, [r7, #24]
  400976:	8b3b      	ldrh	r3, [r7, #24]
  400978:	2b00      	cmp	r3, #0
  40097a:	f000 8088 	beq.w	400a8e <ParseMbusPkt+0x1e2>
  40097e:	8b3b      	ldrh	r3, [r7, #24]
  400980:	2b7d      	cmp	r3, #125	; 0x7d
  400982:	f200 8084 	bhi.w	400a8e <ParseMbusPkt+0x1e2>
  400986:	68bb      	ldr	r3, [r7, #8]
  400988:	3302      	adds	r3, #2
  40098a:	781b      	ldrb	r3, [r3, #0]
  40098c:	021b      	lsls	r3, r3, #8
  40098e:	b21a      	sxth	r2, r3
  400990:	68bb      	ldr	r3, [r7, #8]
  400992:	3303      	adds	r3, #3
  400994:	781b      	ldrb	r3, [r3, #0]
  400996:	b21b      	sxth	r3, r3
  400998:	4313      	orrs	r3, r2
  40099a:	b21b      	sxth	r3, r3
  40099c:	837b      	strh	r3, [r7, #26]
  40099e:	8b7a      	ldrh	r2, [r7, #26]
  4009a0:	8b3b      	ldrh	r3, [r7, #24]
  4009a2:	4413      	add	r3, r2
  4009a4:	2b24      	cmp	r3, #36	; 0x24
  4009a6:	dc68      	bgt.n	400a7a <ParseMbusPkt+0x1ce>
  4009a8:	687b      	ldr	r3, [r7, #4]
  4009aa:	7bfa      	ldrb	r2, [r7, #15]
  4009ac:	701a      	strb	r2, [r3, #0]
  4009ae:	687b      	ldr	r3, [r7, #4]
  4009b0:	3301      	adds	r3, #1
  4009b2:	2203      	movs	r2, #3
  4009b4:	701a      	strb	r2, [r3, #0]
  4009b6:	687b      	ldr	r3, [r7, #4]
  4009b8:	3302      	adds	r3, #2
  4009ba:	8b3a      	ldrh	r2, [r7, #24]
  4009bc:	b2d2      	uxtb	r2, r2
  4009be:	0052      	lsls	r2, r2, #1
  4009c0:	b2d2      	uxtb	r2, r2
  4009c2:	701a      	strb	r2, [r3, #0]
  4009c4:	2303      	movs	r3, #3
  4009c6:	f887 3022 	strb.w	r3, [r7, #34]	; 0x22
  4009ca:	2300      	movs	r3, #0
  4009cc:	f887 3021 	strb.w	r3, [r7, #33]	; 0x21
  4009d0:	e028      	b.n	400a24 <ParseMbusPkt+0x178>
  4009d2:	f897 3022 	ldrb.w	r3, [r7, #34]	; 0x22
  4009d6:	1c5a      	adds	r2, r3, #1
  4009d8:	f887 2022 	strb.w	r2, [r7, #34]	; 0x22
  4009dc:	461a      	mov	r2, r3
  4009de:	687b      	ldr	r3, [r7, #4]
  4009e0:	4413      	add	r3, r2
  4009e2:	8b79      	ldrh	r1, [r7, #26]
  4009e4:	f897 2021 	ldrb.w	r2, [r7, #33]	; 0x21
  4009e8:	440a      	add	r2, r1
  4009ea:	4963      	ldr	r1, [pc, #396]	; (400b78 <ParseMbusPkt+0x2cc>)
  4009ec:	f831 2012 	ldrh.w	r2, [r1, r2, lsl #1]
  4009f0:	0a12      	lsrs	r2, r2, #8
  4009f2:	b292      	uxth	r2, r2
  4009f4:	b2d2      	uxtb	r2, r2
  4009f6:	701a      	strb	r2, [r3, #0]
  4009f8:	f897 3022 	ldrb.w	r3, [r7, #34]	; 0x22
  4009fc:	1c5a      	adds	r2, r3, #1
  4009fe:	f887 2022 	strb.w	r2, [r7, #34]	; 0x22
  400a02:	461a      	mov	r2, r3
  400a04:	687b      	ldr	r3, [r7, #4]
  400a06:	4413      	add	r3, r2
  400a08:	8b79      	ldrh	r1, [r7, #26]
  400a0a:	f897 2021 	ldrb.w	r2, [r7, #33]	; 0x21
  400a0e:	440a      	add	r2, r1
  400a10:	4959      	ldr	r1, [pc, #356]	; (400b78 <ParseMbusPkt+0x2cc>)
  400a12:	f831 2012 	ldrh.w	r2, [r1, r2, lsl #1]
  400a16:	b2d2      	uxtb	r2, r2
  400a18:	701a      	strb	r2, [r3, #0]
  400a1a:	f897 3021 	ldrb.w	r3, [r7, #33]	; 0x21
  400a1e:	3301      	adds	r3, #1
  400a20:	f887 3021 	strb.w	r3, [r7, #33]	; 0x21
  400a24:	f897 3021 	ldrb.w	r3, [r7, #33]	; 0x21
  400a28:	b29b      	uxth	r3, r3
  400a2a:	8b3a      	ldrh	r2, [r7, #24]
  400a2c:	429a      	cmp	r2, r3
  400a2e:	d8d0      	bhi.n	4009d2 <ParseMbusPkt+0x126>
  400a30:	f897 3022 	ldrb.w	r3, [r7, #34]	; 0x22
  400a34:	4619      	mov	r1, r3
  400a36:	6878      	ldr	r0, [r7, #4]
  400a38:	4b4e      	ldr	r3, [pc, #312]	; (400b74 <ParseMbusPkt+0x2c8>)
  400a3a:	4798      	blx	r3
  400a3c:	4603      	mov	r3, r0
  400a3e:	83fb      	strh	r3, [r7, #30]
  400a40:	f897 3022 	ldrb.w	r3, [r7, #34]	; 0x22
  400a44:	1c5a      	adds	r2, r3, #1
  400a46:	f887 2022 	strb.w	r2, [r7, #34]	; 0x22
  400a4a:	461a      	mov	r2, r3
  400a4c:	687b      	ldr	r3, [r7, #4]
  400a4e:	4413      	add	r3, r2
  400a50:	8bfa      	ldrh	r2, [r7, #30]
  400a52:	b2d2      	uxtb	r2, r2
  400a54:	701a      	strb	r2, [r3, #0]
  400a56:	f897 3022 	ldrb.w	r3, [r7, #34]	; 0x22
  400a5a:	1c5a      	adds	r2, r3, #1
  400a5c:	f887 2022 	strb.w	r2, [r7, #34]	; 0x22
  400a60:	461a      	mov	r2, r3
  400a62:	687b      	ldr	r3, [r7, #4]
  400a64:	4413      	add	r3, r2
  400a66:	8bfa      	ldrh	r2, [r7, #30]
  400a68:	0a12      	lsrs	r2, r2, #8
  400a6a:	b292      	uxth	r2, r2
  400a6c:	b2d2      	uxtb	r2, r2
  400a6e:	701a      	strb	r2, [r3, #0]
  400a70:	6b3b      	ldr	r3, [r7, #48]	; 0x30
  400a72:	f897 2022 	ldrb.w	r2, [r7, #34]	; 0x22
  400a76:	701a      	strb	r2, [r3, #0]
  400a78:	e013      	b.n	400aa2 <ParseMbusPkt+0x1f6>
  400a7a:	2301      	movs	r3, #1
  400a7c:	f887 3025 	strb.w	r3, [r7, #37]	; 0x25
  400a80:	2383      	movs	r3, #131	; 0x83
  400a82:	f887 3024 	strb.w	r3, [r7, #36]	; 0x24
  400a86:	2302      	movs	r3, #2
  400a88:	f887 3023 	strb.w	r3, [r7, #35]	; 0x23
  400a8c:	e009      	b.n	400aa2 <ParseMbusPkt+0x1f6>
  400a8e:	2301      	movs	r3, #1
  400a90:	f887 3025 	strb.w	r3, [r7, #37]	; 0x25
  400a94:	2383      	movs	r3, #131	; 0x83
  400a96:	f887 3024 	strb.w	r3, [r7, #36]	; 0x24
  400a9a:	2303      	movs	r3, #3
  400a9c:	f887 3023 	strb.w	r3, [r7, #35]	; 0x23
  400aa0:	e12c      	b.n	400cfc <ParseMbusPkt+0x450>
  400aa2:	e12b      	b.n	400cfc <ParseMbusPkt+0x450>
  400aa4:	68bb      	ldr	r3, [r7, #8]
  400aa6:	3304      	adds	r3, #4
  400aa8:	781b      	ldrb	r3, [r3, #0]
  400aaa:	021b      	lsls	r3, r3, #8
  400aac:	b21a      	sxth	r2, r3
  400aae:	68bb      	ldr	r3, [r7, #8]
  400ab0:	3305      	adds	r3, #5
  400ab2:	781b      	ldrb	r3, [r3, #0]
  400ab4:	b21b      	sxth	r3, r3
  400ab6:	4313      	orrs	r3, r2
  400ab8:	b21b      	sxth	r3, r3
  400aba:	84fb      	strh	r3, [r7, #38]	; 0x26
  400abc:	68bb      	ldr	r3, [r7, #8]
  400abe:	3302      	adds	r3, #2
  400ac0:	781b      	ldrb	r3, [r3, #0]
  400ac2:	021b      	lsls	r3, r3, #8
  400ac4:	b21a      	sxth	r2, r3
  400ac6:	68bb      	ldr	r3, [r7, #8]
  400ac8:	3303      	adds	r3, #3
  400aca:	781b      	ldrb	r3, [r3, #0]
  400acc:	b21b      	sxth	r3, r3
  400ace:	4313      	orrs	r3, r2
  400ad0:	b21b      	sxth	r3, r3
  400ad2:	837b      	strh	r3, [r7, #26]
  400ad4:	8b7b      	ldrh	r3, [r7, #26]
  400ad6:	2b24      	cmp	r3, #36	; 0x24
  400ad8:	d841      	bhi.n	400b5e <ParseMbusPkt+0x2b2>
  400ada:	8b7b      	ldrh	r3, [r7, #26]
  400adc:	4926      	ldr	r1, [pc, #152]	; (400b78 <ParseMbusPkt+0x2cc>)
  400ade:	8cfa      	ldrh	r2, [r7, #38]	; 0x26
  400ae0:	f821 2013 	strh.w	r2, [r1, r3, lsl #1]
  400ae4:	687b      	ldr	r3, [r7, #4]
  400ae6:	7bfa      	ldrb	r2, [r7, #15]
  400ae8:	701a      	strb	r2, [r3, #0]
  400aea:	687b      	ldr	r3, [r7, #4]
  400aec:	3301      	adds	r3, #1
  400aee:	2206      	movs	r2, #6
  400af0:	701a      	strb	r2, [r3, #0]
  400af2:	687b      	ldr	r3, [r7, #4]
  400af4:	3302      	adds	r3, #2
  400af6:	68ba      	ldr	r2, [r7, #8]
  400af8:	7892      	ldrb	r2, [r2, #2]
  400afa:	701a      	strb	r2, [r3, #0]
  400afc:	687b      	ldr	r3, [r7, #4]
  400afe:	3303      	adds	r3, #3
  400b00:	68ba      	ldr	r2, [r7, #8]
  400b02:	78d2      	ldrb	r2, [r2, #3]
  400b04:	701a      	strb	r2, [r3, #0]
  400b06:	687b      	ldr	r3, [r7, #4]
  400b08:	3304      	adds	r3, #4
  400b0a:	68ba      	ldr	r2, [r7, #8]
  400b0c:	7912      	ldrb	r2, [r2, #4]
  400b0e:	701a      	strb	r2, [r3, #0]
  400b10:	687b      	ldr	r3, [r7, #4]
  400b12:	3305      	adds	r3, #5
  400b14:	68ba      	ldr	r2, [r7, #8]
  400b16:	7952      	ldrb	r2, [r2, #5]
  400b18:	701a      	strb	r2, [r3, #0]
  400b1a:	2106      	movs	r1, #6
  400b1c:	6878      	ldr	r0, [r7, #4]
  400b1e:	4b15      	ldr	r3, [pc, #84]	; (400b74 <ParseMbusPkt+0x2c8>)
  400b20:	4798      	blx	r3
  400b22:	4603      	mov	r3, r0
  400b24:	83fb      	strh	r3, [r7, #30]
  400b26:	687b      	ldr	r3, [r7, #4]
  400b28:	3306      	adds	r3, #6
  400b2a:	8bfa      	ldrh	r2, [r7, #30]
  400b2c:	b2d2      	uxtb	r2, r2
  400b2e:	701a      	strb	r2, [r3, #0]
  400b30:	687b      	ldr	r3, [r7, #4]
  400b32:	3307      	adds	r3, #7
  400b34:	8bfa      	ldrh	r2, [r7, #30]
  400b36:	0a12      	lsrs	r2, r2, #8
  400b38:	b292      	uxth	r2, r2
  400b3a:	b2d2      	uxtb	r2, r2
  400b3c:	701a      	strb	r2, [r3, #0]
  400b3e:	6b3b      	ldr	r3, [r7, #48]	; 0x30
  400b40:	2208      	movs	r2, #8
  400b42:	701a      	strb	r2, [r3, #0]
  400b44:	4b0d      	ldr	r3, [pc, #52]	; (400b7c <ParseMbusPkt+0x2d0>)
  400b46:	681b      	ldr	r3, [r3, #0]
  400b48:	2b00      	cmp	r3, #0
  400b4a:	f000 80d6 	beq.w	400cfa <ParseMbusPkt+0x44e>
  400b4e:	4b0b      	ldr	r3, [pc, #44]	; (400b7c <ParseMbusPkt+0x2d0>)
  400b50:	681b      	ldr	r3, [r3, #0]
  400b52:	8b7a      	ldrh	r2, [r7, #26]
  400b54:	b2d1      	uxtb	r1, r2
  400b56:	2201      	movs	r2, #1
  400b58:	4807      	ldr	r0, [pc, #28]	; (400b78 <ParseMbusPkt+0x2cc>)
  400b5a:	4798      	blx	r3
  400b5c:	e0cd      	b.n	400cfa <ParseMbusPkt+0x44e>
  400b5e:	2301      	movs	r3, #1
  400b60:	f887 3025 	strb.w	r3, [r7, #37]	; 0x25
  400b64:	2386      	movs	r3, #134	; 0x86
  400b66:	f887 3024 	strb.w	r3, [r7, #36]	; 0x24
  400b6a:	2302      	movs	r3, #2
  400b6c:	f887 3023 	strb.w	r3, [r7, #35]	; 0x23
  400b70:	e0c3      	b.n	400cfa <ParseMbusPkt+0x44e>
  400b72:	bf00      	nop
  400b74:	00400d65 	.word	0x00400d65
  400b78:	2000077c 	.word	0x2000077c
  400b7c:	20002a04 	.word	0x20002a04
  400b80:	68bb      	ldr	r3, [r7, #8]
  400b82:	3304      	adds	r3, #4
  400b84:	781b      	ldrb	r3, [r3, #0]
  400b86:	021b      	lsls	r3, r3, #8
  400b88:	b21a      	sxth	r2, r3
  400b8a:	68bb      	ldr	r3, [r7, #8]
  400b8c:	3305      	adds	r3, #5
  400b8e:	781b      	ldrb	r3, [r3, #0]
  400b90:	b21b      	sxth	r3, r3
  400b92:	4313      	orrs	r3, r2
  400b94:	b21b      	sxth	r3, r3
  400b96:	833b      	strh	r3, [r7, #24]
  400b98:	8b3b      	ldrh	r3, [r7, #24]
  400b9a:	2b00      	cmp	r3, #0
  400b9c:	f000 8096 	beq.w	400ccc <ParseMbusPkt+0x420>
  400ba0:	8b3b      	ldrh	r3, [r7, #24]
  400ba2:	2b7d      	cmp	r3, #125	; 0x7d
  400ba4:	f200 8092 	bhi.w	400ccc <ParseMbusPkt+0x420>
  400ba8:	68bb      	ldr	r3, [r7, #8]
  400baa:	3302      	adds	r3, #2
  400bac:	781b      	ldrb	r3, [r3, #0]
  400bae:	021b      	lsls	r3, r3, #8
  400bb0:	b21a      	sxth	r2, r3
  400bb2:	68bb      	ldr	r3, [r7, #8]
  400bb4:	3303      	adds	r3, #3
  400bb6:	781b      	ldrb	r3, [r3, #0]
  400bb8:	b21b      	sxth	r3, r3
  400bba:	4313      	orrs	r3, r2
  400bbc:	b21b      	sxth	r3, r3
  400bbe:	837b      	strh	r3, [r7, #26]
  400bc0:	8b7a      	ldrh	r2, [r7, #26]
  400bc2:	8b3b      	ldrh	r3, [r7, #24]
  400bc4:	4413      	add	r3, r2
  400bc6:	2b24      	cmp	r3, #36	; 0x24
  400bc8:	dc76      	bgt.n	400cb8 <ParseMbusPkt+0x40c>
  400bca:	687b      	ldr	r3, [r7, #4]
  400bcc:	7bfa      	ldrb	r2, [r7, #15]
  400bce:	701a      	strb	r2, [r3, #0]
  400bd0:	687b      	ldr	r3, [r7, #4]
  400bd2:	3301      	adds	r3, #1
  400bd4:	2210      	movs	r2, #16
  400bd6:	701a      	strb	r2, [r3, #0]
  400bd8:	687b      	ldr	r3, [r7, #4]
  400bda:	3302      	adds	r3, #2
  400bdc:	68ba      	ldr	r2, [r7, #8]
  400bde:	7892      	ldrb	r2, [r2, #2]
  400be0:	701a      	strb	r2, [r3, #0]
  400be2:	687b      	ldr	r3, [r7, #4]
  400be4:	3303      	adds	r3, #3
  400be6:	68ba      	ldr	r2, [r7, #8]
  400be8:	78d2      	ldrb	r2, [r2, #3]
  400bea:	701a      	strb	r2, [r3, #0]
  400bec:	687b      	ldr	r3, [r7, #4]
  400bee:	3304      	adds	r3, #4
  400bf0:	68ba      	ldr	r2, [r7, #8]
  400bf2:	7912      	ldrb	r2, [r2, #4]
  400bf4:	701a      	strb	r2, [r3, #0]
  400bf6:	687b      	ldr	r3, [r7, #4]
  400bf8:	3305      	adds	r3, #5
  400bfa:	68ba      	ldr	r2, [r7, #8]
  400bfc:	7952      	ldrb	r2, [r2, #5]
  400bfe:	701a      	strb	r2, [r3, #0]
  400c00:	2106      	movs	r1, #6
  400c02:	6878      	ldr	r0, [r7, #4]
  400c04:	4b54      	ldr	r3, [pc, #336]	; (400d58 <ParseMbusPkt+0x4ac>)
  400c06:	4798      	blx	r3
  400c08:	4603      	mov	r3, r0
  400c0a:	83fb      	strh	r3, [r7, #30]
  400c0c:	687b      	ldr	r3, [r7, #4]
  400c0e:	3306      	adds	r3, #6
  400c10:	8bfa      	ldrh	r2, [r7, #30]
  400c12:	b2d2      	uxtb	r2, r2
  400c14:	701a      	strb	r2, [r3, #0]
  400c16:	687b      	ldr	r3, [r7, #4]
  400c18:	3307      	adds	r3, #7
  400c1a:	8bfa      	ldrh	r2, [r7, #30]
  400c1c:	0a12      	lsrs	r2, r2, #8
  400c1e:	b292      	uxth	r2, r2
  400c20:	b2d2      	uxtb	r2, r2
  400c22:	701a      	strb	r2, [r3, #0]
  400c24:	6b3b      	ldr	r3, [r7, #48]	; 0x30
  400c26:	2208      	movs	r2, #8
  400c28:	701a      	strb	r2, [r3, #0]
  400c2a:	68bb      	ldr	r3, [r7, #8]
  400c2c:	3306      	adds	r3, #6
  400c2e:	781b      	ldrb	r3, [r3, #0]
  400c30:	b29b      	uxth	r3, r3
  400c32:	3307      	adds	r3, #7
  400c34:	833b      	strh	r3, [r7, #24]
  400c36:	2300      	movs	r3, #0
  400c38:	f887 3021 	strb.w	r3, [r7, #33]	; 0x21
  400c3c:	2307      	movs	r3, #7
  400c3e:	f887 3022 	strb.w	r3, [r7, #34]	; 0x22
  400c42:	e02a      	b.n	400c9a <ParseMbusPkt+0x3ee>
  400c44:	f897 3022 	ldrb.w	r3, [r7, #34]	; 0x22
  400c48:	f003 0301 	and.w	r3, r3, #1
  400c4c:	b2db      	uxtb	r3, r3
  400c4e:	2b00      	cmp	r3, #0
  400c50:	d008      	beq.n	400c64 <ParseMbusPkt+0x3b8>
  400c52:	f897 3022 	ldrb.w	r3, [r7, #34]	; 0x22
  400c56:	68ba      	ldr	r2, [r7, #8]
  400c58:	4413      	add	r3, r2
  400c5a:	781b      	ldrb	r3, [r3, #0]
  400c5c:	b29b      	uxth	r3, r3
  400c5e:	021b      	lsls	r3, r3, #8
  400c60:	84fb      	strh	r3, [r7, #38]	; 0x26
  400c62:	e015      	b.n	400c90 <ParseMbusPkt+0x3e4>
  400c64:	f897 3022 	ldrb.w	r3, [r7, #34]	; 0x22
  400c68:	68ba      	ldr	r2, [r7, #8]
  400c6a:	4413      	add	r3, r2
  400c6c:	781b      	ldrb	r3, [r3, #0]
  400c6e:	b29a      	uxth	r2, r3
  400c70:	8cfb      	ldrh	r3, [r7, #38]	; 0x26
  400c72:	4313      	orrs	r3, r2
  400c74:	84fb      	strh	r3, [r7, #38]	; 0x26
  400c76:	8b7a      	ldrh	r2, [r7, #26]
  400c78:	f897 3021 	ldrb.w	r3, [r7, #33]	; 0x21
  400c7c:	4413      	add	r3, r2
  400c7e:	4937      	ldr	r1, [pc, #220]	; (400d5c <ParseMbusPkt+0x4b0>)
  400c80:	8cfa      	ldrh	r2, [r7, #38]	; 0x26
  400c82:	f821 2013 	strh.w	r2, [r1, r3, lsl #1]
  400c86:	f897 3021 	ldrb.w	r3, [r7, #33]	; 0x21
  400c8a:	3301      	adds	r3, #1
  400c8c:	f887 3021 	strb.w	r3, [r7, #33]	; 0x21
  400c90:	f897 3022 	ldrb.w	r3, [r7, #34]	; 0x22
  400c94:	3301      	adds	r3, #1
  400c96:	f887 3022 	strb.w	r3, [r7, #34]	; 0x22
  400c9a:	f897 3022 	ldrb.w	r3, [r7, #34]	; 0x22
  400c9e:	b29b      	uxth	r3, r3
  400ca0:	8b3a      	ldrh	r2, [r7, #24]
  400ca2:	429a      	cmp	r2, r3
  400ca4:	d8ce      	bhi.n	400c44 <ParseMbusPkt+0x398>
  400ca6:	4b2e      	ldr	r3, [pc, #184]	; (400d60 <ParseMbusPkt+0x4b4>)
  400ca8:	681b      	ldr	r3, [r3, #0]
  400caa:	8b7a      	ldrh	r2, [r7, #26]
  400cac:	b2d1      	uxtb	r1, r2
  400cae:	f897 2021 	ldrb.w	r2, [r7, #33]	; 0x21
  400cb2:	482a      	ldr	r0, [pc, #168]	; (400d5c <ParseMbusPkt+0x4b0>)
  400cb4:	4798      	blx	r3
  400cb6:	e013      	b.n	400ce0 <ParseMbusPkt+0x434>
  400cb8:	2301      	movs	r3, #1
  400cba:	f887 3025 	strb.w	r3, [r7, #37]	; 0x25
  400cbe:	2390      	movs	r3, #144	; 0x90
  400cc0:	f887 3024 	strb.w	r3, [r7, #36]	; 0x24
  400cc4:	2302      	movs	r3, #2
  400cc6:	f887 3023 	strb.w	r3, [r7, #35]	; 0x23
  400cca:	e009      	b.n	400ce0 <ParseMbusPkt+0x434>
  400ccc:	2301      	movs	r3, #1
  400cce:	f887 3025 	strb.w	r3, [r7, #37]	; 0x25
  400cd2:	2390      	movs	r3, #144	; 0x90
  400cd4:	f887 3024 	strb.w	r3, [r7, #36]	; 0x24
  400cd8:	2303      	movs	r3, #3
  400cda:	f887 3023 	strb.w	r3, [r7, #35]	; 0x23
  400cde:	e00d      	b.n	400cfc <ParseMbusPkt+0x450>
  400ce0:	e00c      	b.n	400cfc <ParseMbusPkt+0x450>
  400ce2:	7dfb      	ldrb	r3, [r7, #23]
  400ce4:	f063 037f 	orn	r3, r3, #127	; 0x7f
  400ce8:	f887 3024 	strb.w	r3, [r7, #36]	; 0x24
  400cec:	2301      	movs	r3, #1
  400cee:	f887 3023 	strb.w	r3, [r7, #35]	; 0x23
  400cf2:	2301      	movs	r3, #1
  400cf4:	f887 3025 	strb.w	r3, [r7, #37]	; 0x25
  400cf8:	e000      	b.n	400cfc <ParseMbusPkt+0x450>
  400cfa:	bf00      	nop
  400cfc:	e002      	b.n	400d04 <ParseMbusPkt+0x458>
  400cfe:	6b3b      	ldr	r3, [r7, #48]	; 0x30
  400d00:	2200      	movs	r2, #0
  400d02:	701a      	strb	r2, [r3, #0]
  400d04:	f897 3025 	ldrb.w	r3, [r7, #37]	; 0x25
  400d08:	2b00      	cmp	r3, #0
  400d0a:	d021      	beq.n	400d50 <ParseMbusPkt+0x4a4>
  400d0c:	687b      	ldr	r3, [r7, #4]
  400d0e:	7bfa      	ldrb	r2, [r7, #15]
  400d10:	701a      	strb	r2, [r3, #0]
  400d12:	687b      	ldr	r3, [r7, #4]
  400d14:	3301      	adds	r3, #1
  400d16:	f897 2024 	ldrb.w	r2, [r7, #36]	; 0x24
  400d1a:	701a      	strb	r2, [r3, #0]
  400d1c:	687b      	ldr	r3, [r7, #4]
  400d1e:	3302      	adds	r3, #2
  400d20:	f897 2023 	ldrb.w	r2, [r7, #35]	; 0x23
  400d24:	701a      	strb	r2, [r3, #0]
  400d26:	2103      	movs	r1, #3
  400d28:	6878      	ldr	r0, [r7, #4]
  400d2a:	4b0b      	ldr	r3, [pc, #44]	; (400d58 <ParseMbusPkt+0x4ac>)
  400d2c:	4798      	blx	r3
  400d2e:	4603      	mov	r3, r0
  400d30:	83fb      	strh	r3, [r7, #30]
  400d32:	687b      	ldr	r3, [r7, #4]
  400d34:	3303      	adds	r3, #3
  400d36:	8bfa      	ldrh	r2, [r7, #30]
  400d38:	b2d2      	uxtb	r2, r2
  400d3a:	701a      	strb	r2, [r3, #0]
  400d3c:	687b      	ldr	r3, [r7, #4]
  400d3e:	3304      	adds	r3, #4
  400d40:	8bfa      	ldrh	r2, [r7, #30]
  400d42:	0a12      	lsrs	r2, r2, #8
  400d44:	b292      	uxth	r2, r2
  400d46:	b2d2      	uxtb	r2, r2
  400d48:	701a      	strb	r2, [r3, #0]
  400d4a:	6b3b      	ldr	r3, [r7, #48]	; 0x30
  400d4c:	2205      	movs	r2, #5
  400d4e:	701a      	strb	r2, [r3, #0]
  400d50:	bf00      	nop
  400d52:	3728      	adds	r7, #40	; 0x28
  400d54:	46bd      	mov	sp, r7
  400d56:	bd80      	pop	{r7, pc}
  400d58:	00400d65 	.word	0x00400d65
  400d5c:	2000077c 	.word	0x2000077c
  400d60:	20002a04 	.word	0x20002a04

00400d64 <calcCRC>:
  400d64:	b480      	push	{r7}
  400d66:	b085      	sub	sp, #20
  400d68:	af00      	add	r7, sp, #0
  400d6a:	6078      	str	r0, [r7, #4]
  400d6c:	460b      	mov	r3, r1
  400d6e:	70fb      	strb	r3, [r7, #3]
  400d70:	f64f 73ff 	movw	r3, #65535	; 0xffff
  400d74:	81fb      	strh	r3, [r7, #14]
  400d76:	2300      	movs	r3, #0
  400d78:	737b      	strb	r3, [r7, #13]
  400d7a:	2300      	movs	r3, #0
  400d7c:	733b      	strb	r3, [r7, #12]
  400d7e:	2300      	movs	r3, #0
  400d80:	737b      	strb	r3, [r7, #13]
  400d82:	e026      	b.n	400dd2 <calcCRC+0x6e>
  400d84:	7b7b      	ldrb	r3, [r7, #13]
  400d86:	687a      	ldr	r2, [r7, #4]
  400d88:	4413      	add	r3, r2
  400d8a:	781b      	ldrb	r3, [r3, #0]
  400d8c:	b29a      	uxth	r2, r3
  400d8e:	89fb      	ldrh	r3, [r7, #14]
  400d90:	4053      	eors	r3, r2
  400d92:	81fb      	strh	r3, [r7, #14]
  400d94:	2300      	movs	r3, #0
  400d96:	733b      	strb	r3, [r7, #12]
  400d98:	e015      	b.n	400dc6 <calcCRC+0x62>
  400d9a:	89fb      	ldrh	r3, [r7, #14]
  400d9c:	f003 0301 	and.w	r3, r3, #1
  400da0:	2b00      	cmp	r3, #0
  400da2:	d00a      	beq.n	400dba <calcCRC+0x56>
  400da4:	89fb      	ldrh	r3, [r7, #14]
  400da6:	085b      	lsrs	r3, r3, #1
  400da8:	81fb      	strh	r3, [r7, #14]
  400daa:	89fb      	ldrh	r3, [r7, #14]
  400dac:	f483 43bf 	eor.w	r3, r3, #24448	; 0x5f80
  400db0:	f083 037e 	eor.w	r3, r3, #126	; 0x7e
  400db4:	43db      	mvns	r3, r3
  400db6:	81fb      	strh	r3, [r7, #14]
  400db8:	e002      	b.n	400dc0 <calcCRC+0x5c>
  400dba:	89fb      	ldrh	r3, [r7, #14]
  400dbc:	085b      	lsrs	r3, r3, #1
  400dbe:	81fb      	strh	r3, [r7, #14]
  400dc0:	7b3b      	ldrb	r3, [r7, #12]
  400dc2:	3301      	adds	r3, #1
  400dc4:	733b      	strb	r3, [r7, #12]
  400dc6:	7b3b      	ldrb	r3, [r7, #12]
  400dc8:	2b07      	cmp	r3, #7
  400dca:	d9e6      	bls.n	400d9a <calcCRC+0x36>
  400dcc:	7b7b      	ldrb	r3, [r7, #13]
  400dce:	3301      	adds	r3, #1
  400dd0:	737b      	strb	r3, [r7, #13]
  400dd2:	7b7a      	ldrb	r2, [r7, #13]
  400dd4:	78fb      	ldrb	r3, [r7, #3]
  400dd6:	429a      	cmp	r2, r3
  400dd8:	d3d4      	bcc.n	400d84 <calcCRC+0x20>
  400dda:	89fb      	ldrh	r3, [r7, #14]
  400ddc:	4618      	mov	r0, r3
  400dde:	3714      	adds	r7, #20
  400de0:	46bd      	mov	sp, r7
  400de2:	bc80      	pop	{r7}
  400de4:	4770      	bx	lr
  400de6:	bf00      	nop

00400de8 <osc_get_rate>:

	return 0;
}

static inline uint32_t osc_get_rate(uint32_t ul_id)
{
  400de8:	b480      	push	{r7}
  400dea:	b083      	sub	sp, #12
  400dec:	af00      	add	r7, sp, #0
  400dee:	6078      	str	r0, [r7, #4]
	switch (ul_id) {
  400df0:	687b      	ldr	r3, [r7, #4]
  400df2:	2b07      	cmp	r3, #7
  400df4:	d825      	bhi.n	400e42 <osc_get_rate+0x5a>
  400df6:	a201      	add	r2, pc, #4	; (adr r2, 400dfc <osc_get_rate+0x14>)
  400df8:	f852 f023 	ldr.w	pc, [r2, r3, lsl #2]
  400dfc:	00400e1d 	.word	0x00400e1d
  400e00:	00400e23 	.word	0x00400e23
  400e04:	00400e29 	.word	0x00400e29
  400e08:	00400e2f 	.word	0x00400e2f
  400e0c:	00400e33 	.word	0x00400e33
  400e10:	00400e37 	.word	0x00400e37
  400e14:	00400e3b 	.word	0x00400e3b
  400e18:	00400e3f 	.word	0x00400e3f
	case OSC_SLCK_32K_RC:
		return OSC_SLCK_32K_RC_HZ;
  400e1c:	f44f 43fa 	mov.w	r3, #32000	; 0x7d00
  400e20:	e010      	b.n	400e44 <osc_get_rate+0x5c>

	case OSC_SLCK_32K_XTAL:
		return BOARD_FREQ_SLCK_XTAL;
  400e22:	f44f 4300 	mov.w	r3, #32768	; 0x8000
  400e26:	e00d      	b.n	400e44 <osc_get_rate+0x5c>

	case OSC_SLCK_32K_BYPASS:
		return BOARD_FREQ_SLCK_BYPASS;
  400e28:	f44f 4300 	mov.w	r3, #32768	; 0x8000
  400e2c:	e00a      	b.n	400e44 <osc_get_rate+0x5c>

	case OSC_MAINCK_4M_RC:
		return OSC_MAINCK_4M_RC_HZ;
  400e2e:	4b08      	ldr	r3, [pc, #32]	; (400e50 <osc_get_rate+0x68>)
  400e30:	e008      	b.n	400e44 <osc_get_rate+0x5c>

	case OSC_MAINCK_8M_RC:
		return OSC_MAINCK_8M_RC_HZ;
  400e32:	4b08      	ldr	r3, [pc, #32]	; (400e54 <osc_get_rate+0x6c>)
  400e34:	e006      	b.n	400e44 <osc_get_rate+0x5c>

	case OSC_MAINCK_12M_RC:
		return OSC_MAINCK_12M_RC_HZ;
  400e36:	4b08      	ldr	r3, [pc, #32]	; (400e58 <osc_get_rate+0x70>)
  400e38:	e004      	b.n	400e44 <osc_get_rate+0x5c>

	case OSC_MAINCK_XTAL:
		return BOARD_FREQ_MAINCK_XTAL;
  400e3a:	4b07      	ldr	r3, [pc, #28]	; (400e58 <osc_get_rate+0x70>)
  400e3c:	e002      	b.n	400e44 <osc_get_rate+0x5c>

	case OSC_MAINCK_BYPASS:
		return BOARD_FREQ_MAINCK_BYPASS;
  400e3e:	4b06      	ldr	r3, [pc, #24]	; (400e58 <osc_get_rate+0x70>)
  400e40:	e000      	b.n	400e44 <osc_get_rate+0x5c>
	}

	return 0;
  400e42:	2300      	movs	r3, #0
}
  400e44:	4618      	mov	r0, r3
  400e46:	370c      	adds	r7, #12
  400e48:	46bd      	mov	sp, r7
  400e4a:	bc80      	pop	{r7}
  400e4c:	4770      	bx	lr
  400e4e:	bf00      	nop
  400e50:	003d0900 	.word	0x003d0900
  400e54:	007a1200 	.word	0x007a1200
  400e58:	00b71b00 	.word	0x00b71b00

00400e5c <sysclk_get_main_hz>:
 */
#if (defined CONFIG_SYSCLK_DEFAULT_RETURNS_SLOW_OSC)
extern uint32_t sysclk_initialized;
#endif
static inline uint32_t sysclk_get_main_hz(void)
{
  400e5c:	b580      	push	{r7, lr}
  400e5e:	af00      	add	r7, sp, #0
	} else if (CONFIG_SYSCLK_SOURCE == SYSCLK_SRC_MAINCK_BYPASS) {
		return OSC_MAINCK_BYPASS_HZ;
	}
#ifdef CONFIG_PLL0_SOURCE
	else if (CONFIG_SYSCLK_SOURCE == SYSCLK_SRC_PLLACK) {
		return pll_get_default_rate(0);
  400e60:	2006      	movs	r0, #6
  400e62:	4b04      	ldr	r3, [pc, #16]	; (400e74 <sysclk_get_main_hz+0x18>)
  400e64:	4798      	blx	r3
  400e66:	4602      	mov	r2, r0
  400e68:	4613      	mov	r3, r2
  400e6a:	009b      	lsls	r3, r3, #2
  400e6c:	4413      	add	r3, r2
  400e6e:	009b      	lsls	r3, r3, #2

	else {
		/* unhandled_case(CONFIG_SYSCLK_SOURCE); */
		return 0;
	}
}
  400e70:	4618      	mov	r0, r3
  400e72:	bd80      	pop	{r7, pc}
  400e74:	00400de9 	.word	0x00400de9

00400e78 <sysclk_get_cpu_hz>:
 * clocks.
 *
 * \return Frequency of the CPU clock, in Hz.
 */
static inline uint32_t sysclk_get_cpu_hz(void)
{
  400e78:	b580      	push	{r7, lr}
  400e7a:	af00      	add	r7, sp, #0
	/* CONFIG_SYSCLK_PRES is the register value for setting the expected */
	/* prescaler, not an immediate value. */
	return sysclk_get_main_hz() /
  400e7c:	4b02      	ldr	r3, [pc, #8]	; (400e88 <sysclk_get_cpu_hz+0x10>)
  400e7e:	4798      	blx	r3
  400e80:	4603      	mov	r3, r0
  400e82:	085b      	lsrs	r3, r3, #1
		((CONFIG_SYSCLK_PRES == SYSCLK_PRES_3) ? 3 :
			(1 << (CONFIG_SYSCLK_PRES >> PMC_MCKR_PRES_Pos)));
}
  400e84:	4618      	mov	r0, r3
  400e86:	bd80      	pop	{r7, pc}
  400e88:	00400e5d 	.word	0x00400e5d

00400e8c <sysclk_get_peripheral_hz>:
 * \brief Retrieves the current rate in Hz of the peripheral clocks.
 *
 * \return Frequency of the peripheral clocks, in Hz.
 */
static inline uint32_t sysclk_get_peripheral_hz(void)
{
  400e8c:	b580      	push	{r7, lr}
  400e8e:	af00      	add	r7, sp, #0
	/* CONFIG_SYSCLK_PRES is the register value for setting the expected */
	/* prescaler, not an immediate value. */
	return sysclk_get_main_hz() /
  400e90:	4b02      	ldr	r3, [pc, #8]	; (400e9c <sysclk_get_peripheral_hz+0x10>)
  400e92:	4798      	blx	r3
  400e94:	4603      	mov	r3, r0
  400e96:	085b      	lsrs	r3, r3, #1
		((CONFIG_SYSCLK_PRES == SYSCLK_PRES_3) ? 3 :
			(1 << (CONFIG_SYSCLK_PRES >> PMC_MCKR_PRES_Pos)));
}
  400e98:	4618      	mov	r0, r3
  400e9a:	bd80      	pop	{r7, pc}
  400e9c:	00400e5d 	.word	0x00400e5d

00400ea0 <sysclk_enable_peripheral_clock>:
 * \brief Enable a peripheral's clock.
 *
 * \param ul_id Id (number) of the peripheral clock.
 */
static inline void sysclk_enable_peripheral_clock(uint32_t ul_id)
{
  400ea0:	b580      	push	{r7, lr}
  400ea2:	b082      	sub	sp, #8
  400ea4:	af00      	add	r7, sp, #0
  400ea6:	6078      	str	r0, [r7, #4]
	pmc_enable_periph_clk(ul_id);
  400ea8:	6878      	ldr	r0, [r7, #4]
  400eaa:	4b03      	ldr	r3, [pc, #12]	; (400eb8 <sysclk_enable_peripheral_clock+0x18>)
  400eac:	4798      	blx	r3
}
  400eae:	bf00      	nop
  400eb0:	3708      	adds	r7, #8
  400eb2:	46bd      	mov	sp, r7
  400eb4:	bd80      	pop	{r7, pc}
  400eb6:	bf00      	nop
  400eb8:	00404631 	.word	0x00404631

00400ebc <RTCIntHandler>:

static void InitTWI(void);

/* RTC 1 Min ISR */
void RTCIntHandler(uint32_t ul_id, uint32_t ul_mask)
{
  400ebc:	b480      	push	{r7}
  400ebe:	b083      	sub	sp, #12
  400ec0:	af00      	add	r7, sp, #0
  400ec2:	6078      	str	r0, [r7, #4]
  400ec4:	6039      	str	r1, [r7, #0]
    if (PIN_RTC_INT_PIO_ID != ul_id || PIN_RTC_INT_MASK != ul_mask)
  400ec6:	687b      	ldr	r3, [r7, #4]
  400ec8:	2b0b      	cmp	r3, #11
  400eca:	d111      	bne.n	400ef0 <RTCIntHandler+0x34>
  400ecc:	683b      	ldr	r3, [r7, #0]
  400ece:	2b01      	cmp	r3, #1
  400ed0:	d10e      	bne.n	400ef0 <RTCIntHandler+0x34>
		return;
	
    /* If Auto Mode */
    if(!mBusRegs[MBUS_REG_OPMODE])
  400ed2:	4b0a      	ldr	r3, [pc, #40]	; (400efc <RTCIntHandler+0x40>)
  400ed4:	8e1b      	ldrh	r3, [r3, #48]	; 0x30
  400ed6:	2b00      	cmp	r3, #0
  400ed8:	d10b      	bne.n	400ef2 <RTCIntHandler+0x36>
    {
        /* Increment Time Var */
        if(minCtr < TRACKING_INTERVAL)
  400eda:	4b09      	ldr	r3, [pc, #36]	; (400f00 <RTCIntHandler+0x44>)
  400edc:	781b      	ldrb	r3, [r3, #0]
  400ede:	2b02      	cmp	r3, #2
  400ee0:	d807      	bhi.n	400ef2 <RTCIntHandler+0x36>
            minCtr++;
  400ee2:	4b07      	ldr	r3, [pc, #28]	; (400f00 <RTCIntHandler+0x44>)
  400ee4:	781b      	ldrb	r3, [r3, #0]
  400ee6:	3301      	adds	r3, #1
  400ee8:	b2da      	uxtb	r2, r3
  400eea:	4b05      	ldr	r3, [pc, #20]	; (400f00 <RTCIntHandler+0x44>)
  400eec:	701a      	strb	r2, [r3, #0]
  400eee:	e000      	b.n	400ef2 <RTCIntHandler+0x36>

/* RTC 1 Min ISR */
void RTCIntHandler(uint32_t ul_id, uint32_t ul_mask)
{
    if (PIN_RTC_INT_PIO_ID != ul_id || PIN_RTC_INT_MASK != ul_mask)
		return;
  400ef0:	bf00      	nop
    {
        /* Increment Time Var */
        if(minCtr < TRACKING_INTERVAL)
            minCtr++;
    }
}
  400ef2:	370c      	adds	r7, #12
  400ef4:	46bd      	mov	sp, r7
  400ef6:	bc80      	pop	{r7}
  400ef8:	4770      	bx	lr
  400efa:	bf00      	nop
  400efc:	2000077c 	.word	0x2000077c
  400f00:	200007c5 	.word	0x200007c5

00400f04 <vPvTrackerTask>:

void vPvTrackerTask(void *pvParameters)
{
  400f04:	b580      	push	{r7, lr}
  400f06:	b084      	sub	sp, #16
  400f08:	af00      	add	r7, sp, #0
  400f0a:	6078      	str	r0, [r7, #4]
    uint8_t status = 0;
  400f0c:	2300      	movs	r3, #0
  400f0e:	73fb      	strb	r3, [r7, #15]
    #endif
	
	/* These Init routines are shifted here because they should only be called after the scheduler has started */
	/* Init Accelerometer */
	#ifndef ICM20648_USE_RTOS_API
		ICMInitialize(BOARD_TWI, ICM_ADDR);
  400f10:	2169      	movs	r1, #105	; 0x69
  400f12:	4816      	ldr	r0, [pc, #88]	; (400f6c <vPvTrackerTask+0x68>)
  400f14:	4b16      	ldr	r3, [pc, #88]	; (400f70 <vPvTrackerTask+0x6c>)
  400f16:	4798      	blx	r3
		ICMInitializeTo(twiPort, ICM_ADDR, 50);
	#endif

	/* Init RTC 1 min Alarm */
	#ifndef DS3231_USE_RTOS_API
		DSEnAL2(BOARD_TWI, 1);
  400f18:	2101      	movs	r1, #1
  400f1a:	4814      	ldr	r0, [pc, #80]	; (400f6c <vPvTrackerTask+0x68>)
  400f1c:	4b15      	ldr	r3, [pc, #84]	; (400f74 <vPvTrackerTask+0x70>)
  400f1e:	4798      	blx	r3

	while(1)
    {
        /* Clear RTC interrupt flag */
		#ifndef DS3231_USE_RTOS_API
			DSReadByte(BOARD_TWI, DS_REG_STAT,&status);
  400f20:	f107 030f 	add.w	r3, r7, #15
  400f24:	461a      	mov	r2, r3
  400f26:	210f      	movs	r1, #15
  400f28:	4810      	ldr	r0, [pc, #64]	; (400f6c <vPvTrackerTask+0x68>)
  400f2a:	4b13      	ldr	r3, [pc, #76]	; (400f78 <vPvTrackerTask+0x74>)
  400f2c:	4798      	blx	r3
		#else
			DSReadByteTo(twiPort, DS_REG_STAT,&status,50);
		#endif
        if(status&0x02)
  400f2e:	7bfb      	ldrb	r3, [r7, #15]
  400f30:	f003 0302 	and.w	r3, r3, #2
  400f34:	2b00      	cmp	r3, #0
  400f36:	d004      	beq.n	400f42 <vPvTrackerTask+0x3e>
        {
            /* Clear Status Reg */
			#ifndef DS3231_USE_RTOS_API
				DSWriteByte(BOARD_TWI, DS_REG_STAT, 0x00);
  400f38:	2200      	movs	r2, #0
  400f3a:	210f      	movs	r1, #15
  400f3c:	480b      	ldr	r0, [pc, #44]	; (400f6c <vPvTrackerTask+0x68>)
  400f3e:	4b0f      	ldr	r3, [pc, #60]	; (400f7c <vPvTrackerTask+0x78>)
  400f40:	4798      	blx	r3
				DSWriteByteTo(twiPort, DS_REG_STAT, 0x00, 50);
			#endif
        }
        
        /* In Tracking / Auto Mode */
        if(!mBusRegs[MBUS_REG_OPMODE])
  400f42:	4b0f      	ldr	r3, [pc, #60]	; (400f80 <vPvTrackerTask+0x7c>)
  400f44:	8e1b      	ldrh	r3, [r3, #48]	; 0x30
  400f46:	2b00      	cmp	r3, #0
  400f48:	d109      	bne.n	400f5e <vPvTrackerTask+0x5a>
        {
            /* If Tracking Time Expired */
            if(minCtr >= TRACKING_INTERVAL)
  400f4a:	4b0e      	ldr	r3, [pc, #56]	; (400f84 <vPvTrackerTask+0x80>)
  400f4c:	781b      	ldrb	r3, [r3, #0]
  400f4e:	2b02      	cmp	r3, #2
  400f50:	d907      	bls.n	400f62 <vPvTrackerTask+0x5e>
            {
                PVTrack();
  400f52:	4b0d      	ldr	r3, [pc, #52]	; (400f88 <vPvTrackerTask+0x84>)
  400f54:	4798      	blx	r3
                minCtr = 0;
  400f56:	4b0b      	ldr	r3, [pc, #44]	; (400f84 <vPvTrackerTask+0x80>)
  400f58:	2200      	movs	r2, #0
  400f5a:	701a      	strb	r2, [r3, #0]
  400f5c:	e001      	b.n	400f62 <vPvTrackerTask+0x5e>
            /* LED1 Heart Beat Status (No Block) */
        }
        else
        {
            /* In Manual Mode */
            TestCode();
  400f5e:	4b0b      	ldr	r3, [pc, #44]	; (400f8c <vPvTrackerTask+0x88>)
  400f60:	4798      	blx	r3
        }
        //vTaskDelay(pdMS_TO_TICKS(1000));
		vTaskDelay(1000);
  400f62:	f44f 707a 	mov.w	r0, #1000	; 0x3e8
  400f66:	4b0a      	ldr	r3, [pc, #40]	; (400f90 <vPvTrackerTask+0x8c>)
  400f68:	4798      	blx	r3
    }
  400f6a:	e7d9      	b.n	400f20 <vPvTrackerTask+0x1c>
  400f6c:	40018000 	.word	0x40018000
  400f70:	00400749 	.word	0x00400749
  400f74:	00400661 	.word	0x00400661
  400f78:	0040070d 	.word	0x0040070d
  400f7c:	004006d1 	.word	0x004006d1
  400f80:	2000077c 	.word	0x2000077c
  400f84:	200007c5 	.word	0x200007c5
  400f88:	00400ff5 	.word	0x00400ff5
  400f8c:	004013ad 	.word	0x004013ad
  400f90:	004059dd 	.word	0x004059dd

00400f94 <vPvTrackerInit>:
}

void vPvTrackerInit(void)
{
  400f94:	b580      	push	{r7, lr}
  400f96:	af00      	add	r7, sp, #0
    /* Initialize all peripherals */
    /* Initialize TWI Port */
    //InitTwiRTOS();
	InitTWI();
  400f98:	4b01      	ldr	r3, [pc, #4]	; (400fa0 <vPvTrackerInit+0xc>)
  400f9a:	4798      	blx	r3
	/* Initialize Variables from EEPROM */
    //InitVars();
    
    /* Init Motor Controller */
	
}
  400f9c:	bf00      	nop
  400f9e:	bd80      	pop	{r7, pc}
  400fa0:	00400fa5 	.word	0x00400fa5

00400fa4 <InitTWI>:
    pvAngleRng = 43;*/
    
}

static void InitTWI(void)
{
  400fa4:	b580      	push	{r7, lr}
  400fa6:	b084      	sub	sp, #16
  400fa8:	af00      	add	r7, sp, #0
	twi_options_t twiSettings = {
		sysclk_get_peripheral_hz(),
  400faa:	4b0c      	ldr	r3, [pc, #48]	; (400fdc <InitTWI+0x38>)
  400fac:	4798      	blx	r3
  400fae:	4603      	mov	r3, r0
    
}

static void InitTWI(void)
{
	twi_options_t twiSettings = {
  400fb0:	607b      	str	r3, [r7, #4]
  400fb2:	4b0b      	ldr	r3, [pc, #44]	; (400fe0 <InitTWI+0x3c>)
  400fb4:	60bb      	str	r3, [r7, #8]
  400fb6:	2300      	movs	r3, #0
  400fb8:	733b      	strb	r3, [r7, #12]
  400fba:	2300      	movs	r3, #0
  400fbc:	737b      	strb	r3, [r7, #13]
		100000,
		0,
		0
	};
	/* Enable the peripheral clock in the PMC. */
	sysclk_enable_peripheral_clock(BOARD_TWI_ID);
  400fbe:	2013      	movs	r0, #19
  400fc0:	4b08      	ldr	r3, [pc, #32]	; (400fe4 <InitTWI+0x40>)
  400fc2:	4798      	blx	r3

	/* Enable TWI master mode */
	twi_enable_master_mode(BOARD_TWI);
  400fc4:	4808      	ldr	r0, [pc, #32]	; (400fe8 <InitTWI+0x44>)
  400fc6:	4b09      	ldr	r3, [pc, #36]	; (400fec <InitTWI+0x48>)
  400fc8:	4798      	blx	r3

	/* Initialize TWI peripheral */
	twi_master_init(BOARD_TWI, &twiSettings);
  400fca:	1d3b      	adds	r3, r7, #4
  400fcc:	4619      	mov	r1, r3
  400fce:	4806      	ldr	r0, [pc, #24]	; (400fe8 <InitTWI+0x44>)
  400fd0:	4b07      	ldr	r3, [pc, #28]	; (400ff0 <InitTWI+0x4c>)
  400fd2:	4798      	blx	r3
}
  400fd4:	bf00      	nop
  400fd6:	3710      	adds	r7, #16
  400fd8:	46bd      	mov	sp, r7
  400fda:	bd80      	pop	{r7, pc}
  400fdc:	00400e8d 	.word	0x00400e8d
  400fe0:	000186a0 	.word	0x000186a0
  400fe4:	00400ea1 	.word	0x00400ea1
  400fe8:	40018000 	.word	0x40018000
  400fec:	00402e41 	.word	0x00402e41
  400ff0:	00402e65 	.word	0x00402e65

00400ff4 <PVTrack>:
	//InitTWI();
	twiPort = freertos_twi_master_init(BOARD_TWI, &settings);
}

void PVTrack(void)
{
  400ff4:	b580      	push	{r7, lr}
  400ff6:	b084      	sub	sp, #16
  400ff8:	af00      	add	r7, sp, #0
//     while(ccStatus)
//     {
//         vTaskDelay(pdMS_TO_TICKS(10));
//     }
    
    taskENTER_CRITICAL();
  400ffa:	4b42      	ldr	r3, [pc, #264]	; (401104 <PVTrack+0x110>)
  400ffc:	4798      	blx	r3
    
    /* Read RTC */
	#ifndef DS3231_USE_RTOS_API
		DSGetTime(BOARD_TWI, (uint16_t *)&mBusRegs[MBUS_REG_SEC]);
  400ffe:	4942      	ldr	r1, [pc, #264]	; (401108 <PVTrack+0x114>)
  401000:	4842      	ldr	r0, [pc, #264]	; (40110c <PVTrack+0x118>)
  401002:	4b43      	ldr	r3, [pc, #268]	; (401110 <PVTrack+0x11c>)
  401004:	4798      	blx	r3
		DSGetFullDate(BOARD_TWI, (uint16_t *)&mBusRegs[MBUS_REG_DAY]);
  401006:	4943      	ldr	r1, [pc, #268]	; (401114 <PVTrack+0x120>)
  401008:	4840      	ldr	r0, [pc, #256]	; (40110c <PVTrack+0x118>)
  40100a:	4b43      	ldr	r3, [pc, #268]	; (401118 <PVTrack+0x124>)
  40100c:	4798      	blx	r3
		DSGetTimeTo(twiPort, (uint16_t *)&mBusRegs[MBUS_REG_SEC], 50);
		DSGetFullDateTo(twiPort, (uint16_t *)&mBusRegs[MBUS_REG_DAY], 50);
	#endif
    
    /* Clacluate PV Angle from time */
    pvAngle = GetPvAngle();
  40100e:	4b43      	ldr	r3, [pc, #268]	; (40111c <PVTrack+0x128>)
  401010:	4798      	blx	r3
  401012:	4603      	mov	r3, r0
  401014:	607b      	str	r3, [r7, #4]
    ptr = (uint16_t*)&pvAngle;
  401016:	1d3b      	adds	r3, r7, #4
  401018:	60fb      	str	r3, [r7, #12]
    mBusRegs[MBUS_REG_PVANGLEH] = ptr[1];
  40101a:	68fb      	ldr	r3, [r7, #12]
  40101c:	885a      	ldrh	r2, [r3, #2]
  40101e:	4b3a      	ldr	r3, [pc, #232]	; (401108 <PVTrack+0x114>)
  401020:	845a      	strh	r2, [r3, #34]	; 0x22
    mBusRegs[MBUS_REG_PVANGLEL] = ptr[0];
  401022:	68fb      	ldr	r3, [r7, #12]
  401024:	881a      	ldrh	r2, [r3, #0]
  401026:	4b38      	ldr	r3, [pc, #224]	; (401108 <PVTrack+0x114>)
  401028:	841a      	strh	r2, [r3, #32]
        PrintFlt(pvAngle);
        Debug_PutString(",");
    #endif
    
    /* If not backtracking */
    if(!bkTrkFlg)
  40102a:	4b3d      	ldr	r3, [pc, #244]	; (401120 <PVTrack+0x12c>)
  40102c:	781b      	ldrb	r3, [r3, #0]
  40102e:	2b00      	cmp	r3, #0
  401030:	d11c      	bne.n	40106c <PVTrack+0x78>
    {
        #ifdef LOG_EN
            Debug_PutString("NA\r\n");
        #endif
        /* If Angle between +/- pvAngleRng deg */
        if(pvAngle>= -pvAngleRng && pvAngle <= pvAngleRng)
  401032:	4b3c      	ldr	r3, [pc, #240]	; (401124 <PVTrack+0x130>)
  401034:	681b      	ldr	r3, [r3, #0]
  401036:	f083 4200 	eor.w	r2, r3, #2147483648	; 0x80000000
  40103a:	6879      	ldr	r1, [r7, #4]
  40103c:	4b3a      	ldr	r3, [pc, #232]	; (401128 <PVTrack+0x134>)
  40103e:	4610      	mov	r0, r2
  401040:	4798      	blx	r3
  401042:	4603      	mov	r3, r0
  401044:	2b00      	cmp	r3, #0
  401046:	d00d      	beq.n	401064 <PVTrack+0x70>
  401048:	687a      	ldr	r2, [r7, #4]
  40104a:	4b36      	ldr	r3, [pc, #216]	; (401124 <PVTrack+0x130>)
  40104c:	6819      	ldr	r1, [r3, #0]
  40104e:	4b36      	ldr	r3, [pc, #216]	; (401128 <PVTrack+0x134>)
  401050:	4610      	mov	r0, r2
  401052:	4798      	blx	r3
  401054:	4603      	mov	r3, r0
  401056:	2b00      	cmp	r3, #0
  401058:	d004      	beq.n	401064 <PVTrack+0x70>
        {
            /* Rotate Motor */
            #ifndef LOG_EN
                GotoAngle(pvAngle);
  40105a:	687b      	ldr	r3, [r7, #4]
  40105c:	4618      	mov	r0, r3
  40105e:	4b33      	ldr	r3, [pc, #204]	; (40112c <PVTrack+0x138>)
  401060:	4798      	blx	r3
  401062:	e046      	b.n	4010f2 <PVTrack+0xfe>
            #endif
        }
        else
        {
            bkTrkFlg = 1;
  401064:	4b2e      	ldr	r3, [pc, #184]	; (401120 <PVTrack+0x12c>)
  401066:	2201      	movs	r2, #1
  401068:	701a      	strb	r2, [r3, #0]
  40106a:	e042      	b.n	4010f2 <PVTrack+0xfe>
        }
    }
    else
    {
        if(pvAngle>= -90 && pvAngle <= 90)
  40106c:	687a      	ldr	r2, [r7, #4]
  40106e:	4b30      	ldr	r3, [pc, #192]	; (401130 <PVTrack+0x13c>)
  401070:	4930      	ldr	r1, [pc, #192]	; (401134 <PVTrack+0x140>)
  401072:	4610      	mov	r0, r2
  401074:	4798      	blx	r3
  401076:	4603      	mov	r3, r0
  401078:	2b00      	cmp	r3, #0
  40107a:	d023      	beq.n	4010c4 <PVTrack+0xd0>
  40107c:	687a      	ldr	r2, [r7, #4]
  40107e:	4b2a      	ldr	r3, [pc, #168]	; (401128 <PVTrack+0x134>)
  401080:	492d      	ldr	r1, [pc, #180]	; (401138 <PVTrack+0x144>)
  401082:	4610      	mov	r0, r2
  401084:	4798      	blx	r3
  401086:	4603      	mov	r3, r0
  401088:	2b00      	cmp	r3, #0
  40108a:	d01b      	beq.n	4010c4 <PVTrack+0xd0>
        {
            bkTrkAngle = GetPvBackTrackAngle(pvAngle);
  40108c:	687b      	ldr	r3, [r7, #4]
  40108e:	4618      	mov	r0, r3
  401090:	4b2a      	ldr	r3, [pc, #168]	; (40113c <PVTrack+0x148>)
  401092:	4798      	blx	r3
  401094:	60b8      	str	r0, [r7, #8]
            
            /* If bkTrkAngle is within +/- given range */ 
            if(bkTrkAngle>= -pvAngleRng && bkTrkAngle <= pvAngleRng)
  401096:	4b23      	ldr	r3, [pc, #140]	; (401124 <PVTrack+0x130>)
  401098:	681b      	ldr	r3, [r3, #0]
  40109a:	f083 4200 	eor.w	r2, r3, #2147483648	; 0x80000000
  40109e:	4b22      	ldr	r3, [pc, #136]	; (401128 <PVTrack+0x134>)
  4010a0:	68b9      	ldr	r1, [r7, #8]
  4010a2:	4610      	mov	r0, r2
  4010a4:	4798      	blx	r3
  4010a6:	4603      	mov	r3, r0
  4010a8:	2b00      	cmp	r3, #0
  4010aa:	d00b      	beq.n	4010c4 <PVTrack+0xd0>
  4010ac:	4b1d      	ldr	r3, [pc, #116]	; (401124 <PVTrack+0x130>)
  4010ae:	681a      	ldr	r2, [r3, #0]
  4010b0:	4b1d      	ldr	r3, [pc, #116]	; (401128 <PVTrack+0x134>)
  4010b2:	4611      	mov	r1, r2
  4010b4:	68b8      	ldr	r0, [r7, #8]
  4010b6:	4798      	blx	r3
  4010b8:	4603      	mov	r3, r0
  4010ba:	2b00      	cmp	r3, #0
  4010bc:	d002      	beq.n	4010c4 <PVTrack+0xd0>
                    Debug_PutString("\r\n");
                #endif
                
                /* Rotate Motor */
                #ifndef LOG_EN
                    GotoAngle(bkTrkAngle);
  4010be:	68b8      	ldr	r0, [r7, #8]
  4010c0:	4b1a      	ldr	r3, [pc, #104]	; (40112c <PVTrack+0x138>)
  4010c2:	4798      	blx	r3
            else
            {
                Debug_PutString("NA\r\n");
            }
        #endif
        if(pvAngle>= -pvAngleRng && pvAngle <= pvAngleRng)
  4010c4:	4b17      	ldr	r3, [pc, #92]	; (401124 <PVTrack+0x130>)
  4010c6:	681b      	ldr	r3, [r3, #0]
  4010c8:	f083 4200 	eor.w	r2, r3, #2147483648	; 0x80000000
  4010cc:	6879      	ldr	r1, [r7, #4]
  4010ce:	4b16      	ldr	r3, [pc, #88]	; (401128 <PVTrack+0x134>)
  4010d0:	4610      	mov	r0, r2
  4010d2:	4798      	blx	r3
  4010d4:	4603      	mov	r3, r0
  4010d6:	2b00      	cmp	r3, #0
  4010d8:	d00b      	beq.n	4010f2 <PVTrack+0xfe>
  4010da:	687a      	ldr	r2, [r7, #4]
  4010dc:	4b11      	ldr	r3, [pc, #68]	; (401124 <PVTrack+0x130>)
  4010de:	6819      	ldr	r1, [r3, #0]
  4010e0:	4b11      	ldr	r3, [pc, #68]	; (401128 <PVTrack+0x134>)
  4010e2:	4610      	mov	r0, r2
  4010e4:	4798      	blx	r3
  4010e6:	4603      	mov	r3, r0
  4010e8:	2b00      	cmp	r3, #0
  4010ea:	d002      	beq.n	4010f2 <PVTrack+0xfe>
        {
            bkTrkFlg = 0;
  4010ec:	4b0c      	ldr	r3, [pc, #48]	; (401120 <PVTrack+0x12c>)
  4010ee:	2200      	movs	r2, #0
  4010f0:	701a      	strb	r2, [r3, #0]
        }
    }
          
    /* Clear any required flags */
    minCtr = 0;
  4010f2:	4b13      	ldr	r3, [pc, #76]	; (401140 <PVTrack+0x14c>)
  4010f4:	2200      	movs	r2, #0
  4010f6:	701a      	strb	r2, [r3, #0]
    taskEXIT_CRITICAL();
  4010f8:	4b12      	ldr	r3, [pc, #72]	; (401144 <PVTrack+0x150>)
  4010fa:	4798      	blx	r3
    
    /* Enable Charge Ctrlr */
    //ccEn = 1;
} 
  4010fc:	bf00      	nop
  4010fe:	3710      	adds	r7, #16
  401100:	46bd      	mov	sp, r7
  401102:	bd80      	pop	{r7, pc}
  401104:	00404ca5 	.word	0x00404ca5
  401108:	2000077c 	.word	0x2000077c
  40110c:	40018000 	.word	0x40018000
  401110:	004004b1 	.word	0x004004b1
  401114:	20000782 	.word	0x20000782
  401118:	00400571 	.word	0x00400571
  40111c:	00401609 	.word	0x00401609
  401120:	200007c4 	.word	0x200007c4
  401124:	20000110 	.word	0x20000110
  401128:	0040a9a1 	.word	0x0040a9a1
  40112c:	00401149 	.word	0x00401149
  401130:	0040a9b5 	.word	0x0040a9b5
  401134:	c2b40000 	.word	0xc2b40000
  401138:	42b40000 	.word	0x42b40000
  40113c:	0040232d 	.word	0x0040232d
  401140:	200007c5 	.word	0x200007c5
  401144:	00404cc5 	.word	0x00404cc5

00401148 <GotoAngle>:

void GotoAngle(float pvAngle)
{
  401148:	e92d 4bf0 	stmdb	sp!, {r4, r5, r6, r7, r8, r9, fp, lr}
  40114c:	b08c      	sub	sp, #48	; 0x30
  40114e:	af00      	add	r7, sp, #0
  401150:	6078      	str	r0, [r7, #4]
    uint16_t *ptr;
    int16_t accVals[3] = {};
  401152:	f107 0314 	add.w	r3, r7, #20
  401156:	2200      	movs	r2, #0
  401158:	601a      	str	r2, [r3, #0]
  40115a:	809a      	strh	r2, [r3, #4]
    float oriVals[3], error = 0;
  40115c:	f04f 0300 	mov.w	r3, #0
  401160:	62fb      	str	r3, [r7, #44]	; 0x2c
    uint8_t p = 0;
  401162:	2300      	movs	r3, #0
  401164:	f887 302b 	strb.w	r3, [r7, #43]	; 0x2b
    float oriX, prevOri = 0;
  401168:	f04f 0300 	mov.w	r3, #0
  40116c:	623b      	str	r3, [r7, #32]
    
	#ifndef ICM20648_USE_RTOS_API
		ICMReadAccDataAll(BOARD_TWI, ICM_ADDR,(uint16_t*)accVals);
  40116e:	f107 0314 	add.w	r3, r7, #20
  401172:	461a      	mov	r2, r3
  401174:	2169      	movs	r1, #105	; 0x69
  401176:	487c      	ldr	r0, [pc, #496]	; (401368 <GotoAngle+0x220>)
  401178:	4b7c      	ldr	r3, [pc, #496]	; (40136c <GotoAngle+0x224>)
  40117a:	4798      	blx	r3
	#else
		ICMReadAccDataAllTo(twiPort, ICM_ADDR,(uint16_t*)accVals, 50);
	#endif

    GetOrientation(accVals, oriVals);
  40117c:	f107 0208 	add.w	r2, r7, #8
  401180:	f107 0314 	add.w	r3, r7, #20
  401184:	4611      	mov	r1, r2
  401186:	4618      	mov	r0, r3
  401188:	4b79      	ldr	r3, [pc, #484]	; (401370 <GotoAngle+0x228>)
  40118a:	4798      	blx	r3
        Debug_PutString("Init X = ");
        PrintFlt(oriVals[0]);
        Debug_PutString("\r\n");
    #endif
    
    error = pvAngle - oriVals[0];
  40118c:	68ba      	ldr	r2, [r7, #8]
  40118e:	4b79      	ldr	r3, [pc, #484]	; (401374 <GotoAngle+0x22c>)
  401190:	4611      	mov	r1, r2
  401192:	6878      	ldr	r0, [r7, #4]
  401194:	4798      	blx	r3
  401196:	4603      	mov	r3, r0
  401198:	62fb      	str	r3, [r7, #44]	; 0x2c
    #ifdef DEBUG_EN
        Debug_PutString("Error = ");
        PrintFlt(error);
        Debug_PutString("\r\n");
    #endif
    if(error > 0)
  40119a:	4b77      	ldr	r3, [pc, #476]	; (401378 <GotoAngle+0x230>)
  40119c:	f04f 0100 	mov.w	r1, #0
  4011a0:	6af8      	ldr	r0, [r7, #44]	; 0x2c
  4011a2:	4798      	blx	r3
  4011a4:	4603      	mov	r3, r0
  4011a6:	2b00      	cmp	r3, #0
  4011a8:	d006      	beq.n	4011b8 <GotoAngle+0x70>
    {
        //Set Anti Clockwise Direction
        #ifdef DEBUG_EN
            Debug_PutString("ACLK\r\n");
        #endif
        gpio_set_pin_low(PIN_MOTOR_A_IDX);
  4011aa:	2020      	movs	r0, #32
  4011ac:	4b73      	ldr	r3, [pc, #460]	; (40137c <GotoAngle+0x234>)
  4011ae:	4798      	blx	r3
		gpio_set_pin_high(PIN_MOTOR_B_IDX);
  4011b0:	2021      	movs	r0, #33	; 0x21
  4011b2:	4b73      	ldr	r3, [pc, #460]	; (401380 <GotoAngle+0x238>)
  4011b4:	4798      	blx	r3
  4011b6:	e005      	b.n	4011c4 <GotoAngle+0x7c>
    {
        //Set Clockwise Direction
        #ifdef DEBUG_EN
            Debug_PutString("CLK\r\n");
        #endif
        gpio_set_pin_high(PIN_MOTOR_A_IDX);
  4011b8:	2020      	movs	r0, #32
  4011ba:	4b71      	ldr	r3, [pc, #452]	; (401380 <GotoAngle+0x238>)
  4011bc:	4798      	blx	r3
        gpio_set_pin_low(PIN_MOTOR_B_IDX);
  4011be:	2021      	movs	r0, #33	; 0x21
  4011c0:	4b6e      	ldr	r3, [pc, #440]	; (40137c <GotoAngle+0x234>)
  4011c2:	4798      	blx	r3
    }
    
    //If error greater than +/- 1.0f
    if(!((error >=-1.0f)&&(error<1.0f)))
  4011c4:	2301      	movs	r3, #1
  4011c6:	461c      	mov	r4, r3
  4011c8:	4b6e      	ldr	r3, [pc, #440]	; (401384 <GotoAngle+0x23c>)
  4011ca:	496f      	ldr	r1, [pc, #444]	; (401388 <GotoAngle+0x240>)
  4011cc:	6af8      	ldr	r0, [r7, #44]	; 0x2c
  4011ce:	4798      	blx	r3
  4011d0:	4603      	mov	r3, r0
  4011d2:	2b00      	cmp	r3, #0
  4011d4:	d101      	bne.n	4011da <GotoAngle+0x92>
  4011d6:	2300      	movs	r3, #0
  4011d8:	461c      	mov	r4, r3
  4011da:	b2e3      	uxtb	r3, r4
  4011dc:	f083 0301 	eor.w	r3, r3, #1
  4011e0:	b2db      	uxtb	r3, r3
  4011e2:	2b00      	cmp	r3, #0
  4011e4:	f040 808a 	bne.w	4012fc <GotoAngle+0x1b4>
  4011e8:	4b68      	ldr	r3, [pc, #416]	; (40138c <GotoAngle+0x244>)
  4011ea:	f04f 517e 	mov.w	r1, #1065353216	; 0x3f800000
  4011ee:	6af8      	ldr	r0, [r7, #44]	; 0x2c
  4011f0:	4798      	blx	r3
  4011f2:	4603      	mov	r3, r0
  4011f4:	2b00      	cmp	r3, #0
        #ifdef DEBUG_EN
            Debug_PutString("ON\r\n");    
        #endif
    }
    
    while(!((error >=-1.0f)&&(error<1.0f)))
  4011f6:	e081      	b.n	4012fc <GotoAngle+0x1b4>
    {
        prevOri = 0;
  4011f8:	f04f 0300 	mov.w	r3, #0
  4011fc:	623b      	str	r3, [r7, #32]
        for(p = 0; p < 8; p++)
  4011fe:	2300      	movs	r3, #0
  401200:	f887 302b 	strb.w	r3, [r7, #43]	; 0x2b
  401204:	e058      	b.n	4012b8 <GotoAngle+0x170>
        {
            #ifndef ICM20648_USE_RTOS_API
				ICMReadAccDataAll(BOARD_TWI, ICM_ADDR,(uint16_t*)accVals);
  401206:	f107 0314 	add.w	r3, r7, #20
  40120a:	461a      	mov	r2, r3
  40120c:	2169      	movs	r1, #105	; 0x69
  40120e:	4856      	ldr	r0, [pc, #344]	; (401368 <GotoAngle+0x220>)
  401210:	4b56      	ldr	r3, [pc, #344]	; (40136c <GotoAngle+0x224>)
  401212:	4798      	blx	r3
			#else
				ICMReadAccDataAllTo(twiPort, ICM_ADDR,(uint16_t*)accVals, 50);
			#endif
            GetOrientation(accVals, oriVals);
  401214:	f107 0208 	add.w	r2, r7, #8
  401218:	f107 0314 	add.w	r3, r7, #20
  40121c:	4611      	mov	r1, r2
  40121e:	4618      	mov	r0, r3
  401220:	4b53      	ldr	r3, [pc, #332]	; (401370 <GotoAngle+0x228>)
  401222:	4798      	blx	r3
            oriX = prevOri + ((oriVals[0] - prevOri)/((float)(p+1)));
  401224:	68ba      	ldr	r2, [r7, #8]
  401226:	4b53      	ldr	r3, [pc, #332]	; (401374 <GotoAngle+0x22c>)
  401228:	6a39      	ldr	r1, [r7, #32]
  40122a:	4610      	mov	r0, r2
  40122c:	4798      	blx	r3
  40122e:	4603      	mov	r3, r0
  401230:	461c      	mov	r4, r3
  401232:	f897 302b 	ldrb.w	r3, [r7, #43]	; 0x2b
  401236:	1c5a      	adds	r2, r3, #1
  401238:	4b55      	ldr	r3, [pc, #340]	; (401390 <GotoAngle+0x248>)
  40123a:	4610      	mov	r0, r2
  40123c:	4798      	blx	r3
  40123e:	4602      	mov	r2, r0
  401240:	4b54      	ldr	r3, [pc, #336]	; (401394 <GotoAngle+0x24c>)
  401242:	4611      	mov	r1, r2
  401244:	4620      	mov	r0, r4
  401246:	4798      	blx	r3
  401248:	4603      	mov	r3, r0
  40124a:	461a      	mov	r2, r3
  40124c:	4b52      	ldr	r3, [pc, #328]	; (401398 <GotoAngle+0x250>)
  40124e:	6a39      	ldr	r1, [r7, #32]
  401250:	4610      	mov	r0, r2
  401252:	4798      	blx	r3
  401254:	4603      	mov	r3, r0
  401256:	627b      	str	r3, [r7, #36]	; 0x24
        	prevOri = oriX;
  401258:	6a7b      	ldr	r3, [r7, #36]	; 0x24
  40125a:	623b      	str	r3, [r7, #32]
            delay_ms(40);
  40125c:	4b4f      	ldr	r3, [pc, #316]	; (40139c <GotoAngle+0x254>)
  40125e:	4798      	blx	r3
  401260:	4603      	mov	r3, r0
  401262:	f04f 0400 	mov.w	r4, #0
  401266:	ea4f 09c4 	mov.w	r9, r4, lsl #3
  40126a:	ea49 7953 	orr.w	r9, r9, r3, lsr #29
  40126e:	ea4f 08c3 	mov.w	r8, r3, lsl #3
  401272:	4643      	mov	r3, r8
  401274:	464c      	mov	r4, r9
  401276:	00a6      	lsls	r6, r4, #2
  401278:	ea46 7693 	orr.w	r6, r6, r3, lsr #30
  40127c:	009d      	lsls	r5, r3, #2
  40127e:	195b      	adds	r3, r3, r5
  401280:	eb44 0406 	adc.w	r4, r4, r6
  401284:	f243 61af 	movw	r1, #13999	; 0x36af
  401288:	f04f 0200 	mov.w	r2, #0
  40128c:	eb13 0b01 	adds.w	fp, r3, r1
  401290:	eb44 0c02 	adc.w	ip, r4, r2
  401294:	4658      	mov	r0, fp
  401296:	4661      	mov	r1, ip
  401298:	4c41      	ldr	r4, [pc, #260]	; (4013a0 <GotoAngle+0x258>)
  40129a:	f243 62b0 	movw	r2, #14000	; 0x36b0
  40129e:	f04f 0300 	mov.w	r3, #0
  4012a2:	47a0      	blx	r4
  4012a4:	4603      	mov	r3, r0
  4012a6:	460c      	mov	r4, r1
  4012a8:	4618      	mov	r0, r3
  4012aa:	4b3e      	ldr	r3, [pc, #248]	; (4013a4 <GotoAngle+0x25c>)
  4012ac:	4798      	blx	r3
    }
    
    while(!((error >=-1.0f)&&(error<1.0f)))
    {
        prevOri = 0;
        for(p = 0; p < 8; p++)
  4012ae:	f897 302b 	ldrb.w	r3, [r7, #43]	; 0x2b
  4012b2:	3301      	adds	r3, #1
  4012b4:	f887 302b 	strb.w	r3, [r7, #43]	; 0x2b
  4012b8:	f897 302b 	ldrb.w	r3, [r7, #43]	; 0x2b
  4012bc:	2b07      	cmp	r3, #7
  4012be:	d9a2      	bls.n	401206 <GotoAngle+0xbe>
            GetOrientation(accVals, oriVals);
            oriX = prevOri + ((oriVals[0] - prevOri)/((float)(p+1)));
        	prevOri = oriX;
            delay_ms(40);
        }
        oriVals[0] = oriX;
  4012c0:	6a7b      	ldr	r3, [r7, #36]	; 0x24
  4012c2:	60bb      	str	r3, [r7, #8]
            Debug_PutString("X = ");
            PrintFlt(oriVals[0]);
            Debug_PutString("\r\n");
        #endif
        
        error = pvAngle - oriVals[0];
  4012c4:	68ba      	ldr	r2, [r7, #8]
  4012c6:	4b2b      	ldr	r3, [pc, #172]	; (401374 <GotoAngle+0x22c>)
  4012c8:	4611      	mov	r1, r2
  4012ca:	6878      	ldr	r0, [r7, #4]
  4012cc:	4798      	blx	r3
  4012ce:	4603      	mov	r3, r0
  4012d0:	62fb      	str	r3, [r7, #44]	; 0x2c
        
        if(error > 0)
  4012d2:	4b29      	ldr	r3, [pc, #164]	; (401378 <GotoAngle+0x230>)
  4012d4:	f04f 0100 	mov.w	r1, #0
  4012d8:	6af8      	ldr	r0, [r7, #44]	; 0x2c
  4012da:	4798      	blx	r3
  4012dc:	4603      	mov	r3, r0
  4012de:	2b00      	cmp	r3, #0
  4012e0:	d006      	beq.n	4012f0 <GotoAngle+0x1a8>
        {
            //Set Anti Clockwise Direction
            #ifdef DEBUG_EN
                Debug_PutString("ACLK\r\n");
            #endif
			gpio_set_pin_low(PIN_MOTOR_A_IDX);
  4012e2:	2020      	movs	r0, #32
  4012e4:	4b25      	ldr	r3, [pc, #148]	; (40137c <GotoAngle+0x234>)
  4012e6:	4798      	blx	r3
			gpio_set_pin_high(PIN_MOTOR_B_IDX);
  4012e8:	2021      	movs	r0, #33	; 0x21
  4012ea:	4b25      	ldr	r3, [pc, #148]	; (401380 <GotoAngle+0x238>)
  4012ec:	4798      	blx	r3
  4012ee:	e005      	b.n	4012fc <GotoAngle+0x1b4>
        {
            //Set Clockwise Direction
            #ifdef DEBUG_EN
                Debug_PutString("CLK\r\n");
            #endif
			gpio_set_pin_high(PIN_MOTOR_A_IDX);
  4012f0:	2020      	movs	r0, #32
  4012f2:	4b23      	ldr	r3, [pc, #140]	; (401380 <GotoAngle+0x238>)
  4012f4:	4798      	blx	r3
			gpio_set_pin_low(PIN_MOTOR_B_IDX);
  4012f6:	2021      	movs	r0, #33	; 0x21
  4012f8:	4b20      	ldr	r3, [pc, #128]	; (40137c <GotoAngle+0x234>)
  4012fa:	4798      	blx	r3
        #ifdef DEBUG_EN
            Debug_PutString("ON\r\n");    
        #endif
    }
    
    while(!((error >=-1.0f)&&(error<1.0f)))
  4012fc:	2301      	movs	r3, #1
  4012fe:	461c      	mov	r4, r3
  401300:	4b20      	ldr	r3, [pc, #128]	; (401384 <GotoAngle+0x23c>)
  401302:	4921      	ldr	r1, [pc, #132]	; (401388 <GotoAngle+0x240>)
  401304:	6af8      	ldr	r0, [r7, #44]	; 0x2c
  401306:	4798      	blx	r3
  401308:	4603      	mov	r3, r0
  40130a:	2b00      	cmp	r3, #0
  40130c:	d101      	bne.n	401312 <GotoAngle+0x1ca>
  40130e:	2300      	movs	r3, #0
  401310:	461c      	mov	r4, r3
  401312:	b2e3      	uxtb	r3, r4
  401314:	f083 0301 	eor.w	r3, r3, #1
  401318:	b2db      	uxtb	r3, r3
  40131a:	2b00      	cmp	r3, #0
  40131c:	f47f af6c 	bne.w	4011f8 <GotoAngle+0xb0>
  401320:	2301      	movs	r3, #1
  401322:	461c      	mov	r4, r3
  401324:	4b19      	ldr	r3, [pc, #100]	; (40138c <GotoAngle+0x244>)
  401326:	f04f 517e 	mov.w	r1, #1065353216	; 0x3f800000
  40132a:	6af8      	ldr	r0, [r7, #44]	; 0x2c
  40132c:	4798      	blx	r3
  40132e:	4603      	mov	r3, r0
  401330:	2b00      	cmp	r3, #0
  401332:	d101      	bne.n	401338 <GotoAngle+0x1f0>
  401334:	2300      	movs	r3, #0
  401336:	461c      	mov	r4, r3
  401338:	b2e3      	uxtb	r3, r4
  40133a:	f083 0301 	eor.w	r3, r3, #1
  40133e:	b2db      	uxtb	r3, r3
  401340:	2b00      	cmp	r3, #0
  401342:	f47f af59 	bne.w	4011f8 <GotoAngle+0xb0>
    //PWM0_Stop();
    #ifdef DEBUG_EN
        Debug_PutString("OFF\r\n");
    #endif
    
    ptr = (uint16_t*)&oriVals[0];
  401346:	f107 0308 	add.w	r3, r7, #8
  40134a:	61fb      	str	r3, [r7, #28]
    mBusRegs[MBUS_REG_ANXH] = ptr[1];
  40134c:	69fb      	ldr	r3, [r7, #28]
  40134e:	885a      	ldrh	r2, [r3, #2]
  401350:	4b15      	ldr	r3, [pc, #84]	; (4013a8 <GotoAngle+0x260>)
  401352:	83da      	strh	r2, [r3, #30]
    mBusRegs[MBUS_REG_ANXL] = ptr[0];
  401354:	69fb      	ldr	r3, [r7, #28]
  401356:	881a      	ldrh	r2, [r3, #0]
  401358:	4b13      	ldr	r3, [pc, #76]	; (4013a8 <GotoAngle+0x260>)
  40135a:	839a      	strh	r2, [r3, #28]
}
  40135c:	bf00      	nop
  40135e:	3730      	adds	r7, #48	; 0x30
  401360:	46bd      	mov	sp, r7
  401362:	e8bd 8bf0 	ldmia.w	sp!, {r4, r5, r6, r7, r8, r9, fp, pc}
  401366:	bf00      	nop
  401368:	40018000 	.word	0x40018000
  40136c:	004007a9 	.word	0x004007a9
  401370:	00401479 	.word	0x00401479
  401374:	0040a43d 	.word	0x0040a43d
  401378:	0040a9c9 	.word	0x0040a9c9
  40137c:	00403da1 	.word	0x00403da1
  401380:	00403d71 	.word	0x00403d71
  401384:	0040a9b5 	.word	0x0040a9b5
  401388:	bf800000 	.word	0xbf800000
  40138c:	0040a98d 	.word	0x0040a98d
  401390:	0040a5a9 	.word	0x0040a5a9
  401394:	0040a7b9 	.word	0x0040a7b9
  401398:	0040a441 	.word	0x0040a441
  40139c:	00400e79 	.word	0x00400e79
  4013a0:	0040aa29 	.word	0x0040aa29
  4013a4:	200000f1 	.word	0x200000f1
  4013a8:	2000077c 	.word	0x2000077c

004013ac <TestCode>:

void TestCode(void)
{
  4013ac:	b580      	push	{r7, lr}
  4013ae:	b088      	sub	sp, #32
  4013b0:	af00      	add	r7, sp, #0
    int16_t accVals[3] = {0, 0, 0};
  4013b2:	2300      	movs	r3, #0
  4013b4:	82bb      	strh	r3, [r7, #20]
  4013b6:	2300      	movs	r3, #0
  4013b8:	82fb      	strh	r3, [r7, #22]
  4013ba:	2300      	movs	r3, #0
  4013bc:	833b      	strh	r3, [r7, #24]
    float oriVals[3], pvAngle=0;
  4013be:	f04f 0300 	mov.w	r3, #0
  4013c2:	607b      	str	r3, [r7, #4]
    uint16_t *ptr;
    #ifndef DS3231_USE_RTOS_API
		DSGetTime(BOARD_TWI, (uint16_t *)&mBusRegs[MBUS_REG_SEC]);
  4013c4:	4922      	ldr	r1, [pc, #136]	; (401450 <TestCode+0xa4>)
  4013c6:	4823      	ldr	r0, [pc, #140]	; (401454 <TestCode+0xa8>)
  4013c8:	4b23      	ldr	r3, [pc, #140]	; (401458 <TestCode+0xac>)
  4013ca:	4798      	blx	r3
		DSGetFullDate(BOARD_TWI, (uint16_t *)&mBusRegs[MBUS_REG_DAY]);
  4013cc:	4923      	ldr	r1, [pc, #140]	; (40145c <TestCode+0xb0>)
  4013ce:	4821      	ldr	r0, [pc, #132]	; (401454 <TestCode+0xa8>)
  4013d0:	4b23      	ldr	r3, [pc, #140]	; (401460 <TestCode+0xb4>)
  4013d2:	4798      	blx	r3
        PrintInt(((mBusRegs[MBUS_REG_SEC]>>4)*10) + (mBusRegs[MBUS_REG_SEC]&0x000F));
        Debug_PutString("\r\n");
    #endif

	#ifndef ICM20648_USE_RTOS_API
		ICMReadAccDataAll(BOARD_TWI, ICM_ADDR,(uint16_t*)accVals);
  4013d4:	f107 0314 	add.w	r3, r7, #20
  4013d8:	461a      	mov	r2, r3
  4013da:	2169      	movs	r1, #105	; 0x69
  4013dc:	481d      	ldr	r0, [pc, #116]	; (401454 <TestCode+0xa8>)
  4013de:	4b21      	ldr	r3, [pc, #132]	; (401464 <TestCode+0xb8>)
  4013e0:	4798      	blx	r3
	#else
		ICMReadAccDataAllTo(twiPort, ICM_ADDR,(uint16_t*)accVals, 50);
	#endif
    GetOrientation(accVals, oriVals);
  4013e2:	f107 0208 	add.w	r2, r7, #8
  4013e6:	f107 0314 	add.w	r3, r7, #20
  4013ea:	4611      	mov	r1, r2
  4013ec:	4618      	mov	r0, r3
  4013ee:	4b1e      	ldr	r3, [pc, #120]	; (401468 <TestCode+0xbc>)
  4013f0:	4798      	blx	r3
    #ifdef DEBUG_EN
        Debug_PutString("X = ");
        PrintFlt(oriVals[0]);
        Debug_PutString("\r\n");
    #endif
    ptr = (uint16_t*)&oriVals[0];
  4013f2:	f107 0308 	add.w	r3, r7, #8
  4013f6:	61fb      	str	r3, [r7, #28]
    mBusRegs[MBUS_REG_ANXH] = ptr[1];
  4013f8:	69fb      	ldr	r3, [r7, #28]
  4013fa:	885a      	ldrh	r2, [r3, #2]
  4013fc:	4b14      	ldr	r3, [pc, #80]	; (401450 <TestCode+0xa4>)
  4013fe:	83da      	strh	r2, [r3, #30]
    mBusRegs[MBUS_REG_ANXL] = ptr[0];
  401400:	69fb      	ldr	r3, [r7, #28]
  401402:	881a      	ldrh	r2, [r3, #0]
  401404:	4b12      	ldr	r3, [pc, #72]	; (401450 <TestCode+0xa4>)
  401406:	839a      	strh	r2, [r3, #28]
    pvAngle = GetPvAngle();
  401408:	4b18      	ldr	r3, [pc, #96]	; (40146c <TestCode+0xc0>)
  40140a:	4798      	blx	r3
  40140c:	4603      	mov	r3, r0
  40140e:	607b      	str	r3, [r7, #4]
    ptr = (uint16_t*)&pvAngle;
  401410:	1d3b      	adds	r3, r7, #4
  401412:	61fb      	str	r3, [r7, #28]
    mBusRegs[MBUS_REG_PVANGLEH] = ptr[1];
  401414:	69fb      	ldr	r3, [r7, #28]
  401416:	885a      	ldrh	r2, [r3, #2]
  401418:	4b0d      	ldr	r3, [pc, #52]	; (401450 <TestCode+0xa4>)
  40141a:	845a      	strh	r2, [r3, #34]	; 0x22
    mBusRegs[MBUS_REG_PVANGLEL] = ptr[0];
  40141c:	69fb      	ldr	r3, [r7, #28]
  40141e:	881a      	ldrh	r2, [r3, #0]
  401420:	4b0b      	ldr	r3, [pc, #44]	; (401450 <TestCode+0xa4>)
  401422:	841a      	strh	r2, [r3, #32]
    
	if(mBusRegs[MBUS_REG_MOTDR])
  401424:	4b0a      	ldr	r3, [pc, #40]	; (401450 <TestCode+0xa4>)
  401426:	8e5b      	ldrh	r3, [r3, #50]	; 0x32
  401428:	2b00      	cmp	r3, #0
  40142a:	d006      	beq.n	40143a <TestCode+0x8e>
	{
		gpio_set_pin_low(PIN_MOTOR_A_IDX);
  40142c:	2020      	movs	r0, #32
  40142e:	4b10      	ldr	r3, [pc, #64]	; (401470 <TestCode+0xc4>)
  401430:	4798      	blx	r3
		gpio_set_pin_high(PIN_MOTOR_B_IDX);
  401432:	2021      	movs	r0, #33	; 0x21
  401434:	4b0f      	ldr	r3, [pc, #60]	; (401474 <TestCode+0xc8>)
  401436:	4798      	blx	r3
  401438:	e005      	b.n	401446 <TestCode+0x9a>
	}
	else
	{
		gpio_set_pin_high(PIN_MOTOR_A_IDX);
  40143a:	2020      	movs	r0, #32
  40143c:	4b0d      	ldr	r3, [pc, #52]	; (401474 <TestCode+0xc8>)
  40143e:	4798      	blx	r3
		gpio_set_pin_low(PIN_MOTOR_B_IDX);
  401440:	2021      	movs	r0, #33	; 0x21
  401442:	4b0b      	ldr	r3, [pc, #44]	; (401470 <TestCode+0xc4>)
  401444:	4798      	blx	r3
        //Enable Charge Ctrlr
        //ccEn = 1;
        //Turn Motor Off
        //gpio_set_pin_low(PIN_MOTOR_RST_IDX);
    }
}
  401446:	bf00      	nop
  401448:	3720      	adds	r7, #32
  40144a:	46bd      	mov	sp, r7
  40144c:	bd80      	pop	{r7, pc}
  40144e:	bf00      	nop
  401450:	2000077c 	.word	0x2000077c
  401454:	40018000 	.word	0x40018000
  401458:	004004b1 	.word	0x004004b1
  40145c:	20000782 	.word	0x20000782
  401460:	00400571 	.word	0x00400571
  401464:	004007a9 	.word	0x004007a9
  401468:	00401479 	.word	0x00401479
  40146c:	00401609 	.word	0x00401609
  401470:	00403da1 	.word	0x00403da1
  401474:	00403d71 	.word	0x00403d71

00401478 <GetOrientation>:
        Debug_PutString(buff2);
    }
#endif

void GetOrientation(int16_t *acc, float *orientation)
{
  401478:	b5f0      	push	{r4, r5, r6, r7, lr}
  40147a:	b087      	sub	sp, #28
  40147c:	af00      	add	r7, sp, #0
  40147e:	6078      	str	r0, [r7, #4]
  401480:	6039      	str	r1, [r7, #0]
    float accFlt[3];
    accFlt[0] = ((float)acc[0])/32768.0f;
  401482:	687b      	ldr	r3, [r7, #4]
  401484:	f9b3 2000 	ldrsh.w	r2, [r3]
  401488:	4b55      	ldr	r3, [pc, #340]	; (4015e0 <GetOrientation+0x168>)
  40148a:	4610      	mov	r0, r2
  40148c:	4798      	blx	r3
  40148e:	4602      	mov	r2, r0
  401490:	4b54      	ldr	r3, [pc, #336]	; (4015e4 <GetOrientation+0x16c>)
  401492:	f04f 418e 	mov.w	r1, #1191182336	; 0x47000000
  401496:	4610      	mov	r0, r2
  401498:	4798      	blx	r3
  40149a:	4603      	mov	r3, r0
  40149c:	60fb      	str	r3, [r7, #12]
    accFlt[1] = ((float)acc[1])/32768.0f;
  40149e:	687b      	ldr	r3, [r7, #4]
  4014a0:	3302      	adds	r3, #2
  4014a2:	f9b3 2000 	ldrsh.w	r2, [r3]
  4014a6:	4b4e      	ldr	r3, [pc, #312]	; (4015e0 <GetOrientation+0x168>)
  4014a8:	4610      	mov	r0, r2
  4014aa:	4798      	blx	r3
  4014ac:	4602      	mov	r2, r0
  4014ae:	4b4d      	ldr	r3, [pc, #308]	; (4015e4 <GetOrientation+0x16c>)
  4014b0:	f04f 418e 	mov.w	r1, #1191182336	; 0x47000000
  4014b4:	4610      	mov	r0, r2
  4014b6:	4798      	blx	r3
  4014b8:	4603      	mov	r3, r0
  4014ba:	613b      	str	r3, [r7, #16]
    accFlt[2] = ((float)acc[2])/32768.0f;
  4014bc:	687b      	ldr	r3, [r7, #4]
  4014be:	3304      	adds	r3, #4
  4014c0:	f9b3 2000 	ldrsh.w	r2, [r3]
  4014c4:	4b46      	ldr	r3, [pc, #280]	; (4015e0 <GetOrientation+0x168>)
  4014c6:	4610      	mov	r0, r2
  4014c8:	4798      	blx	r3
  4014ca:	4602      	mov	r2, r0
  4014cc:	4b45      	ldr	r3, [pc, #276]	; (4015e4 <GetOrientation+0x16c>)
  4014ce:	f04f 418e 	mov.w	r1, #1191182336	; 0x47000000
  4014d2:	4610      	mov	r0, r2
  4014d4:	4798      	blx	r3
  4014d6:	4603      	mov	r3, r0
  4014d8:	617b      	str	r3, [r7, #20]
    
    //Equation 25 (Rotate Across X Axis)
    orientation[0] = atan2(accFlt[1], accFlt[2]);
  4014da:	693a      	ldr	r2, [r7, #16]
  4014dc:	4b42      	ldr	r3, [pc, #264]	; (4015e8 <GetOrientation+0x170>)
  4014de:	4610      	mov	r0, r2
  4014e0:	4798      	blx	r3
  4014e2:	4604      	mov	r4, r0
  4014e4:	460d      	mov	r5, r1
  4014e6:	697a      	ldr	r2, [r7, #20]
  4014e8:	4b3f      	ldr	r3, [pc, #252]	; (4015e8 <GetOrientation+0x170>)
  4014ea:	4610      	mov	r0, r2
  4014ec:	4798      	blx	r3
  4014ee:	4602      	mov	r2, r0
  4014f0:	460b      	mov	r3, r1
  4014f2:	4620      	mov	r0, r4
  4014f4:	4629      	mov	r1, r5
  4014f6:	4c3d      	ldr	r4, [pc, #244]	; (4015ec <GetOrientation+0x174>)
  4014f8:	47a0      	blx	r4
  4014fa:	460a      	mov	r2, r1
  4014fc:	4601      	mov	r1, r0
  4014fe:	4b3c      	ldr	r3, [pc, #240]	; (4015f0 <GetOrientation+0x178>)
  401500:	4608      	mov	r0, r1
  401502:	4611      	mov	r1, r2
  401504:	4798      	blx	r3
  401506:	4602      	mov	r2, r0
  401508:	683b      	ldr	r3, [r7, #0]
  40150a:	601a      	str	r2, [r3, #0]
    //Radian to degrees conversion
    orientation[0] = (180.0f * orientation[0])/(float)M_PI;
  40150c:	683b      	ldr	r3, [r7, #0]
  40150e:	681a      	ldr	r2, [r3, #0]
  401510:	4b38      	ldr	r3, [pc, #224]	; (4015f4 <GetOrientation+0x17c>)
  401512:	4939      	ldr	r1, [pc, #228]	; (4015f8 <GetOrientation+0x180>)
  401514:	4610      	mov	r0, r2
  401516:	4798      	blx	r3
  401518:	4603      	mov	r3, r0
  40151a:	461a      	mov	r2, r3
  40151c:	4b31      	ldr	r3, [pc, #196]	; (4015e4 <GetOrientation+0x16c>)
  40151e:	4937      	ldr	r1, [pc, #220]	; (4015fc <GetOrientation+0x184>)
  401520:	4610      	mov	r0, r2
  401522:	4798      	blx	r3
  401524:	4603      	mov	r3, r0
  401526:	461a      	mov	r2, r3
  401528:	683b      	ldr	r3, [r7, #0]
  40152a:	601a      	str	r2, [r3, #0]
    
    //Equation 26 (Rotate Across Y Axis)
    orientation[1] = sqrt(accFlt[1]*accFlt[1] + accFlt[2]*accFlt[2]);
  40152c:	683b      	ldr	r3, [r7, #0]
  40152e:	1d1c      	adds	r4, r3, #4
  401530:	693a      	ldr	r2, [r7, #16]
  401532:	6939      	ldr	r1, [r7, #16]
  401534:	4b2f      	ldr	r3, [pc, #188]	; (4015f4 <GetOrientation+0x17c>)
  401536:	4610      	mov	r0, r2
  401538:	4798      	blx	r3
  40153a:	4603      	mov	r3, r0
  40153c:	461d      	mov	r5, r3
  40153e:	697a      	ldr	r2, [r7, #20]
  401540:	6979      	ldr	r1, [r7, #20]
  401542:	4b2c      	ldr	r3, [pc, #176]	; (4015f4 <GetOrientation+0x17c>)
  401544:	4610      	mov	r0, r2
  401546:	4798      	blx	r3
  401548:	4603      	mov	r3, r0
  40154a:	461a      	mov	r2, r3
  40154c:	4b2c      	ldr	r3, [pc, #176]	; (401600 <GetOrientation+0x188>)
  40154e:	4611      	mov	r1, r2
  401550:	4628      	mov	r0, r5
  401552:	4798      	blx	r3
  401554:	4603      	mov	r3, r0
  401556:	461a      	mov	r2, r3
  401558:	4b23      	ldr	r3, [pc, #140]	; (4015e8 <GetOrientation+0x170>)
  40155a:	4610      	mov	r0, r2
  40155c:	4798      	blx	r3
  40155e:	4602      	mov	r2, r0
  401560:	460b      	mov	r3, r1
  401562:	4610      	mov	r0, r2
  401564:	4619      	mov	r1, r3
  401566:	4b27      	ldr	r3, [pc, #156]	; (401604 <GetOrientation+0x18c>)
  401568:	4798      	blx	r3
  40156a:	460a      	mov	r2, r1
  40156c:	4601      	mov	r1, r0
  40156e:	4b20      	ldr	r3, [pc, #128]	; (4015f0 <GetOrientation+0x178>)
  401570:	4608      	mov	r0, r1
  401572:	4611      	mov	r1, r2
  401574:	4798      	blx	r3
  401576:	4603      	mov	r3, r0
  401578:	6023      	str	r3, [r4, #0]
    orientation[1] = atan2(-accFlt[0], orientation[1]); 
  40157a:	683b      	ldr	r3, [r7, #0]
  40157c:	1d1c      	adds	r4, r3, #4
  40157e:	68fb      	ldr	r3, [r7, #12]
  401580:	f083 4200 	eor.w	r2, r3, #2147483648	; 0x80000000
  401584:	4b18      	ldr	r3, [pc, #96]	; (4015e8 <GetOrientation+0x170>)
  401586:	4610      	mov	r0, r2
  401588:	4798      	blx	r3
  40158a:	4605      	mov	r5, r0
  40158c:	460e      	mov	r6, r1
  40158e:	683b      	ldr	r3, [r7, #0]
  401590:	3304      	adds	r3, #4
  401592:	681a      	ldr	r2, [r3, #0]
  401594:	4b14      	ldr	r3, [pc, #80]	; (4015e8 <GetOrientation+0x170>)
  401596:	4610      	mov	r0, r2
  401598:	4798      	blx	r3
  40159a:	4602      	mov	r2, r0
  40159c:	460b      	mov	r3, r1
  40159e:	4628      	mov	r0, r5
  4015a0:	4631      	mov	r1, r6
  4015a2:	4d12      	ldr	r5, [pc, #72]	; (4015ec <GetOrientation+0x174>)
  4015a4:	47a8      	blx	r5
  4015a6:	460a      	mov	r2, r1
  4015a8:	4601      	mov	r1, r0
  4015aa:	4b11      	ldr	r3, [pc, #68]	; (4015f0 <GetOrientation+0x178>)
  4015ac:	4608      	mov	r0, r1
  4015ae:	4611      	mov	r1, r2
  4015b0:	4798      	blx	r3
  4015b2:	4603      	mov	r3, r0
  4015b4:	6023      	str	r3, [r4, #0]
    //Radian to degrees conversion
    orientation[1] = (180.0f * orientation[1])/(float)M_PI;
  4015b6:	683b      	ldr	r3, [r7, #0]
  4015b8:	1d1c      	adds	r4, r3, #4
  4015ba:	683b      	ldr	r3, [r7, #0]
  4015bc:	3304      	adds	r3, #4
  4015be:	681a      	ldr	r2, [r3, #0]
  4015c0:	4b0c      	ldr	r3, [pc, #48]	; (4015f4 <GetOrientation+0x17c>)
  4015c2:	490d      	ldr	r1, [pc, #52]	; (4015f8 <GetOrientation+0x180>)
  4015c4:	4610      	mov	r0, r2
  4015c6:	4798      	blx	r3
  4015c8:	4603      	mov	r3, r0
  4015ca:	461a      	mov	r2, r3
  4015cc:	4b05      	ldr	r3, [pc, #20]	; (4015e4 <GetOrientation+0x16c>)
  4015ce:	490b      	ldr	r1, [pc, #44]	; (4015fc <GetOrientation+0x184>)
  4015d0:	4610      	mov	r0, r2
  4015d2:	4798      	blx	r3
  4015d4:	4603      	mov	r3, r0
  4015d6:	6023      	str	r3, [r4, #0]
}
  4015d8:	bf00      	nop
  4015da:	371c      	adds	r7, #28
  4015dc:	46bd      	mov	sp, r7
  4015de:	bdf0      	pop	{r4, r5, r6, r7, pc}
  4015e0:	0040a5a9 	.word	0x0040a5a9
  4015e4:	0040a7b9 	.word	0x0040a7b9
  4015e8:	00409d3d 	.word	0x00409d3d
  4015ec:	0040749d 	.word	0x0040749d
  4015f0:	0040a395 	.word	0x0040a395
  4015f4:	0040a651 	.word	0x0040a651
  4015f8:	43340000 	.word	0x43340000
  4015fc:	40490fdb 	.word	0x40490fdb
  401600:	0040a441 	.word	0x0040a441
  401604:	004074a1 	.word	0x004074a1

00401608 <GetPvAngle>:

float GetPvAngle(void)
{
  401608:	e92d 43f0 	stmdb	sp!, {r4, r5, r6, r7, r8, r9, lr}
  40160c:	b0af      	sub	sp, #188	; 0xbc
  40160e:	af00      	add	r7, sp, #0
	float e, f, g, h, i, j, k, l, m, n, o, p;
	float q, r, s, t;
	float timeInSecs;
    
    //BCD to Int Conversion
    date = ((mBusRegs[MBUS_REG_DD]>>4)*10) + (mBusRegs[MBUS_REG_DD]&0x000F); 
  401610:	4b4a      	ldr	r3, [pc, #296]	; (40173c <GetPvAngle+0x134>)
  401612:	891b      	ldrh	r3, [r3, #8]
  401614:	091b      	lsrs	r3, r3, #4
  401616:	b29b      	uxth	r3, r3
  401618:	461a      	mov	r2, r3
  40161a:	0092      	lsls	r2, r2, #2
  40161c:	4413      	add	r3, r2
  40161e:	005b      	lsls	r3, r3, #1
  401620:	b29a      	uxth	r2, r3
  401622:	4b46      	ldr	r3, [pc, #280]	; (40173c <GetPvAngle+0x134>)
  401624:	891b      	ldrh	r3, [r3, #8]
  401626:	f003 030f 	and.w	r3, r3, #15
  40162a:	b29b      	uxth	r3, r3
  40162c:	4413      	add	r3, r2
  40162e:	b29b      	uxth	r3, r3
  401630:	f8a7 30ae 	strh.w	r3, [r7, #174]	; 0xae
    mon = ((mBusRegs[MBUS_REG_MM]>>4)*10) + (mBusRegs[MBUS_REG_MM]&0x000F); 
  401634:	4b41      	ldr	r3, [pc, #260]	; (40173c <GetPvAngle+0x134>)
  401636:	895b      	ldrh	r3, [r3, #10]
  401638:	091b      	lsrs	r3, r3, #4
  40163a:	b29b      	uxth	r3, r3
  40163c:	461a      	mov	r2, r3
  40163e:	0092      	lsls	r2, r2, #2
  401640:	4413      	add	r3, r2
  401642:	005b      	lsls	r3, r3, #1
  401644:	b29a      	uxth	r2, r3
  401646:	4b3d      	ldr	r3, [pc, #244]	; (40173c <GetPvAngle+0x134>)
  401648:	895b      	ldrh	r3, [r3, #10]
  40164a:	f003 030f 	and.w	r3, r3, #15
  40164e:	b29b      	uxth	r3, r3
  401650:	4413      	add	r3, r2
  401652:	b29b      	uxth	r3, r3
  401654:	f8a7 30ac 	strh.w	r3, [r7, #172]	; 0xac
    year = ((mBusRegs[MBUS_REG_YY]>>4)*10) + (mBusRegs[MBUS_REG_YY]&0x000F); 
  401658:	4b38      	ldr	r3, [pc, #224]	; (40173c <GetPvAngle+0x134>)
  40165a:	899b      	ldrh	r3, [r3, #12]
  40165c:	091b      	lsrs	r3, r3, #4
  40165e:	b29b      	uxth	r3, r3
  401660:	461a      	mov	r2, r3
  401662:	0092      	lsls	r2, r2, #2
  401664:	4413      	add	r3, r2
  401666:	005b      	lsls	r3, r3, #1
  401668:	b29a      	uxth	r2, r3
  40166a:	4b34      	ldr	r3, [pc, #208]	; (40173c <GetPvAngle+0x134>)
  40166c:	899b      	ldrh	r3, [r3, #12]
  40166e:	f003 030f 	and.w	r3, r3, #15
  401672:	b29b      	uxth	r3, r3
  401674:	4413      	add	r3, r2
  401676:	b29b      	uxth	r3, r3
  401678:	f8a7 30aa 	strh.w	r3, [r7, #170]	; 0xaa
    year += 2000;
  40167c:	f8b7 30aa 	ldrh.w	r3, [r7, #170]	; 0xaa
  401680:	f503 63fa 	add.w	r3, r3, #2000	; 0x7d0
  401684:	b29b      	uxth	r3, r3
  401686:	f8a7 30aa 	strh.w	r3, [r7, #170]	; 0xaa
    hrs = ((mBusRegs[MBUS_REG_HRS]>>4)*10) + (mBusRegs[MBUS_REG_HRS]&0x000F); 
  40168a:	4b2c      	ldr	r3, [pc, #176]	; (40173c <GetPvAngle+0x134>)
  40168c:	889b      	ldrh	r3, [r3, #4]
  40168e:	091b      	lsrs	r3, r3, #4
  401690:	b29b      	uxth	r3, r3
  401692:	461a      	mov	r2, r3
  401694:	0092      	lsls	r2, r2, #2
  401696:	4413      	add	r3, r2
  401698:	005b      	lsls	r3, r3, #1
  40169a:	b29a      	uxth	r2, r3
  40169c:	4b27      	ldr	r3, [pc, #156]	; (40173c <GetPvAngle+0x134>)
  40169e:	889b      	ldrh	r3, [r3, #4]
  4016a0:	f003 030f 	and.w	r3, r3, #15
  4016a4:	b29b      	uxth	r3, r3
  4016a6:	4413      	add	r3, r2
  4016a8:	b29b      	uxth	r3, r3
  4016aa:	f8a7 30a8 	strh.w	r3, [r7, #168]	; 0xa8
    min = ((mBusRegs[MBUS_REG_MIN]>>4)*10) + (mBusRegs[MBUS_REG_MIN]&0x000F); 
  4016ae:	4b23      	ldr	r3, [pc, #140]	; (40173c <GetPvAngle+0x134>)
  4016b0:	885b      	ldrh	r3, [r3, #2]
  4016b2:	091b      	lsrs	r3, r3, #4
  4016b4:	b29b      	uxth	r3, r3
  4016b6:	461a      	mov	r2, r3
  4016b8:	0092      	lsls	r2, r2, #2
  4016ba:	4413      	add	r3, r2
  4016bc:	005b      	lsls	r3, r3, #1
  4016be:	b29a      	uxth	r2, r3
  4016c0:	4b1e      	ldr	r3, [pc, #120]	; (40173c <GetPvAngle+0x134>)
  4016c2:	885b      	ldrh	r3, [r3, #2]
  4016c4:	f003 030f 	and.w	r3, r3, #15
  4016c8:	b29b      	uxth	r3, r3
  4016ca:	4413      	add	r3, r2
  4016cc:	b29b      	uxth	r3, r3
  4016ce:	f8a7 30a6 	strh.w	r3, [r7, #166]	; 0xa6
    sec = ((mBusRegs[MBUS_REG_SEC]>>4)*10) + (mBusRegs[MBUS_REG_SEC]&0x000F); 
  4016d2:	4b1a      	ldr	r3, [pc, #104]	; (40173c <GetPvAngle+0x134>)
  4016d4:	881b      	ldrh	r3, [r3, #0]
  4016d6:	091b      	lsrs	r3, r3, #4
  4016d8:	b29b      	uxth	r3, r3
  4016da:	461a      	mov	r2, r3
  4016dc:	0092      	lsls	r2, r2, #2
  4016de:	4413      	add	r3, r2
  4016e0:	005b      	lsls	r3, r3, #1
  4016e2:	b29a      	uxth	r2, r3
  4016e4:	4b15      	ldr	r3, [pc, #84]	; (40173c <GetPvAngle+0x134>)
  4016e6:	881b      	ldrh	r3, [r3, #0]
  4016e8:	f003 030f 	and.w	r3, r3, #15
  4016ec:	b29b      	uxth	r3, r3
  4016ee:	4413      	add	r3, r2
  4016f0:	b29b      	uxth	r3, r3
  4016f2:	f8a7 30a4 	strh.w	r3, [r7, #164]	; 0xa4
        Debug_PutString(",");
        PrintInt(sec);
        Debug_PutString(",");
    #endif
    
    timeInSecs = (hrs*3600 + min*60 + sec)/86400.0f;
  4016f6:	f9b7 30a8 	ldrsh.w	r3, [r7, #168]	; 0xa8
  4016fa:	f44f 6261 	mov.w	r2, #3600	; 0xe10
  4016fe:	fb02 f103 	mul.w	r1, r2, r3
  401702:	f9b7 20a6 	ldrsh.w	r2, [r7, #166]	; 0xa6
  401706:	4613      	mov	r3, r2
  401708:	011b      	lsls	r3, r3, #4
  40170a:	1a9b      	subs	r3, r3, r2
  40170c:	009b      	lsls	r3, r3, #2
  40170e:	18ca      	adds	r2, r1, r3
  401710:	f9b7 30a4 	ldrsh.w	r3, [r7, #164]	; 0xa4
  401714:	441a      	add	r2, r3
  401716:	4b0a      	ldr	r3, [pc, #40]	; (401740 <GetPvAngle+0x138>)
  401718:	4610      	mov	r0, r2
  40171a:	4798      	blx	r3
  40171c:	4602      	mov	r2, r0
  40171e:	4b09      	ldr	r3, [pc, #36]	; (401744 <GetPvAngle+0x13c>)
  401720:	4909      	ldr	r1, [pc, #36]	; (401748 <GetPvAngle+0x140>)
  401722:	4610      	mov	r0, r2
  401724:	4798      	blx	r3
  401726:	4603      	mov	r3, r0
  401728:	f8c7 30a0 	str.w	r3, [r7, #160]	; 0xa0

    //Angle Calcualation Algorithm
	if (mon <= 2)
  40172c:	f9b7 30ac 	ldrsh.w	r3, [r7, #172]	; 0xac
  401730:	2b02      	cmp	r3, #2
  401732:	dc0b      	bgt.n	40174c <GetPvAngle+0x144>
	{
		x1 = 1;
  401734:	2301      	movs	r3, #1
  401736:	f8c7 30b4 	str.w	r3, [r7, #180]	; 0xb4
  40173a:	e00a      	b.n	401752 <GetPvAngle+0x14a>
  40173c:	2000077c 	.word	0x2000077c
  401740:	0040a5a9 	.word	0x0040a5a9
  401744:	0040a7b9 	.word	0x0040a7b9
  401748:	47a8c000 	.word	0x47a8c000
	}
	else
	{
		x1 = 0;
  40174c:	2300      	movs	r3, #0
  40174e:	f8c7 30b4 	str.w	r3, [r7, #180]	; 0xb4
	}
	x2 = 12 * x1;
  401752:	f8d7 20b4 	ldr.w	r2, [r7, #180]	; 0xb4
  401756:	4613      	mov	r3, r2
  401758:	005b      	lsls	r3, r3, #1
  40175a:	4413      	add	r3, r2
  40175c:	009b      	lsls	r3, r3, #2
  40175e:	f8c7 309c 	str.w	r3, [r7, #156]	; 0x9c
	x3 = x2 - 3;
  401762:	f8d7 309c 	ldr.w	r3, [r7, #156]	; 0x9c
  401766:	3b03      	subs	r3, #3
  401768:	f8c7 3098 	str.w	r3, [r7, #152]	; 0x98
	x4 = mon + x3;
  40176c:	f9b7 20ac 	ldrsh.w	r2, [r7, #172]	; 0xac
  401770:	f8d7 3098 	ldr.w	r3, [r7, #152]	; 0x98
  401774:	4413      	add	r3, r2
  401776:	f8c7 3094 	str.w	r3, [r7, #148]	; 0x94
	x5 = 4800 - x1;
  40177a:	f8d7 30b4 	ldr.w	r3, [r7, #180]	; 0xb4
  40177e:	f5c3 5396 	rsb	r3, r3, #4800	; 0x12c0
  401782:	f8c7 3090 	str.w	r3, [r7, #144]	; 0x90
	x7 = x5 + year;
  401786:	f9b7 20aa 	ldrsh.w	r2, [r7, #170]	; 0xaa
  40178a:	f8d7 3090 	ldr.w	r3, [r7, #144]	; 0x90
  40178e:	4413      	add	r3, r2
  401790:	f8c7 308c 	str.w	r3, [r7, #140]	; 0x8c

	y0 = 153*x4;
  401794:	f8d7 2094 	ldr.w	r2, [r7, #148]	; 0x94
  401798:	4613      	mov	r3, r2
  40179a:	00db      	lsls	r3, r3, #3
  40179c:	4413      	add	r3, r2
  40179e:	011a      	lsls	r2, r3, #4
  4017a0:	4413      	add	r3, r2
  4017a2:	f8c7 3088 	str.w	r3, [r7, #136]	; 0x88
	y1 = y0 + 2;
  4017a6:	f8d7 3088 	ldr.w	r3, [r7, #136]	; 0x88
  4017aa:	3302      	adds	r3, #2
  4017ac:	f8c7 3084 	str.w	r3, [r7, #132]	; 0x84
	y2 = y1 / 5.0f;
  4017b0:	4b8a      	ldr	r3, [pc, #552]	; (4019dc <GetPvAngle+0x3d4>)
  4017b2:	f8d7 0084 	ldr.w	r0, [r7, #132]	; 0x84
  4017b6:	4798      	blx	r3
  4017b8:	4602      	mov	r2, r0
  4017ba:	4b89      	ldr	r3, [pc, #548]	; (4019e0 <GetPvAngle+0x3d8>)
  4017bc:	4989      	ldr	r1, [pc, #548]	; (4019e4 <GetPvAngle+0x3dc>)
  4017be:	4610      	mov	r0, r2
  4017c0:	4798      	blx	r3
  4017c2:	4603      	mov	r3, r0
  4017c4:	f8c7 3080 	str.w	r3, [r7, #128]	; 0x80
	y3 = date + y2;
  4017c8:	f9b7 20ae 	ldrsh.w	r2, [r7, #174]	; 0xae
  4017cc:	4b83      	ldr	r3, [pc, #524]	; (4019dc <GetPvAngle+0x3d4>)
  4017ce:	4610      	mov	r0, r2
  4017d0:	4798      	blx	r3
  4017d2:	4602      	mov	r2, r0
  4017d4:	4b84      	ldr	r3, [pc, #528]	; (4019e8 <GetPvAngle+0x3e0>)
  4017d6:	f8d7 1080 	ldr.w	r1, [r7, #128]	; 0x80
  4017da:	4610      	mov	r0, r2
  4017dc:	4798      	blx	r3
  4017de:	4603      	mov	r3, r0
  4017e0:	67fb      	str	r3, [r7, #124]	; 0x7c
	y4 = 365 * x7;
  4017e2:	f8d7 308c 	ldr.w	r3, [r7, #140]	; 0x8c
  4017e6:	f240 126d 	movw	r2, #365	; 0x16d
  4017ea:	fb02 f303 	mul.w	r3, r2, r3
  4017ee:	67bb      	str	r3, [r7, #120]	; 0x78
	y5 = y3 + y4;
  4017f0:	4b7a      	ldr	r3, [pc, #488]	; (4019dc <GetPvAngle+0x3d4>)
  4017f2:	6fb8      	ldr	r0, [r7, #120]	; 0x78
  4017f4:	4798      	blx	r3
  4017f6:	4602      	mov	r2, r0
  4017f8:	4b7b      	ldr	r3, [pc, #492]	; (4019e8 <GetPvAngle+0x3e0>)
  4017fa:	6ff9      	ldr	r1, [r7, #124]	; 0x7c
  4017fc:	4610      	mov	r0, r2
  4017fe:	4798      	blx	r3
  401800:	4603      	mov	r3, r0
  401802:	677b      	str	r3, [r7, #116]	; 0x74
	y6 = x7 / 4.0f;
  401804:	4b75      	ldr	r3, [pc, #468]	; (4019dc <GetPvAngle+0x3d4>)
  401806:	f8d7 008c 	ldr.w	r0, [r7, #140]	; 0x8c
  40180a:	4798      	blx	r3
  40180c:	4602      	mov	r2, r0
  40180e:	4b74      	ldr	r3, [pc, #464]	; (4019e0 <GetPvAngle+0x3d8>)
  401810:	f04f 4181 	mov.w	r1, #1082130432	; 0x40800000
  401814:	4610      	mov	r0, r2
  401816:	4798      	blx	r3
  401818:	4603      	mov	r3, r0
  40181a:	673b      	str	r3, [r7, #112]	; 0x70
	y7 = y5 + y6;
  40181c:	4b72      	ldr	r3, [pc, #456]	; (4019e8 <GetPvAngle+0x3e0>)
  40181e:	6f39      	ldr	r1, [r7, #112]	; 0x70
  401820:	6f78      	ldr	r0, [r7, #116]	; 0x74
  401822:	4798      	blx	r3
  401824:	4603      	mov	r3, r0
  401826:	66fb      	str	r3, [r7, #108]	; 0x6c
	y8 = x7 / 100.0f;
  401828:	4b6c      	ldr	r3, [pc, #432]	; (4019dc <GetPvAngle+0x3d4>)
  40182a:	f8d7 008c 	ldr.w	r0, [r7, #140]	; 0x8c
  40182e:	4798      	blx	r3
  401830:	4602      	mov	r2, r0
  401832:	4b6b      	ldr	r3, [pc, #428]	; (4019e0 <GetPvAngle+0x3d8>)
  401834:	496d      	ldr	r1, [pc, #436]	; (4019ec <GetPvAngle+0x3e4>)
  401836:	4610      	mov	r0, r2
  401838:	4798      	blx	r3
  40183a:	4603      	mov	r3, r0
  40183c:	66bb      	str	r3, [r7, #104]	; 0x68
	y9 = y7 - y8;
  40183e:	4b6c      	ldr	r3, [pc, #432]	; (4019f0 <GetPvAngle+0x3e8>)
  401840:	6eb9      	ldr	r1, [r7, #104]	; 0x68
  401842:	6ef8      	ldr	r0, [r7, #108]	; 0x6c
  401844:	4798      	blx	r3
  401846:	4603      	mov	r3, r0
  401848:	667b      	str	r3, [r7, #100]	; 0x64
	y10 = x7 / 400.0f;
  40184a:	4b64      	ldr	r3, [pc, #400]	; (4019dc <GetPvAngle+0x3d4>)
  40184c:	f8d7 008c 	ldr.w	r0, [r7, #140]	; 0x8c
  401850:	4798      	blx	r3
  401852:	4602      	mov	r2, r0
  401854:	4b62      	ldr	r3, [pc, #392]	; (4019e0 <GetPvAngle+0x3d8>)
  401856:	4967      	ldr	r1, [pc, #412]	; (4019f4 <GetPvAngle+0x3ec>)
  401858:	4610      	mov	r0, r2
  40185a:	4798      	blx	r3
  40185c:	4603      	mov	r3, r0
  40185e:	663b      	str	r3, [r7, #96]	; 0x60
	y11 = y9 + y10;
  401860:	4b61      	ldr	r3, [pc, #388]	; (4019e8 <GetPvAngle+0x3e0>)
  401862:	6e39      	ldr	r1, [r7, #96]	; 0x60
  401864:	6e78      	ldr	r0, [r7, #100]	; 0x64
  401866:	4798      	blx	r3
  401868:	4603      	mov	r3, r0
  40186a:	65fb      	str	r3, [r7, #92]	; 0x5c

	x9 = y11 - 32045;
  40186c:	4b60      	ldr	r3, [pc, #384]	; (4019f0 <GetPvAngle+0x3e8>)
  40186e:	4962      	ldr	r1, [pc, #392]	; (4019f8 <GetPvAngle+0x3f0>)
  401870:	6df8      	ldr	r0, [r7, #92]	; 0x5c
  401872:	4798      	blx	r3
  401874:	4603      	mov	r3, r0
  401876:	65bb      	str	r3, [r7, #88]	; 0x58
	y12 = hrs - 12;
  401878:	f9b7 30a8 	ldrsh.w	r3, [r7, #168]	; 0xa8
  40187c:	3b0c      	subs	r3, #12
  40187e:	657b      	str	r3, [r7, #84]	; 0x54
	y13 = y12 / 24.0f;
  401880:	4b56      	ldr	r3, [pc, #344]	; (4019dc <GetPvAngle+0x3d4>)
  401882:	6d78      	ldr	r0, [r7, #84]	; 0x54
  401884:	4798      	blx	r3
  401886:	4602      	mov	r2, r0
  401888:	4b55      	ldr	r3, [pc, #340]	; (4019e0 <GetPvAngle+0x3d8>)
  40188a:	495c      	ldr	r1, [pc, #368]	; (4019fc <GetPvAngle+0x3f4>)
  40188c:	4610      	mov	r0, r2
  40188e:	4798      	blx	r3
  401890:	4603      	mov	r3, r0
  401892:	653b      	str	r3, [r7, #80]	; 0x50
	y14 = min / 1440.0f;
  401894:	f9b7 20a6 	ldrsh.w	r2, [r7, #166]	; 0xa6
  401898:	4b50      	ldr	r3, [pc, #320]	; (4019dc <GetPvAngle+0x3d4>)
  40189a:	4610      	mov	r0, r2
  40189c:	4798      	blx	r3
  40189e:	4602      	mov	r2, r0
  4018a0:	4b4f      	ldr	r3, [pc, #316]	; (4019e0 <GetPvAngle+0x3d8>)
  4018a2:	4957      	ldr	r1, [pc, #348]	; (401a00 <GetPvAngle+0x3f8>)
  4018a4:	4610      	mov	r0, r2
  4018a6:	4798      	blx	r3
  4018a8:	4603      	mov	r3, r0
  4018aa:	64fb      	str	r3, [r7, #76]	; 0x4c
	y15 = y13 + y14;
  4018ac:	4b4e      	ldr	r3, [pc, #312]	; (4019e8 <GetPvAngle+0x3e0>)
  4018ae:	6cf9      	ldr	r1, [r7, #76]	; 0x4c
  4018b0:	6d38      	ldr	r0, [r7, #80]	; 0x50
  4018b2:	4798      	blx	r3
  4018b4:	4603      	mov	r3, r0
  4018b6:	64bb      	str	r3, [r7, #72]	; 0x48
	y16 = sec / 86400.0f;
  4018b8:	f9b7 20a4 	ldrsh.w	r2, [r7, #164]	; 0xa4
  4018bc:	4b47      	ldr	r3, [pc, #284]	; (4019dc <GetPvAngle+0x3d4>)
  4018be:	4610      	mov	r0, r2
  4018c0:	4798      	blx	r3
  4018c2:	4602      	mov	r2, r0
  4018c4:	4b46      	ldr	r3, [pc, #280]	; (4019e0 <GetPvAngle+0x3d8>)
  4018c6:	494f      	ldr	r1, [pc, #316]	; (401a04 <GetPvAngle+0x3fc>)
  4018c8:	4610      	mov	r0, r2
  4018ca:	4798      	blx	r3
  4018cc:	4603      	mov	r3, r0
  4018ce:	647b      	str	r3, [r7, #68]	; 0x44
	x13 = y15 + y16;
  4018d0:	4b45      	ldr	r3, [pc, #276]	; (4019e8 <GetPvAngle+0x3e0>)
  4018d2:	6c79      	ldr	r1, [r7, #68]	; 0x44
  4018d4:	6cb8      	ldr	r0, [r7, #72]	; 0x48
  4018d6:	4798      	blx	r3
  4018d8:	4603      	mov	r3, r0
  4018da:	643b      	str	r3, [r7, #64]	; 0x40

	e = x9 + x13;
  4018dc:	4b42      	ldr	r3, [pc, #264]	; (4019e8 <GetPvAngle+0x3e0>)
  4018de:	6c39      	ldr	r1, [r7, #64]	; 0x40
  4018e0:	6db8      	ldr	r0, [r7, #88]	; 0x58
  4018e2:	4798      	blx	r3
  4018e4:	4603      	mov	r3, r0
  4018e6:	63fb      	str	r3, [r7, #60]	; 0x3c
	f = (e - 2451545.0f) / 36525.0f;
  4018e8:	4b41      	ldr	r3, [pc, #260]	; (4019f0 <GetPvAngle+0x3e8>)
  4018ea:	4947      	ldr	r1, [pc, #284]	; (401a08 <GetPvAngle+0x400>)
  4018ec:	6bf8      	ldr	r0, [r7, #60]	; 0x3c
  4018ee:	4798      	blx	r3
  4018f0:	4603      	mov	r3, r0
  4018f2:	461a      	mov	r2, r3
  4018f4:	4b3a      	ldr	r3, [pc, #232]	; (4019e0 <GetPvAngle+0x3d8>)
  4018f6:	4945      	ldr	r1, [pc, #276]	; (401a0c <GetPvAngle+0x404>)
  4018f8:	4610      	mov	r0, r2
  4018fa:	4798      	blx	r3
  4018fc:	4603      	mov	r3, r0
  4018fe:	63bb      	str	r3, [r7, #56]	; 0x38
	g = ((int)(280.46646f + f*(36000.76983f + f*0.0003032f))) % 360; //mod
  401900:	4b43      	ldr	r3, [pc, #268]	; (401a10 <GetPvAngle+0x408>)
  401902:	4944      	ldr	r1, [pc, #272]	; (401a14 <GetPvAngle+0x40c>)
  401904:	6bb8      	ldr	r0, [r7, #56]	; 0x38
  401906:	4798      	blx	r3
  401908:	4603      	mov	r3, r0
  40190a:	461a      	mov	r2, r3
  40190c:	4b36      	ldr	r3, [pc, #216]	; (4019e8 <GetPvAngle+0x3e0>)
  40190e:	4942      	ldr	r1, [pc, #264]	; (401a18 <GetPvAngle+0x410>)
  401910:	4610      	mov	r0, r2
  401912:	4798      	blx	r3
  401914:	4603      	mov	r3, r0
  401916:	461a      	mov	r2, r3
  401918:	4b3d      	ldr	r3, [pc, #244]	; (401a10 <GetPvAngle+0x408>)
  40191a:	6bb9      	ldr	r1, [r7, #56]	; 0x38
  40191c:	4610      	mov	r0, r2
  40191e:	4798      	blx	r3
  401920:	4603      	mov	r3, r0
  401922:	461a      	mov	r2, r3
  401924:	4b30      	ldr	r3, [pc, #192]	; (4019e8 <GetPvAngle+0x3e0>)
  401926:	493d      	ldr	r1, [pc, #244]	; (401a1c <GetPvAngle+0x414>)
  401928:	4610      	mov	r0, r2
  40192a:	4798      	blx	r3
  40192c:	4603      	mov	r3, r0
  40192e:	461a      	mov	r2, r3
  401930:	4b3b      	ldr	r3, [pc, #236]	; (401a20 <GetPvAngle+0x418>)
  401932:	4610      	mov	r0, r2
  401934:	4798      	blx	r3
  401936:	4603      	mov	r3, r0
  401938:	4a3a      	ldr	r2, [pc, #232]	; (401a24 <GetPvAngle+0x41c>)
  40193a:	fb83 1202 	smull	r1, r2, r3, r2
  40193e:	441a      	add	r2, r3
  401940:	1211      	asrs	r1, r2, #8
  401942:	17da      	asrs	r2, r3, #31
  401944:	1a8a      	subs	r2, r1, r2
  401946:	f44f 71b4 	mov.w	r1, #360	; 0x168
  40194a:	fb01 f202 	mul.w	r2, r1, r2
  40194e:	1a9a      	subs	r2, r3, r2
  401950:	4b22      	ldr	r3, [pc, #136]	; (4019dc <GetPvAngle+0x3d4>)
  401952:	4610      	mov	r0, r2
  401954:	4798      	blx	r3
  401956:	4603      	mov	r3, r0
  401958:	637b      	str	r3, [r7, #52]	; 0x34
	h = 357.52911f + f*(35999.05029f - 0.0001537f*f);
  40195a:	4b2d      	ldr	r3, [pc, #180]	; (401a10 <GetPvAngle+0x408>)
  40195c:	4932      	ldr	r1, [pc, #200]	; (401a28 <GetPvAngle+0x420>)
  40195e:	6bb8      	ldr	r0, [r7, #56]	; 0x38
  401960:	4798      	blx	r3
  401962:	4603      	mov	r3, r0
  401964:	461a      	mov	r2, r3
  401966:	4b22      	ldr	r3, [pc, #136]	; (4019f0 <GetPvAngle+0x3e8>)
  401968:	4611      	mov	r1, r2
  40196a:	4830      	ldr	r0, [pc, #192]	; (401a2c <GetPvAngle+0x424>)
  40196c:	4798      	blx	r3
  40196e:	4603      	mov	r3, r0
  401970:	461a      	mov	r2, r3
  401972:	4b27      	ldr	r3, [pc, #156]	; (401a10 <GetPvAngle+0x408>)
  401974:	6bb9      	ldr	r1, [r7, #56]	; 0x38
  401976:	4610      	mov	r0, r2
  401978:	4798      	blx	r3
  40197a:	4603      	mov	r3, r0
  40197c:	461a      	mov	r2, r3
  40197e:	4b1a      	ldr	r3, [pc, #104]	; (4019e8 <GetPvAngle+0x3e0>)
  401980:	492b      	ldr	r1, [pc, #172]	; (401a30 <GetPvAngle+0x428>)
  401982:	4610      	mov	r0, r2
  401984:	4798      	blx	r3
  401986:	4603      	mov	r3, r0
  401988:	633b      	str	r3, [r7, #48]	; 0x30
	i = 0.016708634f - f*(0.000042037f + 0.0000001267f*f);
  40198a:	4b21      	ldr	r3, [pc, #132]	; (401a10 <GetPvAngle+0x408>)
  40198c:	4929      	ldr	r1, [pc, #164]	; (401a34 <GetPvAngle+0x42c>)
  40198e:	6bb8      	ldr	r0, [r7, #56]	; 0x38
  401990:	4798      	blx	r3
  401992:	4603      	mov	r3, r0
  401994:	461a      	mov	r2, r3
  401996:	4b14      	ldr	r3, [pc, #80]	; (4019e8 <GetPvAngle+0x3e0>)
  401998:	4927      	ldr	r1, [pc, #156]	; (401a38 <GetPvAngle+0x430>)
  40199a:	4610      	mov	r0, r2
  40199c:	4798      	blx	r3
  40199e:	4603      	mov	r3, r0
  4019a0:	461a      	mov	r2, r3
  4019a2:	4b1b      	ldr	r3, [pc, #108]	; (401a10 <GetPvAngle+0x408>)
  4019a4:	6bb9      	ldr	r1, [r7, #56]	; 0x38
  4019a6:	4610      	mov	r0, r2
  4019a8:	4798      	blx	r3
  4019aa:	4603      	mov	r3, r0
  4019ac:	461a      	mov	r2, r3
  4019ae:	4b10      	ldr	r3, [pc, #64]	; (4019f0 <GetPvAngle+0x3e8>)
  4019b0:	4611      	mov	r1, r2
  4019b2:	4822      	ldr	r0, [pc, #136]	; (401a3c <GetPvAngle+0x434>)
  4019b4:	4798      	blx	r3
  4019b6:	4603      	mov	r3, r0
  4019b8:	62fb      	str	r3, [r7, #44]	; 0x2c
	j = sin(Rad(h))*(1.914602f - f*(0.004817f + 0.000014f*f));
  4019ba:	6b38      	ldr	r0, [r7, #48]	; 0x30
  4019bc:	4b20      	ldr	r3, [pc, #128]	; (401a40 <GetPvAngle+0x438>)
  4019be:	4798      	blx	r3
  4019c0:	4602      	mov	r2, r0
  4019c2:	4b20      	ldr	r3, [pc, #128]	; (401a44 <GetPvAngle+0x43c>)
  4019c4:	4610      	mov	r0, r2
  4019c6:	4798      	blx	r3
  4019c8:	4603      	mov	r3, r0
  4019ca:	460c      	mov	r4, r1
  4019cc:	4618      	mov	r0, r3
  4019ce:	4621      	mov	r1, r4
  4019d0:	4b1d      	ldr	r3, [pc, #116]	; (401a48 <GetPvAngle+0x440>)
  4019d2:	4798      	blx	r3
  4019d4:	4605      	mov	r5, r0
  4019d6:	460e      	mov	r6, r1
  4019d8:	4b0d      	ldr	r3, [pc, #52]	; (401a10 <GetPvAngle+0x408>)
  4019da:	e037      	b.n	401a4c <GetPvAngle+0x444>
  4019dc:	0040a5a9 	.word	0x0040a5a9
  4019e0:	0040a7b9 	.word	0x0040a7b9
  4019e4:	40a00000 	.word	0x40a00000
  4019e8:	0040a441 	.word	0x0040a441
  4019ec:	42c80000 	.word	0x42c80000
  4019f0:	0040a43d 	.word	0x0040a43d
  4019f4:	43c80000 	.word	0x43c80000
  4019f8:	46fa5a00 	.word	0x46fa5a00
  4019fc:	41c00000 	.word	0x41c00000
  401a00:	44b40000 	.word	0x44b40000
  401a04:	47a8c000 	.word	0x47a8c000
  401a08:	4a15a164 	.word	0x4a15a164
  401a0c:	470ead00 	.word	0x470ead00
  401a10:	0040a651 	.word	0x0040a651
  401a14:	399ef6d1 	.word	0x399ef6d1
  401a18:	470ca0c5 	.word	0x470ca0c5
  401a1c:	438c3bb5 	.word	0x438c3bb5
  401a20:	0040a9dd 	.word	0x0040a9dd
  401a24:	b60b60b7 	.word	0xb60b60b7
  401a28:	39212a88 	.word	0x39212a88
  401a2c:	470c9f0d 	.word	0x470c9f0d
  401a30:	43b2c3ba 	.word	0x43b2c3ba
  401a34:	34080b08 	.word	0x34080b08
  401a38:	383050e3 	.word	0x383050e3
  401a3c:	3c88e08c 	.word	0x3c88e08c
  401a40:	00402499 	.word	0x00402499
  401a44:	00409d3d 	.word	0x00409d3d
  401a48:	00407259 	.word	0x00407259
  401a4c:	4994      	ldr	r1, [pc, #592]	; (401ca0 <GetPvAngle+0x698>)
  401a4e:	6bb8      	ldr	r0, [r7, #56]	; 0x38
  401a50:	4798      	blx	r3
  401a52:	4603      	mov	r3, r0
  401a54:	461a      	mov	r2, r3
  401a56:	4b93      	ldr	r3, [pc, #588]	; (401ca4 <GetPvAngle+0x69c>)
  401a58:	4993      	ldr	r1, [pc, #588]	; (401ca8 <GetPvAngle+0x6a0>)
  401a5a:	4610      	mov	r0, r2
  401a5c:	4798      	blx	r3
  401a5e:	4603      	mov	r3, r0
  401a60:	461a      	mov	r2, r3
  401a62:	4b92      	ldr	r3, [pc, #584]	; (401cac <GetPvAngle+0x6a4>)
  401a64:	6bb9      	ldr	r1, [r7, #56]	; 0x38
  401a66:	4610      	mov	r0, r2
  401a68:	4798      	blx	r3
  401a6a:	4603      	mov	r3, r0
  401a6c:	461a      	mov	r2, r3
  401a6e:	4b90      	ldr	r3, [pc, #576]	; (401cb0 <GetPvAngle+0x6a8>)
  401a70:	4611      	mov	r1, r2
  401a72:	4890      	ldr	r0, [pc, #576]	; (401cb4 <GetPvAngle+0x6ac>)
  401a74:	4798      	blx	r3
  401a76:	4603      	mov	r3, r0
  401a78:	461a      	mov	r2, r3
  401a7a:	4b8f      	ldr	r3, [pc, #572]	; (401cb8 <GetPvAngle+0x6b0>)
  401a7c:	4610      	mov	r0, r2
  401a7e:	4798      	blx	r3
  401a80:	4602      	mov	r2, r0
  401a82:	460b      	mov	r3, r1
  401a84:	4c8d      	ldr	r4, [pc, #564]	; (401cbc <GetPvAngle+0x6b4>)
  401a86:	4628      	mov	r0, r5
  401a88:	4631      	mov	r1, r6
  401a8a:	47a0      	blx	r4
  401a8c:	4603      	mov	r3, r0
  401a8e:	460c      	mov	r4, r1
  401a90:	4619      	mov	r1, r3
  401a92:	4622      	mov	r2, r4
  401a94:	4b8a      	ldr	r3, [pc, #552]	; (401cc0 <GetPvAngle+0x6b8>)
  401a96:	4608      	mov	r0, r1
  401a98:	4611      	mov	r1, r2
  401a9a:	4798      	blx	r3
  401a9c:	4603      	mov	r3, r0
  401a9e:	62bb      	str	r3, [r7, #40]	; 0x28
	j = j + sin(Rad(2 * h))*(0.019993f - 0.000101f*f);
  401aa0:	4b85      	ldr	r3, [pc, #532]	; (401cb8 <GetPvAngle+0x6b0>)
  401aa2:	6ab8      	ldr	r0, [r7, #40]	; 0x28
  401aa4:	4798      	blx	r3
  401aa6:	4605      	mov	r5, r0
  401aa8:	460e      	mov	r6, r1
  401aaa:	6b3a      	ldr	r2, [r7, #48]	; 0x30
  401aac:	4b7d      	ldr	r3, [pc, #500]	; (401ca4 <GetPvAngle+0x69c>)
  401aae:	4611      	mov	r1, r2
  401ab0:	4610      	mov	r0, r2
  401ab2:	4798      	blx	r3
  401ab4:	4603      	mov	r3, r0
  401ab6:	4618      	mov	r0, r3
  401ab8:	4b82      	ldr	r3, [pc, #520]	; (401cc4 <GetPvAngle+0x6bc>)
  401aba:	4798      	blx	r3
  401abc:	4602      	mov	r2, r0
  401abe:	4b7e      	ldr	r3, [pc, #504]	; (401cb8 <GetPvAngle+0x6b0>)
  401ac0:	4610      	mov	r0, r2
  401ac2:	4798      	blx	r3
  401ac4:	4603      	mov	r3, r0
  401ac6:	460c      	mov	r4, r1
  401ac8:	4618      	mov	r0, r3
  401aca:	4621      	mov	r1, r4
  401acc:	4b7e      	ldr	r3, [pc, #504]	; (401cc8 <GetPvAngle+0x6c0>)
  401ace:	4798      	blx	r3
  401ad0:	4680      	mov	r8, r0
  401ad2:	4689      	mov	r9, r1
  401ad4:	4b75      	ldr	r3, [pc, #468]	; (401cac <GetPvAngle+0x6a4>)
  401ad6:	497d      	ldr	r1, [pc, #500]	; (401ccc <GetPvAngle+0x6c4>)
  401ad8:	6bb8      	ldr	r0, [r7, #56]	; 0x38
  401ada:	4798      	blx	r3
  401adc:	4603      	mov	r3, r0
  401ade:	461a      	mov	r2, r3
  401ae0:	4b73      	ldr	r3, [pc, #460]	; (401cb0 <GetPvAngle+0x6a8>)
  401ae2:	4611      	mov	r1, r2
  401ae4:	487a      	ldr	r0, [pc, #488]	; (401cd0 <GetPvAngle+0x6c8>)
  401ae6:	4798      	blx	r3
  401ae8:	4603      	mov	r3, r0
  401aea:	461a      	mov	r2, r3
  401aec:	4b72      	ldr	r3, [pc, #456]	; (401cb8 <GetPvAngle+0x6b0>)
  401aee:	4610      	mov	r0, r2
  401af0:	4798      	blx	r3
  401af2:	4602      	mov	r2, r0
  401af4:	460b      	mov	r3, r1
  401af6:	4c71      	ldr	r4, [pc, #452]	; (401cbc <GetPvAngle+0x6b4>)
  401af8:	4640      	mov	r0, r8
  401afa:	4649      	mov	r1, r9
  401afc:	47a0      	blx	r4
  401afe:	4603      	mov	r3, r0
  401b00:	460c      	mov	r4, r1
  401b02:	461a      	mov	r2, r3
  401b04:	4623      	mov	r3, r4
  401b06:	4c73      	ldr	r4, [pc, #460]	; (401cd4 <GetPvAngle+0x6cc>)
  401b08:	4628      	mov	r0, r5
  401b0a:	4631      	mov	r1, r6
  401b0c:	47a0      	blx	r4
  401b0e:	4603      	mov	r3, r0
  401b10:	460c      	mov	r4, r1
  401b12:	4619      	mov	r1, r3
  401b14:	4622      	mov	r2, r4
  401b16:	4b6a      	ldr	r3, [pc, #424]	; (401cc0 <GetPvAngle+0x6b8>)
  401b18:	4608      	mov	r0, r1
  401b1a:	4611      	mov	r1, r2
  401b1c:	4798      	blx	r3
  401b1e:	4603      	mov	r3, r0
  401b20:	62bb      	str	r3, [r7, #40]	; 0x28
	j = j + sin(Rad(3 * h))*0.000289f;
  401b22:	4b65      	ldr	r3, [pc, #404]	; (401cb8 <GetPvAngle+0x6b0>)
  401b24:	6ab8      	ldr	r0, [r7, #40]	; 0x28
  401b26:	4798      	blx	r3
  401b28:	4605      	mov	r5, r0
  401b2a:	460e      	mov	r6, r1
  401b2c:	4b5f      	ldr	r3, [pc, #380]	; (401cac <GetPvAngle+0x6a4>)
  401b2e:	496a      	ldr	r1, [pc, #424]	; (401cd8 <GetPvAngle+0x6d0>)
  401b30:	6b38      	ldr	r0, [r7, #48]	; 0x30
  401b32:	4798      	blx	r3
  401b34:	4603      	mov	r3, r0
  401b36:	4618      	mov	r0, r3
  401b38:	4b62      	ldr	r3, [pc, #392]	; (401cc4 <GetPvAngle+0x6bc>)
  401b3a:	4798      	blx	r3
  401b3c:	4602      	mov	r2, r0
  401b3e:	4b5e      	ldr	r3, [pc, #376]	; (401cb8 <GetPvAngle+0x6b0>)
  401b40:	4610      	mov	r0, r2
  401b42:	4798      	blx	r3
  401b44:	4603      	mov	r3, r0
  401b46:	460c      	mov	r4, r1
  401b48:	4618      	mov	r0, r3
  401b4a:	4621      	mov	r1, r4
  401b4c:	4b5e      	ldr	r3, [pc, #376]	; (401cc8 <GetPvAngle+0x6c0>)
  401b4e:	4798      	blx	r3
  401b50:	4c5a      	ldr	r4, [pc, #360]	; (401cbc <GetPvAngle+0x6b4>)
  401b52:	a34f      	add	r3, pc, #316	; (adr r3, 401c90 <GetPvAngle+0x688>)
  401b54:	e9d3 2300 	ldrd	r2, r3, [r3]
  401b58:	47a0      	blx	r4
  401b5a:	4603      	mov	r3, r0
  401b5c:	460c      	mov	r4, r1
  401b5e:	461a      	mov	r2, r3
  401b60:	4623      	mov	r3, r4
  401b62:	4c5c      	ldr	r4, [pc, #368]	; (401cd4 <GetPvAngle+0x6cc>)
  401b64:	4628      	mov	r0, r5
  401b66:	4631      	mov	r1, r6
  401b68:	47a0      	blx	r4
  401b6a:	4603      	mov	r3, r0
  401b6c:	460c      	mov	r4, r1
  401b6e:	4619      	mov	r1, r3
  401b70:	4622      	mov	r2, r4
  401b72:	4b53      	ldr	r3, [pc, #332]	; (401cc0 <GetPvAngle+0x6b8>)
  401b74:	4608      	mov	r0, r1
  401b76:	4611      	mov	r1, r2
  401b78:	4798      	blx	r3
  401b7a:	4603      	mov	r3, r0
  401b7c:	62bb      	str	r3, [r7, #40]	; 0x28
	k = g + j;
  401b7e:	4b49      	ldr	r3, [pc, #292]	; (401ca4 <GetPvAngle+0x69c>)
  401b80:	6ab9      	ldr	r1, [r7, #40]	; 0x28
  401b82:	6b78      	ldr	r0, [r7, #52]	; 0x34
  401b84:	4798      	blx	r3
  401b86:	4603      	mov	r3, r0
  401b88:	627b      	str	r3, [r7, #36]	; 0x24
	l = k - 0.00569f - 0.00478f*sin(Rad(125.04f - 1934.136f*f));
  401b8a:	4b49      	ldr	r3, [pc, #292]	; (401cb0 <GetPvAngle+0x6a8>)
  401b8c:	4953      	ldr	r1, [pc, #332]	; (401cdc <GetPvAngle+0x6d4>)
  401b8e:	6a78      	ldr	r0, [r7, #36]	; 0x24
  401b90:	4798      	blx	r3
  401b92:	4603      	mov	r3, r0
  401b94:	461a      	mov	r2, r3
  401b96:	4b48      	ldr	r3, [pc, #288]	; (401cb8 <GetPvAngle+0x6b0>)
  401b98:	4610      	mov	r0, r2
  401b9a:	4798      	blx	r3
  401b9c:	4605      	mov	r5, r0
  401b9e:	460e      	mov	r6, r1
  401ba0:	4b42      	ldr	r3, [pc, #264]	; (401cac <GetPvAngle+0x6a4>)
  401ba2:	494f      	ldr	r1, [pc, #316]	; (401ce0 <GetPvAngle+0x6d8>)
  401ba4:	6bb8      	ldr	r0, [r7, #56]	; 0x38
  401ba6:	4798      	blx	r3
  401ba8:	4603      	mov	r3, r0
  401baa:	461a      	mov	r2, r3
  401bac:	4b40      	ldr	r3, [pc, #256]	; (401cb0 <GetPvAngle+0x6a8>)
  401bae:	4611      	mov	r1, r2
  401bb0:	484c      	ldr	r0, [pc, #304]	; (401ce4 <GetPvAngle+0x6dc>)
  401bb2:	4798      	blx	r3
  401bb4:	4603      	mov	r3, r0
  401bb6:	4618      	mov	r0, r3
  401bb8:	4b42      	ldr	r3, [pc, #264]	; (401cc4 <GetPvAngle+0x6bc>)
  401bba:	4798      	blx	r3
  401bbc:	4602      	mov	r2, r0
  401bbe:	4b3e      	ldr	r3, [pc, #248]	; (401cb8 <GetPvAngle+0x6b0>)
  401bc0:	4610      	mov	r0, r2
  401bc2:	4798      	blx	r3
  401bc4:	4603      	mov	r3, r0
  401bc6:	460c      	mov	r4, r1
  401bc8:	4618      	mov	r0, r3
  401bca:	4621      	mov	r1, r4
  401bcc:	4b3e      	ldr	r3, [pc, #248]	; (401cc8 <GetPvAngle+0x6c0>)
  401bce:	4798      	blx	r3
  401bd0:	4c3a      	ldr	r4, [pc, #232]	; (401cbc <GetPvAngle+0x6b4>)
  401bd2:	a331      	add	r3, pc, #196	; (adr r3, 401c98 <GetPvAngle+0x690>)
  401bd4:	e9d3 2300 	ldrd	r2, r3, [r3]
  401bd8:	47a0      	blx	r4
  401bda:	4603      	mov	r3, r0
  401bdc:	460c      	mov	r4, r1
  401bde:	461a      	mov	r2, r3
  401be0:	4623      	mov	r3, r4
  401be2:	4c41      	ldr	r4, [pc, #260]	; (401ce8 <GetPvAngle+0x6e0>)
  401be4:	4628      	mov	r0, r5
  401be6:	4631      	mov	r1, r6
  401be8:	47a0      	blx	r4
  401bea:	4603      	mov	r3, r0
  401bec:	460c      	mov	r4, r1
  401bee:	4619      	mov	r1, r3
  401bf0:	4622      	mov	r2, r4
  401bf2:	4b33      	ldr	r3, [pc, #204]	; (401cc0 <GetPvAngle+0x6b8>)
  401bf4:	4608      	mov	r0, r1
  401bf6:	4611      	mov	r1, r2
  401bf8:	4798      	blx	r3
  401bfa:	4603      	mov	r3, r0
  401bfc:	623b      	str	r3, [r7, #32]
	m = 23 + (26 + ((21.448f - f*(46.815f + f*(0.00059f - f*0.001813f)))) / 60.0f) / 60.0f;
  401bfe:	4b2b      	ldr	r3, [pc, #172]	; (401cac <GetPvAngle+0x6a4>)
  401c00:	493a      	ldr	r1, [pc, #232]	; (401cec <GetPvAngle+0x6e4>)
  401c02:	6bb8      	ldr	r0, [r7, #56]	; 0x38
  401c04:	4798      	blx	r3
  401c06:	4603      	mov	r3, r0
  401c08:	461a      	mov	r2, r3
  401c0a:	4b29      	ldr	r3, [pc, #164]	; (401cb0 <GetPvAngle+0x6a8>)
  401c0c:	4611      	mov	r1, r2
  401c0e:	4838      	ldr	r0, [pc, #224]	; (401cf0 <GetPvAngle+0x6e8>)
  401c10:	4798      	blx	r3
  401c12:	4603      	mov	r3, r0
  401c14:	461a      	mov	r2, r3
  401c16:	4b25      	ldr	r3, [pc, #148]	; (401cac <GetPvAngle+0x6a4>)
  401c18:	6bb9      	ldr	r1, [r7, #56]	; 0x38
  401c1a:	4610      	mov	r0, r2
  401c1c:	4798      	blx	r3
  401c1e:	4603      	mov	r3, r0
  401c20:	461a      	mov	r2, r3
  401c22:	4b20      	ldr	r3, [pc, #128]	; (401ca4 <GetPvAngle+0x69c>)
  401c24:	4933      	ldr	r1, [pc, #204]	; (401cf4 <GetPvAngle+0x6ec>)
  401c26:	4610      	mov	r0, r2
  401c28:	4798      	blx	r3
  401c2a:	4603      	mov	r3, r0
  401c2c:	461a      	mov	r2, r3
  401c2e:	4b1f      	ldr	r3, [pc, #124]	; (401cac <GetPvAngle+0x6a4>)
  401c30:	6bb9      	ldr	r1, [r7, #56]	; 0x38
  401c32:	4610      	mov	r0, r2
  401c34:	4798      	blx	r3
  401c36:	4603      	mov	r3, r0
  401c38:	461a      	mov	r2, r3
  401c3a:	4b1d      	ldr	r3, [pc, #116]	; (401cb0 <GetPvAngle+0x6a8>)
  401c3c:	4611      	mov	r1, r2
  401c3e:	482e      	ldr	r0, [pc, #184]	; (401cf8 <GetPvAngle+0x6f0>)
  401c40:	4798      	blx	r3
  401c42:	4603      	mov	r3, r0
  401c44:	461a      	mov	r2, r3
  401c46:	4b2d      	ldr	r3, [pc, #180]	; (401cfc <GetPvAngle+0x6f4>)
  401c48:	492d      	ldr	r1, [pc, #180]	; (401d00 <GetPvAngle+0x6f8>)
  401c4a:	4610      	mov	r0, r2
  401c4c:	4798      	blx	r3
  401c4e:	4603      	mov	r3, r0
  401c50:	461a      	mov	r2, r3
  401c52:	4b14      	ldr	r3, [pc, #80]	; (401ca4 <GetPvAngle+0x69c>)
  401c54:	492b      	ldr	r1, [pc, #172]	; (401d04 <GetPvAngle+0x6fc>)
  401c56:	4610      	mov	r0, r2
  401c58:	4798      	blx	r3
  401c5a:	4603      	mov	r3, r0
  401c5c:	461a      	mov	r2, r3
  401c5e:	4b27      	ldr	r3, [pc, #156]	; (401cfc <GetPvAngle+0x6f4>)
  401c60:	4927      	ldr	r1, [pc, #156]	; (401d00 <GetPvAngle+0x6f8>)
  401c62:	4610      	mov	r0, r2
  401c64:	4798      	blx	r3
  401c66:	4603      	mov	r3, r0
  401c68:	461a      	mov	r2, r3
  401c6a:	4b0e      	ldr	r3, [pc, #56]	; (401ca4 <GetPvAngle+0x69c>)
  401c6c:	4926      	ldr	r1, [pc, #152]	; (401d08 <GetPvAngle+0x700>)
  401c6e:	4610      	mov	r0, r2
  401c70:	4798      	blx	r3
  401c72:	4603      	mov	r3, r0
  401c74:	61fb      	str	r3, [r7, #28]
	n = m + 0.00256f*cos(Rad(125.04f - 1934.136f*f));
  401c76:	4b10      	ldr	r3, [pc, #64]	; (401cb8 <GetPvAngle+0x6b0>)
  401c78:	69f8      	ldr	r0, [r7, #28]
  401c7a:	4798      	blx	r3
  401c7c:	4605      	mov	r5, r0
  401c7e:	460e      	mov	r6, r1
  401c80:	4b0a      	ldr	r3, [pc, #40]	; (401cac <GetPvAngle+0x6a4>)
  401c82:	4917      	ldr	r1, [pc, #92]	; (401ce0 <GetPvAngle+0x6d8>)
  401c84:	6bb8      	ldr	r0, [r7, #56]	; 0x38
  401c86:	4798      	blx	r3
  401c88:	4603      	mov	r3, r0
  401c8a:	e03f      	b.n	401d0c <GetPvAngle+0x704>
  401c8c:	f3af 8000 	nop.w
  401c90:	80000000 	.word	0x80000000
  401c94:	3f32f09d 	.word	0x3f32f09d
  401c98:	80000000 	.word	0x80000000
  401c9c:	3f739431 	.word	0x3f739431
  401ca0:	376ae18b 	.word	0x376ae18b
  401ca4:	0040a441 	.word	0x0040a441
  401ca8:	3b9dd7ed 	.word	0x3b9dd7ed
  401cac:	0040a651 	.word	0x0040a651
  401cb0:	0040a43d 	.word	0x0040a43d
  401cb4:	3ff511ae 	.word	0x3ff511ae
  401cb8:	00409d3d 	.word	0x00409d3d
  401cbc:	00409de5 	.word	0x00409de5
  401cc0:	0040a395 	.word	0x0040a395
  401cc4:	00402499 	.word	0x00402499
  401cc8:	00407259 	.word	0x00407259
  401ccc:	38d3cff6 	.word	0x38d3cff6
  401cd0:	3ca3c85c 	.word	0x3ca3c85c
  401cd4:	00409a81 	.word	0x00409a81
  401cd8:	40400000 	.word	0x40400000
  401cdc:	3bba732e 	.word	0x3bba732e
  401ce0:	44f1c45a 	.word	0x44f1c45a
  401ce4:	42fa147b 	.word	0x42fa147b
  401ce8:	00409a7d 	.word	0x00409a7d
  401cec:	3aeda22f 	.word	0x3aeda22f
  401cf0:	3a1aaa3b 	.word	0x3a1aaa3b
  401cf4:	423b428f 	.word	0x423b428f
  401cf8:	41ab9581 	.word	0x41ab9581
  401cfc:	0040a7b9 	.word	0x0040a7b9
  401d00:	42700000 	.word	0x42700000
  401d04:	41d00000 	.word	0x41d00000
  401d08:	41b80000 	.word	0x41b80000
  401d0c:	461a      	mov	r2, r3
  401d0e:	4ba2      	ldr	r3, [pc, #648]	; (401f98 <GetPvAngle+0x990>)
  401d10:	4611      	mov	r1, r2
  401d12:	48a2      	ldr	r0, [pc, #648]	; (401f9c <GetPvAngle+0x994>)
  401d14:	4798      	blx	r3
  401d16:	4603      	mov	r3, r0
  401d18:	4618      	mov	r0, r3
  401d1a:	4ba1      	ldr	r3, [pc, #644]	; (401fa0 <GetPvAngle+0x998>)
  401d1c:	4798      	blx	r3
  401d1e:	4602      	mov	r2, r0
  401d20:	4ba0      	ldr	r3, [pc, #640]	; (401fa4 <GetPvAngle+0x99c>)
  401d22:	4610      	mov	r0, r2
  401d24:	4798      	blx	r3
  401d26:	4603      	mov	r3, r0
  401d28:	460c      	mov	r4, r1
  401d2a:	4618      	mov	r0, r3
  401d2c:	4621      	mov	r1, r4
  401d2e:	4b9e      	ldr	r3, [pc, #632]	; (401fa8 <GetPvAngle+0x9a0>)
  401d30:	4798      	blx	r3
  401d32:	4c9e      	ldr	r4, [pc, #632]	; (401fac <GetPvAngle+0x9a4>)
  401d34:	a396      	add	r3, pc, #600	; (adr r3, 401f90 <GetPvAngle+0x988>)
  401d36:	e9d3 2300 	ldrd	r2, r3, [r3]
  401d3a:	47a0      	blx	r4
  401d3c:	4603      	mov	r3, r0
  401d3e:	460c      	mov	r4, r1
  401d40:	461a      	mov	r2, r3
  401d42:	4623      	mov	r3, r4
  401d44:	4c9a      	ldr	r4, [pc, #616]	; (401fb0 <GetPvAngle+0x9a8>)
  401d46:	4628      	mov	r0, r5
  401d48:	4631      	mov	r1, r6
  401d4a:	47a0      	blx	r4
  401d4c:	4603      	mov	r3, r0
  401d4e:	460c      	mov	r4, r1
  401d50:	4619      	mov	r1, r3
  401d52:	4622      	mov	r2, r4
  401d54:	4b97      	ldr	r3, [pc, #604]	; (401fb4 <GetPvAngle+0x9ac>)
  401d56:	4608      	mov	r0, r1
  401d58:	4611      	mov	r1, r2
  401d5a:	4798      	blx	r3
  401d5c:	4603      	mov	r3, r0
  401d5e:	61bb      	str	r3, [r7, #24]
	o = Deg(asin(sin(Rad(n))*sin(Rad(l))));
  401d60:	69b8      	ldr	r0, [r7, #24]
  401d62:	4b8f      	ldr	r3, [pc, #572]	; (401fa0 <GetPvAngle+0x998>)
  401d64:	4798      	blx	r3
  401d66:	4602      	mov	r2, r0
  401d68:	4b8e      	ldr	r3, [pc, #568]	; (401fa4 <GetPvAngle+0x99c>)
  401d6a:	4610      	mov	r0, r2
  401d6c:	4798      	blx	r3
  401d6e:	4603      	mov	r3, r0
  401d70:	460c      	mov	r4, r1
  401d72:	4618      	mov	r0, r3
  401d74:	4621      	mov	r1, r4
  401d76:	4b90      	ldr	r3, [pc, #576]	; (401fb8 <GetPvAngle+0x9b0>)
  401d78:	4798      	blx	r3
  401d7a:	4605      	mov	r5, r0
  401d7c:	460e      	mov	r6, r1
  401d7e:	6a38      	ldr	r0, [r7, #32]
  401d80:	4b87      	ldr	r3, [pc, #540]	; (401fa0 <GetPvAngle+0x998>)
  401d82:	4798      	blx	r3
  401d84:	4602      	mov	r2, r0
  401d86:	4b87      	ldr	r3, [pc, #540]	; (401fa4 <GetPvAngle+0x99c>)
  401d88:	4610      	mov	r0, r2
  401d8a:	4798      	blx	r3
  401d8c:	4603      	mov	r3, r0
  401d8e:	460c      	mov	r4, r1
  401d90:	4618      	mov	r0, r3
  401d92:	4621      	mov	r1, r4
  401d94:	4b88      	ldr	r3, [pc, #544]	; (401fb8 <GetPvAngle+0x9b0>)
  401d96:	4798      	blx	r3
  401d98:	4602      	mov	r2, r0
  401d9a:	460b      	mov	r3, r1
  401d9c:	4c83      	ldr	r4, [pc, #524]	; (401fac <GetPvAngle+0x9a4>)
  401d9e:	4628      	mov	r0, r5
  401da0:	4631      	mov	r1, r6
  401da2:	47a0      	blx	r4
  401da4:	4603      	mov	r3, r0
  401da6:	460c      	mov	r4, r1
  401da8:	4618      	mov	r0, r3
  401daa:	4621      	mov	r1, r4
  401dac:	4b83      	ldr	r3, [pc, #524]	; (401fbc <GetPvAngle+0x9b4>)
  401dae:	4798      	blx	r3
  401db0:	460a      	mov	r2, r1
  401db2:	4601      	mov	r1, r0
  401db4:	4b7f      	ldr	r3, [pc, #508]	; (401fb4 <GetPvAngle+0x9ac>)
  401db6:	4608      	mov	r0, r1
  401db8:	4611      	mov	r1, r2
  401dba:	4798      	blx	r3
  401dbc:	4603      	mov	r3, r0
  401dbe:	4618      	mov	r0, r3
  401dc0:	4b7f      	ldr	r3, [pc, #508]	; (401fc0 <GetPvAngle+0x9b8>)
  401dc2:	4798      	blx	r3
  401dc4:	6178      	str	r0, [r7, #20]
	p = tan(Rad(n / 2))*tan(Rad(n / 2));
  401dc6:	4b7f      	ldr	r3, [pc, #508]	; (401fc4 <GetPvAngle+0x9bc>)
  401dc8:	f04f 4180 	mov.w	r1, #1073741824	; 0x40000000
  401dcc:	69b8      	ldr	r0, [r7, #24]
  401dce:	4798      	blx	r3
  401dd0:	4603      	mov	r3, r0
  401dd2:	4618      	mov	r0, r3
  401dd4:	4b72      	ldr	r3, [pc, #456]	; (401fa0 <GetPvAngle+0x998>)
  401dd6:	4798      	blx	r3
  401dd8:	4602      	mov	r2, r0
  401dda:	4b72      	ldr	r3, [pc, #456]	; (401fa4 <GetPvAngle+0x99c>)
  401ddc:	4610      	mov	r0, r2
  401dde:	4798      	blx	r3
  401de0:	4603      	mov	r3, r0
  401de2:	460c      	mov	r4, r1
  401de4:	4618      	mov	r0, r3
  401de6:	4621      	mov	r1, r4
  401de8:	4b77      	ldr	r3, [pc, #476]	; (401fc8 <GetPvAngle+0x9c0>)
  401dea:	4798      	blx	r3
  401dec:	4605      	mov	r5, r0
  401dee:	460e      	mov	r6, r1
  401df0:	4b74      	ldr	r3, [pc, #464]	; (401fc4 <GetPvAngle+0x9bc>)
  401df2:	f04f 4180 	mov.w	r1, #1073741824	; 0x40000000
  401df6:	69b8      	ldr	r0, [r7, #24]
  401df8:	4798      	blx	r3
  401dfa:	4603      	mov	r3, r0
  401dfc:	4618      	mov	r0, r3
  401dfe:	4b68      	ldr	r3, [pc, #416]	; (401fa0 <GetPvAngle+0x998>)
  401e00:	4798      	blx	r3
  401e02:	4602      	mov	r2, r0
  401e04:	4b67      	ldr	r3, [pc, #412]	; (401fa4 <GetPvAngle+0x99c>)
  401e06:	4610      	mov	r0, r2
  401e08:	4798      	blx	r3
  401e0a:	4603      	mov	r3, r0
  401e0c:	460c      	mov	r4, r1
  401e0e:	4618      	mov	r0, r3
  401e10:	4621      	mov	r1, r4
  401e12:	4b6d      	ldr	r3, [pc, #436]	; (401fc8 <GetPvAngle+0x9c0>)
  401e14:	4798      	blx	r3
  401e16:	4602      	mov	r2, r0
  401e18:	460b      	mov	r3, r1
  401e1a:	4c64      	ldr	r4, [pc, #400]	; (401fac <GetPvAngle+0x9a4>)
  401e1c:	4628      	mov	r0, r5
  401e1e:	4631      	mov	r1, r6
  401e20:	47a0      	blx	r4
  401e22:	4603      	mov	r3, r0
  401e24:	460c      	mov	r4, r1
  401e26:	4619      	mov	r1, r3
  401e28:	4622      	mov	r2, r4
  401e2a:	4b62      	ldr	r3, [pc, #392]	; (401fb4 <GetPvAngle+0x9ac>)
  401e2c:	4608      	mov	r0, r1
  401e2e:	4611      	mov	r1, r2
  401e30:	4798      	blx	r3
  401e32:	4603      	mov	r3, r0
  401e34:	613b      	str	r3, [r7, #16]
	q = 4.0f * Deg(p*sin(2.0f * Rad(g)) - 2.0f * i*sin(Rad(h)) + 4.0f * i*p*sin(Rad(h))*cos(2.0f * Rad(g)) - 0.5f*p*p*sin(4.0f * Rad(g)) - 1.25f*i*i*sin(2.0f * Rad(h)));
  401e36:	4b5b      	ldr	r3, [pc, #364]	; (401fa4 <GetPvAngle+0x99c>)
  401e38:	6938      	ldr	r0, [r7, #16]
  401e3a:	4798      	blx	r3
  401e3c:	4605      	mov	r5, r0
  401e3e:	460e      	mov	r6, r1
  401e40:	6b78      	ldr	r0, [r7, #52]	; 0x34
  401e42:	4b57      	ldr	r3, [pc, #348]	; (401fa0 <GetPvAngle+0x998>)
  401e44:	4798      	blx	r3
  401e46:	4602      	mov	r2, r0
  401e48:	4b60      	ldr	r3, [pc, #384]	; (401fcc <GetPvAngle+0x9c4>)
  401e4a:	4611      	mov	r1, r2
  401e4c:	4610      	mov	r0, r2
  401e4e:	4798      	blx	r3
  401e50:	4603      	mov	r3, r0
  401e52:	461a      	mov	r2, r3
  401e54:	4b53      	ldr	r3, [pc, #332]	; (401fa4 <GetPvAngle+0x99c>)
  401e56:	4610      	mov	r0, r2
  401e58:	4798      	blx	r3
  401e5a:	4603      	mov	r3, r0
  401e5c:	460c      	mov	r4, r1
  401e5e:	4618      	mov	r0, r3
  401e60:	4621      	mov	r1, r4
  401e62:	4b55      	ldr	r3, [pc, #340]	; (401fb8 <GetPvAngle+0x9b0>)
  401e64:	4798      	blx	r3
  401e66:	4602      	mov	r2, r0
  401e68:	460b      	mov	r3, r1
  401e6a:	4c50      	ldr	r4, [pc, #320]	; (401fac <GetPvAngle+0x9a4>)
  401e6c:	4628      	mov	r0, r5
  401e6e:	4631      	mov	r1, r6
  401e70:	47a0      	blx	r4
  401e72:	4603      	mov	r3, r0
  401e74:	460c      	mov	r4, r1
  401e76:	461d      	mov	r5, r3
  401e78:	4626      	mov	r6, r4
  401e7a:	6afa      	ldr	r2, [r7, #44]	; 0x2c
  401e7c:	4b53      	ldr	r3, [pc, #332]	; (401fcc <GetPvAngle+0x9c4>)
  401e7e:	4611      	mov	r1, r2
  401e80:	4610      	mov	r0, r2
  401e82:	4798      	blx	r3
  401e84:	4603      	mov	r3, r0
  401e86:	461a      	mov	r2, r3
  401e88:	4b46      	ldr	r3, [pc, #280]	; (401fa4 <GetPvAngle+0x99c>)
  401e8a:	4610      	mov	r0, r2
  401e8c:	4798      	blx	r3
  401e8e:	4680      	mov	r8, r0
  401e90:	4689      	mov	r9, r1
  401e92:	6b38      	ldr	r0, [r7, #48]	; 0x30
  401e94:	4b42      	ldr	r3, [pc, #264]	; (401fa0 <GetPvAngle+0x998>)
  401e96:	4798      	blx	r3
  401e98:	4602      	mov	r2, r0
  401e9a:	4b42      	ldr	r3, [pc, #264]	; (401fa4 <GetPvAngle+0x99c>)
  401e9c:	4610      	mov	r0, r2
  401e9e:	4798      	blx	r3
  401ea0:	4603      	mov	r3, r0
  401ea2:	460c      	mov	r4, r1
  401ea4:	4618      	mov	r0, r3
  401ea6:	4621      	mov	r1, r4
  401ea8:	4b43      	ldr	r3, [pc, #268]	; (401fb8 <GetPvAngle+0x9b0>)
  401eaa:	4798      	blx	r3
  401eac:	4602      	mov	r2, r0
  401eae:	460b      	mov	r3, r1
  401eb0:	4c3e      	ldr	r4, [pc, #248]	; (401fac <GetPvAngle+0x9a4>)
  401eb2:	4640      	mov	r0, r8
  401eb4:	4649      	mov	r1, r9
  401eb6:	47a0      	blx	r4
  401eb8:	4603      	mov	r3, r0
  401eba:	460c      	mov	r4, r1
  401ebc:	461a      	mov	r2, r3
  401ebe:	4623      	mov	r3, r4
  401ec0:	4c43      	ldr	r4, [pc, #268]	; (401fd0 <GetPvAngle+0x9c8>)
  401ec2:	4628      	mov	r0, r5
  401ec4:	4631      	mov	r1, r6
  401ec6:	47a0      	blx	r4
  401ec8:	4603      	mov	r3, r0
  401eca:	460c      	mov	r4, r1
  401ecc:	461d      	mov	r5, r3
  401ece:	4626      	mov	r6, r4
  401ed0:	4b40      	ldr	r3, [pc, #256]	; (401fd4 <GetPvAngle+0x9cc>)
  401ed2:	f04f 4181 	mov.w	r1, #1082130432	; 0x40800000
  401ed6:	6af8      	ldr	r0, [r7, #44]	; 0x2c
  401ed8:	4798      	blx	r3
  401eda:	4603      	mov	r3, r0
  401edc:	461a      	mov	r2, r3
  401ede:	4b3d      	ldr	r3, [pc, #244]	; (401fd4 <GetPvAngle+0x9cc>)
  401ee0:	6939      	ldr	r1, [r7, #16]
  401ee2:	4610      	mov	r0, r2
  401ee4:	4798      	blx	r3
  401ee6:	4603      	mov	r3, r0
  401ee8:	461a      	mov	r2, r3
  401eea:	4b2e      	ldr	r3, [pc, #184]	; (401fa4 <GetPvAngle+0x99c>)
  401eec:	4610      	mov	r0, r2
  401eee:	4798      	blx	r3
  401ef0:	4680      	mov	r8, r0
  401ef2:	4689      	mov	r9, r1
  401ef4:	6b38      	ldr	r0, [r7, #48]	; 0x30
  401ef6:	4b2a      	ldr	r3, [pc, #168]	; (401fa0 <GetPvAngle+0x998>)
  401ef8:	4798      	blx	r3
  401efa:	4602      	mov	r2, r0
  401efc:	4b29      	ldr	r3, [pc, #164]	; (401fa4 <GetPvAngle+0x99c>)
  401efe:	4610      	mov	r0, r2
  401f00:	4798      	blx	r3
  401f02:	4603      	mov	r3, r0
  401f04:	460c      	mov	r4, r1
  401f06:	4618      	mov	r0, r3
  401f08:	4621      	mov	r1, r4
  401f0a:	4b2b      	ldr	r3, [pc, #172]	; (401fb8 <GetPvAngle+0x9b0>)
  401f0c:	4798      	blx	r3
  401f0e:	4602      	mov	r2, r0
  401f10:	460b      	mov	r3, r1
  401f12:	4c26      	ldr	r4, [pc, #152]	; (401fac <GetPvAngle+0x9a4>)
  401f14:	4640      	mov	r0, r8
  401f16:	4649      	mov	r1, r9
  401f18:	47a0      	blx	r4
  401f1a:	4603      	mov	r3, r0
  401f1c:	460c      	mov	r4, r1
  401f1e:	4698      	mov	r8, r3
  401f20:	46a1      	mov	r9, r4
  401f22:	6b78      	ldr	r0, [r7, #52]	; 0x34
  401f24:	4b1e      	ldr	r3, [pc, #120]	; (401fa0 <GetPvAngle+0x998>)
  401f26:	4798      	blx	r3
  401f28:	4602      	mov	r2, r0
  401f2a:	4b28      	ldr	r3, [pc, #160]	; (401fcc <GetPvAngle+0x9c4>)
  401f2c:	4611      	mov	r1, r2
  401f2e:	4610      	mov	r0, r2
  401f30:	4798      	blx	r3
  401f32:	4603      	mov	r3, r0
  401f34:	461a      	mov	r2, r3
  401f36:	4b1b      	ldr	r3, [pc, #108]	; (401fa4 <GetPvAngle+0x99c>)
  401f38:	4610      	mov	r0, r2
  401f3a:	4798      	blx	r3
  401f3c:	4603      	mov	r3, r0
  401f3e:	460c      	mov	r4, r1
  401f40:	4618      	mov	r0, r3
  401f42:	4621      	mov	r1, r4
  401f44:	4b18      	ldr	r3, [pc, #96]	; (401fa8 <GetPvAngle+0x9a0>)
  401f46:	4798      	blx	r3
  401f48:	4602      	mov	r2, r0
  401f4a:	460b      	mov	r3, r1
  401f4c:	4c17      	ldr	r4, [pc, #92]	; (401fac <GetPvAngle+0x9a4>)
  401f4e:	4640      	mov	r0, r8
  401f50:	4649      	mov	r1, r9
  401f52:	47a0      	blx	r4
  401f54:	4603      	mov	r3, r0
  401f56:	460c      	mov	r4, r1
  401f58:	461a      	mov	r2, r3
  401f5a:	4623      	mov	r3, r4
  401f5c:	4c14      	ldr	r4, [pc, #80]	; (401fb0 <GetPvAngle+0x9a8>)
  401f5e:	4628      	mov	r0, r5
  401f60:	4631      	mov	r1, r6
  401f62:	47a0      	blx	r4
  401f64:	4603      	mov	r3, r0
  401f66:	460c      	mov	r4, r1
  401f68:	461d      	mov	r5, r3
  401f6a:	4626      	mov	r6, r4
  401f6c:	4b19      	ldr	r3, [pc, #100]	; (401fd4 <GetPvAngle+0x9cc>)
  401f6e:	f04f 517c 	mov.w	r1, #1056964608	; 0x3f000000
  401f72:	6938      	ldr	r0, [r7, #16]
  401f74:	4798      	blx	r3
  401f76:	4603      	mov	r3, r0
  401f78:	461a      	mov	r2, r3
  401f7a:	4b16      	ldr	r3, [pc, #88]	; (401fd4 <GetPvAngle+0x9cc>)
  401f7c:	6939      	ldr	r1, [r7, #16]
  401f7e:	4610      	mov	r0, r2
  401f80:	4798      	blx	r3
  401f82:	4603      	mov	r3, r0
  401f84:	461a      	mov	r2, r3
  401f86:	4b07      	ldr	r3, [pc, #28]	; (401fa4 <GetPvAngle+0x99c>)
  401f88:	4610      	mov	r0, r2
  401f8a:	e025      	b.n	401fd8 <GetPvAngle+0x9d0>
  401f8c:	f3af 8000 	nop.w
  401f90:	80000000 	.word	0x80000000
  401f94:	3f64f8b5 	.word	0x3f64f8b5
  401f98:	0040a43d 	.word	0x0040a43d
  401f9c:	42fa147b 	.word	0x42fa147b
  401fa0:	00402499 	.word	0x00402499
  401fa4:	00409d3d 	.word	0x00409d3d
  401fa8:	004071c5 	.word	0x004071c5
  401fac:	00409de5 	.word	0x00409de5
  401fb0:	00409a81 	.word	0x00409a81
  401fb4:	0040a395 	.word	0x0040a395
  401fb8:	00407259 	.word	0x00407259
  401fbc:	004073ed 	.word	0x004073ed
  401fc0:	004024d1 	.word	0x004024d1
  401fc4:	0040a7b9 	.word	0x0040a7b9
  401fc8:	004072e1 	.word	0x004072e1
  401fcc:	0040a441 	.word	0x0040a441
  401fd0:	00409a7d 	.word	0x00409a7d
  401fd4:	0040a651 	.word	0x0040a651
  401fd8:	4798      	blx	r3
  401fda:	4680      	mov	r8, r0
  401fdc:	4689      	mov	r9, r1
  401fde:	6b78      	ldr	r0, [r7, #52]	; 0x34
  401fe0:	4b9e      	ldr	r3, [pc, #632]	; (40225c <GetPvAngle+0xc54>)
  401fe2:	4798      	blx	r3
  401fe4:	4602      	mov	r2, r0
  401fe6:	4b9e      	ldr	r3, [pc, #632]	; (402260 <GetPvAngle+0xc58>)
  401fe8:	f04f 4181 	mov.w	r1, #1082130432	; 0x40800000
  401fec:	4610      	mov	r0, r2
  401fee:	4798      	blx	r3
  401ff0:	4603      	mov	r3, r0
  401ff2:	461a      	mov	r2, r3
  401ff4:	4b9b      	ldr	r3, [pc, #620]	; (402264 <GetPvAngle+0xc5c>)
  401ff6:	4610      	mov	r0, r2
  401ff8:	4798      	blx	r3
  401ffa:	4603      	mov	r3, r0
  401ffc:	460c      	mov	r4, r1
  401ffe:	4618      	mov	r0, r3
  402000:	4621      	mov	r1, r4
  402002:	4b99      	ldr	r3, [pc, #612]	; (402268 <GetPvAngle+0xc60>)
  402004:	4798      	blx	r3
  402006:	4602      	mov	r2, r0
  402008:	460b      	mov	r3, r1
  40200a:	4c98      	ldr	r4, [pc, #608]	; (40226c <GetPvAngle+0xc64>)
  40200c:	4640      	mov	r0, r8
  40200e:	4649      	mov	r1, r9
  402010:	47a0      	blx	r4
  402012:	4603      	mov	r3, r0
  402014:	460c      	mov	r4, r1
  402016:	461a      	mov	r2, r3
  402018:	4623      	mov	r3, r4
  40201a:	4c95      	ldr	r4, [pc, #596]	; (402270 <GetPvAngle+0xc68>)
  40201c:	4628      	mov	r0, r5
  40201e:	4631      	mov	r1, r6
  402020:	47a0      	blx	r4
  402022:	4603      	mov	r3, r0
  402024:	460c      	mov	r4, r1
  402026:	461d      	mov	r5, r3
  402028:	4626      	mov	r6, r4
  40202a:	4b8d      	ldr	r3, [pc, #564]	; (402260 <GetPvAngle+0xc58>)
  40202c:	4991      	ldr	r1, [pc, #580]	; (402274 <GetPvAngle+0xc6c>)
  40202e:	6af8      	ldr	r0, [r7, #44]	; 0x2c
  402030:	4798      	blx	r3
  402032:	4603      	mov	r3, r0
  402034:	461a      	mov	r2, r3
  402036:	4b8a      	ldr	r3, [pc, #552]	; (402260 <GetPvAngle+0xc58>)
  402038:	6af9      	ldr	r1, [r7, #44]	; 0x2c
  40203a:	4610      	mov	r0, r2
  40203c:	4798      	blx	r3
  40203e:	4603      	mov	r3, r0
  402040:	461a      	mov	r2, r3
  402042:	4b88      	ldr	r3, [pc, #544]	; (402264 <GetPvAngle+0xc5c>)
  402044:	4610      	mov	r0, r2
  402046:	4798      	blx	r3
  402048:	4680      	mov	r8, r0
  40204a:	4689      	mov	r9, r1
  40204c:	6b38      	ldr	r0, [r7, #48]	; 0x30
  40204e:	4b83      	ldr	r3, [pc, #524]	; (40225c <GetPvAngle+0xc54>)
  402050:	4798      	blx	r3
  402052:	4602      	mov	r2, r0
  402054:	4b88      	ldr	r3, [pc, #544]	; (402278 <GetPvAngle+0xc70>)
  402056:	4611      	mov	r1, r2
  402058:	4610      	mov	r0, r2
  40205a:	4798      	blx	r3
  40205c:	4603      	mov	r3, r0
  40205e:	461a      	mov	r2, r3
  402060:	4b80      	ldr	r3, [pc, #512]	; (402264 <GetPvAngle+0xc5c>)
  402062:	4610      	mov	r0, r2
  402064:	4798      	blx	r3
  402066:	4603      	mov	r3, r0
  402068:	460c      	mov	r4, r1
  40206a:	4618      	mov	r0, r3
  40206c:	4621      	mov	r1, r4
  40206e:	4b7e      	ldr	r3, [pc, #504]	; (402268 <GetPvAngle+0xc60>)
  402070:	4798      	blx	r3
  402072:	4602      	mov	r2, r0
  402074:	460b      	mov	r3, r1
  402076:	4c7d      	ldr	r4, [pc, #500]	; (40226c <GetPvAngle+0xc64>)
  402078:	4640      	mov	r0, r8
  40207a:	4649      	mov	r1, r9
  40207c:	47a0      	blx	r4
  40207e:	4603      	mov	r3, r0
  402080:	460c      	mov	r4, r1
  402082:	461a      	mov	r2, r3
  402084:	4623      	mov	r3, r4
  402086:	4c7a      	ldr	r4, [pc, #488]	; (402270 <GetPvAngle+0xc68>)
  402088:	4628      	mov	r0, r5
  40208a:	4631      	mov	r1, r6
  40208c:	47a0      	blx	r4
  40208e:	4603      	mov	r3, r0
  402090:	460c      	mov	r4, r1
  402092:	4619      	mov	r1, r3
  402094:	4622      	mov	r2, r4
  402096:	4b79      	ldr	r3, [pc, #484]	; (40227c <GetPvAngle+0xc74>)
  402098:	4608      	mov	r0, r1
  40209a:	4611      	mov	r1, r2
  40209c:	4798      	blx	r3
  40209e:	4603      	mov	r3, r0
  4020a0:	4618      	mov	r0, r3
  4020a2:	4b77      	ldr	r3, [pc, #476]	; (402280 <GetPvAngle+0xc78>)
  4020a4:	4798      	blx	r3
  4020a6:	4602      	mov	r2, r0
  4020a8:	4b6d      	ldr	r3, [pc, #436]	; (402260 <GetPvAngle+0xc58>)
  4020aa:	f04f 4181 	mov.w	r1, #1082130432	; 0x40800000
  4020ae:	4610      	mov	r0, r2
  4020b0:	4798      	blx	r3
  4020b2:	4603      	mov	r3, r0
  4020b4:	60fb      	str	r3, [r7, #12]
	r = Deg(acos(cos(Rad(90.833f)) / (cos(Rad(lat))*cos(Rad(o))) - tan(Rad(lat))*tan(Rad(o))));
  4020b6:	4873      	ldr	r0, [pc, #460]	; (402284 <GetPvAngle+0xc7c>)
  4020b8:	4b68      	ldr	r3, [pc, #416]	; (40225c <GetPvAngle+0xc54>)
  4020ba:	4798      	blx	r3
  4020bc:	4602      	mov	r2, r0
  4020be:	4b69      	ldr	r3, [pc, #420]	; (402264 <GetPvAngle+0xc5c>)
  4020c0:	4610      	mov	r0, r2
  4020c2:	4798      	blx	r3
  4020c4:	4603      	mov	r3, r0
  4020c6:	460c      	mov	r4, r1
  4020c8:	4618      	mov	r0, r3
  4020ca:	4621      	mov	r1, r4
  4020cc:	4b6e      	ldr	r3, [pc, #440]	; (402288 <GetPvAngle+0xc80>)
  4020ce:	4798      	blx	r3
  4020d0:	4605      	mov	r5, r0
  4020d2:	460e      	mov	r6, r1
  4020d4:	4b6d      	ldr	r3, [pc, #436]	; (40228c <GetPvAngle+0xc84>)
  4020d6:	681b      	ldr	r3, [r3, #0]
  4020d8:	4618      	mov	r0, r3
  4020da:	4b60      	ldr	r3, [pc, #384]	; (40225c <GetPvAngle+0xc54>)
  4020dc:	4798      	blx	r3
  4020de:	4602      	mov	r2, r0
  4020e0:	4b60      	ldr	r3, [pc, #384]	; (402264 <GetPvAngle+0xc5c>)
  4020e2:	4610      	mov	r0, r2
  4020e4:	4798      	blx	r3
  4020e6:	4603      	mov	r3, r0
  4020e8:	460c      	mov	r4, r1
  4020ea:	4618      	mov	r0, r3
  4020ec:	4621      	mov	r1, r4
  4020ee:	4b66      	ldr	r3, [pc, #408]	; (402288 <GetPvAngle+0xc80>)
  4020f0:	4798      	blx	r3
  4020f2:	4680      	mov	r8, r0
  4020f4:	4689      	mov	r9, r1
  4020f6:	6978      	ldr	r0, [r7, #20]
  4020f8:	4b58      	ldr	r3, [pc, #352]	; (40225c <GetPvAngle+0xc54>)
  4020fa:	4798      	blx	r3
  4020fc:	4602      	mov	r2, r0
  4020fe:	4b59      	ldr	r3, [pc, #356]	; (402264 <GetPvAngle+0xc5c>)
  402100:	4610      	mov	r0, r2
  402102:	4798      	blx	r3
  402104:	4603      	mov	r3, r0
  402106:	460c      	mov	r4, r1
  402108:	4618      	mov	r0, r3
  40210a:	4621      	mov	r1, r4
  40210c:	4b5e      	ldr	r3, [pc, #376]	; (402288 <GetPvAngle+0xc80>)
  40210e:	4798      	blx	r3
  402110:	4602      	mov	r2, r0
  402112:	460b      	mov	r3, r1
  402114:	4c55      	ldr	r4, [pc, #340]	; (40226c <GetPvAngle+0xc64>)
  402116:	4640      	mov	r0, r8
  402118:	4649      	mov	r1, r9
  40211a:	47a0      	blx	r4
  40211c:	4603      	mov	r3, r0
  40211e:	460c      	mov	r4, r1
  402120:	461a      	mov	r2, r3
  402122:	4623      	mov	r3, r4
  402124:	4c5a      	ldr	r4, [pc, #360]	; (402290 <GetPvAngle+0xc88>)
  402126:	4628      	mov	r0, r5
  402128:	4631      	mov	r1, r6
  40212a:	47a0      	blx	r4
  40212c:	4603      	mov	r3, r0
  40212e:	460c      	mov	r4, r1
  402130:	461d      	mov	r5, r3
  402132:	4626      	mov	r6, r4
  402134:	4b55      	ldr	r3, [pc, #340]	; (40228c <GetPvAngle+0xc84>)
  402136:	681b      	ldr	r3, [r3, #0]
  402138:	4618      	mov	r0, r3
  40213a:	4b48      	ldr	r3, [pc, #288]	; (40225c <GetPvAngle+0xc54>)
  40213c:	4798      	blx	r3
  40213e:	4602      	mov	r2, r0
  402140:	4b48      	ldr	r3, [pc, #288]	; (402264 <GetPvAngle+0xc5c>)
  402142:	4610      	mov	r0, r2
  402144:	4798      	blx	r3
  402146:	4603      	mov	r3, r0
  402148:	460c      	mov	r4, r1
  40214a:	4618      	mov	r0, r3
  40214c:	4621      	mov	r1, r4
  40214e:	4b51      	ldr	r3, [pc, #324]	; (402294 <GetPvAngle+0xc8c>)
  402150:	4798      	blx	r3
  402152:	4680      	mov	r8, r0
  402154:	4689      	mov	r9, r1
  402156:	6978      	ldr	r0, [r7, #20]
  402158:	4b40      	ldr	r3, [pc, #256]	; (40225c <GetPvAngle+0xc54>)
  40215a:	4798      	blx	r3
  40215c:	4602      	mov	r2, r0
  40215e:	4b41      	ldr	r3, [pc, #260]	; (402264 <GetPvAngle+0xc5c>)
  402160:	4610      	mov	r0, r2
  402162:	4798      	blx	r3
  402164:	4603      	mov	r3, r0
  402166:	460c      	mov	r4, r1
  402168:	4618      	mov	r0, r3
  40216a:	4621      	mov	r1, r4
  40216c:	4b49      	ldr	r3, [pc, #292]	; (402294 <GetPvAngle+0xc8c>)
  40216e:	4798      	blx	r3
  402170:	4602      	mov	r2, r0
  402172:	460b      	mov	r3, r1
  402174:	4c3d      	ldr	r4, [pc, #244]	; (40226c <GetPvAngle+0xc64>)
  402176:	4640      	mov	r0, r8
  402178:	4649      	mov	r1, r9
  40217a:	47a0      	blx	r4
  40217c:	4603      	mov	r3, r0
  40217e:	460c      	mov	r4, r1
  402180:	461a      	mov	r2, r3
  402182:	4623      	mov	r3, r4
  402184:	4c3a      	ldr	r4, [pc, #232]	; (402270 <GetPvAngle+0xc68>)
  402186:	4628      	mov	r0, r5
  402188:	4631      	mov	r1, r6
  40218a:	47a0      	blx	r4
  40218c:	4603      	mov	r3, r0
  40218e:	460c      	mov	r4, r1
  402190:	4618      	mov	r0, r3
  402192:	4621      	mov	r1, r4
  402194:	4b40      	ldr	r3, [pc, #256]	; (402298 <GetPvAngle+0xc90>)
  402196:	4798      	blx	r3
  402198:	460a      	mov	r2, r1
  40219a:	4601      	mov	r1, r0
  40219c:	4b37      	ldr	r3, [pc, #220]	; (40227c <GetPvAngle+0xc74>)
  40219e:	4608      	mov	r0, r1
  4021a0:	4611      	mov	r1, r2
  4021a2:	4798      	blx	r3
  4021a4:	4603      	mov	r3, r0
  4021a6:	4618      	mov	r0, r3
  4021a8:	4b35      	ldr	r3, [pc, #212]	; (402280 <GetPvAngle+0xc78>)
  4021aa:	4798      	blx	r3
  4021ac:	60b8      	str	r0, [r7, #8]
	s = ((int)(timeInSecs * 1440 + q + 4 * lon - 60 * timeZone)) % 1440;
  4021ae:	4b2c      	ldr	r3, [pc, #176]	; (402260 <GetPvAngle+0xc58>)
  4021b0:	493a      	ldr	r1, [pc, #232]	; (40229c <GetPvAngle+0xc94>)
  4021b2:	f8d7 00a0 	ldr.w	r0, [r7, #160]	; 0xa0
  4021b6:	4798      	blx	r3
  4021b8:	4603      	mov	r3, r0
  4021ba:	461a      	mov	r2, r3
  4021bc:	4b2e      	ldr	r3, [pc, #184]	; (402278 <GetPvAngle+0xc70>)
  4021be:	68f9      	ldr	r1, [r7, #12]
  4021c0:	4610      	mov	r0, r2
  4021c2:	4798      	blx	r3
  4021c4:	4603      	mov	r3, r0
  4021c6:	461c      	mov	r4, r3
  4021c8:	4b35      	ldr	r3, [pc, #212]	; (4022a0 <GetPvAngle+0xc98>)
  4021ca:	681a      	ldr	r2, [r3, #0]
  4021cc:	4b24      	ldr	r3, [pc, #144]	; (402260 <GetPvAngle+0xc58>)
  4021ce:	f04f 4181 	mov.w	r1, #1082130432	; 0x40800000
  4021d2:	4610      	mov	r0, r2
  4021d4:	4798      	blx	r3
  4021d6:	4603      	mov	r3, r0
  4021d8:	461a      	mov	r2, r3
  4021da:	4b27      	ldr	r3, [pc, #156]	; (402278 <GetPvAngle+0xc70>)
  4021dc:	4611      	mov	r1, r2
  4021de:	4620      	mov	r0, r4
  4021e0:	4798      	blx	r3
  4021e2:	4603      	mov	r3, r0
  4021e4:	461c      	mov	r4, r3
  4021e6:	4b2f      	ldr	r3, [pc, #188]	; (4022a4 <GetPvAngle+0xc9c>)
  4021e8:	681a      	ldr	r2, [r3, #0]
  4021ea:	4b1d      	ldr	r3, [pc, #116]	; (402260 <GetPvAngle+0xc58>)
  4021ec:	492e      	ldr	r1, [pc, #184]	; (4022a8 <GetPvAngle+0xca0>)
  4021ee:	4610      	mov	r0, r2
  4021f0:	4798      	blx	r3
  4021f2:	4603      	mov	r3, r0
  4021f4:	461a      	mov	r2, r3
  4021f6:	4b2d      	ldr	r3, [pc, #180]	; (4022ac <GetPvAngle+0xca4>)
  4021f8:	4611      	mov	r1, r2
  4021fa:	4620      	mov	r0, r4
  4021fc:	4798      	blx	r3
  4021fe:	4603      	mov	r3, r0
  402200:	461a      	mov	r2, r3
  402202:	4b2b      	ldr	r3, [pc, #172]	; (4022b0 <GetPvAngle+0xca8>)
  402204:	4610      	mov	r0, r2
  402206:	4798      	blx	r3
  402208:	4603      	mov	r3, r0
  40220a:	4a2a      	ldr	r2, [pc, #168]	; (4022b4 <GetPvAngle+0xcac>)
  40220c:	fb83 1202 	smull	r1, r2, r3, r2
  402210:	441a      	add	r2, r3
  402212:	1291      	asrs	r1, r2, #10
  402214:	17da      	asrs	r2, r3, #31
  402216:	1a8a      	subs	r2, r1, r2
  402218:	f44f 61b4 	mov.w	r1, #1440	; 0x5a0
  40221c:	fb01 f202 	mul.w	r2, r1, r2
  402220:	1a9a      	subs	r2, r3, r2
  402222:	4b25      	ldr	r3, [pc, #148]	; (4022b8 <GetPvAngle+0xcb0>)
  402224:	4610      	mov	r0, r2
  402226:	4798      	blx	r3
  402228:	4603      	mov	r3, r0
  40222a:	607b      	str	r3, [r7, #4]
	if ((s / 4.0f) < 0)
  40222c:	4b23      	ldr	r3, [pc, #140]	; (4022bc <GetPvAngle+0xcb4>)
  40222e:	f04f 4181 	mov.w	r1, #1082130432	; 0x40800000
  402232:	6878      	ldr	r0, [r7, #4]
  402234:	4798      	blx	r3
  402236:	4603      	mov	r3, r0
  402238:	461a      	mov	r2, r3
  40223a:	4b21      	ldr	r3, [pc, #132]	; (4022c0 <GetPvAngle+0xcb8>)
  40223c:	f04f 0100 	mov.w	r1, #0
  402240:	4610      	mov	r0, r2
  402242:	4798      	blx	r3
  402244:	4603      	mov	r3, r0
  402246:	2b00      	cmp	r3, #0
  402248:	d044      	beq.n	4022d4 <GetPvAngle+0xccc>
	{
		t = (s / 4.0f) + 180.0f;
  40224a:	4b1c      	ldr	r3, [pc, #112]	; (4022bc <GetPvAngle+0xcb4>)
  40224c:	f04f 4181 	mov.w	r1, #1082130432	; 0x40800000
  402250:	6878      	ldr	r0, [r7, #4]
  402252:	4798      	blx	r3
  402254:	4603      	mov	r3, r0
  402256:	461a      	mov	r2, r3
  402258:	e034      	b.n	4022c4 <GetPvAngle+0xcbc>
  40225a:	bf00      	nop
  40225c:	00402499 	.word	0x00402499
  402260:	0040a651 	.word	0x0040a651
  402264:	00409d3d 	.word	0x00409d3d
  402268:	00407259 	.word	0x00407259
  40226c:	00409de5 	.word	0x00409de5
  402270:	00409a7d 	.word	0x00409a7d
  402274:	3fa00000 	.word	0x3fa00000
  402278:	0040a441 	.word	0x0040a441
  40227c:	0040a395 	.word	0x0040a395
  402280:	004024d1 	.word	0x004024d1
  402284:	42b5aa7f 	.word	0x42b5aa7f
  402288:	004071c5 	.word	0x004071c5
  40228c:	200000fc 	.word	0x200000fc
  402290:	0040a039 	.word	0x0040a039
  402294:	004072e1 	.word	0x004072e1
  402298:	0040733d 	.word	0x0040733d
  40229c:	44b40000 	.word	0x44b40000
  4022a0:	20000100 	.word	0x20000100
  4022a4:	20000104 	.word	0x20000104
  4022a8:	42700000 	.word	0x42700000
  4022ac:	0040a43d 	.word	0x0040a43d
  4022b0:	0040a9dd 	.word	0x0040a9dd
  4022b4:	b60b60b7 	.word	0xb60b60b7
  4022b8:	0040a5a9 	.word	0x0040a5a9
  4022bc:	0040a7b9 	.word	0x0040a7b9
  4022c0:	0040a98d 	.word	0x0040a98d
  4022c4:	4b13      	ldr	r3, [pc, #76]	; (402314 <GetPvAngle+0xd0c>)
  4022c6:	4914      	ldr	r1, [pc, #80]	; (402318 <GetPvAngle+0xd10>)
  4022c8:	4610      	mov	r0, r2
  4022ca:	4798      	blx	r3
  4022cc:	4603      	mov	r3, r0
  4022ce:	f8c7 30b0 	str.w	r3, [r7, #176]	; 0xb0
  4022d2:	e00d      	b.n	4022f0 <GetPvAngle+0xce8>
	}
	else
	{
		t = (s / 4.0f) - 180.0f;
  4022d4:	4b11      	ldr	r3, [pc, #68]	; (40231c <GetPvAngle+0xd14>)
  4022d6:	f04f 4181 	mov.w	r1, #1082130432	; 0x40800000
  4022da:	6878      	ldr	r0, [r7, #4]
  4022dc:	4798      	blx	r3
  4022de:	4603      	mov	r3, r0
  4022e0:	461a      	mov	r2, r3
  4022e2:	4b0f      	ldr	r3, [pc, #60]	; (402320 <GetPvAngle+0xd18>)
  4022e4:	490c      	ldr	r1, [pc, #48]	; (402318 <GetPvAngle+0xd10>)
  4022e6:	4610      	mov	r0, r2
  4022e8:	4798      	blx	r3
  4022ea:	4603      	mov	r3, r0
  4022ec:	f8c7 30b0 	str.w	r3, [r7, #176]	; 0xb0
	}
	return (90.0f / r*t);
  4022f0:	4b0a      	ldr	r3, [pc, #40]	; (40231c <GetPvAngle+0xd14>)
  4022f2:	68b9      	ldr	r1, [r7, #8]
  4022f4:	480b      	ldr	r0, [pc, #44]	; (402324 <GetPvAngle+0xd1c>)
  4022f6:	4798      	blx	r3
  4022f8:	4603      	mov	r3, r0
  4022fa:	461a      	mov	r2, r3
  4022fc:	4b0a      	ldr	r3, [pc, #40]	; (402328 <GetPvAngle+0xd20>)
  4022fe:	f8d7 10b0 	ldr.w	r1, [r7, #176]	; 0xb0
  402302:	4610      	mov	r0, r2
  402304:	4798      	blx	r3
  402306:	4603      	mov	r3, r0
}
  402308:	4618      	mov	r0, r3
  40230a:	37bc      	adds	r7, #188	; 0xbc
  40230c:	46bd      	mov	sp, r7
  40230e:	e8bd 83f0 	ldmia.w	sp!, {r4, r5, r6, r7, r8, r9, pc}
  402312:	bf00      	nop
  402314:	0040a441 	.word	0x0040a441
  402318:	43340000 	.word	0x43340000
  40231c:	0040a7b9 	.word	0x0040a7b9
  402320:	0040a43d 	.word	0x0040a43d
  402324:	42b40000 	.word	0x42b40000
  402328:	0040a651 	.word	0x0040a651

0040232c <GetPvBackTrackAngle>:

float GetPvBackTrackAngle(float pvAngle)
{
  40232c:	b590      	push	{r4, r7, lr}
  40232e:	b085      	sub	sp, #20
  402330:	af00      	add	r7, sp, #0
  402332:	6078      	str	r0, [r7, #4]
	float a0;
	
	a0 = pvAngle*0.0174603f;
  402334:	4b44      	ldr	r3, [pc, #272]	; (402448 <GetPvBackTrackAngle+0x11c>)
  402336:	4945      	ldr	r1, [pc, #276]	; (40244c <GetPvBackTrackAngle+0x120>)
  402338:	6878      	ldr	r0, [r7, #4]
  40233a:	4798      	blx	r3
  40233c:	4603      	mov	r3, r0
  40233e:	60fb      	str	r3, [r7, #12]
	a0 += 1.575f;
  402340:	4b43      	ldr	r3, [pc, #268]	; (402450 <GetPvBackTrackAngle+0x124>)
  402342:	4944      	ldr	r1, [pc, #272]	; (402454 <GetPvBackTrackAngle+0x128>)
  402344:	68f8      	ldr	r0, [r7, #12]
  402346:	4798      	blx	r3
  402348:	4603      	mov	r3, r0
  40234a:	60fb      	str	r3, [r7, #12]
	a0 -= 0.028989f;
  40234c:	4b42      	ldr	r3, [pc, #264]	; (402458 <GetPvBackTrackAngle+0x12c>)
  40234e:	4943      	ldr	r1, [pc, #268]	; (40245c <GetPvBackTrackAngle+0x130>)
  402350:	68f8      	ldr	r0, [r7, #12]
  402352:	4798      	blx	r3
  402354:	4603      	mov	r3, r0
  402356:	60fb      	str	r3, [r7, #12]
	a0 = sin(a0);
  402358:	4b41      	ldr	r3, [pc, #260]	; (402460 <GetPvBackTrackAngle+0x134>)
  40235a:	68f8      	ldr	r0, [r7, #12]
  40235c:	4798      	blx	r3
  40235e:	4603      	mov	r3, r0
  402360:	460c      	mov	r4, r1
  402362:	4618      	mov	r0, r3
  402364:	4621      	mov	r1, r4
  402366:	4b3f      	ldr	r3, [pc, #252]	; (402464 <GetPvBackTrackAngle+0x138>)
  402368:	4798      	blx	r3
  40236a:	460a      	mov	r2, r1
  40236c:	4601      	mov	r1, r0
  40236e:	4b3e      	ldr	r3, [pc, #248]	; (402468 <GetPvBackTrackAngle+0x13c>)
  402370:	4608      	mov	r0, r1
  402372:	4611      	mov	r1, r2
  402374:	4798      	blx	r3
  402376:	4603      	mov	r3, r0
  402378:	60fb      	str	r3, [r7, #12]
	a0 = a0 * dist;
  40237a:	4b3c      	ldr	r3, [pc, #240]	; (40246c <GetPvBackTrackAngle+0x140>)
  40237c:	681a      	ldr	r2, [r3, #0]
  40237e:	4b32      	ldr	r3, [pc, #200]	; (402448 <GetPvBackTrackAngle+0x11c>)
  402380:	4611      	mov	r1, r2
  402382:	68f8      	ldr	r0, [r7, #12]
  402384:	4798      	blx	r3
  402386:	4603      	mov	r3, r0
  402388:	60fb      	str	r3, [r7, #12]
	a0 = a0 / width;
  40238a:	4b39      	ldr	r3, [pc, #228]	; (402470 <GetPvBackTrackAngle+0x144>)
  40238c:	681a      	ldr	r2, [r3, #0]
  40238e:	4b39      	ldr	r3, [pc, #228]	; (402474 <GetPvBackTrackAngle+0x148>)
  402390:	4611      	mov	r1, r2
  402392:	68f8      	ldr	r0, [r7, #12]
  402394:	4798      	blx	r3
  402396:	4603      	mov	r3, r0
  402398:	60fb      	str	r3, [r7, #12]
	/* If this val is < 1 enter back track calculation */
	/* Otherwise exit backtracking mode */
	if (a0 < 1)
  40239a:	4b37      	ldr	r3, [pc, #220]	; (402478 <GetPvBackTrackAngle+0x14c>)
  40239c:	f04f 517e 	mov.w	r1, #1065353216	; 0x3f800000
  4023a0:	68f8      	ldr	r0, [r7, #12]
  4023a2:	4798      	blx	r3
  4023a4:	4603      	mov	r3, r0
  4023a6:	2b00      	cmp	r3, #0
  4023a8:	d048      	beq.n	40243c <GetPvBackTrackAngle+0x110>
	{
		a0 = asin(a0);
  4023aa:	4b2d      	ldr	r3, [pc, #180]	; (402460 <GetPvBackTrackAngle+0x134>)
  4023ac:	68f8      	ldr	r0, [r7, #12]
  4023ae:	4798      	blx	r3
  4023b0:	4603      	mov	r3, r0
  4023b2:	460c      	mov	r4, r1
  4023b4:	4618      	mov	r0, r3
  4023b6:	4621      	mov	r1, r4
  4023b8:	4b30      	ldr	r3, [pc, #192]	; (40247c <GetPvBackTrackAngle+0x150>)
  4023ba:	4798      	blx	r3
  4023bc:	460a      	mov	r2, r1
  4023be:	4601      	mov	r1, r0
  4023c0:	4b29      	ldr	r3, [pc, #164]	; (402468 <GetPvBackTrackAngle+0x13c>)
  4023c2:	4608      	mov	r0, r1
  4023c4:	4611      	mov	r1, r2
  4023c6:	4798      	blx	r3
  4023c8:	4603      	mov	r3, r0
  4023ca:	60fb      	str	r3, [r7, #12]
		a0 = a0 * 57.2958f;
  4023cc:	4b1e      	ldr	r3, [pc, #120]	; (402448 <GetPvBackTrackAngle+0x11c>)
  4023ce:	492c      	ldr	r1, [pc, #176]	; (402480 <GetPvBackTrackAngle+0x154>)
  4023d0:	68f8      	ldr	r0, [r7, #12]
  4023d2:	4798      	blx	r3
  4023d4:	4603      	mov	r3, r0
  4023d6:	60fb      	str	r3, [r7, #12]
		if ((pvAngle >= -90) && (pvAngle < 0))
  4023d8:	4b2a      	ldr	r3, [pc, #168]	; (402484 <GetPvBackTrackAngle+0x158>)
  4023da:	492b      	ldr	r1, [pc, #172]	; (402488 <GetPvBackTrackAngle+0x15c>)
  4023dc:	6878      	ldr	r0, [r7, #4]
  4023de:	4798      	blx	r3
  4023e0:	4603      	mov	r3, r0
  4023e2:	2b00      	cmp	r3, #0
  4023e4:	d012      	beq.n	40240c <GetPvBackTrackAngle+0xe0>
  4023e6:	4b24      	ldr	r3, [pc, #144]	; (402478 <GetPvBackTrackAngle+0x14c>)
  4023e8:	f04f 0100 	mov.w	r1, #0
  4023ec:	6878      	ldr	r0, [r7, #4]
  4023ee:	4798      	blx	r3
  4023f0:	4603      	mov	r3, r0
  4023f2:	2b00      	cmp	r3, #0
  4023f4:	d00a      	beq.n	40240c <GetPvBackTrackAngle+0xe0>
		{
			a0 = -a0 / 2.0;
  4023f6:	68fb      	ldr	r3, [r7, #12]
  4023f8:	f083 4200 	eor.w	r2, r3, #2147483648	; 0x80000000
  4023fc:	4b1d      	ldr	r3, [pc, #116]	; (402474 <GetPvBackTrackAngle+0x148>)
  4023fe:	f04f 4180 	mov.w	r1, #1073741824	; 0x40000000
  402402:	4610      	mov	r0, r2
  402404:	4798      	blx	r3
  402406:	4603      	mov	r3, r0
  402408:	60fb      	str	r3, [r7, #12]
  40240a:	e015      	b.n	402438 <GetPvBackTrackAngle+0x10c>
		}
		else if ((pvAngle >= 0) && (pvAngle <= 90))
  40240c:	4b1d      	ldr	r3, [pc, #116]	; (402484 <GetPvBackTrackAngle+0x158>)
  40240e:	f04f 0100 	mov.w	r1, #0
  402412:	6878      	ldr	r0, [r7, #4]
  402414:	4798      	blx	r3
  402416:	4603      	mov	r3, r0
  402418:	2b00      	cmp	r3, #0
  40241a:	d00d      	beq.n	402438 <GetPvBackTrackAngle+0x10c>
  40241c:	4b1b      	ldr	r3, [pc, #108]	; (40248c <GetPvBackTrackAngle+0x160>)
  40241e:	491c      	ldr	r1, [pc, #112]	; (402490 <GetPvBackTrackAngle+0x164>)
  402420:	6878      	ldr	r0, [r7, #4]
  402422:	4798      	blx	r3
  402424:	4603      	mov	r3, r0
  402426:	2b00      	cmp	r3, #0
  402428:	d006      	beq.n	402438 <GetPvBackTrackAngle+0x10c>
		{
			a0 = a0 / 2.0;
  40242a:	4b12      	ldr	r3, [pc, #72]	; (402474 <GetPvBackTrackAngle+0x148>)
  40242c:	f04f 4180 	mov.w	r1, #1073741824	; 0x40000000
  402430:	68f8      	ldr	r0, [r7, #12]
  402432:	4798      	blx	r3
  402434:	4603      	mov	r3, r0
  402436:	60fb      	str	r3, [r7, #12]
		}
		return a0;
  402438:	68fb      	ldr	r3, [r7, #12]
  40243a:	e000      	b.n	40243e <GetPvBackTrackAngle+0x112>
	}
	else
		return NAN;
  40243c:	4b15      	ldr	r3, [pc, #84]	; (402494 <GetPvBackTrackAngle+0x168>)
}
  40243e:	4618      	mov	r0, r3
  402440:	3714      	adds	r7, #20
  402442:	46bd      	mov	sp, r7
  402444:	bd90      	pop	{r4, r7, pc}
  402446:	bf00      	nop
  402448:	0040a651 	.word	0x0040a651
  40244c:	3c8f08e7 	.word	0x3c8f08e7
  402450:	0040a441 	.word	0x0040a441
  402454:	3fc9999a 	.word	0x3fc9999a
  402458:	0040a43d 	.word	0x0040a43d
  40245c:	3ced7a57 	.word	0x3ced7a57
  402460:	00409d3d 	.word	0x00409d3d
  402464:	00407259 	.word	0x00407259
  402468:	0040a395 	.word	0x0040a395
  40246c:	20000108 	.word	0x20000108
  402470:	2000010c 	.word	0x2000010c
  402474:	0040a7b9 	.word	0x0040a7b9
  402478:	0040a98d 	.word	0x0040a98d
  40247c:	004073ed 	.word	0x004073ed
  402480:	42652ee6 	.word	0x42652ee6
  402484:	0040a9b5 	.word	0x0040a9b5
  402488:	c2b40000 	.word	0xc2b40000
  40248c:	0040a9a1 	.word	0x0040a9a1
  402490:	42b40000 	.word	0x42b40000
  402494:	7fc00000 	.word	0x7fc00000

00402498 <Rad>:

float Rad(float deg)
{
  402498:	b580      	push	{r7, lr}
  40249a:	b082      	sub	sp, #8
  40249c:	af00      	add	r7, sp, #0
  40249e:	6078      	str	r0, [r7, #4]
	return ((float)M_PI*deg)/180.0f;
  4024a0:	4b07      	ldr	r3, [pc, #28]	; (4024c0 <Rad+0x28>)
  4024a2:	4908      	ldr	r1, [pc, #32]	; (4024c4 <Rad+0x2c>)
  4024a4:	6878      	ldr	r0, [r7, #4]
  4024a6:	4798      	blx	r3
  4024a8:	4603      	mov	r3, r0
  4024aa:	461a      	mov	r2, r3
  4024ac:	4b06      	ldr	r3, [pc, #24]	; (4024c8 <Rad+0x30>)
  4024ae:	4907      	ldr	r1, [pc, #28]	; (4024cc <Rad+0x34>)
  4024b0:	4610      	mov	r0, r2
  4024b2:	4798      	blx	r3
  4024b4:	4603      	mov	r3, r0
}
  4024b6:	4618      	mov	r0, r3
  4024b8:	3708      	adds	r7, #8
  4024ba:	46bd      	mov	sp, r7
  4024bc:	bd80      	pop	{r7, pc}
  4024be:	bf00      	nop
  4024c0:	0040a651 	.word	0x0040a651
  4024c4:	40490fdb 	.word	0x40490fdb
  4024c8:	0040a7b9 	.word	0x0040a7b9
  4024cc:	43340000 	.word	0x43340000

004024d0 <Deg>:

float Deg(float rad)
{
  4024d0:	b580      	push	{r7, lr}
  4024d2:	b082      	sub	sp, #8
  4024d4:	af00      	add	r7, sp, #0
  4024d6:	6078      	str	r0, [r7, #4]
	return (180.0f *rad) / (float)M_PI;
  4024d8:	4b07      	ldr	r3, [pc, #28]	; (4024f8 <Deg+0x28>)
  4024da:	4908      	ldr	r1, [pc, #32]	; (4024fc <Deg+0x2c>)
  4024dc:	6878      	ldr	r0, [r7, #4]
  4024de:	4798      	blx	r3
  4024e0:	4603      	mov	r3, r0
  4024e2:	461a      	mov	r2, r3
  4024e4:	4b06      	ldr	r3, [pc, #24]	; (402500 <Deg+0x30>)
  4024e6:	4907      	ldr	r1, [pc, #28]	; (402504 <Deg+0x34>)
  4024e8:	4610      	mov	r0, r2
  4024ea:	4798      	blx	r3
  4024ec:	4603      	mov	r3, r0
}
  4024ee:	4618      	mov	r0, r3
  4024f0:	3708      	adds	r7, #8
  4024f2:	46bd      	mov	sp, r7
  4024f4:	bd80      	pop	{r7, pc}
  4024f6:	bf00      	nop
  4024f8:	0040a651 	.word	0x0040a651
  4024fc:	43340000 	.word	0x43340000
  402500:	0040a7b9 	.word	0x0040a7b9
  402504:	40490fdb 	.word	0x40490fdb

00402508 <osc_get_rate>:
  402508:	b480      	push	{r7}
  40250a:	b083      	sub	sp, #12
  40250c:	af00      	add	r7, sp, #0
  40250e:	6078      	str	r0, [r7, #4]
  402510:	687b      	ldr	r3, [r7, #4]
  402512:	2b07      	cmp	r3, #7
  402514:	d825      	bhi.n	402562 <osc_get_rate+0x5a>
  402516:	a201      	add	r2, pc, #4	; (adr r2, 40251c <osc_get_rate+0x14>)
  402518:	f852 f023 	ldr.w	pc, [r2, r3, lsl #2]
  40251c:	0040253d 	.word	0x0040253d
  402520:	00402543 	.word	0x00402543
  402524:	00402549 	.word	0x00402549
  402528:	0040254f 	.word	0x0040254f
  40252c:	00402553 	.word	0x00402553
  402530:	00402557 	.word	0x00402557
  402534:	0040255b 	.word	0x0040255b
  402538:	0040255f 	.word	0x0040255f
  40253c:	f44f 43fa 	mov.w	r3, #32000	; 0x7d00
  402540:	e010      	b.n	402564 <osc_get_rate+0x5c>
  402542:	f44f 4300 	mov.w	r3, #32768	; 0x8000
  402546:	e00d      	b.n	402564 <osc_get_rate+0x5c>
  402548:	f44f 4300 	mov.w	r3, #32768	; 0x8000
  40254c:	e00a      	b.n	402564 <osc_get_rate+0x5c>
  40254e:	4b08      	ldr	r3, [pc, #32]	; (402570 <osc_get_rate+0x68>)
  402550:	e008      	b.n	402564 <osc_get_rate+0x5c>
  402552:	4b08      	ldr	r3, [pc, #32]	; (402574 <osc_get_rate+0x6c>)
  402554:	e006      	b.n	402564 <osc_get_rate+0x5c>
  402556:	4b08      	ldr	r3, [pc, #32]	; (402578 <osc_get_rate+0x70>)
  402558:	e004      	b.n	402564 <osc_get_rate+0x5c>
  40255a:	4b07      	ldr	r3, [pc, #28]	; (402578 <osc_get_rate+0x70>)
  40255c:	e002      	b.n	402564 <osc_get_rate+0x5c>
  40255e:	4b06      	ldr	r3, [pc, #24]	; (402578 <osc_get_rate+0x70>)
  402560:	e000      	b.n	402564 <osc_get_rate+0x5c>
  402562:	2300      	movs	r3, #0
  402564:	4618      	mov	r0, r3
  402566:	370c      	adds	r7, #12
  402568:	46bd      	mov	sp, r7
  40256a:	bc80      	pop	{r7}
  40256c:	4770      	bx	lr
  40256e:	bf00      	nop
  402570:	003d0900 	.word	0x003d0900
  402574:	007a1200 	.word	0x007a1200
  402578:	00b71b00 	.word	0x00b71b00

0040257c <sysclk_get_main_hz>:
  40257c:	b580      	push	{r7, lr}
  40257e:	af00      	add	r7, sp, #0
  402580:	2006      	movs	r0, #6
  402582:	4b04      	ldr	r3, [pc, #16]	; (402594 <sysclk_get_main_hz+0x18>)
  402584:	4798      	blx	r3
  402586:	4602      	mov	r2, r0
  402588:	4613      	mov	r3, r2
  40258a:	009b      	lsls	r3, r3, #2
  40258c:	4413      	add	r3, r2
  40258e:	009b      	lsls	r3, r3, #2
  402590:	4618      	mov	r0, r3
  402592:	bd80      	pop	{r7, pc}
  402594:	00402509 	.word	0x00402509

00402598 <sysclk_get_peripheral_hz>:
  402598:	b580      	push	{r7, lr}
  40259a:	af00      	add	r7, sp, #0
  40259c:	4b02      	ldr	r3, [pc, #8]	; (4025a8 <sysclk_get_peripheral_hz+0x10>)
  40259e:	4798      	blx	r3
  4025a0:	4603      	mov	r3, r0
  4025a2:	085b      	lsrs	r3, r3, #1
  4025a4:	4618      	mov	r0, r3
  4025a6:	bd80      	pop	{r7, pc}
  4025a8:	0040257d 	.word	0x0040257d

004025ac <sysclk_enable_peripheral_clock>:
  4025ac:	b580      	push	{r7, lr}
  4025ae:	b082      	sub	sp, #8
  4025b0:	af00      	add	r7, sp, #0
  4025b2:	6078      	str	r0, [r7, #4]
  4025b4:	6878      	ldr	r0, [r7, #4]
  4025b6:	4b03      	ldr	r3, [pc, #12]	; (4025c4 <sysclk_enable_peripheral_clock+0x18>)
  4025b8:	4798      	blx	r3
  4025ba:	bf00      	nop
  4025bc:	3708      	adds	r7, #8
  4025be:	46bd      	mov	sp, r7
  4025c0:	bd80      	pop	{r7, pc}
  4025c2:	bf00      	nop
  4025c4:	00404631 	.word	0x00404631

004025c8 <InitRs485Pdc>:
  4025c8:	b5b0      	push	{r4, r5, r7, lr}
  4025ca:	b086      	sub	sp, #24
  4025cc:	af00      	add	r7, sp, #0
  4025ce:	4b15      	ldr	r3, [pc, #84]	; (402624 <InitRs485Pdc+0x5c>)
  4025d0:	463c      	mov	r4, r7
  4025d2:	461d      	mov	r5, r3
  4025d4:	cd0f      	ldmia	r5!, {r0, r1, r2, r3}
  4025d6:	c40f      	stmia	r4!, {r0, r1, r2, r3}
  4025d8:	e895 0003 	ldmia.w	r5, {r0, r1}
  4025dc:	e884 0003 	stmia.w	r4, {r0, r1}
  4025e0:	200e      	movs	r0, #14
  4025e2:	4b11      	ldr	r3, [pc, #68]	; (402628 <InitRs485Pdc+0x60>)
  4025e4:	4798      	blx	r3
  4025e6:	4b11      	ldr	r3, [pc, #68]	; (40262c <InitRs485Pdc+0x64>)
  4025e8:	4798      	blx	r3
  4025ea:	4602      	mov	r2, r0
  4025ec:	463b      	mov	r3, r7
  4025ee:	4619      	mov	r1, r3
  4025f0:	480f      	ldr	r0, [pc, #60]	; (402630 <InitRs485Pdc+0x68>)
  4025f2:	4b10      	ldr	r3, [pc, #64]	; (402634 <InitRs485Pdc+0x6c>)
  4025f4:	4798      	blx	r3
  4025f6:	480e      	ldr	r0, [pc, #56]	; (402630 <InitRs485Pdc+0x68>)
  4025f8:	4b0f      	ldr	r3, [pc, #60]	; (402638 <InitRs485Pdc+0x70>)
  4025fa:	4798      	blx	r3
  4025fc:	480c      	ldr	r0, [pc, #48]	; (402630 <InitRs485Pdc+0x68>)
  4025fe:	4b0f      	ldr	r3, [pc, #60]	; (40263c <InitRs485Pdc+0x74>)
  402600:	4798      	blx	r3
  402602:	480b      	ldr	r0, [pc, #44]	; (402630 <InitRs485Pdc+0x68>)
  402604:	4b0e      	ldr	r3, [pc, #56]	; (402640 <InitRs485Pdc+0x78>)
  402606:	4798      	blx	r3
  402608:	4602      	mov	r2, r0
  40260a:	4b0e      	ldr	r3, [pc, #56]	; (402644 <InitRs485Pdc+0x7c>)
  40260c:	601a      	str	r2, [r3, #0]
  40260e:	4b0d      	ldr	r3, [pc, #52]	; (402644 <InitRs485Pdc+0x7c>)
  402610:	681b      	ldr	r3, [r3, #0]
  402612:	f240 1101 	movw	r1, #257	; 0x101
  402616:	4618      	mov	r0, r3
  402618:	4b0b      	ldr	r3, [pc, #44]	; (402648 <InitRs485Pdc+0x80>)
  40261a:	4798      	blx	r3
  40261c:	bf00      	nop
  40261e:	3718      	adds	r7, #24
  402620:	46bd      	mov	sp, r7
  402622:	bdb0      	pop	{r4, r5, r7, pc}
  402624:	0040b0c0 	.word	0x0040b0c0
  402628:	004025ad 	.word	0x004025ad
  40262c:	00402599 	.word	0x00402599
  402630:	40024000 	.word	0x40024000
  402634:	004033d9 	.word	0x004033d9
  402638:	00403419 	.word	0x00403419
  40263c:	00403461 	.word	0x00403461
  402640:	00403581 	.word	0x00403581
  402644:	20002a08 	.word	0x20002a08
  402648:	00402de9 	.word	0x00402de9

0040264c <Rs485PdcStartTx>:
  40264c:	b580      	push	{r7, lr}
  40264e:	b082      	sub	sp, #8
  402650:	af00      	add	r7, sp, #0
  402652:	6078      	str	r0, [r7, #4]
  402654:	460b      	mov	r3, r1
  402656:	807b      	strh	r3, [r7, #2]
  402658:	4a08      	ldr	r2, [pc, #32]	; (40267c <Rs485PdcStartTx+0x30>)
  40265a:	687b      	ldr	r3, [r7, #4]
  40265c:	6013      	str	r3, [r2, #0]
  40265e:	887b      	ldrh	r3, [r7, #2]
  402660:	4a06      	ldr	r2, [pc, #24]	; (40267c <Rs485PdcStartTx+0x30>)
  402662:	6053      	str	r3, [r2, #4]
  402664:	4b06      	ldr	r3, [pc, #24]	; (402680 <Rs485PdcStartTx+0x34>)
  402666:	681b      	ldr	r3, [r3, #0]
  402668:	2200      	movs	r2, #0
  40266a:	4904      	ldr	r1, [pc, #16]	; (40267c <Rs485PdcStartTx+0x30>)
  40266c:	4618      	mov	r0, r3
  40266e:	4b05      	ldr	r3, [pc, #20]	; (402684 <Rs485PdcStartTx+0x38>)
  402670:	4798      	blx	r3
  402672:	bf00      	nop
  402674:	3708      	adds	r7, #8
  402676:	46bd      	mov	sp, r7
  402678:	bd80      	pop	{r7, pc}
  40267a:	bf00      	nop
  40267c:	20002a0c 	.word	0x20002a0c
  402680:	20002a08 	.word	0x20002a08
  402684:	00402d61 	.word	0x00402d61

00402688 <Rs485PdcStartRx>:
  402688:	b580      	push	{r7, lr}
  40268a:	b082      	sub	sp, #8
  40268c:	af00      	add	r7, sp, #0
  40268e:	6078      	str	r0, [r7, #4]
  402690:	460b      	mov	r3, r1
  402692:	807b      	strh	r3, [r7, #2]
  402694:	4a08      	ldr	r2, [pc, #32]	; (4026b8 <Rs485PdcStartRx+0x30>)
  402696:	687b      	ldr	r3, [r7, #4]
  402698:	6013      	str	r3, [r2, #0]
  40269a:	887b      	ldrh	r3, [r7, #2]
  40269c:	4a06      	ldr	r2, [pc, #24]	; (4026b8 <Rs485PdcStartRx+0x30>)
  40269e:	6053      	str	r3, [r2, #4]
  4026a0:	4b06      	ldr	r3, [pc, #24]	; (4026bc <Rs485PdcStartRx+0x34>)
  4026a2:	681b      	ldr	r3, [r3, #0]
  4026a4:	2200      	movs	r2, #0
  4026a6:	4904      	ldr	r1, [pc, #16]	; (4026b8 <Rs485PdcStartRx+0x30>)
  4026a8:	4618      	mov	r0, r3
  4026aa:	4b05      	ldr	r3, [pc, #20]	; (4026c0 <Rs485PdcStartRx+0x38>)
  4026ac:	4798      	blx	r3
  4026ae:	bf00      	nop
  4026b0:	3708      	adds	r7, #8
  4026b2:	46bd      	mov	sp, r7
  4026b4:	bd80      	pop	{r7, pc}
  4026b6:	bf00      	nop
  4026b8:	20002a0c 	.word	0x20002a0c
  4026bc:	20002a08 	.word	0x20002a08
  4026c0:	00402da5 	.word	0x00402da5

004026c4 <Rs485PdcGetRxBytes>:
  4026c4:	b580      	push	{r7, lr}
  4026c6:	b082      	sub	sp, #8
  4026c8:	af00      	add	r7, sp, #0
  4026ca:	2396      	movs	r3, #150	; 0x96
  4026cc:	607b      	str	r3, [r7, #4]
  4026ce:	4b09      	ldr	r3, [pc, #36]	; (4026f4 <Rs485PdcGetRxBytes+0x30>)
  4026d0:	681b      	ldr	r3, [r3, #0]
  4026d2:	4618      	mov	r0, r3
  4026d4:	4b08      	ldr	r3, [pc, #32]	; (4026f8 <Rs485PdcGetRxBytes+0x34>)
  4026d6:	4798      	blx	r3
  4026d8:	4602      	mov	r2, r0
  4026da:	687b      	ldr	r3, [r7, #4]
  4026dc:	1a9b      	subs	r3, r3, r2
  4026de:	607b      	str	r3, [r7, #4]
  4026e0:	687b      	ldr	r3, [r7, #4]
  4026e2:	2b96      	cmp	r3, #150	; 0x96
  4026e4:	d901      	bls.n	4026ea <Rs485PdcGetRxBytes+0x26>
  4026e6:	2300      	movs	r3, #0
  4026e8:	607b      	str	r3, [r7, #4]
  4026ea:	687b      	ldr	r3, [r7, #4]
  4026ec:	4618      	mov	r0, r3
  4026ee:	3708      	adds	r7, #8
  4026f0:	46bd      	mov	sp, r7
  4026f2:	bd80      	pop	{r7, pc}
  4026f4:	20002a08 	.word	0x20002a08
  4026f8:	00402e29 	.word	0x00402e29

004026fc <Rs485PdcGetTxStatus>:
  4026fc:	b580      	push	{r7, lr}
  4026fe:	af00      	add	r7, sp, #0
  402700:	4803      	ldr	r0, [pc, #12]	; (402710 <Rs485PdcGetTxStatus+0x14>)
  402702:	4b04      	ldr	r3, [pc, #16]	; (402714 <Rs485PdcGetTxStatus+0x18>)
  402704:	4798      	blx	r3
  402706:	4603      	mov	r3, r0
  402708:	f003 0310 	and.w	r3, r3, #16
  40270c:	4618      	mov	r0, r3
  40270e:	bd80      	pop	{r7, pc}
  402710:	40024000 	.word	0x40024000
  402714:	004034f9 	.word	0x004034f9

00402718 <local_twi_handler>:
  402718:	b590      	push	{r4, r7, lr}
  40271a:	b08b      	sub	sp, #44	; 0x2c
  40271c:	af00      	add	r7, sp, #0
  40271e:	6078      	str	r0, [r7, #4]
  402720:	2300      	movs	r3, #0
  402722:	60bb      	str	r3, [r7, #8]
  402724:	2300      	movs	r3, #0
  402726:	f887 3027 	strb.w	r3, [r7, #39]	; 0x27
  40272a:	4a7f      	ldr	r2, [pc, #508]	; (402928 <local_twi_handler+0x210>)
  40272c:	687b      	ldr	r3, [r7, #4]
  40272e:	011b      	lsls	r3, r3, #4
  402730:	4413      	add	r3, r2
  402732:	681b      	ldr	r3, [r3, #0]
  402734:	61bb      	str	r3, [r7, #24]
  402736:	69b8      	ldr	r0, [r7, #24]
  402738:	4b7c      	ldr	r3, [pc, #496]	; (40292c <local_twi_handler+0x214>)
  40273a:	4798      	blx	r3
  40273c:	6178      	str	r0, [r7, #20]
  40273e:	69b8      	ldr	r0, [r7, #24]
  402740:	4b7b      	ldr	r3, [pc, #492]	; (402930 <local_twi_handler+0x218>)
  402742:	4798      	blx	r3
  402744:	4602      	mov	r2, r0
  402746:	697b      	ldr	r3, [r7, #20]
  402748:	4013      	ands	r3, r2
  40274a:	617b      	str	r3, [r7, #20]
  40274c:	697b      	ldr	r3, [r7, #20]
  40274e:	f403 5300 	and.w	r3, r3, #8192	; 0x2000
  402752:	2b00      	cmp	r3, #0
  402754:	d071      	beq.n	40283a <local_twi_handler+0x122>
  402756:	4a74      	ldr	r2, [pc, #464]	; (402928 <local_twi_handler+0x210>)
  402758:	687b      	ldr	r3, [r7, #4]
  40275a:	011b      	lsls	r3, r3, #4
  40275c:	4413      	add	r3, r2
  40275e:	3304      	adds	r3, #4
  402760:	681b      	ldr	r3, [r3, #0]
  402762:	f44f 7100 	mov.w	r1, #512	; 0x200
  402766:	4618      	mov	r0, r3
  402768:	4b72      	ldr	r3, [pc, #456]	; (402934 <local_twi_handler+0x21c>)
  40276a:	4798      	blx	r3
  40276c:	f44f 5100 	mov.w	r1, #8192	; 0x2000
  402770:	69b8      	ldr	r0, [r7, #24]
  402772:	4b71      	ldr	r3, [pc, #452]	; (402938 <local_twi_handler+0x220>)
  402774:	4798      	blx	r3
  402776:	2300      	movs	r3, #0
  402778:	623b      	str	r3, [r7, #32]
  40277a:	69bb      	ldr	r3, [r7, #24]
  40277c:	6a1b      	ldr	r3, [r3, #32]
  40277e:	74fb      	strb	r3, [r7, #19]
  402780:	7cfb      	ldrb	r3, [r7, #19]
  402782:	f003 0304 	and.w	r3, r3, #4
  402786:	2b00      	cmp	r3, #0
  402788:	d10a      	bne.n	4027a0 <local_twi_handler+0x88>
  40278a:	6a3b      	ldr	r3, [r7, #32]
  40278c:	3301      	adds	r3, #1
  40278e:	623b      	str	r3, [r7, #32]
  402790:	6a3b      	ldr	r3, [r7, #32]
  402792:	f1b3 3fff 	cmp.w	r3, #4294967295
  402796:	d1f0      	bne.n	40277a <local_twi_handler+0x62>
  402798:	2301      	movs	r3, #1
  40279a:	f887 3027 	strb.w	r3, [r7, #39]	; 0x27
  40279e:	e000      	b.n	4027a2 <local_twi_handler+0x8a>
  4027a0:	bf00      	nop
  4027a2:	69bb      	ldr	r3, [r7, #24]
  4027a4:	2202      	movs	r2, #2
  4027a6:	601a      	str	r2, [r3, #0]
  4027a8:	4a64      	ldr	r2, [pc, #400]	; (40293c <local_twi_handler+0x224>)
  4027aa:	687b      	ldr	r3, [r7, #4]
  4027ac:	f852 2033 	ldr.w	r2, [r2, r3, lsl #3]
  4027b0:	4962      	ldr	r1, [pc, #392]	; (40293c <local_twi_handler+0x224>)
  4027b2:	687b      	ldr	r3, [r7, #4]
  4027b4:	00db      	lsls	r3, r3, #3
  4027b6:	440b      	add	r3, r1
  4027b8:	685b      	ldr	r3, [r3, #4]
  4027ba:	3b01      	subs	r3, #1
  4027bc:	4413      	add	r3, r2
  4027be:	781b      	ldrb	r3, [r3, #0]
  4027c0:	461a      	mov	r2, r3
  4027c2:	69bb      	ldr	r3, [r7, #24]
  4027c4:	635a      	str	r2, [r3, #52]	; 0x34
  4027c6:	69bb      	ldr	r3, [r7, #24]
  4027c8:	6a1b      	ldr	r3, [r3, #32]
  4027ca:	74fb      	strb	r3, [r7, #19]
  4027cc:	7cfb      	ldrb	r3, [r7, #19]
  4027ce:	f003 0301 	and.w	r3, r3, #1
  4027d2:	2b00      	cmp	r3, #0
  4027d4:	d10a      	bne.n	4027ec <local_twi_handler+0xd4>
  4027d6:	6a3b      	ldr	r3, [r7, #32]
  4027d8:	3301      	adds	r3, #1
  4027da:	623b      	str	r3, [r7, #32]
  4027dc:	6a3b      	ldr	r3, [r7, #32]
  4027de:	f1b3 3fff 	cmp.w	r3, #4294967295
  4027e2:	d1f0      	bne.n	4027c6 <local_twi_handler+0xae>
  4027e4:	2301      	movs	r3, #1
  4027e6:	f887 3027 	strb.w	r3, [r7, #39]	; 0x27
  4027ea:	e000      	b.n	4027ee <local_twi_handler+0xd6>
  4027ec:	bf00      	nop
  4027ee:	4a54      	ldr	r2, [pc, #336]	; (402940 <local_twi_handler+0x228>)
  4027f0:	687b      	ldr	r3, [r7, #4]
  4027f2:	00db      	lsls	r3, r3, #3
  4027f4:	4413      	add	r3, r2
  4027f6:	685b      	ldr	r3, [r3, #4]
  4027f8:	2b00      	cmp	r3, #0
  4027fa:	d00a      	beq.n	402812 <local_twi_handler+0xfa>
  4027fc:	4a50      	ldr	r2, [pc, #320]	; (402940 <local_twi_handler+0x228>)
  4027fe:	687b      	ldr	r3, [r7, #4]
  402800:	00db      	lsls	r3, r3, #3
  402802:	4413      	add	r3, r2
  402804:	6858      	ldr	r0, [r3, #4]
  402806:	f107 0208 	add.w	r2, r7, #8
  40280a:	2300      	movs	r3, #0
  40280c:	2100      	movs	r1, #0
  40280e:	4c4d      	ldr	r4, [pc, #308]	; (402944 <local_twi_handler+0x22c>)
  402810:	47a0      	blx	r4
  402812:	6a3b      	ldr	r3, [r7, #32]
  402814:	f1b3 3fff 	cmp.w	r3, #4294967295
  402818:	d00f      	beq.n	40283a <local_twi_handler+0x122>
  40281a:	4a49      	ldr	r2, [pc, #292]	; (402940 <local_twi_handler+0x228>)
  40281c:	687b      	ldr	r3, [r7, #4]
  40281e:	f852 3033 	ldr.w	r3, [r2, r3, lsl #3]
  402822:	2b00      	cmp	r3, #0
  402824:	d009      	beq.n	40283a <local_twi_handler+0x122>
  402826:	4a46      	ldr	r2, [pc, #280]	; (402940 <local_twi_handler+0x228>)
  402828:	687b      	ldr	r3, [r7, #4]
  40282a:	f852 0033 	ldr.w	r0, [r2, r3, lsl #3]
  40282e:	f107 0208 	add.w	r2, r7, #8
  402832:	2300      	movs	r3, #0
  402834:	2100      	movs	r1, #0
  402836:	4c43      	ldr	r4, [pc, #268]	; (402944 <local_twi_handler+0x22c>)
  402838:	47a0      	blx	r4
  40283a:	697b      	ldr	r3, [r7, #20]
  40283c:	f403 5380 	and.w	r3, r3, #4096	; 0x1000
  402840:	2b00      	cmp	r3, #0
  402842:	f000 80a8 	beq.w	402996 <local_twi_handler+0x27e>
  402846:	2300      	movs	r3, #0
  402848:	61fb      	str	r3, [r7, #28]
  40284a:	4a37      	ldr	r2, [pc, #220]	; (402928 <local_twi_handler+0x210>)
  40284c:	687b      	ldr	r3, [r7, #4]
  40284e:	011b      	lsls	r3, r3, #4
  402850:	4413      	add	r3, r2
  402852:	3304      	adds	r3, #4
  402854:	681b      	ldr	r3, [r3, #0]
  402856:	2102      	movs	r1, #2
  402858:	4618      	mov	r0, r3
  40285a:	4b36      	ldr	r3, [pc, #216]	; (402934 <local_twi_handler+0x21c>)
  40285c:	4798      	blx	r3
  40285e:	f44f 5180 	mov.w	r1, #4096	; 0x1000
  402862:	69b8      	ldr	r0, [r7, #24]
  402864:	4b34      	ldr	r3, [pc, #208]	; (402938 <local_twi_handler+0x220>)
  402866:	4798      	blx	r3
  402868:	69bb      	ldr	r3, [r7, #24]
  40286a:	6a1b      	ldr	r3, [r3, #32]
  40286c:	60fb      	str	r3, [r7, #12]
  40286e:	68fb      	ldr	r3, [r7, #12]
  402870:	f003 0302 	and.w	r3, r3, #2
  402874:	2b00      	cmp	r3, #0
  402876:	d107      	bne.n	402888 <local_twi_handler+0x170>
  402878:	69fb      	ldr	r3, [r7, #28]
  40287a:	3301      	adds	r3, #1
  40287c:	61fb      	str	r3, [r7, #28]
  40287e:	69fb      	ldr	r3, [r7, #28]
  402880:	f1b3 3fff 	cmp.w	r3, #4294967295
  402884:	d002      	beq.n	40288c <local_twi_handler+0x174>
  402886:	e7ef      	b.n	402868 <local_twi_handler+0x150>
  402888:	bf00      	nop
  40288a:	e000      	b.n	40288e <local_twi_handler+0x176>
  40288c:	bf00      	nop
  40288e:	69bb      	ldr	r3, [r7, #24]
  402890:	2202      	movs	r2, #2
  402892:	601a      	str	r2, [r3, #0]
  402894:	4a29      	ldr	r2, [pc, #164]	; (40293c <local_twi_handler+0x224>)
  402896:	687b      	ldr	r3, [r7, #4]
  402898:	f852 2033 	ldr.w	r2, [r2, r3, lsl #3]
  40289c:	4927      	ldr	r1, [pc, #156]	; (40293c <local_twi_handler+0x224>)
  40289e:	687b      	ldr	r3, [r7, #4]
  4028a0:	00db      	lsls	r3, r3, #3
  4028a2:	440b      	add	r3, r1
  4028a4:	685b      	ldr	r3, [r3, #4]
  4028a6:	3b02      	subs	r3, #2
  4028a8:	4413      	add	r3, r2
  4028aa:	69ba      	ldr	r2, [r7, #24]
  4028ac:	6b12      	ldr	r2, [r2, #48]	; 0x30
  4028ae:	b2d2      	uxtb	r2, r2
  4028b0:	701a      	strb	r2, [r3, #0]
  4028b2:	69bb      	ldr	r3, [r7, #24]
  4028b4:	6a1b      	ldr	r3, [r3, #32]
  4028b6:	60fb      	str	r3, [r7, #12]
  4028b8:	68fb      	ldr	r3, [r7, #12]
  4028ba:	f003 0302 	and.w	r3, r3, #2
  4028be:	2b00      	cmp	r3, #0
  4028c0:	d107      	bne.n	4028d2 <local_twi_handler+0x1ba>
  4028c2:	69fb      	ldr	r3, [r7, #28]
  4028c4:	3301      	adds	r3, #1
  4028c6:	61fb      	str	r3, [r7, #28]
  4028c8:	69fb      	ldr	r3, [r7, #28]
  4028ca:	f1b3 3fff 	cmp.w	r3, #4294967295
  4028ce:	d002      	beq.n	4028d6 <local_twi_handler+0x1be>
  4028d0:	e7ef      	b.n	4028b2 <local_twi_handler+0x19a>
  4028d2:	bf00      	nop
  4028d4:	e000      	b.n	4028d8 <local_twi_handler+0x1c0>
  4028d6:	bf00      	nop
  4028d8:	69fb      	ldr	r3, [r7, #28]
  4028da:	f1b3 3fff 	cmp.w	r3, #4294967295
  4028de:	d034      	beq.n	40294a <local_twi_handler+0x232>
  4028e0:	4a16      	ldr	r2, [pc, #88]	; (40293c <local_twi_handler+0x224>)
  4028e2:	687b      	ldr	r3, [r7, #4]
  4028e4:	f852 2033 	ldr.w	r2, [r2, r3, lsl #3]
  4028e8:	4914      	ldr	r1, [pc, #80]	; (40293c <local_twi_handler+0x224>)
  4028ea:	687b      	ldr	r3, [r7, #4]
  4028ec:	00db      	lsls	r3, r3, #3
  4028ee:	440b      	add	r3, r1
  4028f0:	685b      	ldr	r3, [r3, #4]
  4028f2:	3b01      	subs	r3, #1
  4028f4:	4413      	add	r3, r2
  4028f6:	69ba      	ldr	r2, [r7, #24]
  4028f8:	6b12      	ldr	r2, [r2, #48]	; 0x30
  4028fa:	b2d2      	uxtb	r2, r2
  4028fc:	701a      	strb	r2, [r3, #0]
  4028fe:	2300      	movs	r3, #0
  402900:	61fb      	str	r3, [r7, #28]
  402902:	69bb      	ldr	r3, [r7, #24]
  402904:	6a1b      	ldr	r3, [r3, #32]
  402906:	60fb      	str	r3, [r7, #12]
  402908:	68fb      	ldr	r3, [r7, #12]
  40290a:	f003 0301 	and.w	r3, r3, #1
  40290e:	2b00      	cmp	r3, #0
  402910:	d11a      	bne.n	402948 <local_twi_handler+0x230>
  402912:	69fb      	ldr	r3, [r7, #28]
  402914:	3301      	adds	r3, #1
  402916:	61fb      	str	r3, [r7, #28]
  402918:	69fb      	ldr	r3, [r7, #28]
  40291a:	f1b3 3fff 	cmp.w	r3, #4294967295
  40291e:	d1f0      	bne.n	402902 <local_twi_handler+0x1ea>
  402920:	2301      	movs	r3, #1
  402922:	f887 3027 	strb.w	r3, [r7, #39]	; 0x27
  402926:	e010      	b.n	40294a <local_twi_handler+0x232>
  402928:	0040b0d8 	.word	0x0040b0d8
  40292c:	00403221 	.word	0x00403221
  402930:	00403239 	.word	0x00403239
  402934:	00402e09 	.word	0x00402e09
  402938:	00403201 	.word	0x00403201
  40293c:	200007e8 	.word	0x200007e8
  402940:	200007c8 	.word	0x200007c8
  402944:	0040530d 	.word	0x0040530d
  402948:	bf00      	nop
  40294a:	4a33      	ldr	r2, [pc, #204]	; (402a18 <local_twi_handler+0x300>)
  40294c:	687b      	ldr	r3, [r7, #4]
  40294e:	00db      	lsls	r3, r3, #3
  402950:	4413      	add	r3, r2
  402952:	685b      	ldr	r3, [r3, #4]
  402954:	2b00      	cmp	r3, #0
  402956:	d00a      	beq.n	40296e <local_twi_handler+0x256>
  402958:	4a2f      	ldr	r2, [pc, #188]	; (402a18 <local_twi_handler+0x300>)
  40295a:	687b      	ldr	r3, [r7, #4]
  40295c:	00db      	lsls	r3, r3, #3
  40295e:	4413      	add	r3, r2
  402960:	6858      	ldr	r0, [r3, #4]
  402962:	f107 0208 	add.w	r2, r7, #8
  402966:	2300      	movs	r3, #0
  402968:	2100      	movs	r1, #0
  40296a:	4c2c      	ldr	r4, [pc, #176]	; (402a1c <local_twi_handler+0x304>)
  40296c:	47a0      	blx	r4
  40296e:	69fb      	ldr	r3, [r7, #28]
  402970:	f1b3 3fff 	cmp.w	r3, #4294967295
  402974:	d00f      	beq.n	402996 <local_twi_handler+0x27e>
  402976:	4a2a      	ldr	r2, [pc, #168]	; (402a20 <local_twi_handler+0x308>)
  402978:	687b      	ldr	r3, [r7, #4]
  40297a:	f852 3033 	ldr.w	r3, [r2, r3, lsl #3]
  40297e:	2b00      	cmp	r3, #0
  402980:	d009      	beq.n	402996 <local_twi_handler+0x27e>
  402982:	4a27      	ldr	r2, [pc, #156]	; (402a20 <local_twi_handler+0x308>)
  402984:	687b      	ldr	r3, [r7, #4]
  402986:	f852 0033 	ldr.w	r0, [r2, r3, lsl #3]
  40298a:	f107 0208 	add.w	r2, r7, #8
  40298e:	2300      	movs	r3, #0
  402990:	2100      	movs	r1, #0
  402992:	4c22      	ldr	r4, [pc, #136]	; (402a1c <local_twi_handler+0x304>)
  402994:	47a0      	blx	r4
  402996:	697b      	ldr	r3, [r7, #20]
  402998:	f403 7350 	and.w	r3, r3, #832	; 0x340
  40299c:	2b00      	cmp	r3, #0
  40299e:	d103      	bne.n	4029a8 <local_twi_handler+0x290>
  4029a0:	f897 3027 	ldrb.w	r3, [r7, #39]	; 0x27
  4029a4:	2b00      	cmp	r3, #0
  4029a6:	d02e      	beq.n	402a06 <local_twi_handler+0x2ee>
  4029a8:	4a1e      	ldr	r2, [pc, #120]	; (402a24 <local_twi_handler+0x30c>)
  4029aa:	687b      	ldr	r3, [r7, #4]
  4029ac:	011b      	lsls	r3, r3, #4
  4029ae:	4413      	add	r3, r2
  4029b0:	3304      	adds	r3, #4
  4029b2:	681b      	ldr	r3, [r3, #0]
  4029b4:	f240 2102 	movw	r1, #514	; 0x202
  4029b8:	4618      	mov	r0, r3
  4029ba:	4b1b      	ldr	r3, [pc, #108]	; (402a28 <local_twi_handler+0x310>)
  4029bc:	4798      	blx	r3
  4029be:	697b      	ldr	r3, [r7, #20]
  4029c0:	f403 7380 	and.w	r3, r3, #256	; 0x100
  4029c4:	2b00      	cmp	r3, #0
  4029c6:	d102      	bne.n	4029ce <local_twi_handler+0x2b6>
  4029c8:	69bb      	ldr	r3, [r7, #24]
  4029ca:	2202      	movs	r2, #2
  4029cc:	601a      	str	r2, [r3, #0]
  4029ce:	f44f 5100 	mov.w	r1, #8192	; 0x2000
  4029d2:	69b8      	ldr	r0, [r7, #24]
  4029d4:	4b15      	ldr	r3, [pc, #84]	; (402a2c <local_twi_handler+0x314>)
  4029d6:	4798      	blx	r3
  4029d8:	f44f 5180 	mov.w	r1, #4096	; 0x1000
  4029dc:	69b8      	ldr	r0, [r7, #24]
  4029de:	4b13      	ldr	r3, [pc, #76]	; (402a2c <local_twi_handler+0x314>)
  4029e0:	4798      	blx	r3
  4029e2:	4a0d      	ldr	r2, [pc, #52]	; (402a18 <local_twi_handler+0x300>)
  4029e4:	687b      	ldr	r3, [r7, #4]
  4029e6:	00db      	lsls	r3, r3, #3
  4029e8:	4413      	add	r3, r2
  4029ea:	685b      	ldr	r3, [r3, #4]
  4029ec:	2b00      	cmp	r3, #0
  4029ee:	d00a      	beq.n	402a06 <local_twi_handler+0x2ee>
  4029f0:	4a09      	ldr	r2, [pc, #36]	; (402a18 <local_twi_handler+0x300>)
  4029f2:	687b      	ldr	r3, [r7, #4]
  4029f4:	00db      	lsls	r3, r3, #3
  4029f6:	4413      	add	r3, r2
  4029f8:	6858      	ldr	r0, [r3, #4]
  4029fa:	f107 0208 	add.w	r2, r7, #8
  4029fe:	2300      	movs	r3, #0
  402a00:	2100      	movs	r1, #0
  402a02:	4c06      	ldr	r4, [pc, #24]	; (402a1c <local_twi_handler+0x304>)
  402a04:	47a0      	blx	r4
  402a06:	68bb      	ldr	r3, [r7, #8]
  402a08:	2b00      	cmp	r3, #0
  402a0a:	d001      	beq.n	402a10 <local_twi_handler+0x2f8>
  402a0c:	4b08      	ldr	r3, [pc, #32]	; (402a30 <local_twi_handler+0x318>)
  402a0e:	4798      	blx	r3
  402a10:	bf00      	nop
  402a12:	372c      	adds	r7, #44	; 0x2c
  402a14:	46bd      	mov	sp, r7
  402a16:	bd90      	pop	{r4, r7, pc}
  402a18:	200007c8 	.word	0x200007c8
  402a1c:	0040530d 	.word	0x0040530d
  402a20:	200007d8 	.word	0x200007d8
  402a24:	0040b0d8 	.word	0x0040b0d8
  402a28:	00402e09 	.word	0x00402e09
  402a2c:	00403201 	.word	0x00403201
  402a30:	00404c8d 	.word	0x00404c8d

00402a34 <TWI0_Handler>:
  402a34:	b580      	push	{r7, lr}
  402a36:	af00      	add	r7, sp, #0
  402a38:	2000      	movs	r0, #0
  402a3a:	4b02      	ldr	r3, [pc, #8]	; (402a44 <TWI0_Handler+0x10>)
  402a3c:	4798      	blx	r3
  402a3e:	bf00      	nop
  402a40:	bd80      	pop	{r7, pc}
  402a42:	bf00      	nop
  402a44:	00402719 	.word	0x00402719

00402a48 <TWI1_Handler>:
  402a48:	b580      	push	{r7, lr}
  402a4a:	af00      	add	r7, sp, #0
  402a4c:	2001      	movs	r0, #1
  402a4e:	4b02      	ldr	r3, [pc, #8]	; (402a58 <TWI1_Handler+0x10>)
  402a50:	4798      	blx	r3
  402a52:	bf00      	nop
  402a54:	bd80      	pop	{r7, pc}
  402a56:	bf00      	nop
  402a58:	00402719 	.word	0x00402719

00402a5c <configure_rx_dma>:
  402a5c:	b580      	push	{r7, lr}
  402a5e:	b084      	sub	sp, #16
  402a60:	af00      	add	r7, sp, #0
  402a62:	6078      	str	r0, [r7, #4]
  402a64:	460b      	mov	r3, r1
  402a66:	70fb      	strb	r3, [r7, #3]
  402a68:	687a      	ldr	r2, [r7, #4]
  402a6a:	4613      	mov	r3, r2
  402a6c:	00db      	lsls	r3, r3, #3
  402a6e:	1a9b      	subs	r3, r3, r2
  402a70:	009b      	lsls	r3, r3, #2
  402a72:	4a38      	ldr	r2, [pc, #224]	; (402b54 <configure_rx_dma+0xf8>)
  402a74:	4413      	add	r3, r2
  402a76:	60fb      	str	r3, [r7, #12]
  402a78:	68fb      	ldr	r3, [r7, #12]
  402a7a:	699b      	ldr	r3, [r3, #24]
  402a7c:	461a      	mov	r2, r3
  402a7e:	68fb      	ldr	r3, [r7, #12]
  402a80:	689b      	ldr	r3, [r3, #8]
  402a82:	429a      	cmp	r2, r3
  402a84:	d10e      	bne.n	402aa4 <configure_rx_dma+0x48>
  402a86:	78fb      	ldrb	r3, [r7, #3]
  402a88:	2b00      	cmp	r3, #0
  402a8a:	d103      	bne.n	402a94 <configure_rx_dma+0x38>
  402a8c:	68fb      	ldr	r3, [r7, #12]
  402a8e:	2200      	movs	r2, #0
  402a90:	60da      	str	r2, [r3, #12]
  402a92:	e01e      	b.n	402ad2 <configure_rx_dma+0x76>
  402a94:	68fb      	ldr	r3, [r7, #12]
  402a96:	685a      	ldr	r2, [r3, #4]
  402a98:	68fb      	ldr	r3, [r7, #12]
  402a9a:	689b      	ldr	r3, [r3, #8]
  402a9c:	1ad2      	subs	r2, r2, r3
  402a9e:	68fb      	ldr	r3, [r7, #12]
  402aa0:	60da      	str	r2, [r3, #12]
  402aa2:	e016      	b.n	402ad2 <configure_rx_dma+0x76>
  402aa4:	68fb      	ldr	r3, [r7, #12]
  402aa6:	699b      	ldr	r3, [r3, #24]
  402aa8:	461a      	mov	r2, r3
  402aaa:	68fb      	ldr	r3, [r7, #12]
  402aac:	689b      	ldr	r3, [r3, #8]
  402aae:	429a      	cmp	r2, r3
  402ab0:	d908      	bls.n	402ac4 <configure_rx_dma+0x68>
  402ab2:	68fb      	ldr	r3, [r7, #12]
  402ab4:	699b      	ldr	r3, [r3, #24]
  402ab6:	461a      	mov	r2, r3
  402ab8:	68fb      	ldr	r3, [r7, #12]
  402aba:	689b      	ldr	r3, [r3, #8]
  402abc:	1ad2      	subs	r2, r2, r3
  402abe:	68fb      	ldr	r3, [r7, #12]
  402ac0:	60da      	str	r2, [r3, #12]
  402ac2:	e006      	b.n	402ad2 <configure_rx_dma+0x76>
  402ac4:	68fb      	ldr	r3, [r7, #12]
  402ac6:	685a      	ldr	r2, [r3, #4]
  402ac8:	68fb      	ldr	r3, [r7, #12]
  402aca:	689b      	ldr	r3, [r3, #8]
  402acc:	1ad2      	subs	r2, r2, r3
  402ace:	68fb      	ldr	r3, [r7, #12]
  402ad0:	60da      	str	r2, [r3, #12]
  402ad2:	68fb      	ldr	r3, [r7, #12]
  402ad4:	689a      	ldr	r2, [r3, #8]
  402ad6:	68fb      	ldr	r3, [r7, #12]
  402ad8:	68db      	ldr	r3, [r3, #12]
  402ada:	441a      	add	r2, r3
  402adc:	68fb      	ldr	r3, [r7, #12]
  402ade:	685b      	ldr	r3, [r3, #4]
  402ae0:	429a      	cmp	r2, r3
  402ae2:	d903      	bls.n	402aec <configure_rx_dma+0x90>
  402ae4:	4b1c      	ldr	r3, [pc, #112]	; (402b58 <configure_rx_dma+0xfc>)
  402ae6:	4798      	blx	r3
  402ae8:	bf00      	nop
  402aea:	e7fd      	b.n	402ae8 <configure_rx_dma+0x8c>
  402aec:	68fb      	ldr	r3, [r7, #12]
  402aee:	68db      	ldr	r3, [r3, #12]
  402af0:	2b00      	cmp	r3, #0
  402af2:	d020      	beq.n	402b36 <configure_rx_dma+0xda>
  402af4:	4a19      	ldr	r2, [pc, #100]	; (402b5c <configure_rx_dma+0x100>)
  402af6:	687b      	ldr	r3, [r7, #4]
  402af8:	011b      	lsls	r3, r3, #4
  402afa:	4413      	add	r3, r2
  402afc:	3304      	adds	r3, #4
  402afe:	6818      	ldr	r0, [r3, #0]
  402b00:	68fb      	ldr	r3, [r7, #12]
  402b02:	3308      	adds	r3, #8
  402b04:	2200      	movs	r2, #0
  402b06:	4619      	mov	r1, r3
  402b08:	4b15      	ldr	r3, [pc, #84]	; (402b60 <configure_rx_dma+0x104>)
  402b0a:	4798      	blx	r3
  402b0c:	4a13      	ldr	r2, [pc, #76]	; (402b5c <configure_rx_dma+0x100>)
  402b0e:	687b      	ldr	r3, [r7, #4]
  402b10:	011b      	lsls	r3, r3, #4
  402b12:	4413      	add	r3, r2
  402b14:	3304      	adds	r3, #4
  402b16:	681b      	ldr	r3, [r3, #0]
  402b18:	2101      	movs	r1, #1
  402b1a:	4618      	mov	r0, r3
  402b1c:	4b11      	ldr	r3, [pc, #68]	; (402b64 <configure_rx_dma+0x108>)
  402b1e:	4798      	blx	r3
  402b20:	4a0e      	ldr	r2, [pc, #56]	; (402b5c <configure_rx_dma+0x100>)
  402b22:	687b      	ldr	r3, [r7, #4]
  402b24:	011b      	lsls	r3, r3, #4
  402b26:	4413      	add	r3, r2
  402b28:	681b      	ldr	r3, [r3, #0]
  402b2a:	f44f 7184 	mov.w	r1, #264	; 0x108
  402b2e:	4618      	mov	r0, r3
  402b30:	4b0d      	ldr	r3, [pc, #52]	; (402b68 <configure_rx_dma+0x10c>)
  402b32:	4798      	blx	r3
  402b34:	e009      	b.n	402b4a <configure_rx_dma+0xee>
  402b36:	4a09      	ldr	r2, [pc, #36]	; (402b5c <configure_rx_dma+0x100>)
  402b38:	687b      	ldr	r3, [r7, #4]
  402b3a:	011b      	lsls	r3, r3, #4
  402b3c:	4413      	add	r3, r2
  402b3e:	681b      	ldr	r3, [r3, #0]
  402b40:	f44f 7184 	mov.w	r1, #264	; 0x108
  402b44:	4618      	mov	r0, r3
  402b46:	4b09      	ldr	r3, [pc, #36]	; (402b6c <configure_rx_dma+0x110>)
  402b48:	4798      	blx	r3
  402b4a:	bf00      	nop
  402b4c:	3710      	adds	r7, #16
  402b4e:	46bd      	mov	sp, r7
  402b50:	bd80      	pop	{r7, pc}
  402b52:	bf00      	nop
  402b54:	200007f8 	.word	0x200007f8
  402b58:	00404ced 	.word	0x00404ced
  402b5c:	0040b0f8 	.word	0x0040b0f8
  402b60:	00402da5 	.word	0x00402da5
  402b64:	00402de9 	.word	0x00402de9
  402b68:	004034a9 	.word	0x004034a9
  402b6c:	004034c5 	.word	0x004034c5

00402b70 <local_usart_handler>:
  402b70:	b590      	push	{r4, r7, lr}
  402b72:	b087      	sub	sp, #28
  402b74:	af00      	add	r7, sp, #0
  402b76:	6078      	str	r0, [r7, #4]
  402b78:	2300      	movs	r3, #0
  402b7a:	60fb      	str	r3, [r7, #12]
  402b7c:	4a62      	ldr	r2, [pc, #392]	; (402d08 <local_usart_handler+0x198>)
  402b7e:	687b      	ldr	r3, [r7, #4]
  402b80:	011b      	lsls	r3, r3, #4
  402b82:	4413      	add	r3, r2
  402b84:	681b      	ldr	r3, [r3, #0]
  402b86:	4618      	mov	r0, r3
  402b88:	4b60      	ldr	r3, [pc, #384]	; (402d0c <local_usart_handler+0x19c>)
  402b8a:	4798      	blx	r3
  402b8c:	6178      	str	r0, [r7, #20]
  402b8e:	4a5e      	ldr	r2, [pc, #376]	; (402d08 <local_usart_handler+0x198>)
  402b90:	687b      	ldr	r3, [r7, #4]
  402b92:	011b      	lsls	r3, r3, #4
  402b94:	4413      	add	r3, r2
  402b96:	681b      	ldr	r3, [r3, #0]
  402b98:	4618      	mov	r0, r3
  402b9a:	4b5d      	ldr	r3, [pc, #372]	; (402d10 <local_usart_handler+0x1a0>)
  402b9c:	4798      	blx	r3
  402b9e:	4602      	mov	r2, r0
  402ba0:	697b      	ldr	r3, [r7, #20]
  402ba2:	4013      	ands	r3, r2
  402ba4:	617b      	str	r3, [r7, #20]
  402ba6:	687a      	ldr	r2, [r7, #4]
  402ba8:	4613      	mov	r3, r2
  402baa:	00db      	lsls	r3, r3, #3
  402bac:	1a9b      	subs	r3, r3, r2
  402bae:	009b      	lsls	r3, r3, #2
  402bb0:	4a58      	ldr	r2, [pc, #352]	; (402d14 <local_usart_handler+0x1a4>)
  402bb2:	4413      	add	r3, r2
  402bb4:	613b      	str	r3, [r7, #16]
  402bb6:	697b      	ldr	r3, [r7, #20]
  402bb8:	f003 0310 	and.w	r3, r3, #16
  402bbc:	2b00      	cmp	r3, #0
  402bbe:	d02a      	beq.n	402c16 <local_usart_handler+0xa6>
  402bc0:	4a51      	ldr	r2, [pc, #324]	; (402d08 <local_usart_handler+0x198>)
  402bc2:	687b      	ldr	r3, [r7, #4]
  402bc4:	011b      	lsls	r3, r3, #4
  402bc6:	4413      	add	r3, r2
  402bc8:	681b      	ldr	r3, [r3, #0]
  402bca:	2110      	movs	r1, #16
  402bcc:	4618      	mov	r0, r3
  402bce:	4b52      	ldr	r3, [pc, #328]	; (402d18 <local_usart_handler+0x1a8>)
  402bd0:	4798      	blx	r3
  402bd2:	4a52      	ldr	r2, [pc, #328]	; (402d1c <local_usart_handler+0x1ac>)
  402bd4:	687b      	ldr	r3, [r7, #4]
  402bd6:	00db      	lsls	r3, r3, #3
  402bd8:	4413      	add	r3, r2
  402bda:	685b      	ldr	r3, [r3, #4]
  402bdc:	2b00      	cmp	r3, #0
  402bde:	d00a      	beq.n	402bf6 <local_usart_handler+0x86>
  402be0:	4a4e      	ldr	r2, [pc, #312]	; (402d1c <local_usart_handler+0x1ac>)
  402be2:	687b      	ldr	r3, [r7, #4]
  402be4:	00db      	lsls	r3, r3, #3
  402be6:	4413      	add	r3, r2
  402be8:	6858      	ldr	r0, [r3, #4]
  402bea:	f107 020c 	add.w	r2, r7, #12
  402bee:	2300      	movs	r3, #0
  402bf0:	2100      	movs	r1, #0
  402bf2:	4c4b      	ldr	r4, [pc, #300]	; (402d20 <local_usart_handler+0x1b0>)
  402bf4:	47a0      	blx	r4
  402bf6:	4a49      	ldr	r2, [pc, #292]	; (402d1c <local_usart_handler+0x1ac>)
  402bf8:	687b      	ldr	r3, [r7, #4]
  402bfa:	f852 3033 	ldr.w	r3, [r2, r3, lsl #3]
  402bfe:	2b00      	cmp	r3, #0
  402c00:	d009      	beq.n	402c16 <local_usart_handler+0xa6>
  402c02:	4a46      	ldr	r2, [pc, #280]	; (402d1c <local_usart_handler+0x1ac>)
  402c04:	687b      	ldr	r3, [r7, #4]
  402c06:	f852 0033 	ldr.w	r0, [r2, r3, lsl #3]
  402c0a:	f107 020c 	add.w	r2, r7, #12
  402c0e:	2300      	movs	r3, #0
  402c10:	2100      	movs	r1, #0
  402c12:	4c43      	ldr	r4, [pc, #268]	; (402d20 <local_usart_handler+0x1b0>)
  402c14:	47a0      	blx	r4
  402c16:	697b      	ldr	r3, [r7, #20]
  402c18:	f003 0308 	and.w	r3, r3, #8
  402c1c:	2b00      	cmp	r3, #0
  402c1e:	d031      	beq.n	402c84 <local_usart_handler+0x114>
  402c20:	693b      	ldr	r3, [r7, #16]
  402c22:	699b      	ldr	r3, [r3, #24]
  402c24:	2b00      	cmp	r3, #0
  402c26:	d103      	bne.n	402c30 <local_usart_handler+0xc0>
  402c28:	4b3e      	ldr	r3, [pc, #248]	; (402d24 <local_usart_handler+0x1b4>)
  402c2a:	4798      	blx	r3
  402c2c:	bf00      	nop
  402c2e:	e7fd      	b.n	402c2c <local_usart_handler+0xbc>
  402c30:	693b      	ldr	r3, [r7, #16]
  402c32:	699b      	ldr	r3, [r3, #24]
  402c34:	2b01      	cmp	r3, #1
  402c36:	d103      	bne.n	402c40 <local_usart_handler+0xd0>
  402c38:	4b3a      	ldr	r3, [pc, #232]	; (402d24 <local_usart_handler+0x1b4>)
  402c3a:	4798      	blx	r3
  402c3c:	bf00      	nop
  402c3e:	e7fd      	b.n	402c3c <local_usart_handler+0xcc>
  402c40:	693b      	ldr	r3, [r7, #16]
  402c42:	689a      	ldr	r2, [r3, #8]
  402c44:	693b      	ldr	r3, [r7, #16]
  402c46:	68db      	ldr	r3, [r3, #12]
  402c48:	441a      	add	r2, r3
  402c4a:	693b      	ldr	r3, [r7, #16]
  402c4c:	609a      	str	r2, [r3, #8]
  402c4e:	693b      	ldr	r3, [r7, #16]
  402c50:	689a      	ldr	r2, [r3, #8]
  402c52:	693b      	ldr	r3, [r7, #16]
  402c54:	685b      	ldr	r3, [r3, #4]
  402c56:	429a      	cmp	r2, r3
  402c58:	d303      	bcc.n	402c62 <local_usart_handler+0xf2>
  402c5a:	693b      	ldr	r3, [r7, #16]
  402c5c:	681a      	ldr	r2, [r3, #0]
  402c5e:	693b      	ldr	r3, [r7, #16]
  402c60:	609a      	str	r2, [r3, #8]
  402c62:	687b      	ldr	r3, [r7, #4]
  402c64:	2100      	movs	r1, #0
  402c66:	4618      	mov	r0, r3
  402c68:	4b2f      	ldr	r3, [pc, #188]	; (402d28 <local_usart_handler+0x1b8>)
  402c6a:	4798      	blx	r3
  402c6c:	693b      	ldr	r3, [r7, #16]
  402c6e:	691b      	ldr	r3, [r3, #16]
  402c70:	2b00      	cmp	r3, #0
  402c72:	d007      	beq.n	402c84 <local_usart_handler+0x114>
  402c74:	693b      	ldr	r3, [r7, #16]
  402c76:	6918      	ldr	r0, [r3, #16]
  402c78:	f107 020c 	add.w	r2, r7, #12
  402c7c:	2300      	movs	r3, #0
  402c7e:	2100      	movs	r1, #0
  402c80:	4c27      	ldr	r4, [pc, #156]	; (402d20 <local_usart_handler+0x1b0>)
  402c82:	47a0      	blx	r4
  402c84:	697b      	ldr	r3, [r7, #20]
  402c86:	f403 7380 	and.w	r3, r3, #256	; 0x100
  402c8a:	2b00      	cmp	r3, #0
  402c8c:	d013      	beq.n	402cb6 <local_usart_handler+0x146>
  402c8e:	4a1e      	ldr	r2, [pc, #120]	; (402d08 <local_usart_handler+0x198>)
  402c90:	687b      	ldr	r3, [r7, #4]
  402c92:	011b      	lsls	r3, r3, #4
  402c94:	4413      	add	r3, r2
  402c96:	681b      	ldr	r3, [r3, #0]
  402c98:	4618      	mov	r0, r3
  402c9a:	4b24      	ldr	r3, [pc, #144]	; (402d2c <local_usart_handler+0x1bc>)
  402c9c:	4798      	blx	r3
  402c9e:	693b      	ldr	r3, [r7, #16]
  402ca0:	691b      	ldr	r3, [r3, #16]
  402ca2:	2b00      	cmp	r3, #0
  402ca4:	d007      	beq.n	402cb6 <local_usart_handler+0x146>
  402ca6:	693b      	ldr	r3, [r7, #16]
  402ca8:	6918      	ldr	r0, [r3, #16]
  402caa:	f107 020c 	add.w	r2, r7, #12
  402cae:	2300      	movs	r3, #0
  402cb0:	2100      	movs	r1, #0
  402cb2:	4c1b      	ldr	r4, [pc, #108]	; (402d20 <local_usart_handler+0x1b0>)
  402cb4:	47a0      	blx	r4
  402cb6:	697b      	ldr	r3, [r7, #20]
  402cb8:	f003 03e0 	and.w	r3, r3, #224	; 0xe0
  402cbc:	2b00      	cmp	r3, #0
  402cbe:	d019      	beq.n	402cf4 <local_usart_handler+0x184>
  402cc0:	4a11      	ldr	r2, [pc, #68]	; (402d08 <local_usart_handler+0x198>)
  402cc2:	687b      	ldr	r3, [r7, #4]
  402cc4:	011b      	lsls	r3, r3, #4
  402cc6:	4413      	add	r3, r2
  402cc8:	681b      	ldr	r3, [r3, #0]
  402cca:	4618      	mov	r0, r3
  402ccc:	4b18      	ldr	r3, [pc, #96]	; (402d30 <local_usart_handler+0x1c0>)
  402cce:	4798      	blx	r3
  402cd0:	4a12      	ldr	r2, [pc, #72]	; (402d1c <local_usart_handler+0x1ac>)
  402cd2:	687b      	ldr	r3, [r7, #4]
  402cd4:	00db      	lsls	r3, r3, #3
  402cd6:	4413      	add	r3, r2
  402cd8:	685b      	ldr	r3, [r3, #4]
  402cda:	2b00      	cmp	r3, #0
  402cdc:	d00a      	beq.n	402cf4 <local_usart_handler+0x184>
  402cde:	4a0f      	ldr	r2, [pc, #60]	; (402d1c <local_usart_handler+0x1ac>)
  402ce0:	687b      	ldr	r3, [r7, #4]
  402ce2:	00db      	lsls	r3, r3, #3
  402ce4:	4413      	add	r3, r2
  402ce6:	6858      	ldr	r0, [r3, #4]
  402ce8:	f107 020c 	add.w	r2, r7, #12
  402cec:	2300      	movs	r3, #0
  402cee:	2100      	movs	r1, #0
  402cf0:	4c0b      	ldr	r4, [pc, #44]	; (402d20 <local_usart_handler+0x1b0>)
  402cf2:	47a0      	blx	r4
  402cf4:	68fb      	ldr	r3, [r7, #12]
  402cf6:	2b00      	cmp	r3, #0
  402cf8:	d001      	beq.n	402cfe <local_usart_handler+0x18e>
  402cfa:	4b0e      	ldr	r3, [pc, #56]	; (402d34 <local_usart_handler+0x1c4>)
  402cfc:	4798      	blx	r3
  402cfe:	bf00      	nop
  402d00:	371c      	adds	r7, #28
  402d02:	46bd      	mov	sp, r7
  402d04:	bd90      	pop	{r4, r7, pc}
  402d06:	bf00      	nop
  402d08:	0040b0f8 	.word	0x0040b0f8
  402d0c:	004034f9 	.word	0x004034f9
  402d10:	004034e1 	.word	0x004034e1
  402d14:	200007f8 	.word	0x200007f8
  402d18:	004034c5 	.word	0x004034c5
  402d1c:	20000830 	.word	0x20000830
  402d20:	0040530d 	.word	0x0040530d
  402d24:	00404ced 	.word	0x00404ced
  402d28:	00402a5d 	.word	0x00402a5d
  402d2c:	0040352d 	.word	0x0040352d
  402d30:	00403511 	.word	0x00403511
  402d34:	00404c8d 	.word	0x00404c8d

00402d38 <USART0_Handler>:
  402d38:	b580      	push	{r7, lr}
  402d3a:	af00      	add	r7, sp, #0
  402d3c:	2000      	movs	r0, #0
  402d3e:	4b02      	ldr	r3, [pc, #8]	; (402d48 <USART0_Handler+0x10>)
  402d40:	4798      	blx	r3
  402d42:	bf00      	nop
  402d44:	bd80      	pop	{r7, pc}
  402d46:	bf00      	nop
  402d48:	00402b71 	.word	0x00402b71

00402d4c <USART1_Handler>:
  402d4c:	b580      	push	{r7, lr}
  402d4e:	af00      	add	r7, sp, #0
  402d50:	2001      	movs	r0, #1
  402d52:	4b02      	ldr	r3, [pc, #8]	; (402d5c <USART1_Handler+0x10>)
  402d54:	4798      	blx	r3
  402d56:	bf00      	nop
  402d58:	bd80      	pop	{r7, pc}
  402d5a:	bf00      	nop
  402d5c:	00402b71 	.word	0x00402b71

00402d60 <pdc_tx_init>:
  402d60:	b480      	push	{r7}
  402d62:	b085      	sub	sp, #20
  402d64:	af00      	add	r7, sp, #0
  402d66:	60f8      	str	r0, [r7, #12]
  402d68:	60b9      	str	r1, [r7, #8]
  402d6a:	607a      	str	r2, [r7, #4]
  402d6c:	68bb      	ldr	r3, [r7, #8]
  402d6e:	2b00      	cmp	r3, #0
  402d70:	d007      	beq.n	402d82 <pdc_tx_init+0x22>
  402d72:	68bb      	ldr	r3, [r7, #8]
  402d74:	681a      	ldr	r2, [r3, #0]
  402d76:	68fb      	ldr	r3, [r7, #12]
  402d78:	609a      	str	r2, [r3, #8]
  402d7a:	68bb      	ldr	r3, [r7, #8]
  402d7c:	685a      	ldr	r2, [r3, #4]
  402d7e:	68fb      	ldr	r3, [r7, #12]
  402d80:	60da      	str	r2, [r3, #12]
  402d82:	687b      	ldr	r3, [r7, #4]
  402d84:	2b00      	cmp	r3, #0
  402d86:	d007      	beq.n	402d98 <pdc_tx_init+0x38>
  402d88:	687b      	ldr	r3, [r7, #4]
  402d8a:	681a      	ldr	r2, [r3, #0]
  402d8c:	68fb      	ldr	r3, [r7, #12]
  402d8e:	619a      	str	r2, [r3, #24]
  402d90:	687b      	ldr	r3, [r7, #4]
  402d92:	685a      	ldr	r2, [r3, #4]
  402d94:	68fb      	ldr	r3, [r7, #12]
  402d96:	61da      	str	r2, [r3, #28]
  402d98:	bf00      	nop
  402d9a:	3714      	adds	r7, #20
  402d9c:	46bd      	mov	sp, r7
  402d9e:	bc80      	pop	{r7}
  402da0:	4770      	bx	lr
  402da2:	bf00      	nop

00402da4 <pdc_rx_init>:
  402da4:	b480      	push	{r7}
  402da6:	b085      	sub	sp, #20
  402da8:	af00      	add	r7, sp, #0
  402daa:	60f8      	str	r0, [r7, #12]
  402dac:	60b9      	str	r1, [r7, #8]
  402dae:	607a      	str	r2, [r7, #4]
  402db0:	68bb      	ldr	r3, [r7, #8]
  402db2:	2b00      	cmp	r3, #0
  402db4:	d007      	beq.n	402dc6 <pdc_rx_init+0x22>
  402db6:	68bb      	ldr	r3, [r7, #8]
  402db8:	681a      	ldr	r2, [r3, #0]
  402dba:	68fb      	ldr	r3, [r7, #12]
  402dbc:	601a      	str	r2, [r3, #0]
  402dbe:	68bb      	ldr	r3, [r7, #8]
  402dc0:	685a      	ldr	r2, [r3, #4]
  402dc2:	68fb      	ldr	r3, [r7, #12]
  402dc4:	605a      	str	r2, [r3, #4]
  402dc6:	687b      	ldr	r3, [r7, #4]
  402dc8:	2b00      	cmp	r3, #0
  402dca:	d007      	beq.n	402ddc <pdc_rx_init+0x38>
  402dcc:	687b      	ldr	r3, [r7, #4]
  402dce:	681a      	ldr	r2, [r3, #0]
  402dd0:	68fb      	ldr	r3, [r7, #12]
  402dd2:	611a      	str	r2, [r3, #16]
  402dd4:	687b      	ldr	r3, [r7, #4]
  402dd6:	685a      	ldr	r2, [r3, #4]
  402dd8:	68fb      	ldr	r3, [r7, #12]
  402dda:	615a      	str	r2, [r3, #20]
  402ddc:	bf00      	nop
  402dde:	3714      	adds	r7, #20
  402de0:	46bd      	mov	sp, r7
  402de2:	bc80      	pop	{r7}
  402de4:	4770      	bx	lr
  402de6:	bf00      	nop

00402de8 <pdc_enable_transfer>:
  402de8:	b480      	push	{r7}
  402dea:	b083      	sub	sp, #12
  402dec:	af00      	add	r7, sp, #0
  402dee:	6078      	str	r0, [r7, #4]
  402df0:	6039      	str	r1, [r7, #0]
  402df2:	683a      	ldr	r2, [r7, #0]
  402df4:	f240 1301 	movw	r3, #257	; 0x101
  402df8:	4013      	ands	r3, r2
  402dfa:	687a      	ldr	r2, [r7, #4]
  402dfc:	6213      	str	r3, [r2, #32]
  402dfe:	bf00      	nop
  402e00:	370c      	adds	r7, #12
  402e02:	46bd      	mov	sp, r7
  402e04:	bc80      	pop	{r7}
  402e06:	4770      	bx	lr

00402e08 <pdc_disable_transfer>:
  402e08:	b480      	push	{r7}
  402e0a:	b083      	sub	sp, #12
  402e0c:	af00      	add	r7, sp, #0
  402e0e:	6078      	str	r0, [r7, #4]
  402e10:	6039      	str	r1, [r7, #0]
  402e12:	683a      	ldr	r2, [r7, #0]
  402e14:	f240 2302 	movw	r3, #514	; 0x202
  402e18:	4013      	ands	r3, r2
  402e1a:	687a      	ldr	r2, [r7, #4]
  402e1c:	6213      	str	r3, [r2, #32]
  402e1e:	bf00      	nop
  402e20:	370c      	adds	r7, #12
  402e22:	46bd      	mov	sp, r7
  402e24:	bc80      	pop	{r7}
  402e26:	4770      	bx	lr

00402e28 <pdc_read_rx_counter>:
  402e28:	b480      	push	{r7}
  402e2a:	b083      	sub	sp, #12
  402e2c:	af00      	add	r7, sp, #0
  402e2e:	6078      	str	r0, [r7, #4]
  402e30:	687b      	ldr	r3, [r7, #4]
  402e32:	685b      	ldr	r3, [r3, #4]
  402e34:	4618      	mov	r0, r3
  402e36:	370c      	adds	r7, #12
  402e38:	46bd      	mov	sp, r7
  402e3a:	bc80      	pop	{r7}
  402e3c:	4770      	bx	lr
  402e3e:	bf00      	nop

00402e40 <twi_enable_master_mode>:
  402e40:	b480      	push	{r7}
  402e42:	b083      	sub	sp, #12
  402e44:	af00      	add	r7, sp, #0
  402e46:	6078      	str	r0, [r7, #4]
  402e48:	687b      	ldr	r3, [r7, #4]
  402e4a:	2208      	movs	r2, #8
  402e4c:	601a      	str	r2, [r3, #0]
  402e4e:	687b      	ldr	r3, [r7, #4]
  402e50:	2220      	movs	r2, #32
  402e52:	601a      	str	r2, [r3, #0]
  402e54:	687b      	ldr	r3, [r7, #4]
  402e56:	2204      	movs	r2, #4
  402e58:	601a      	str	r2, [r3, #0]
  402e5a:	bf00      	nop
  402e5c:	370c      	adds	r7, #12
  402e5e:	46bd      	mov	sp, r7
  402e60:	bc80      	pop	{r7}
  402e62:	4770      	bx	lr

00402e64 <twi_master_init>:
  402e64:	b580      	push	{r7, lr}
  402e66:	b084      	sub	sp, #16
  402e68:	af00      	add	r7, sp, #0
  402e6a:	6078      	str	r0, [r7, #4]
  402e6c:	6039      	str	r1, [r7, #0]
  402e6e:	2300      	movs	r3, #0
  402e70:	60fb      	str	r3, [r7, #12]
  402e72:	687b      	ldr	r3, [r7, #4]
  402e74:	f04f 32ff 	mov.w	r2, #4294967295
  402e78:	629a      	str	r2, [r3, #40]	; 0x28
  402e7a:	687b      	ldr	r3, [r7, #4]
  402e7c:	6a1b      	ldr	r3, [r3, #32]
  402e7e:	6878      	ldr	r0, [r7, #4]
  402e80:	4b0e      	ldr	r3, [pc, #56]	; (402ebc <twi_master_init+0x58>)
  402e82:	4798      	blx	r3
  402e84:	6878      	ldr	r0, [r7, #4]
  402e86:	4b0e      	ldr	r3, [pc, #56]	; (402ec0 <twi_master_init+0x5c>)
  402e88:	4798      	blx	r3
  402e8a:	683b      	ldr	r3, [r7, #0]
  402e8c:	6859      	ldr	r1, [r3, #4]
  402e8e:	683b      	ldr	r3, [r7, #0]
  402e90:	681b      	ldr	r3, [r3, #0]
  402e92:	461a      	mov	r2, r3
  402e94:	6878      	ldr	r0, [r7, #4]
  402e96:	4b0b      	ldr	r3, [pc, #44]	; (402ec4 <twi_master_init+0x60>)
  402e98:	4798      	blx	r3
  402e9a:	4603      	mov	r3, r0
  402e9c:	2b01      	cmp	r3, #1
  402e9e:	d101      	bne.n	402ea4 <twi_master_init+0x40>
  402ea0:	2301      	movs	r3, #1
  402ea2:	60fb      	str	r3, [r7, #12]
  402ea4:	683b      	ldr	r3, [r7, #0]
  402ea6:	7a5b      	ldrb	r3, [r3, #9]
  402ea8:	2b01      	cmp	r3, #1
  402eaa:	d102      	bne.n	402eb2 <twi_master_init+0x4e>
  402eac:	687b      	ldr	r3, [r7, #4]
  402eae:	2240      	movs	r2, #64	; 0x40
  402eb0:	601a      	str	r2, [r3, #0]
  402eb2:	68fb      	ldr	r3, [r7, #12]
  402eb4:	4618      	mov	r0, r3
  402eb6:	3710      	adds	r7, #16
  402eb8:	46bd      	mov	sp, r7
  402eba:	bd80      	pop	{r7, pc}
  402ebc:	00403251 	.word	0x00403251
  402ec0:	00402e41 	.word	0x00402e41
  402ec4:	00402ec9 	.word	0x00402ec9

00402ec8 <twi_set_speed>:
  402ec8:	b480      	push	{r7}
  402eca:	b089      	sub	sp, #36	; 0x24
  402ecc:	af00      	add	r7, sp, #0
  402ece:	60f8      	str	r0, [r7, #12]
  402ed0:	60b9      	str	r1, [r7, #8]
  402ed2:	607a      	str	r2, [r7, #4]
  402ed4:	2300      	movs	r3, #0
  402ed6:	61fb      	str	r3, [r7, #28]
  402ed8:	68bb      	ldr	r3, [r7, #8]
  402eda:	4a34      	ldr	r2, [pc, #208]	; (402fac <twi_set_speed+0xe4>)
  402edc:	4293      	cmp	r3, r2
  402ede:	d901      	bls.n	402ee4 <twi_set_speed+0x1c>
  402ee0:	2301      	movs	r3, #1
  402ee2:	e05d      	b.n	402fa0 <twi_set_speed+0xd8>
  402ee4:	68bb      	ldr	r3, [r7, #8]
  402ee6:	4a32      	ldr	r2, [pc, #200]	; (402fb0 <twi_set_speed+0xe8>)
  402ee8:	4293      	cmp	r3, r2
  402eea:	d937      	bls.n	402f5c <twi_set_speed+0x94>
  402eec:	687b      	ldr	r3, [r7, #4]
  402eee:	4a31      	ldr	r2, [pc, #196]	; (402fb4 <twi_set_speed+0xec>)
  402ef0:	fba2 2303 	umull	r2, r3, r2, r3
  402ef4:	0b9b      	lsrs	r3, r3, #14
  402ef6:	3b04      	subs	r3, #4
  402ef8:	617b      	str	r3, [r7, #20]
  402efa:	68ba      	ldr	r2, [r7, #8]
  402efc:	4b2e      	ldr	r3, [pc, #184]	; (402fb8 <twi_set_speed+0xf0>)
  402efe:	4413      	add	r3, r2
  402f00:	009b      	lsls	r3, r3, #2
  402f02:	687a      	ldr	r2, [r7, #4]
  402f04:	fbb2 f3f3 	udiv	r3, r2, r3
  402f08:	3b04      	subs	r3, #4
  402f0a:	613b      	str	r3, [r7, #16]
  402f0c:	e005      	b.n	402f1a <twi_set_speed+0x52>
  402f0e:	69fb      	ldr	r3, [r7, #28]
  402f10:	3301      	adds	r3, #1
  402f12:	61fb      	str	r3, [r7, #28]
  402f14:	697b      	ldr	r3, [r7, #20]
  402f16:	085b      	lsrs	r3, r3, #1
  402f18:	617b      	str	r3, [r7, #20]
  402f1a:	697b      	ldr	r3, [r7, #20]
  402f1c:	2bff      	cmp	r3, #255	; 0xff
  402f1e:	d909      	bls.n	402f34 <twi_set_speed+0x6c>
  402f20:	69fb      	ldr	r3, [r7, #28]
  402f22:	2b06      	cmp	r3, #6
  402f24:	d9f3      	bls.n	402f0e <twi_set_speed+0x46>
  402f26:	e005      	b.n	402f34 <twi_set_speed+0x6c>
  402f28:	69fb      	ldr	r3, [r7, #28]
  402f2a:	3301      	adds	r3, #1
  402f2c:	61fb      	str	r3, [r7, #28]
  402f2e:	693b      	ldr	r3, [r7, #16]
  402f30:	085b      	lsrs	r3, r3, #1
  402f32:	613b      	str	r3, [r7, #16]
  402f34:	693b      	ldr	r3, [r7, #16]
  402f36:	2bff      	cmp	r3, #255	; 0xff
  402f38:	d902      	bls.n	402f40 <twi_set_speed+0x78>
  402f3a:	69fb      	ldr	r3, [r7, #28]
  402f3c:	2b06      	cmp	r3, #6
  402f3e:	d9f3      	bls.n	402f28 <twi_set_speed+0x60>
  402f40:	697b      	ldr	r3, [r7, #20]
  402f42:	b2da      	uxtb	r2, r3
  402f44:	693b      	ldr	r3, [r7, #16]
  402f46:	021b      	lsls	r3, r3, #8
  402f48:	b29b      	uxth	r3, r3
  402f4a:	431a      	orrs	r2, r3
  402f4c:	69fb      	ldr	r3, [r7, #28]
  402f4e:	041b      	lsls	r3, r3, #16
  402f50:	f403 23e0 	and.w	r3, r3, #458752	; 0x70000
  402f54:	431a      	orrs	r2, r3
  402f56:	68fb      	ldr	r3, [r7, #12]
  402f58:	611a      	str	r2, [r3, #16]
  402f5a:	e020      	b.n	402f9e <twi_set_speed+0xd6>
  402f5c:	68bb      	ldr	r3, [r7, #8]
  402f5e:	005b      	lsls	r3, r3, #1
  402f60:	687a      	ldr	r2, [r7, #4]
  402f62:	fbb2 f3f3 	udiv	r3, r2, r3
  402f66:	3b04      	subs	r3, #4
  402f68:	61bb      	str	r3, [r7, #24]
  402f6a:	e005      	b.n	402f78 <twi_set_speed+0xb0>
  402f6c:	69fb      	ldr	r3, [r7, #28]
  402f6e:	3301      	adds	r3, #1
  402f70:	61fb      	str	r3, [r7, #28]
  402f72:	69bb      	ldr	r3, [r7, #24]
  402f74:	085b      	lsrs	r3, r3, #1
  402f76:	61bb      	str	r3, [r7, #24]
  402f78:	69bb      	ldr	r3, [r7, #24]
  402f7a:	2bff      	cmp	r3, #255	; 0xff
  402f7c:	d902      	bls.n	402f84 <twi_set_speed+0xbc>
  402f7e:	69fb      	ldr	r3, [r7, #28]
  402f80:	2b06      	cmp	r3, #6
  402f82:	d9f3      	bls.n	402f6c <twi_set_speed+0xa4>
  402f84:	69bb      	ldr	r3, [r7, #24]
  402f86:	b2da      	uxtb	r2, r3
  402f88:	69bb      	ldr	r3, [r7, #24]
  402f8a:	021b      	lsls	r3, r3, #8
  402f8c:	b29b      	uxth	r3, r3
  402f8e:	431a      	orrs	r2, r3
  402f90:	69fb      	ldr	r3, [r7, #28]
  402f92:	041b      	lsls	r3, r3, #16
  402f94:	f403 23e0 	and.w	r3, r3, #458752	; 0x70000
  402f98:	431a      	orrs	r2, r3
  402f9a:	68fb      	ldr	r3, [r7, #12]
  402f9c:	611a      	str	r2, [r3, #16]
  402f9e:	2300      	movs	r3, #0
  402fa0:	4618      	mov	r0, r3
  402fa2:	3724      	adds	r7, #36	; 0x24
  402fa4:	46bd      	mov	sp, r7
  402fa6:	bc80      	pop	{r7}
  402fa8:	4770      	bx	lr
  402faa:	bf00      	nop
  402fac:	00061a80 	.word	0x00061a80
  402fb0:	0005dc00 	.word	0x0005dc00
  402fb4:	057619f1 	.word	0x057619f1
  402fb8:	3ffd1200 	.word	0x3ffd1200

00402fbc <twi_mk_addr>:
  402fbc:	b480      	push	{r7}
  402fbe:	b085      	sub	sp, #20
  402fc0:	af00      	add	r7, sp, #0
  402fc2:	6078      	str	r0, [r7, #4]
  402fc4:	6039      	str	r1, [r7, #0]
  402fc6:	683b      	ldr	r3, [r7, #0]
  402fc8:	2b00      	cmp	r3, #0
  402fca:	d101      	bne.n	402fd0 <twi_mk_addr+0x14>
  402fcc:	2300      	movs	r3, #0
  402fce:	e01d      	b.n	40300c <twi_mk_addr+0x50>
  402fd0:	687b      	ldr	r3, [r7, #4]
  402fd2:	781b      	ldrb	r3, [r3, #0]
  402fd4:	60fb      	str	r3, [r7, #12]
  402fd6:	683b      	ldr	r3, [r7, #0]
  402fd8:	2b01      	cmp	r3, #1
  402fda:	dd09      	ble.n	402ff0 <twi_mk_addr+0x34>
  402fdc:	68fb      	ldr	r3, [r7, #12]
  402fde:	021b      	lsls	r3, r3, #8
  402fe0:	60fb      	str	r3, [r7, #12]
  402fe2:	687b      	ldr	r3, [r7, #4]
  402fe4:	3301      	adds	r3, #1
  402fe6:	781b      	ldrb	r3, [r3, #0]
  402fe8:	461a      	mov	r2, r3
  402fea:	68fb      	ldr	r3, [r7, #12]
  402fec:	4313      	orrs	r3, r2
  402fee:	60fb      	str	r3, [r7, #12]
  402ff0:	683b      	ldr	r3, [r7, #0]
  402ff2:	2b02      	cmp	r3, #2
  402ff4:	dd09      	ble.n	40300a <twi_mk_addr+0x4e>
  402ff6:	68fb      	ldr	r3, [r7, #12]
  402ff8:	021b      	lsls	r3, r3, #8
  402ffa:	60fb      	str	r3, [r7, #12]
  402ffc:	687b      	ldr	r3, [r7, #4]
  402ffe:	3302      	adds	r3, #2
  403000:	781b      	ldrb	r3, [r3, #0]
  403002:	461a      	mov	r2, r3
  403004:	68fb      	ldr	r3, [r7, #12]
  403006:	4313      	orrs	r3, r2
  403008:	60fb      	str	r3, [r7, #12]
  40300a:	68fb      	ldr	r3, [r7, #12]
  40300c:	4618      	mov	r0, r3
  40300e:	3714      	adds	r7, #20
  403010:	46bd      	mov	sp, r7
  403012:	bc80      	pop	{r7}
  403014:	4770      	bx	lr
  403016:	bf00      	nop

00403018 <twi_master_read>:
  403018:	b580      	push	{r7, lr}
  40301a:	b088      	sub	sp, #32
  40301c:	af00      	add	r7, sp, #0
  40301e:	6078      	str	r0, [r7, #4]
  403020:	6039      	str	r1, [r7, #0]
  403022:	683b      	ldr	r3, [r7, #0]
  403024:	68db      	ldr	r3, [r3, #12]
  403026:	61fb      	str	r3, [r7, #28]
  403028:	683b      	ldr	r3, [r7, #0]
  40302a:	689b      	ldr	r3, [r3, #8]
  40302c:	61bb      	str	r3, [r7, #24]
  40302e:	2300      	movs	r3, #0
  403030:	75fb      	strb	r3, [r7, #23]
  403032:	f247 5330 	movw	r3, #30000	; 0x7530
  403036:	613b      	str	r3, [r7, #16]
  403038:	69fb      	ldr	r3, [r7, #28]
  40303a:	2b00      	cmp	r3, #0
  40303c:	d101      	bne.n	403042 <twi_master_read+0x2a>
  40303e:	2301      	movs	r3, #1
  403040:	e069      	b.n	403116 <twi_master_read+0xfe>
  403042:	687b      	ldr	r3, [r7, #4]
  403044:	2200      	movs	r2, #0
  403046:	605a      	str	r2, [r3, #4]
  403048:	683b      	ldr	r3, [r7, #0]
  40304a:	7c1b      	ldrb	r3, [r3, #16]
  40304c:	041b      	lsls	r3, r3, #16
  40304e:	f403 02fe 	and.w	r2, r3, #8323072	; 0x7f0000
  403052:	683b      	ldr	r3, [r7, #0]
  403054:	685b      	ldr	r3, [r3, #4]
  403056:	021b      	lsls	r3, r3, #8
  403058:	f403 7340 	and.w	r3, r3, #768	; 0x300
  40305c:	4313      	orrs	r3, r2
  40305e:	f443 5280 	orr.w	r2, r3, #4096	; 0x1000
  403062:	687b      	ldr	r3, [r7, #4]
  403064:	605a      	str	r2, [r3, #4]
  403066:	687b      	ldr	r3, [r7, #4]
  403068:	2200      	movs	r2, #0
  40306a:	60da      	str	r2, [r3, #12]
  40306c:	683a      	ldr	r2, [r7, #0]
  40306e:	683b      	ldr	r3, [r7, #0]
  403070:	685b      	ldr	r3, [r3, #4]
  403072:	4619      	mov	r1, r3
  403074:	4610      	mov	r0, r2
  403076:	4b2a      	ldr	r3, [pc, #168]	; (403120 <twi_master_read+0x108>)
  403078:	4798      	blx	r3
  40307a:	4602      	mov	r2, r0
  40307c:	687b      	ldr	r3, [r7, #4]
  40307e:	60da      	str	r2, [r3, #12]
  403080:	69fb      	ldr	r3, [r7, #28]
  403082:	2b01      	cmp	r3, #1
  403084:	d105      	bne.n	403092 <twi_master_read+0x7a>
  403086:	687b      	ldr	r3, [r7, #4]
  403088:	2203      	movs	r2, #3
  40308a:	601a      	str	r2, [r3, #0]
  40308c:	2301      	movs	r3, #1
  40308e:	75fb      	strb	r3, [r7, #23]
  403090:	e034      	b.n	4030fc <twi_master_read+0xe4>
  403092:	687b      	ldr	r3, [r7, #4]
  403094:	2201      	movs	r2, #1
  403096:	601a      	str	r2, [r3, #0]
  403098:	2300      	movs	r3, #0
  40309a:	75fb      	strb	r3, [r7, #23]
  40309c:	e02e      	b.n	4030fc <twi_master_read+0xe4>
  40309e:	687b      	ldr	r3, [r7, #4]
  4030a0:	6a1b      	ldr	r3, [r3, #32]
  4030a2:	60fb      	str	r3, [r7, #12]
  4030a4:	68fb      	ldr	r3, [r7, #12]
  4030a6:	f403 7380 	and.w	r3, r3, #256	; 0x100
  4030aa:	2b00      	cmp	r3, #0
  4030ac:	d001      	beq.n	4030b2 <twi_master_read+0x9a>
  4030ae:	2305      	movs	r3, #5
  4030b0:	e031      	b.n	403116 <twi_master_read+0xfe>
  4030b2:	693b      	ldr	r3, [r7, #16]
  4030b4:	1e5a      	subs	r2, r3, #1
  4030b6:	613a      	str	r2, [r7, #16]
  4030b8:	2b00      	cmp	r3, #0
  4030ba:	d101      	bne.n	4030c0 <twi_master_read+0xa8>
  4030bc:	2309      	movs	r3, #9
  4030be:	e02a      	b.n	403116 <twi_master_read+0xfe>
  4030c0:	69fb      	ldr	r3, [r7, #28]
  4030c2:	2b01      	cmp	r3, #1
  4030c4:	d107      	bne.n	4030d6 <twi_master_read+0xbe>
  4030c6:	7dfb      	ldrb	r3, [r7, #23]
  4030c8:	2b00      	cmp	r3, #0
  4030ca:	d104      	bne.n	4030d6 <twi_master_read+0xbe>
  4030cc:	687b      	ldr	r3, [r7, #4]
  4030ce:	2202      	movs	r2, #2
  4030d0:	601a      	str	r2, [r3, #0]
  4030d2:	2301      	movs	r3, #1
  4030d4:	75fb      	strb	r3, [r7, #23]
  4030d6:	68fb      	ldr	r3, [r7, #12]
  4030d8:	f003 0302 	and.w	r3, r3, #2
  4030dc:	2b00      	cmp	r3, #0
  4030de:	d100      	bne.n	4030e2 <twi_master_read+0xca>
  4030e0:	e00c      	b.n	4030fc <twi_master_read+0xe4>
  4030e2:	69bb      	ldr	r3, [r7, #24]
  4030e4:	1c5a      	adds	r2, r3, #1
  4030e6:	61ba      	str	r2, [r7, #24]
  4030e8:	687a      	ldr	r2, [r7, #4]
  4030ea:	6b12      	ldr	r2, [r2, #48]	; 0x30
  4030ec:	b2d2      	uxtb	r2, r2
  4030ee:	701a      	strb	r2, [r3, #0]
  4030f0:	69fb      	ldr	r3, [r7, #28]
  4030f2:	3b01      	subs	r3, #1
  4030f4:	61fb      	str	r3, [r7, #28]
  4030f6:	f247 5330 	movw	r3, #30000	; 0x7530
  4030fa:	613b      	str	r3, [r7, #16]
  4030fc:	69fb      	ldr	r3, [r7, #28]
  4030fe:	2b00      	cmp	r3, #0
  403100:	d1cd      	bne.n	40309e <twi_master_read+0x86>
  403102:	bf00      	nop
  403104:	687b      	ldr	r3, [r7, #4]
  403106:	6a1b      	ldr	r3, [r3, #32]
  403108:	f003 0301 	and.w	r3, r3, #1
  40310c:	2b00      	cmp	r3, #0
  40310e:	d0f9      	beq.n	403104 <twi_master_read+0xec>
  403110:	687b      	ldr	r3, [r7, #4]
  403112:	6a1b      	ldr	r3, [r3, #32]
  403114:	2300      	movs	r3, #0
  403116:	4618      	mov	r0, r3
  403118:	3720      	adds	r7, #32
  40311a:	46bd      	mov	sp, r7
  40311c:	bd80      	pop	{r7, pc}
  40311e:	bf00      	nop
  403120:	00402fbd 	.word	0x00402fbd

00403124 <twi_master_write>:
  403124:	b580      	push	{r7, lr}
  403126:	b086      	sub	sp, #24
  403128:	af00      	add	r7, sp, #0
  40312a:	6078      	str	r0, [r7, #4]
  40312c:	6039      	str	r1, [r7, #0]
  40312e:	683b      	ldr	r3, [r7, #0]
  403130:	68db      	ldr	r3, [r3, #12]
  403132:	617b      	str	r3, [r7, #20]
  403134:	683b      	ldr	r3, [r7, #0]
  403136:	689b      	ldr	r3, [r3, #8]
  403138:	613b      	str	r3, [r7, #16]
  40313a:	697b      	ldr	r3, [r7, #20]
  40313c:	2b00      	cmp	r3, #0
  40313e:	d101      	bne.n	403144 <twi_master_write+0x20>
  403140:	2301      	movs	r3, #1
  403142:	e056      	b.n	4031f2 <twi_master_write+0xce>
  403144:	687b      	ldr	r3, [r7, #4]
  403146:	2200      	movs	r2, #0
  403148:	605a      	str	r2, [r3, #4]
  40314a:	683b      	ldr	r3, [r7, #0]
  40314c:	7c1b      	ldrb	r3, [r3, #16]
  40314e:	041b      	lsls	r3, r3, #16
  403150:	f403 02fe 	and.w	r2, r3, #8323072	; 0x7f0000
  403154:	683b      	ldr	r3, [r7, #0]
  403156:	685b      	ldr	r3, [r3, #4]
  403158:	021b      	lsls	r3, r3, #8
  40315a:	f403 7340 	and.w	r3, r3, #768	; 0x300
  40315e:	431a      	orrs	r2, r3
  403160:	687b      	ldr	r3, [r7, #4]
  403162:	605a      	str	r2, [r3, #4]
  403164:	687b      	ldr	r3, [r7, #4]
  403166:	2200      	movs	r2, #0
  403168:	60da      	str	r2, [r3, #12]
  40316a:	683a      	ldr	r2, [r7, #0]
  40316c:	683b      	ldr	r3, [r7, #0]
  40316e:	685b      	ldr	r3, [r3, #4]
  403170:	4619      	mov	r1, r3
  403172:	4610      	mov	r0, r2
  403174:	4b21      	ldr	r3, [pc, #132]	; (4031fc <twi_master_write+0xd8>)
  403176:	4798      	blx	r3
  403178:	4602      	mov	r2, r0
  40317a:	687b      	ldr	r3, [r7, #4]
  40317c:	60da      	str	r2, [r3, #12]
  40317e:	e019      	b.n	4031b4 <twi_master_write+0x90>
  403180:	687b      	ldr	r3, [r7, #4]
  403182:	6a1b      	ldr	r3, [r3, #32]
  403184:	60fb      	str	r3, [r7, #12]
  403186:	68fb      	ldr	r3, [r7, #12]
  403188:	f403 7380 	and.w	r3, r3, #256	; 0x100
  40318c:	2b00      	cmp	r3, #0
  40318e:	d001      	beq.n	403194 <twi_master_write+0x70>
  403190:	2305      	movs	r3, #5
  403192:	e02e      	b.n	4031f2 <twi_master_write+0xce>
  403194:	68fb      	ldr	r3, [r7, #12]
  403196:	f003 0304 	and.w	r3, r3, #4
  40319a:	2b00      	cmp	r3, #0
  40319c:	d100      	bne.n	4031a0 <twi_master_write+0x7c>
  40319e:	e009      	b.n	4031b4 <twi_master_write+0x90>
  4031a0:	693b      	ldr	r3, [r7, #16]
  4031a2:	1c5a      	adds	r2, r3, #1
  4031a4:	613a      	str	r2, [r7, #16]
  4031a6:	781b      	ldrb	r3, [r3, #0]
  4031a8:	461a      	mov	r2, r3
  4031aa:	687b      	ldr	r3, [r7, #4]
  4031ac:	635a      	str	r2, [r3, #52]	; 0x34
  4031ae:	697b      	ldr	r3, [r7, #20]
  4031b0:	3b01      	subs	r3, #1
  4031b2:	617b      	str	r3, [r7, #20]
  4031b4:	697b      	ldr	r3, [r7, #20]
  4031b6:	2b00      	cmp	r3, #0
  4031b8:	d1e2      	bne.n	403180 <twi_master_write+0x5c>
  4031ba:	687b      	ldr	r3, [r7, #4]
  4031bc:	6a1b      	ldr	r3, [r3, #32]
  4031be:	60fb      	str	r3, [r7, #12]
  4031c0:	68fb      	ldr	r3, [r7, #12]
  4031c2:	f403 7380 	and.w	r3, r3, #256	; 0x100
  4031c6:	2b00      	cmp	r3, #0
  4031c8:	d001      	beq.n	4031ce <twi_master_write+0xaa>
  4031ca:	2305      	movs	r3, #5
  4031cc:	e011      	b.n	4031f2 <twi_master_write+0xce>
  4031ce:	68fb      	ldr	r3, [r7, #12]
  4031d0:	f003 0304 	and.w	r3, r3, #4
  4031d4:	2b00      	cmp	r3, #0
  4031d6:	d100      	bne.n	4031da <twi_master_write+0xb6>
  4031d8:	e7ef      	b.n	4031ba <twi_master_write+0x96>
  4031da:	bf00      	nop
  4031dc:	687b      	ldr	r3, [r7, #4]
  4031de:	2202      	movs	r2, #2
  4031e0:	601a      	str	r2, [r3, #0]
  4031e2:	bf00      	nop
  4031e4:	687b      	ldr	r3, [r7, #4]
  4031e6:	6a1b      	ldr	r3, [r3, #32]
  4031e8:	f003 0301 	and.w	r3, r3, #1
  4031ec:	2b00      	cmp	r3, #0
  4031ee:	d0f9      	beq.n	4031e4 <twi_master_write+0xc0>
  4031f0:	2300      	movs	r3, #0
  4031f2:	4618      	mov	r0, r3
  4031f4:	3718      	adds	r7, #24
  4031f6:	46bd      	mov	sp, r7
  4031f8:	bd80      	pop	{r7, pc}
  4031fa:	bf00      	nop
  4031fc:	00402fbd 	.word	0x00402fbd

00403200 <twi_disable_interrupt>:
  403200:	b480      	push	{r7}
  403202:	b083      	sub	sp, #12
  403204:	af00      	add	r7, sp, #0
  403206:	6078      	str	r0, [r7, #4]
  403208:	6039      	str	r1, [r7, #0]
  40320a:	687b      	ldr	r3, [r7, #4]
  40320c:	683a      	ldr	r2, [r7, #0]
  40320e:	629a      	str	r2, [r3, #40]	; 0x28
  403210:	687b      	ldr	r3, [r7, #4]
  403212:	6a1b      	ldr	r3, [r3, #32]
  403214:	bf00      	nop
  403216:	370c      	adds	r7, #12
  403218:	46bd      	mov	sp, r7
  40321a:	bc80      	pop	{r7}
  40321c:	4770      	bx	lr
  40321e:	bf00      	nop

00403220 <twi_get_interrupt_status>:
  403220:	b480      	push	{r7}
  403222:	b083      	sub	sp, #12
  403224:	af00      	add	r7, sp, #0
  403226:	6078      	str	r0, [r7, #4]
  403228:	687b      	ldr	r3, [r7, #4]
  40322a:	6a1b      	ldr	r3, [r3, #32]
  40322c:	4618      	mov	r0, r3
  40322e:	370c      	adds	r7, #12
  403230:	46bd      	mov	sp, r7
  403232:	bc80      	pop	{r7}
  403234:	4770      	bx	lr
  403236:	bf00      	nop

00403238 <twi_get_interrupt_mask>:
  403238:	b480      	push	{r7}
  40323a:	b083      	sub	sp, #12
  40323c:	af00      	add	r7, sp, #0
  40323e:	6078      	str	r0, [r7, #4]
  403240:	687b      	ldr	r3, [r7, #4]
  403242:	6adb      	ldr	r3, [r3, #44]	; 0x2c
  403244:	4618      	mov	r0, r3
  403246:	370c      	adds	r7, #12
  403248:	46bd      	mov	sp, r7
  40324a:	bc80      	pop	{r7}
  40324c:	4770      	bx	lr
  40324e:	bf00      	nop

00403250 <twi_reset>:
  403250:	b480      	push	{r7}
  403252:	b083      	sub	sp, #12
  403254:	af00      	add	r7, sp, #0
  403256:	6078      	str	r0, [r7, #4]
  403258:	687b      	ldr	r3, [r7, #4]
  40325a:	2280      	movs	r2, #128	; 0x80
  40325c:	601a      	str	r2, [r3, #0]
  40325e:	687b      	ldr	r3, [r7, #4]
  403260:	6b1b      	ldr	r3, [r3, #48]	; 0x30
  403262:	bf00      	nop
  403264:	370c      	adds	r7, #12
  403266:	46bd      	mov	sp, r7
  403268:	bc80      	pop	{r7}
  40326a:	4770      	bx	lr

0040326c <usart_set_async_baudrate>:
  40326c:	b480      	push	{r7}
  40326e:	b089      	sub	sp, #36	; 0x24
  403270:	af00      	add	r7, sp, #0
  403272:	60f8      	str	r0, [r7, #12]
  403274:	60b9      	str	r1, [r7, #8]
  403276:	607a      	str	r2, [r7, #4]
  403278:	68bb      	ldr	r3, [r7, #8]
  40327a:	011a      	lsls	r2, r3, #4
  40327c:	687b      	ldr	r3, [r7, #4]
  40327e:	429a      	cmp	r2, r3
  403280:	d802      	bhi.n	403288 <usart_set_async_baudrate+0x1c>
  403282:	2310      	movs	r3, #16
  403284:	61fb      	str	r3, [r7, #28]
  403286:	e001      	b.n	40328c <usart_set_async_baudrate+0x20>
  403288:	2308      	movs	r3, #8
  40328a:	61fb      	str	r3, [r7, #28]
  40328c:	687b      	ldr	r3, [r7, #4]
  40328e:	00da      	lsls	r2, r3, #3
  403290:	69fb      	ldr	r3, [r7, #28]
  403292:	68b9      	ldr	r1, [r7, #8]
  403294:	fb01 f303 	mul.w	r3, r1, r3
  403298:	085b      	lsrs	r3, r3, #1
  40329a:	441a      	add	r2, r3
  40329c:	69fb      	ldr	r3, [r7, #28]
  40329e:	68b9      	ldr	r1, [r7, #8]
  4032a0:	fb01 f303 	mul.w	r3, r1, r3
  4032a4:	fbb2 f3f3 	udiv	r3, r2, r3
  4032a8:	61bb      	str	r3, [r7, #24]
  4032aa:	69bb      	ldr	r3, [r7, #24]
  4032ac:	08db      	lsrs	r3, r3, #3
  4032ae:	617b      	str	r3, [r7, #20]
  4032b0:	69bb      	ldr	r3, [r7, #24]
  4032b2:	f003 0307 	and.w	r3, r3, #7
  4032b6:	613b      	str	r3, [r7, #16]
  4032b8:	697b      	ldr	r3, [r7, #20]
  4032ba:	2b00      	cmp	r3, #0
  4032bc:	d003      	beq.n	4032c6 <usart_set_async_baudrate+0x5a>
  4032be:	697b      	ldr	r3, [r7, #20]
  4032c0:	f5b3 3f80 	cmp.w	r3, #65536	; 0x10000
  4032c4:	d301      	bcc.n	4032ca <usart_set_async_baudrate+0x5e>
  4032c6:	2301      	movs	r3, #1
  4032c8:	e00f      	b.n	4032ea <usart_set_async_baudrate+0x7e>
  4032ca:	69fb      	ldr	r3, [r7, #28]
  4032cc:	2b08      	cmp	r3, #8
  4032ce:	d105      	bne.n	4032dc <usart_set_async_baudrate+0x70>
  4032d0:	68fb      	ldr	r3, [r7, #12]
  4032d2:	685b      	ldr	r3, [r3, #4]
  4032d4:	f443 2200 	orr.w	r2, r3, #524288	; 0x80000
  4032d8:	68fb      	ldr	r3, [r7, #12]
  4032da:	605a      	str	r2, [r3, #4]
  4032dc:	693b      	ldr	r3, [r7, #16]
  4032de:	041a      	lsls	r2, r3, #16
  4032e0:	697b      	ldr	r3, [r7, #20]
  4032e2:	431a      	orrs	r2, r3
  4032e4:	68fb      	ldr	r3, [r7, #12]
  4032e6:	621a      	str	r2, [r3, #32]
  4032e8:	2300      	movs	r3, #0
  4032ea:	4618      	mov	r0, r3
  4032ec:	3724      	adds	r7, #36	; 0x24
  4032ee:	46bd      	mov	sp, r7
  4032f0:	bc80      	pop	{r7}
  4032f2:	4770      	bx	lr

004032f4 <usart_reset>:
  4032f4:	b580      	push	{r7, lr}
  4032f6:	b082      	sub	sp, #8
  4032f8:	af00      	add	r7, sp, #0
  4032fa:	6078      	str	r0, [r7, #4]
  4032fc:	6878      	ldr	r0, [r7, #4]
  4032fe:	4b0f      	ldr	r3, [pc, #60]	; (40333c <usart_reset+0x48>)
  403300:	4798      	blx	r3
  403302:	687b      	ldr	r3, [r7, #4]
  403304:	2200      	movs	r2, #0
  403306:	605a      	str	r2, [r3, #4]
  403308:	687b      	ldr	r3, [r7, #4]
  40330a:	2200      	movs	r2, #0
  40330c:	625a      	str	r2, [r3, #36]	; 0x24
  40330e:	687b      	ldr	r3, [r7, #4]
  403310:	2200      	movs	r2, #0
  403312:	629a      	str	r2, [r3, #40]	; 0x28
  403314:	6878      	ldr	r0, [r7, #4]
  403316:	4b0a      	ldr	r3, [pc, #40]	; (403340 <usart_reset+0x4c>)
  403318:	4798      	blx	r3
  40331a:	6878      	ldr	r0, [r7, #4]
  40331c:	4b09      	ldr	r3, [pc, #36]	; (403344 <usart_reset+0x50>)
  40331e:	4798      	blx	r3
  403320:	6878      	ldr	r0, [r7, #4]
  403322:	4b09      	ldr	r3, [pc, #36]	; (403348 <usart_reset+0x54>)
  403324:	4798      	blx	r3
  403326:	6878      	ldr	r0, [r7, #4]
  403328:	4b08      	ldr	r3, [pc, #32]	; (40334c <usart_reset+0x58>)
  40332a:	4798      	blx	r3
  40332c:	6878      	ldr	r0, [r7, #4]
  40332e:	4b08      	ldr	r3, [pc, #32]	; (403350 <usart_reset+0x5c>)
  403330:	4798      	blx	r3
  403332:	bf00      	nop
  403334:	3708      	adds	r7, #8
  403336:	46bd      	mov	sp, r7
  403338:	bd80      	pop	{r7, pc}
  40333a:	bf00      	nop
  40333c:	004035c9 	.word	0x004035c9
  403340:	00403449 	.word	0x00403449
  403344:	00403491 	.word	0x00403491
  403348:	00403511 	.word	0x00403511
  40334c:	00403565 	.word	0x00403565
  403350:	00403549 	.word	0x00403549

00403354 <usart_init_rs232>:
  403354:	b580      	push	{r7, lr}
  403356:	b084      	sub	sp, #16
  403358:	af00      	add	r7, sp, #0
  40335a:	60f8      	str	r0, [r7, #12]
  40335c:	60b9      	str	r1, [r7, #8]
  40335e:	607a      	str	r2, [r7, #4]
  403360:	68f8      	ldr	r0, [r7, #12]
  403362:	4b1a      	ldr	r3, [pc, #104]	; (4033cc <usart_init_rs232+0x78>)
  403364:	4798      	blx	r3
  403366:	4b1a      	ldr	r3, [pc, #104]	; (4033d0 <usart_init_rs232+0x7c>)
  403368:	2200      	movs	r2, #0
  40336a:	601a      	str	r2, [r3, #0]
  40336c:	68bb      	ldr	r3, [r7, #8]
  40336e:	2b00      	cmp	r3, #0
  403370:	d009      	beq.n	403386 <usart_init_rs232+0x32>
  403372:	68bb      	ldr	r3, [r7, #8]
  403374:	681b      	ldr	r3, [r3, #0]
  403376:	687a      	ldr	r2, [r7, #4]
  403378:	4619      	mov	r1, r3
  40337a:	68f8      	ldr	r0, [r7, #12]
  40337c:	4b15      	ldr	r3, [pc, #84]	; (4033d4 <usart_init_rs232+0x80>)
  40337e:	4798      	blx	r3
  403380:	4603      	mov	r3, r0
  403382:	2b00      	cmp	r3, #0
  403384:	d001      	beq.n	40338a <usart_init_rs232+0x36>
  403386:	2301      	movs	r3, #1
  403388:	e01b      	b.n	4033c2 <usart_init_rs232+0x6e>
  40338a:	68bb      	ldr	r3, [r7, #8]
  40338c:	685a      	ldr	r2, [r3, #4]
  40338e:	68bb      	ldr	r3, [r7, #8]
  403390:	689b      	ldr	r3, [r3, #8]
  403392:	431a      	orrs	r2, r3
  403394:	68bb      	ldr	r3, [r7, #8]
  403396:	691b      	ldr	r3, [r3, #16]
  403398:	431a      	orrs	r2, r3
  40339a:	68bb      	ldr	r3, [r7, #8]
  40339c:	68db      	ldr	r3, [r3, #12]
  40339e:	431a      	orrs	r2, r3
  4033a0:	4b0b      	ldr	r3, [pc, #44]	; (4033d0 <usart_init_rs232+0x7c>)
  4033a2:	681b      	ldr	r3, [r3, #0]
  4033a4:	4313      	orrs	r3, r2
  4033a6:	4a0a      	ldr	r2, [pc, #40]	; (4033d0 <usart_init_rs232+0x7c>)
  4033a8:	6013      	str	r3, [r2, #0]
  4033aa:	4b09      	ldr	r3, [pc, #36]	; (4033d0 <usart_init_rs232+0x7c>)
  4033ac:	681b      	ldr	r3, [r3, #0]
  4033ae:	4a08      	ldr	r2, [pc, #32]	; (4033d0 <usart_init_rs232+0x7c>)
  4033b0:	6013      	str	r3, [r2, #0]
  4033b2:	68fb      	ldr	r3, [r7, #12]
  4033b4:	685a      	ldr	r2, [r3, #4]
  4033b6:	4b06      	ldr	r3, [pc, #24]	; (4033d0 <usart_init_rs232+0x7c>)
  4033b8:	681b      	ldr	r3, [r3, #0]
  4033ba:	431a      	orrs	r2, r3
  4033bc:	68fb      	ldr	r3, [r7, #12]
  4033be:	605a      	str	r2, [r3, #4]
  4033c0:	2300      	movs	r3, #0
  4033c2:	4618      	mov	r0, r3
  4033c4:	3710      	adds	r7, #16
  4033c6:	46bd      	mov	sp, r7
  4033c8:	bd80      	pop	{r7, pc}
  4033ca:	bf00      	nop
  4033cc:	004032f5 	.word	0x004032f5
  4033d0:	20000840 	.word	0x20000840
  4033d4:	0040326d 	.word	0x0040326d

004033d8 <usart_init_rs485>:
  4033d8:	b580      	push	{r7, lr}
  4033da:	b084      	sub	sp, #16
  4033dc:	af00      	add	r7, sp, #0
  4033de:	60f8      	str	r0, [r7, #12]
  4033e0:	60b9      	str	r1, [r7, #8]
  4033e2:	607a      	str	r2, [r7, #4]
  4033e4:	687a      	ldr	r2, [r7, #4]
  4033e6:	68b9      	ldr	r1, [r7, #8]
  4033e8:	68f8      	ldr	r0, [r7, #12]
  4033ea:	4b0a      	ldr	r3, [pc, #40]	; (403414 <usart_init_rs485+0x3c>)
  4033ec:	4798      	blx	r3
  4033ee:	4603      	mov	r3, r0
  4033f0:	2b00      	cmp	r3, #0
  4033f2:	d001      	beq.n	4033f8 <usart_init_rs485+0x20>
  4033f4:	2301      	movs	r3, #1
  4033f6:	e008      	b.n	40340a <usart_init_rs485+0x32>
  4033f8:	68fb      	ldr	r3, [r7, #12]
  4033fa:	685b      	ldr	r3, [r3, #4]
  4033fc:	f023 030f 	bic.w	r3, r3, #15
  403400:	f043 0201 	orr.w	r2, r3, #1
  403404:	68fb      	ldr	r3, [r7, #12]
  403406:	605a      	str	r2, [r3, #4]
  403408:	2300      	movs	r3, #0
  40340a:	4618      	mov	r0, r3
  40340c:	3710      	adds	r7, #16
  40340e:	46bd      	mov	sp, r7
  403410:	bd80      	pop	{r7, pc}
  403412:	bf00      	nop
  403414:	00403355 	.word	0x00403355

00403418 <usart_enable_tx>:
  403418:	b480      	push	{r7}
  40341a:	b083      	sub	sp, #12
  40341c:	af00      	add	r7, sp, #0
  40341e:	6078      	str	r0, [r7, #4]
  403420:	687b      	ldr	r3, [r7, #4]
  403422:	2240      	movs	r2, #64	; 0x40
  403424:	601a      	str	r2, [r3, #0]
  403426:	bf00      	nop
  403428:	370c      	adds	r7, #12
  40342a:	46bd      	mov	sp, r7
  40342c:	bc80      	pop	{r7}
  40342e:	4770      	bx	lr

00403430 <usart_disable_tx>:
  403430:	b480      	push	{r7}
  403432:	b083      	sub	sp, #12
  403434:	af00      	add	r7, sp, #0
  403436:	6078      	str	r0, [r7, #4]
  403438:	687b      	ldr	r3, [r7, #4]
  40343a:	2280      	movs	r2, #128	; 0x80
  40343c:	601a      	str	r2, [r3, #0]
  40343e:	bf00      	nop
  403440:	370c      	adds	r7, #12
  403442:	46bd      	mov	sp, r7
  403444:	bc80      	pop	{r7}
  403446:	4770      	bx	lr

00403448 <usart_reset_tx>:
  403448:	b480      	push	{r7}
  40344a:	b083      	sub	sp, #12
  40344c:	af00      	add	r7, sp, #0
  40344e:	6078      	str	r0, [r7, #4]
  403450:	687b      	ldr	r3, [r7, #4]
  403452:	2288      	movs	r2, #136	; 0x88
  403454:	601a      	str	r2, [r3, #0]
  403456:	bf00      	nop
  403458:	370c      	adds	r7, #12
  40345a:	46bd      	mov	sp, r7
  40345c:	bc80      	pop	{r7}
  40345e:	4770      	bx	lr

00403460 <usart_enable_rx>:
  403460:	b480      	push	{r7}
  403462:	b083      	sub	sp, #12
  403464:	af00      	add	r7, sp, #0
  403466:	6078      	str	r0, [r7, #4]
  403468:	687b      	ldr	r3, [r7, #4]
  40346a:	2210      	movs	r2, #16
  40346c:	601a      	str	r2, [r3, #0]
  40346e:	bf00      	nop
  403470:	370c      	adds	r7, #12
  403472:	46bd      	mov	sp, r7
  403474:	bc80      	pop	{r7}
  403476:	4770      	bx	lr

00403478 <usart_disable_rx>:
  403478:	b480      	push	{r7}
  40347a:	b083      	sub	sp, #12
  40347c:	af00      	add	r7, sp, #0
  40347e:	6078      	str	r0, [r7, #4]
  403480:	687b      	ldr	r3, [r7, #4]
  403482:	2220      	movs	r2, #32
  403484:	601a      	str	r2, [r3, #0]
  403486:	bf00      	nop
  403488:	370c      	adds	r7, #12
  40348a:	46bd      	mov	sp, r7
  40348c:	bc80      	pop	{r7}
  40348e:	4770      	bx	lr

00403490 <usart_reset_rx>:
  403490:	b480      	push	{r7}
  403492:	b083      	sub	sp, #12
  403494:	af00      	add	r7, sp, #0
  403496:	6078      	str	r0, [r7, #4]
  403498:	687b      	ldr	r3, [r7, #4]
  40349a:	2224      	movs	r2, #36	; 0x24
  40349c:	601a      	str	r2, [r3, #0]
  40349e:	bf00      	nop
  4034a0:	370c      	adds	r7, #12
  4034a2:	46bd      	mov	sp, r7
  4034a4:	bc80      	pop	{r7}
  4034a6:	4770      	bx	lr

004034a8 <usart_enable_interrupt>:
  4034a8:	b480      	push	{r7}
  4034aa:	b083      	sub	sp, #12
  4034ac:	af00      	add	r7, sp, #0
  4034ae:	6078      	str	r0, [r7, #4]
  4034b0:	6039      	str	r1, [r7, #0]
  4034b2:	687b      	ldr	r3, [r7, #4]
  4034b4:	683a      	ldr	r2, [r7, #0]
  4034b6:	609a      	str	r2, [r3, #8]
  4034b8:	bf00      	nop
  4034ba:	370c      	adds	r7, #12
  4034bc:	46bd      	mov	sp, r7
  4034be:	bc80      	pop	{r7}
  4034c0:	4770      	bx	lr
  4034c2:	bf00      	nop

004034c4 <usart_disable_interrupt>:
  4034c4:	b480      	push	{r7}
  4034c6:	b083      	sub	sp, #12
  4034c8:	af00      	add	r7, sp, #0
  4034ca:	6078      	str	r0, [r7, #4]
  4034cc:	6039      	str	r1, [r7, #0]
  4034ce:	687b      	ldr	r3, [r7, #4]
  4034d0:	683a      	ldr	r2, [r7, #0]
  4034d2:	60da      	str	r2, [r3, #12]
  4034d4:	bf00      	nop
  4034d6:	370c      	adds	r7, #12
  4034d8:	46bd      	mov	sp, r7
  4034da:	bc80      	pop	{r7}
  4034dc:	4770      	bx	lr
  4034de:	bf00      	nop

004034e0 <usart_get_interrupt_mask>:
  4034e0:	b480      	push	{r7}
  4034e2:	b083      	sub	sp, #12
  4034e4:	af00      	add	r7, sp, #0
  4034e6:	6078      	str	r0, [r7, #4]
  4034e8:	687b      	ldr	r3, [r7, #4]
  4034ea:	691b      	ldr	r3, [r3, #16]
  4034ec:	4618      	mov	r0, r3
  4034ee:	370c      	adds	r7, #12
  4034f0:	46bd      	mov	sp, r7
  4034f2:	bc80      	pop	{r7}
  4034f4:	4770      	bx	lr
  4034f6:	bf00      	nop

004034f8 <usart_get_status>:
  4034f8:	b480      	push	{r7}
  4034fa:	b083      	sub	sp, #12
  4034fc:	af00      	add	r7, sp, #0
  4034fe:	6078      	str	r0, [r7, #4]
  403500:	687b      	ldr	r3, [r7, #4]
  403502:	695b      	ldr	r3, [r3, #20]
  403504:	4618      	mov	r0, r3
  403506:	370c      	adds	r7, #12
  403508:	46bd      	mov	sp, r7
  40350a:	bc80      	pop	{r7}
  40350c:	4770      	bx	lr
  40350e:	bf00      	nop

00403510 <usart_reset_status>:
  403510:	b480      	push	{r7}
  403512:	b083      	sub	sp, #12
  403514:	af00      	add	r7, sp, #0
  403516:	6078      	str	r0, [r7, #4]
  403518:	687b      	ldr	r3, [r7, #4]
  40351a:	f44f 7280 	mov.w	r2, #256	; 0x100
  40351e:	601a      	str	r2, [r3, #0]
  403520:	bf00      	nop
  403522:	370c      	adds	r7, #12
  403524:	46bd      	mov	sp, r7
  403526:	bc80      	pop	{r7}
  403528:	4770      	bx	lr
  40352a:	bf00      	nop

0040352c <usart_start_rx_timeout>:
  40352c:	b480      	push	{r7}
  40352e:	b083      	sub	sp, #12
  403530:	af00      	add	r7, sp, #0
  403532:	6078      	str	r0, [r7, #4]
  403534:	687b      	ldr	r3, [r7, #4]
  403536:	f44f 6200 	mov.w	r2, #2048	; 0x800
  40353a:	601a      	str	r2, [r3, #0]
  40353c:	bf00      	nop
  40353e:	370c      	adds	r7, #12
  403540:	46bd      	mov	sp, r7
  403542:	bc80      	pop	{r7}
  403544:	4770      	bx	lr
  403546:	bf00      	nop

00403548 <usart_drive_DTR_pin_high>:
  403548:	b480      	push	{r7}
  40354a:	b083      	sub	sp, #12
  40354c:	af00      	add	r7, sp, #0
  40354e:	6078      	str	r0, [r7, #4]
  403550:	687b      	ldr	r3, [r7, #4]
  403552:	f44f 3200 	mov.w	r2, #131072	; 0x20000
  403556:	601a      	str	r2, [r3, #0]
  403558:	bf00      	nop
  40355a:	370c      	adds	r7, #12
  40355c:	46bd      	mov	sp, r7
  40355e:	bc80      	pop	{r7}
  403560:	4770      	bx	lr
  403562:	bf00      	nop

00403564 <usart_drive_RTS_pin_high>:
  403564:	b480      	push	{r7}
  403566:	b083      	sub	sp, #12
  403568:	af00      	add	r7, sp, #0
  40356a:	6078      	str	r0, [r7, #4]
  40356c:	687b      	ldr	r3, [r7, #4]
  40356e:	f44f 2200 	mov.w	r2, #524288	; 0x80000
  403572:	601a      	str	r2, [r3, #0]
  403574:	bf00      	nop
  403576:	370c      	adds	r7, #12
  403578:	46bd      	mov	sp, r7
  40357a:	bc80      	pop	{r7}
  40357c:	4770      	bx	lr
  40357e:	bf00      	nop

00403580 <usart_get_pdc_base>:
  403580:	b480      	push	{r7}
  403582:	b085      	sub	sp, #20
  403584:	af00      	add	r7, sp, #0
  403586:	6078      	str	r0, [r7, #4]
  403588:	2300      	movs	r3, #0
  40358a:	60fb      	str	r3, [r7, #12]
  40358c:	687b      	ldr	r3, [r7, #4]
  40358e:	4a0a      	ldr	r2, [pc, #40]	; (4035b8 <usart_get_pdc_base+0x38>)
  403590:	4293      	cmp	r3, r2
  403592:	d103      	bne.n	40359c <usart_get_pdc_base+0x1c>
  403594:	4b09      	ldr	r3, [pc, #36]	; (4035bc <usart_get_pdc_base+0x3c>)
  403596:	60fb      	str	r3, [r7, #12]
  403598:	68fb      	ldr	r3, [r7, #12]
  40359a:	e008      	b.n	4035ae <usart_get_pdc_base+0x2e>
  40359c:	687b      	ldr	r3, [r7, #4]
  40359e:	4a08      	ldr	r2, [pc, #32]	; (4035c0 <usart_get_pdc_base+0x40>)
  4035a0:	4293      	cmp	r3, r2
  4035a2:	d103      	bne.n	4035ac <usart_get_pdc_base+0x2c>
  4035a4:	4b07      	ldr	r3, [pc, #28]	; (4035c4 <usart_get_pdc_base+0x44>)
  4035a6:	60fb      	str	r3, [r7, #12]
  4035a8:	68fb      	ldr	r3, [r7, #12]
  4035aa:	e000      	b.n	4035ae <usart_get_pdc_base+0x2e>
  4035ac:	68fb      	ldr	r3, [r7, #12]
  4035ae:	4618      	mov	r0, r3
  4035b0:	3714      	adds	r7, #20
  4035b2:	46bd      	mov	sp, r7
  4035b4:	bc80      	pop	{r7}
  4035b6:	4770      	bx	lr
  4035b8:	40024000 	.word	0x40024000
  4035bc:	40024100 	.word	0x40024100
  4035c0:	40028000 	.word	0x40028000
  4035c4:	40028100 	.word	0x40028100

004035c8 <usart_disable_writeprotect>:
  4035c8:	b480      	push	{r7}
  4035ca:	b083      	sub	sp, #12
  4035cc:	af00      	add	r7, sp, #0
  4035ce:	6078      	str	r0, [r7, #4]
  4035d0:	687b      	ldr	r3, [r7, #4]
  4035d2:	4a04      	ldr	r2, [pc, #16]	; (4035e4 <usart_disable_writeprotect+0x1c>)
  4035d4:	f8c3 20e4 	str.w	r2, [r3, #228]	; 0xe4
  4035d8:	bf00      	nop
  4035da:	370c      	adds	r7, #12
  4035dc:	46bd      	mov	sp, r7
  4035de:	bc80      	pop	{r7}
  4035e0:	4770      	bx	lr
  4035e2:	bf00      	nop
  4035e4:	55534100 	.word	0x55534100

004035e8 <NVIC_EnableIRQ>:
  4035e8:	b480      	push	{r7}
  4035ea:	b083      	sub	sp, #12
  4035ec:	af00      	add	r7, sp, #0
  4035ee:	4603      	mov	r3, r0
  4035f0:	71fb      	strb	r3, [r7, #7]
  4035f2:	4908      	ldr	r1, [pc, #32]	; (403614 <NVIC_EnableIRQ+0x2c>)
  4035f4:	f997 3007 	ldrsb.w	r3, [r7, #7]
  4035f8:	095b      	lsrs	r3, r3, #5
  4035fa:	79fa      	ldrb	r2, [r7, #7]
  4035fc:	f002 021f 	and.w	r2, r2, #31
  403600:	2001      	movs	r0, #1
  403602:	fa00 f202 	lsl.w	r2, r0, r2
  403606:	f841 2023 	str.w	r2, [r1, r3, lsl #2]
  40360a:	bf00      	nop
  40360c:	370c      	adds	r7, #12
  40360e:	46bd      	mov	sp, r7
  403610:	bc80      	pop	{r7}
  403612:	4770      	bx	lr
  403614:	e000e100 	.word	0xe000e100

00403618 <sysclk_enable_peripheral_clock>:
  403618:	b580      	push	{r7, lr}
  40361a:	b082      	sub	sp, #8
  40361c:	af00      	add	r7, sp, #0
  40361e:	6078      	str	r0, [r7, #4]
  403620:	6878      	ldr	r0, [r7, #4]
  403622:	4b03      	ldr	r3, [pc, #12]	; (403630 <sysclk_enable_peripheral_clock+0x18>)
  403624:	4798      	blx	r3
  403626:	bf00      	nop
  403628:	3708      	adds	r7, #8
  40362a:	46bd      	mov	sp, r7
  40362c:	bd80      	pop	{r7, pc}
  40362e:	bf00      	nop
  403630:	00404631 	.word	0x00404631

00403634 <ioport_init>:
  403634:	b580      	push	{r7, lr}
  403636:	af00      	add	r7, sp, #0
  403638:	200b      	movs	r0, #11
  40363a:	4b03      	ldr	r3, [pc, #12]	; (403648 <ioport_init+0x14>)
  40363c:	4798      	blx	r3
  40363e:	200c      	movs	r0, #12
  403640:	4b01      	ldr	r3, [pc, #4]	; (403648 <ioport_init+0x14>)
  403642:	4798      	blx	r3
  403644:	bf00      	nop
  403646:	bd80      	pop	{r7, pc}
  403648:	00403619 	.word	0x00403619

0040364c <board_init>:
  40364c:	b590      	push	{r4, r7, lr}
  40364e:	b083      	sub	sp, #12
  403650:	af02      	add	r7, sp, #8
  403652:	4b29      	ldr	r3, [pc, #164]	; (4036f8 <board_init+0xac>)
  403654:	f44f 4200 	mov.w	r2, #32768	; 0x8000
  403658:	605a      	str	r2, [r3, #4]
  40365a:	4b28      	ldr	r3, [pc, #160]	; (4036fc <board_init+0xb0>)
  40365c:	4798      	blx	r3
  40365e:	f04f 6200 	mov.w	r2, #134217728	; 0x8000000
  403662:	2160      	movs	r1, #96	; 0x60
  403664:	4826      	ldr	r0, [pc, #152]	; (403700 <board_init+0xb4>)
  403666:	4b27      	ldr	r3, [pc, #156]	; (403704 <board_init+0xb8>)
  403668:	4798      	blx	r3
  40366a:	f04f 6200 	mov.w	r2, #134217728	; 0x8000000
  40366e:	f04f 71b0 	mov.w	r1, #23068672	; 0x1600000
  403672:	4823      	ldr	r0, [pc, #140]	; (403700 <board_init+0xb4>)
  403674:	4b23      	ldr	r3, [pc, #140]	; (403704 <board_init+0xb8>)
  403676:	4798      	blx	r3
  403678:	f04f 6200 	mov.w	r2, #134217728	; 0x8000000
  40367c:	2118      	movs	r1, #24
  40367e:	4820      	ldr	r0, [pc, #128]	; (403700 <board_init+0xb4>)
  403680:	4b20      	ldr	r3, [pc, #128]	; (403704 <board_init+0xb8>)
  403682:	4798      	blx	r3
  403684:	f04f 5140 	mov.w	r1, #805306368	; 0x30000000
  403688:	2020      	movs	r0, #32
  40368a:	4b1f      	ldr	r3, [pc, #124]	; (403708 <board_init+0xbc>)
  40368c:	4798      	blx	r3
  40368e:	f04f 5140 	mov.w	r1, #805306368	; 0x30000000
  403692:	2021      	movs	r0, #33	; 0x21
  403694:	4b1c      	ldr	r3, [pc, #112]	; (403708 <board_init+0xbc>)
  403696:	4798      	blx	r3
  403698:	491c      	ldr	r1, [pc, #112]	; (40370c <board_init+0xc0>)
  40369a:	2022      	movs	r0, #34	; 0x22
  40369c:	4b1a      	ldr	r3, [pc, #104]	; (403708 <board_init+0xbc>)
  40369e:	4798      	blx	r3
  4036a0:	491a      	ldr	r1, [pc, #104]	; (40370c <board_init+0xc0>)
  4036a2:	2023      	movs	r0, #35	; 0x23
  4036a4:	4b18      	ldr	r3, [pc, #96]	; (403708 <board_init+0xbc>)
  4036a6:	4798      	blx	r3
  4036a8:	f04f 5140 	mov.w	r1, #805306368	; 0x30000000
  4036ac:	2010      	movs	r0, #16
  4036ae:	4b16      	ldr	r3, [pc, #88]	; (403708 <board_init+0xbc>)
  4036b0:	4798      	blx	r3
  4036b2:	f04f 5140 	mov.w	r1, #805306368	; 0x30000000
  4036b6:	2001      	movs	r0, #1
  4036b8:	4b13      	ldr	r3, [pc, #76]	; (403708 <board_init+0xbc>)
  4036ba:	4798      	blx	r3
  4036bc:	f04f 5120 	mov.w	r1, #671088640	; 0x28000000
  4036c0:	2000      	movs	r0, #0
  4036c2:	4b11      	ldr	r3, [pc, #68]	; (403708 <board_init+0xbc>)
  4036c4:	4798      	blx	r3
  4036c6:	4b12      	ldr	r3, [pc, #72]	; (403710 <board_init+0xc4>)
  4036c8:	9300      	str	r3, [sp, #0]
  4036ca:	2354      	movs	r3, #84	; 0x54
  4036cc:	2201      	movs	r2, #1
  4036ce:	210b      	movs	r1, #11
  4036d0:	480b      	ldr	r0, [pc, #44]	; (403700 <board_init+0xb4>)
  4036d2:	4c10      	ldr	r4, [pc, #64]	; (403714 <board_init+0xc8>)
  4036d4:	47a0      	blx	r4
  4036d6:	200b      	movs	r0, #11
  4036d8:	4b0f      	ldr	r3, [pc, #60]	; (403718 <board_init+0xcc>)
  4036da:	4798      	blx	r3
  4036dc:	220f      	movs	r2, #15
  4036de:	210b      	movs	r1, #11
  4036e0:	4807      	ldr	r0, [pc, #28]	; (403700 <board_init+0xb4>)
  4036e2:	4b0e      	ldr	r3, [pc, #56]	; (40371c <board_init+0xd0>)
  4036e4:	4798      	blx	r3
  4036e6:	2101      	movs	r1, #1
  4036e8:	4805      	ldr	r0, [pc, #20]	; (403700 <board_init+0xb4>)
  4036ea:	4b0d      	ldr	r3, [pc, #52]	; (403720 <board_init+0xd4>)
  4036ec:	4798      	blx	r3
  4036ee:	bf00      	nop
  4036f0:	3704      	adds	r7, #4
  4036f2:	46bd      	mov	sp, r7
  4036f4:	bd90      	pop	{r4, r7, pc}
  4036f6:	bf00      	nop
  4036f8:	400e1450 	.word	0x400e1450
  4036fc:	00403635 	.word	0x00403635
  403700:	400e0e00 	.word	0x400e0e00
  403704:	00403f81 	.word	0x00403f81
  403708:	00403dd1 	.word	0x00403dd1
  40370c:	28000004 	.word	0x28000004
  403710:	00400ebd 	.word	0x00400ebd
  403714:	00404291 	.word	0x00404291
  403718:	004035e9 	.word	0x004035e9
  40371c:	00404361 	.word	0x00404361
  403720:	00403d09 	.word	0x00403d09

00403724 <osc_enable>:
  403724:	b580      	push	{r7, lr}
  403726:	b082      	sub	sp, #8
  403728:	af00      	add	r7, sp, #0
  40372a:	6078      	str	r0, [r7, #4]
  40372c:	687b      	ldr	r3, [r7, #4]
  40372e:	2b07      	cmp	r3, #7
  403730:	d831      	bhi.n	403796 <osc_enable+0x72>
  403732:	a201      	add	r2, pc, #4	; (adr r2, 403738 <osc_enable+0x14>)
  403734:	f852 f023 	ldr.w	pc, [r2, r3, lsl #2]
  403738:	00403795 	.word	0x00403795
  40373c:	00403759 	.word	0x00403759
  403740:	00403761 	.word	0x00403761
  403744:	00403769 	.word	0x00403769
  403748:	00403771 	.word	0x00403771
  40374c:	00403779 	.word	0x00403779
  403750:	00403781 	.word	0x00403781
  403754:	0040378b 	.word	0x0040378b
  403758:	2000      	movs	r0, #0
  40375a:	4b11      	ldr	r3, [pc, #68]	; (4037a0 <osc_enable+0x7c>)
  40375c:	4798      	blx	r3
  40375e:	e01a      	b.n	403796 <osc_enable+0x72>
  403760:	2001      	movs	r0, #1
  403762:	4b0f      	ldr	r3, [pc, #60]	; (4037a0 <osc_enable+0x7c>)
  403764:	4798      	blx	r3
  403766:	e016      	b.n	403796 <osc_enable+0x72>
  403768:	2000      	movs	r0, #0
  40376a:	4b0e      	ldr	r3, [pc, #56]	; (4037a4 <osc_enable+0x80>)
  40376c:	4798      	blx	r3
  40376e:	e012      	b.n	403796 <osc_enable+0x72>
  403770:	2010      	movs	r0, #16
  403772:	4b0c      	ldr	r3, [pc, #48]	; (4037a4 <osc_enable+0x80>)
  403774:	4798      	blx	r3
  403776:	e00e      	b.n	403796 <osc_enable+0x72>
  403778:	2020      	movs	r0, #32
  40377a:	4b0a      	ldr	r3, [pc, #40]	; (4037a4 <osc_enable+0x80>)
  40377c:	4798      	blx	r3
  40377e:	e00a      	b.n	403796 <osc_enable+0x72>
  403780:	213e      	movs	r1, #62	; 0x3e
  403782:	2000      	movs	r0, #0
  403784:	4b08      	ldr	r3, [pc, #32]	; (4037a8 <osc_enable+0x84>)
  403786:	4798      	blx	r3
  403788:	e005      	b.n	403796 <osc_enable+0x72>
  40378a:	213e      	movs	r1, #62	; 0x3e
  40378c:	2001      	movs	r0, #1
  40378e:	4b06      	ldr	r3, [pc, #24]	; (4037a8 <osc_enable+0x84>)
  403790:	4798      	blx	r3
  403792:	e000      	b.n	403796 <osc_enable+0x72>
  403794:	bf00      	nop
  403796:	bf00      	nop
  403798:	3708      	adds	r7, #8
  40379a:	46bd      	mov	sp, r7
  40379c:	bd80      	pop	{r7, pc}
  40379e:	bf00      	nop
  4037a0:	00404465 	.word	0x00404465
  4037a4:	004044d1 	.word	0x004044d1
  4037a8:	00404541 	.word	0x00404541

004037ac <osc_is_ready>:
  4037ac:	b580      	push	{r7, lr}
  4037ae:	b082      	sub	sp, #8
  4037b0:	af00      	add	r7, sp, #0
  4037b2:	6078      	str	r0, [r7, #4]
  4037b4:	687b      	ldr	r3, [r7, #4]
  4037b6:	2b07      	cmp	r3, #7
  4037b8:	d826      	bhi.n	403808 <osc_is_ready+0x5c>
  4037ba:	a201      	add	r2, pc, #4	; (adr r2, 4037c0 <osc_is_ready+0x14>)
  4037bc:	f852 f023 	ldr.w	pc, [r2, r3, lsl #2]
  4037c0:	004037e1 	.word	0x004037e1
  4037c4:	004037e5 	.word	0x004037e5
  4037c8:	004037e5 	.word	0x004037e5
  4037cc:	004037f7 	.word	0x004037f7
  4037d0:	004037f7 	.word	0x004037f7
  4037d4:	004037f7 	.word	0x004037f7
  4037d8:	004037f7 	.word	0x004037f7
  4037dc:	004037f7 	.word	0x004037f7
  4037e0:	2301      	movs	r3, #1
  4037e2:	e012      	b.n	40380a <osc_is_ready+0x5e>
  4037e4:	4b0b      	ldr	r3, [pc, #44]	; (403814 <osc_is_ready+0x68>)
  4037e6:	4798      	blx	r3
  4037e8:	4603      	mov	r3, r0
  4037ea:	2b00      	cmp	r3, #0
  4037ec:	bf14      	ite	ne
  4037ee:	2301      	movne	r3, #1
  4037f0:	2300      	moveq	r3, #0
  4037f2:	b2db      	uxtb	r3, r3
  4037f4:	e009      	b.n	40380a <osc_is_ready+0x5e>
  4037f6:	4b08      	ldr	r3, [pc, #32]	; (403818 <osc_is_ready+0x6c>)
  4037f8:	4798      	blx	r3
  4037fa:	4603      	mov	r3, r0
  4037fc:	2b00      	cmp	r3, #0
  4037fe:	bf14      	ite	ne
  403800:	2301      	movne	r3, #1
  403802:	2300      	moveq	r3, #0
  403804:	b2db      	uxtb	r3, r3
  403806:	e000      	b.n	40380a <osc_is_ready+0x5e>
  403808:	2300      	movs	r3, #0
  40380a:	4618      	mov	r0, r3
  40380c:	3708      	adds	r7, #8
  40380e:	46bd      	mov	sp, r7
  403810:	bd80      	pop	{r7, pc}
  403812:	bf00      	nop
  403814:	0040449d 	.word	0x0040449d
  403818:	004045b9 	.word	0x004045b9

0040381c <osc_get_rate>:
  40381c:	b480      	push	{r7}
  40381e:	b083      	sub	sp, #12
  403820:	af00      	add	r7, sp, #0
  403822:	6078      	str	r0, [r7, #4]
  403824:	687b      	ldr	r3, [r7, #4]
  403826:	2b07      	cmp	r3, #7
  403828:	d825      	bhi.n	403876 <osc_get_rate+0x5a>
  40382a:	a201      	add	r2, pc, #4	; (adr r2, 403830 <osc_get_rate+0x14>)
  40382c:	f852 f023 	ldr.w	pc, [r2, r3, lsl #2]
  403830:	00403851 	.word	0x00403851
  403834:	00403857 	.word	0x00403857
  403838:	0040385d 	.word	0x0040385d
  40383c:	00403863 	.word	0x00403863
  403840:	00403867 	.word	0x00403867
  403844:	0040386b 	.word	0x0040386b
  403848:	0040386f 	.word	0x0040386f
  40384c:	00403873 	.word	0x00403873
  403850:	f44f 43fa 	mov.w	r3, #32000	; 0x7d00
  403854:	e010      	b.n	403878 <osc_get_rate+0x5c>
  403856:	f44f 4300 	mov.w	r3, #32768	; 0x8000
  40385a:	e00d      	b.n	403878 <osc_get_rate+0x5c>
  40385c:	f44f 4300 	mov.w	r3, #32768	; 0x8000
  403860:	e00a      	b.n	403878 <osc_get_rate+0x5c>
  403862:	4b08      	ldr	r3, [pc, #32]	; (403884 <osc_get_rate+0x68>)
  403864:	e008      	b.n	403878 <osc_get_rate+0x5c>
  403866:	4b08      	ldr	r3, [pc, #32]	; (403888 <osc_get_rate+0x6c>)
  403868:	e006      	b.n	403878 <osc_get_rate+0x5c>
  40386a:	4b08      	ldr	r3, [pc, #32]	; (40388c <osc_get_rate+0x70>)
  40386c:	e004      	b.n	403878 <osc_get_rate+0x5c>
  40386e:	4b07      	ldr	r3, [pc, #28]	; (40388c <osc_get_rate+0x70>)
  403870:	e002      	b.n	403878 <osc_get_rate+0x5c>
  403872:	4b06      	ldr	r3, [pc, #24]	; (40388c <osc_get_rate+0x70>)
  403874:	e000      	b.n	403878 <osc_get_rate+0x5c>
  403876:	2300      	movs	r3, #0
  403878:	4618      	mov	r0, r3
  40387a:	370c      	adds	r7, #12
  40387c:	46bd      	mov	sp, r7
  40387e:	bc80      	pop	{r7}
  403880:	4770      	bx	lr
  403882:	bf00      	nop
  403884:	003d0900 	.word	0x003d0900
  403888:	007a1200 	.word	0x007a1200
  40388c:	00b71b00 	.word	0x00b71b00

00403890 <osc_wait_ready>:
  403890:	b580      	push	{r7, lr}
  403892:	b082      	sub	sp, #8
  403894:	af00      	add	r7, sp, #0
  403896:	4603      	mov	r3, r0
  403898:	71fb      	strb	r3, [r7, #7]
  40389a:	bf00      	nop
  40389c:	79fb      	ldrb	r3, [r7, #7]
  40389e:	4618      	mov	r0, r3
  4038a0:	4b05      	ldr	r3, [pc, #20]	; (4038b8 <osc_wait_ready+0x28>)
  4038a2:	4798      	blx	r3
  4038a4:	4603      	mov	r3, r0
  4038a6:	f083 0301 	eor.w	r3, r3, #1
  4038aa:	b2db      	uxtb	r3, r3
  4038ac:	2b00      	cmp	r3, #0
  4038ae:	d1f5      	bne.n	40389c <osc_wait_ready+0xc>
  4038b0:	bf00      	nop
  4038b2:	3708      	adds	r7, #8
  4038b4:	46bd      	mov	sp, r7
  4038b6:	bd80      	pop	{r7, pc}
  4038b8:	004037ad 	.word	0x004037ad

004038bc <pll_config_init>:
  4038bc:	b580      	push	{r7, lr}
  4038be:	b086      	sub	sp, #24
  4038c0:	af00      	add	r7, sp, #0
  4038c2:	60f8      	str	r0, [r7, #12]
  4038c4:	607a      	str	r2, [r7, #4]
  4038c6:	603b      	str	r3, [r7, #0]
  4038c8:	460b      	mov	r3, r1
  4038ca:	72fb      	strb	r3, [r7, #11]
  4038cc:	7afb      	ldrb	r3, [r7, #11]
  4038ce:	4618      	mov	r0, r3
  4038d0:	4b0d      	ldr	r3, [pc, #52]	; (403908 <pll_config_init+0x4c>)
  4038d2:	4798      	blx	r3
  4038d4:	4602      	mov	r2, r0
  4038d6:	687b      	ldr	r3, [r7, #4]
  4038d8:	fbb2 f3f3 	udiv	r3, r2, r3
  4038dc:	617b      	str	r3, [r7, #20]
  4038de:	697b      	ldr	r3, [r7, #20]
  4038e0:	683a      	ldr	r2, [r7, #0]
  4038e2:	fb02 f303 	mul.w	r3, r2, r3
  4038e6:	617b      	str	r3, [r7, #20]
  4038e8:	683b      	ldr	r3, [r7, #0]
  4038ea:	3b01      	subs	r3, #1
  4038ec:	041a      	lsls	r2, r3, #16
  4038ee:	4b07      	ldr	r3, [pc, #28]	; (40390c <pll_config_init+0x50>)
  4038f0:	4013      	ands	r3, r2
  4038f2:	687a      	ldr	r2, [r7, #4]
  4038f4:	b2d2      	uxtb	r2, r2
  4038f6:	4313      	orrs	r3, r2
  4038f8:	f443 527c 	orr.w	r2, r3, #16128	; 0x3f00
  4038fc:	68fb      	ldr	r3, [r7, #12]
  4038fe:	601a      	str	r2, [r3, #0]
  403900:	bf00      	nop
  403902:	3718      	adds	r7, #24
  403904:	46bd      	mov	sp, r7
  403906:	bd80      	pop	{r7, pc}
  403908:	0040381d 	.word	0x0040381d
  40390c:	07ff0000 	.word	0x07ff0000

00403910 <pll_enable>:
  403910:	b580      	push	{r7, lr}
  403912:	b082      	sub	sp, #8
  403914:	af00      	add	r7, sp, #0
  403916:	6078      	str	r0, [r7, #4]
  403918:	6039      	str	r1, [r7, #0]
  40391a:	683b      	ldr	r3, [r7, #0]
  40391c:	2b00      	cmp	r3, #0
  40391e:	d108      	bne.n	403932 <pll_enable+0x22>
  403920:	4b09      	ldr	r3, [pc, #36]	; (403948 <pll_enable+0x38>)
  403922:	4798      	blx	r3
  403924:	4a09      	ldr	r2, [pc, #36]	; (40394c <pll_enable+0x3c>)
  403926:	687b      	ldr	r3, [r7, #4]
  403928:	681b      	ldr	r3, [r3, #0]
  40392a:	f043 5300 	orr.w	r3, r3, #536870912	; 0x20000000
  40392e:	6293      	str	r3, [r2, #40]	; 0x28
  403930:	e005      	b.n	40393e <pll_enable+0x2e>
  403932:	4b07      	ldr	r3, [pc, #28]	; (403950 <pll_enable+0x40>)
  403934:	4798      	blx	r3
  403936:	4a05      	ldr	r2, [pc, #20]	; (40394c <pll_enable+0x3c>)
  403938:	687b      	ldr	r3, [r7, #4]
  40393a:	681b      	ldr	r3, [r3, #0]
  40393c:	62d3      	str	r3, [r2, #44]	; 0x2c
  40393e:	bf00      	nop
  403940:	3708      	adds	r7, #8
  403942:	46bd      	mov	sp, r7
  403944:	bd80      	pop	{r7, pc}
  403946:	bf00      	nop
  403948:	004045d1 	.word	0x004045d1
  40394c:	400e0400 	.word	0x400e0400
  403950:	00404601 	.word	0x00404601

00403954 <pll_is_locked>:
  403954:	b580      	push	{r7, lr}
  403956:	b082      	sub	sp, #8
  403958:	af00      	add	r7, sp, #0
  40395a:	6078      	str	r0, [r7, #4]
  40395c:	687b      	ldr	r3, [r7, #4]
  40395e:	2b00      	cmp	r3, #0
  403960:	d103      	bne.n	40396a <pll_is_locked+0x16>
  403962:	4b05      	ldr	r3, [pc, #20]	; (403978 <pll_is_locked+0x24>)
  403964:	4798      	blx	r3
  403966:	4603      	mov	r3, r0
  403968:	e002      	b.n	403970 <pll_is_locked+0x1c>
  40396a:	4b04      	ldr	r3, [pc, #16]	; (40397c <pll_is_locked+0x28>)
  40396c:	4798      	blx	r3
  40396e:	4603      	mov	r3, r0
  403970:	4618      	mov	r0, r3
  403972:	3708      	adds	r7, #8
  403974:	46bd      	mov	sp, r7
  403976:	bd80      	pop	{r7, pc}
  403978:	004045e9 	.word	0x004045e9
  40397c:	00404619 	.word	0x00404619

00403980 <pll_enable_source>:
  403980:	b580      	push	{r7, lr}
  403982:	b082      	sub	sp, #8
  403984:	af00      	add	r7, sp, #0
  403986:	4603      	mov	r3, r0
  403988:	71fb      	strb	r3, [r7, #7]
  40398a:	79fb      	ldrb	r3, [r7, #7]
  40398c:	3b03      	subs	r3, #3
  40398e:	2b04      	cmp	r3, #4
  403990:	d808      	bhi.n	4039a4 <pll_enable_source+0x24>
  403992:	79fb      	ldrb	r3, [r7, #7]
  403994:	4618      	mov	r0, r3
  403996:	4b06      	ldr	r3, [pc, #24]	; (4039b0 <pll_enable_source+0x30>)
  403998:	4798      	blx	r3
  40399a:	79fb      	ldrb	r3, [r7, #7]
  40399c:	4618      	mov	r0, r3
  40399e:	4b05      	ldr	r3, [pc, #20]	; (4039b4 <pll_enable_source+0x34>)
  4039a0:	4798      	blx	r3
  4039a2:	e000      	b.n	4039a6 <pll_enable_source+0x26>
  4039a4:	bf00      	nop
  4039a6:	bf00      	nop
  4039a8:	3708      	adds	r7, #8
  4039aa:	46bd      	mov	sp, r7
  4039ac:	bd80      	pop	{r7, pc}
  4039ae:	bf00      	nop
  4039b0:	00403725 	.word	0x00403725
  4039b4:	00403891 	.word	0x00403891

004039b8 <pll_wait_for_lock>:
  4039b8:	b580      	push	{r7, lr}
  4039ba:	b082      	sub	sp, #8
  4039bc:	af00      	add	r7, sp, #0
  4039be:	6078      	str	r0, [r7, #4]
  4039c0:	bf00      	nop
  4039c2:	6878      	ldr	r0, [r7, #4]
  4039c4:	4b04      	ldr	r3, [pc, #16]	; (4039d8 <pll_wait_for_lock+0x20>)
  4039c6:	4798      	blx	r3
  4039c8:	4603      	mov	r3, r0
  4039ca:	2b00      	cmp	r3, #0
  4039cc:	d0f9      	beq.n	4039c2 <pll_wait_for_lock+0xa>
  4039ce:	2300      	movs	r3, #0
  4039d0:	4618      	mov	r0, r3
  4039d2:	3708      	adds	r7, #8
  4039d4:	46bd      	mov	sp, r7
  4039d6:	bd80      	pop	{r7, pc}
  4039d8:	00403955 	.word	0x00403955

004039dc <sysclk_get_main_hz>:
  4039dc:	b580      	push	{r7, lr}
  4039de:	af00      	add	r7, sp, #0
  4039e0:	2006      	movs	r0, #6
  4039e2:	4b04      	ldr	r3, [pc, #16]	; (4039f4 <sysclk_get_main_hz+0x18>)
  4039e4:	4798      	blx	r3
  4039e6:	4602      	mov	r2, r0
  4039e8:	4613      	mov	r3, r2
  4039ea:	009b      	lsls	r3, r3, #2
  4039ec:	4413      	add	r3, r2
  4039ee:	009b      	lsls	r3, r3, #2
  4039f0:	4618      	mov	r0, r3
  4039f2:	bd80      	pop	{r7, pc}
  4039f4:	0040381d 	.word	0x0040381d

004039f8 <sysclk_get_cpu_hz>:
  4039f8:	b580      	push	{r7, lr}
  4039fa:	af00      	add	r7, sp, #0
  4039fc:	4b02      	ldr	r3, [pc, #8]	; (403a08 <sysclk_get_cpu_hz+0x10>)
  4039fe:	4798      	blx	r3
  403a00:	4603      	mov	r3, r0
  403a02:	085b      	lsrs	r3, r3, #1
  403a04:	4618      	mov	r0, r3
  403a06:	bd80      	pop	{r7, pc}
  403a08:	004039dd 	.word	0x004039dd

00403a0c <sysclk_init>:
  403a0c:	b590      	push	{r4, r7, lr}
  403a0e:	b083      	sub	sp, #12
  403a10:	af00      	add	r7, sp, #0
  403a12:	4811      	ldr	r0, [pc, #68]	; (403a58 <sysclk_init+0x4c>)
  403a14:	4b11      	ldr	r3, [pc, #68]	; (403a5c <sysclk_init+0x50>)
  403a16:	4798      	blx	r3
  403a18:	2006      	movs	r0, #6
  403a1a:	4b11      	ldr	r3, [pc, #68]	; (403a60 <sysclk_init+0x54>)
  403a1c:	4798      	blx	r3
  403a1e:	1d38      	adds	r0, r7, #4
  403a20:	2314      	movs	r3, #20
  403a22:	2201      	movs	r2, #1
  403a24:	2106      	movs	r1, #6
  403a26:	4c0f      	ldr	r4, [pc, #60]	; (403a64 <sysclk_init+0x58>)
  403a28:	47a0      	blx	r4
  403a2a:	1d3b      	adds	r3, r7, #4
  403a2c:	2100      	movs	r1, #0
  403a2e:	4618      	mov	r0, r3
  403a30:	4b0d      	ldr	r3, [pc, #52]	; (403a68 <sysclk_init+0x5c>)
  403a32:	4798      	blx	r3
  403a34:	2000      	movs	r0, #0
  403a36:	4b0d      	ldr	r3, [pc, #52]	; (403a6c <sysclk_init+0x60>)
  403a38:	4798      	blx	r3
  403a3a:	2010      	movs	r0, #16
  403a3c:	4b0c      	ldr	r3, [pc, #48]	; (403a70 <sysclk_init+0x64>)
  403a3e:	4798      	blx	r3
  403a40:	4b0c      	ldr	r3, [pc, #48]	; (403a74 <sysclk_init+0x68>)
  403a42:	4798      	blx	r3
  403a44:	4b0c      	ldr	r3, [pc, #48]	; (403a78 <sysclk_init+0x6c>)
  403a46:	4798      	blx	r3
  403a48:	4603      	mov	r3, r0
  403a4a:	4618      	mov	r0, r3
  403a4c:	4b03      	ldr	r3, [pc, #12]	; (403a5c <sysclk_init+0x50>)
  403a4e:	4798      	blx	r3
  403a50:	bf00      	nop
  403a52:	370c      	adds	r7, #12
  403a54:	46bd      	mov	sp, r7
  403a56:	bd90      	pop	{r4, r7, pc}
  403a58:	07270e00 	.word	0x07270e00
  403a5c:	0040491d 	.word	0x0040491d
  403a60:	00403981 	.word	0x00403981
  403a64:	004038bd 	.word	0x004038bd
  403a68:	00403911 	.word	0x00403911
  403a6c:	004039b9 	.word	0x004039b9
  403a70:	004043e5 	.word	0x004043e5
  403a74:	00404781 	.word	0x00404781
  403a78:	004039f9 	.word	0x004039f9

00403a7c <pio_pull_up>:
  403a7c:	b480      	push	{r7}
  403a7e:	b085      	sub	sp, #20
  403a80:	af00      	add	r7, sp, #0
  403a82:	60f8      	str	r0, [r7, #12]
  403a84:	60b9      	str	r1, [r7, #8]
  403a86:	607a      	str	r2, [r7, #4]
  403a88:	687b      	ldr	r3, [r7, #4]
  403a8a:	2b00      	cmp	r3, #0
  403a8c:	d003      	beq.n	403a96 <pio_pull_up+0x1a>
  403a8e:	68fb      	ldr	r3, [r7, #12]
  403a90:	68ba      	ldr	r2, [r7, #8]
  403a92:	665a      	str	r2, [r3, #100]	; 0x64
  403a94:	e002      	b.n	403a9c <pio_pull_up+0x20>
  403a96:	68fb      	ldr	r3, [r7, #12]
  403a98:	68ba      	ldr	r2, [r7, #8]
  403a9a:	661a      	str	r2, [r3, #96]	; 0x60
  403a9c:	bf00      	nop
  403a9e:	3714      	adds	r7, #20
  403aa0:	46bd      	mov	sp, r7
  403aa2:	bc80      	pop	{r7}
  403aa4:	4770      	bx	lr
  403aa6:	bf00      	nop

00403aa8 <pio_set_peripheral>:
  403aa8:	b480      	push	{r7}
  403aaa:	b087      	sub	sp, #28
  403aac:	af00      	add	r7, sp, #0
  403aae:	60f8      	str	r0, [r7, #12]
  403ab0:	60b9      	str	r1, [r7, #8]
  403ab2:	607a      	str	r2, [r7, #4]
  403ab4:	68fb      	ldr	r3, [r7, #12]
  403ab6:	687a      	ldr	r2, [r7, #4]
  403ab8:	645a      	str	r2, [r3, #68]	; 0x44
  403aba:	68bb      	ldr	r3, [r7, #8]
  403abc:	f1b3 5fc0 	cmp.w	r3, #402653184	; 0x18000000
  403ac0:	d04a      	beq.n	403b58 <pio_set_peripheral+0xb0>
  403ac2:	f1b3 5fc0 	cmp.w	r3, #402653184	; 0x18000000
  403ac6:	d808      	bhi.n	403ada <pio_set_peripheral+0x32>
  403ac8:	f1b3 6f00 	cmp.w	r3, #134217728	; 0x8000000
  403acc:	d016      	beq.n	403afc <pio_set_peripheral+0x54>
  403ace:	f1b3 5f80 	cmp.w	r3, #268435456	; 0x10000000
  403ad2:	d02c      	beq.n	403b2e <pio_set_peripheral+0x86>
  403ad4:	2b00      	cmp	r3, #0
  403ad6:	d069      	beq.n	403bac <pio_set_peripheral+0x104>
  403ad8:	e064      	b.n	403ba4 <pio_set_peripheral+0xfc>
  403ada:	f1b3 5f20 	cmp.w	r3, #671088640	; 0x28000000
  403ade:	d065      	beq.n	403bac <pio_set_peripheral+0x104>
  403ae0:	f1b3 5f20 	cmp.w	r3, #671088640	; 0x28000000
  403ae4:	d803      	bhi.n	403aee <pio_set_peripheral+0x46>
  403ae6:	f1b3 5f00 	cmp.w	r3, #536870912	; 0x20000000
  403aea:	d04a      	beq.n	403b82 <pio_set_peripheral+0xda>
  403aec:	e05a      	b.n	403ba4 <pio_set_peripheral+0xfc>
  403aee:	f1b3 5f40 	cmp.w	r3, #805306368	; 0x30000000
  403af2:	d05b      	beq.n	403bac <pio_set_peripheral+0x104>
  403af4:	f1b3 5f60 	cmp.w	r3, #939524096	; 0x38000000
  403af8:	d058      	beq.n	403bac <pio_set_peripheral+0x104>
  403afa:	e053      	b.n	403ba4 <pio_set_peripheral+0xfc>
  403afc:	68fb      	ldr	r3, [r7, #12]
  403afe:	6f1b      	ldr	r3, [r3, #112]	; 0x70
  403b00:	617b      	str	r3, [r7, #20]
  403b02:	68fb      	ldr	r3, [r7, #12]
  403b04:	6f1a      	ldr	r2, [r3, #112]	; 0x70
  403b06:	687b      	ldr	r3, [r7, #4]
  403b08:	43d9      	mvns	r1, r3
  403b0a:	697b      	ldr	r3, [r7, #20]
  403b0c:	400b      	ands	r3, r1
  403b0e:	401a      	ands	r2, r3
  403b10:	68fb      	ldr	r3, [r7, #12]
  403b12:	671a      	str	r2, [r3, #112]	; 0x70
  403b14:	68fb      	ldr	r3, [r7, #12]
  403b16:	6f5b      	ldr	r3, [r3, #116]	; 0x74
  403b18:	617b      	str	r3, [r7, #20]
  403b1a:	68fb      	ldr	r3, [r7, #12]
  403b1c:	6f5a      	ldr	r2, [r3, #116]	; 0x74
  403b1e:	687b      	ldr	r3, [r7, #4]
  403b20:	43d9      	mvns	r1, r3
  403b22:	697b      	ldr	r3, [r7, #20]
  403b24:	400b      	ands	r3, r1
  403b26:	401a      	ands	r2, r3
  403b28:	68fb      	ldr	r3, [r7, #12]
  403b2a:	675a      	str	r2, [r3, #116]	; 0x74
  403b2c:	e03a      	b.n	403ba4 <pio_set_peripheral+0xfc>
  403b2e:	68fb      	ldr	r3, [r7, #12]
  403b30:	6f1b      	ldr	r3, [r3, #112]	; 0x70
  403b32:	617b      	str	r3, [r7, #20]
  403b34:	687a      	ldr	r2, [r7, #4]
  403b36:	697b      	ldr	r3, [r7, #20]
  403b38:	431a      	orrs	r2, r3
  403b3a:	68fb      	ldr	r3, [r7, #12]
  403b3c:	671a      	str	r2, [r3, #112]	; 0x70
  403b3e:	68fb      	ldr	r3, [r7, #12]
  403b40:	6f5b      	ldr	r3, [r3, #116]	; 0x74
  403b42:	617b      	str	r3, [r7, #20]
  403b44:	68fb      	ldr	r3, [r7, #12]
  403b46:	6f5a      	ldr	r2, [r3, #116]	; 0x74
  403b48:	687b      	ldr	r3, [r7, #4]
  403b4a:	43d9      	mvns	r1, r3
  403b4c:	697b      	ldr	r3, [r7, #20]
  403b4e:	400b      	ands	r3, r1
  403b50:	401a      	ands	r2, r3
  403b52:	68fb      	ldr	r3, [r7, #12]
  403b54:	675a      	str	r2, [r3, #116]	; 0x74
  403b56:	e025      	b.n	403ba4 <pio_set_peripheral+0xfc>
  403b58:	68fb      	ldr	r3, [r7, #12]
  403b5a:	6f1b      	ldr	r3, [r3, #112]	; 0x70
  403b5c:	617b      	str	r3, [r7, #20]
  403b5e:	68fb      	ldr	r3, [r7, #12]
  403b60:	6f1a      	ldr	r2, [r3, #112]	; 0x70
  403b62:	687b      	ldr	r3, [r7, #4]
  403b64:	43d9      	mvns	r1, r3
  403b66:	697b      	ldr	r3, [r7, #20]
  403b68:	400b      	ands	r3, r1
  403b6a:	401a      	ands	r2, r3
  403b6c:	68fb      	ldr	r3, [r7, #12]
  403b6e:	671a      	str	r2, [r3, #112]	; 0x70
  403b70:	68fb      	ldr	r3, [r7, #12]
  403b72:	6f5b      	ldr	r3, [r3, #116]	; 0x74
  403b74:	617b      	str	r3, [r7, #20]
  403b76:	687a      	ldr	r2, [r7, #4]
  403b78:	697b      	ldr	r3, [r7, #20]
  403b7a:	431a      	orrs	r2, r3
  403b7c:	68fb      	ldr	r3, [r7, #12]
  403b7e:	675a      	str	r2, [r3, #116]	; 0x74
  403b80:	e010      	b.n	403ba4 <pio_set_peripheral+0xfc>
  403b82:	68fb      	ldr	r3, [r7, #12]
  403b84:	6f1b      	ldr	r3, [r3, #112]	; 0x70
  403b86:	617b      	str	r3, [r7, #20]
  403b88:	687a      	ldr	r2, [r7, #4]
  403b8a:	697b      	ldr	r3, [r7, #20]
  403b8c:	431a      	orrs	r2, r3
  403b8e:	68fb      	ldr	r3, [r7, #12]
  403b90:	671a      	str	r2, [r3, #112]	; 0x70
  403b92:	68fb      	ldr	r3, [r7, #12]
  403b94:	6f5b      	ldr	r3, [r3, #116]	; 0x74
  403b96:	617b      	str	r3, [r7, #20]
  403b98:	687a      	ldr	r2, [r7, #4]
  403b9a:	697b      	ldr	r3, [r7, #20]
  403b9c:	431a      	orrs	r2, r3
  403b9e:	68fb      	ldr	r3, [r7, #12]
  403ba0:	675a      	str	r2, [r3, #116]	; 0x74
  403ba2:	bf00      	nop
  403ba4:	68fb      	ldr	r3, [r7, #12]
  403ba6:	687a      	ldr	r2, [r7, #4]
  403ba8:	605a      	str	r2, [r3, #4]
  403baa:	e000      	b.n	403bae <pio_set_peripheral+0x106>
  403bac:	bf00      	nop
  403bae:	371c      	adds	r7, #28
  403bb0:	46bd      	mov	sp, r7
  403bb2:	bc80      	pop	{r7}
  403bb4:	4770      	bx	lr
  403bb6:	bf00      	nop

00403bb8 <pio_set_input>:
  403bb8:	b580      	push	{r7, lr}
  403bba:	b084      	sub	sp, #16
  403bbc:	af00      	add	r7, sp, #0
  403bbe:	60f8      	str	r0, [r7, #12]
  403bc0:	60b9      	str	r1, [r7, #8]
  403bc2:	607a      	str	r2, [r7, #4]
  403bc4:	68b9      	ldr	r1, [r7, #8]
  403bc6:	68f8      	ldr	r0, [r7, #12]
  403bc8:	4b19      	ldr	r3, [pc, #100]	; (403c30 <pio_set_input+0x78>)
  403bca:	4798      	blx	r3
  403bcc:	687b      	ldr	r3, [r7, #4]
  403bce:	f003 0301 	and.w	r3, r3, #1
  403bd2:	461a      	mov	r2, r3
  403bd4:	68b9      	ldr	r1, [r7, #8]
  403bd6:	68f8      	ldr	r0, [r7, #12]
  403bd8:	4b16      	ldr	r3, [pc, #88]	; (403c34 <pio_set_input+0x7c>)
  403bda:	4798      	blx	r3
  403bdc:	687b      	ldr	r3, [r7, #4]
  403bde:	f003 030a 	and.w	r3, r3, #10
  403be2:	2b00      	cmp	r3, #0
  403be4:	d003      	beq.n	403bee <pio_set_input+0x36>
  403be6:	68fb      	ldr	r3, [r7, #12]
  403be8:	68ba      	ldr	r2, [r7, #8]
  403bea:	621a      	str	r2, [r3, #32]
  403bec:	e002      	b.n	403bf4 <pio_set_input+0x3c>
  403bee:	68fb      	ldr	r3, [r7, #12]
  403bf0:	68ba      	ldr	r2, [r7, #8]
  403bf2:	625a      	str	r2, [r3, #36]	; 0x24
  403bf4:	687b      	ldr	r3, [r7, #4]
  403bf6:	f003 0302 	and.w	r3, r3, #2
  403bfa:	2b00      	cmp	r3, #0
  403bfc:	d004      	beq.n	403c08 <pio_set_input+0x50>
  403bfe:	68fb      	ldr	r3, [r7, #12]
  403c00:	68ba      	ldr	r2, [r7, #8]
  403c02:	f8c3 2080 	str.w	r2, [r3, #128]	; 0x80
  403c06:	e008      	b.n	403c1a <pio_set_input+0x62>
  403c08:	687b      	ldr	r3, [r7, #4]
  403c0a:	f003 0308 	and.w	r3, r3, #8
  403c0e:	2b00      	cmp	r3, #0
  403c10:	d003      	beq.n	403c1a <pio_set_input+0x62>
  403c12:	68fb      	ldr	r3, [r7, #12]
  403c14:	68ba      	ldr	r2, [r7, #8]
  403c16:	f8c3 2084 	str.w	r2, [r3, #132]	; 0x84
  403c1a:	68fb      	ldr	r3, [r7, #12]
  403c1c:	68ba      	ldr	r2, [r7, #8]
  403c1e:	615a      	str	r2, [r3, #20]
  403c20:	68fb      	ldr	r3, [r7, #12]
  403c22:	68ba      	ldr	r2, [r7, #8]
  403c24:	601a      	str	r2, [r3, #0]
  403c26:	bf00      	nop
  403c28:	3710      	adds	r7, #16
  403c2a:	46bd      	mov	sp, r7
  403c2c:	bd80      	pop	{r7, pc}
  403c2e:	bf00      	nop
  403c30:	00403d25 	.word	0x00403d25
  403c34:	00403a7d 	.word	0x00403a7d

00403c38 <pio_set_output>:
  403c38:	b580      	push	{r7, lr}
  403c3a:	b084      	sub	sp, #16
  403c3c:	af00      	add	r7, sp, #0
  403c3e:	60f8      	str	r0, [r7, #12]
  403c40:	60b9      	str	r1, [r7, #8]
  403c42:	607a      	str	r2, [r7, #4]
  403c44:	603b      	str	r3, [r7, #0]
  403c46:	68b9      	ldr	r1, [r7, #8]
  403c48:	68f8      	ldr	r0, [r7, #12]
  403c4a:	4b12      	ldr	r3, [pc, #72]	; (403c94 <pio_set_output+0x5c>)
  403c4c:	4798      	blx	r3
  403c4e:	69ba      	ldr	r2, [r7, #24]
  403c50:	68b9      	ldr	r1, [r7, #8]
  403c52:	68f8      	ldr	r0, [r7, #12]
  403c54:	4b10      	ldr	r3, [pc, #64]	; (403c98 <pio_set_output+0x60>)
  403c56:	4798      	blx	r3
  403c58:	683b      	ldr	r3, [r7, #0]
  403c5a:	2b00      	cmp	r3, #0
  403c5c:	d003      	beq.n	403c66 <pio_set_output+0x2e>
  403c5e:	68fb      	ldr	r3, [r7, #12]
  403c60:	68ba      	ldr	r2, [r7, #8]
  403c62:	651a      	str	r2, [r3, #80]	; 0x50
  403c64:	e002      	b.n	403c6c <pio_set_output+0x34>
  403c66:	68fb      	ldr	r3, [r7, #12]
  403c68:	68ba      	ldr	r2, [r7, #8]
  403c6a:	655a      	str	r2, [r3, #84]	; 0x54
  403c6c:	687b      	ldr	r3, [r7, #4]
  403c6e:	2b00      	cmp	r3, #0
  403c70:	d003      	beq.n	403c7a <pio_set_output+0x42>
  403c72:	68fb      	ldr	r3, [r7, #12]
  403c74:	68ba      	ldr	r2, [r7, #8]
  403c76:	631a      	str	r2, [r3, #48]	; 0x30
  403c78:	e002      	b.n	403c80 <pio_set_output+0x48>
  403c7a:	68fb      	ldr	r3, [r7, #12]
  403c7c:	68ba      	ldr	r2, [r7, #8]
  403c7e:	635a      	str	r2, [r3, #52]	; 0x34
  403c80:	68fb      	ldr	r3, [r7, #12]
  403c82:	68ba      	ldr	r2, [r7, #8]
  403c84:	611a      	str	r2, [r3, #16]
  403c86:	68fb      	ldr	r3, [r7, #12]
  403c88:	68ba      	ldr	r2, [r7, #8]
  403c8a:	601a      	str	r2, [r3, #0]
  403c8c:	bf00      	nop
  403c8e:	3710      	adds	r7, #16
  403c90:	46bd      	mov	sp, r7
  403c92:	bd80      	pop	{r7, pc}
  403c94:	00403d25 	.word	0x00403d25
  403c98:	00403a7d 	.word	0x00403a7d

00403c9c <pio_configure_interrupt>:
  403c9c:	b480      	push	{r7}
  403c9e:	b085      	sub	sp, #20
  403ca0:	af00      	add	r7, sp, #0
  403ca2:	60f8      	str	r0, [r7, #12]
  403ca4:	60b9      	str	r1, [r7, #8]
  403ca6:	607a      	str	r2, [r7, #4]
  403ca8:	687b      	ldr	r3, [r7, #4]
  403caa:	f003 0310 	and.w	r3, r3, #16
  403cae:	2b00      	cmp	r3, #0
  403cb0:	d020      	beq.n	403cf4 <pio_configure_interrupt+0x58>
  403cb2:	68fb      	ldr	r3, [r7, #12]
  403cb4:	68ba      	ldr	r2, [r7, #8]
  403cb6:	f8c3 20b0 	str.w	r2, [r3, #176]	; 0xb0
  403cba:	687b      	ldr	r3, [r7, #4]
  403cbc:	f003 0320 	and.w	r3, r3, #32
  403cc0:	2b00      	cmp	r3, #0
  403cc2:	d004      	beq.n	403cce <pio_configure_interrupt+0x32>
  403cc4:	68fb      	ldr	r3, [r7, #12]
  403cc6:	68ba      	ldr	r2, [r7, #8]
  403cc8:	f8c3 20d4 	str.w	r2, [r3, #212]	; 0xd4
  403ccc:	e003      	b.n	403cd6 <pio_configure_interrupt+0x3a>
  403cce:	68fb      	ldr	r3, [r7, #12]
  403cd0:	68ba      	ldr	r2, [r7, #8]
  403cd2:	f8c3 20d0 	str.w	r2, [r3, #208]	; 0xd0
  403cd6:	687b      	ldr	r3, [r7, #4]
  403cd8:	f003 0340 	and.w	r3, r3, #64	; 0x40
  403cdc:	2b00      	cmp	r3, #0
  403cde:	d004      	beq.n	403cea <pio_configure_interrupt+0x4e>
  403ce0:	68fb      	ldr	r3, [r7, #12]
  403ce2:	68ba      	ldr	r2, [r7, #8]
  403ce4:	f8c3 20c0 	str.w	r2, [r3, #192]	; 0xc0
  403ce8:	e008      	b.n	403cfc <pio_configure_interrupt+0x60>
  403cea:	68fb      	ldr	r3, [r7, #12]
  403cec:	68ba      	ldr	r2, [r7, #8]
  403cee:	f8c3 20c4 	str.w	r2, [r3, #196]	; 0xc4
  403cf2:	e003      	b.n	403cfc <pio_configure_interrupt+0x60>
  403cf4:	68fb      	ldr	r3, [r7, #12]
  403cf6:	68ba      	ldr	r2, [r7, #8]
  403cf8:	f8c3 20b4 	str.w	r2, [r3, #180]	; 0xb4
  403cfc:	bf00      	nop
  403cfe:	3714      	adds	r7, #20
  403d00:	46bd      	mov	sp, r7
  403d02:	bc80      	pop	{r7}
  403d04:	4770      	bx	lr
  403d06:	bf00      	nop

00403d08 <pio_enable_interrupt>:
  403d08:	b480      	push	{r7}
  403d0a:	b083      	sub	sp, #12
  403d0c:	af00      	add	r7, sp, #0
  403d0e:	6078      	str	r0, [r7, #4]
  403d10:	6039      	str	r1, [r7, #0]
  403d12:	687b      	ldr	r3, [r7, #4]
  403d14:	683a      	ldr	r2, [r7, #0]
  403d16:	641a      	str	r2, [r3, #64]	; 0x40
  403d18:	bf00      	nop
  403d1a:	370c      	adds	r7, #12
  403d1c:	46bd      	mov	sp, r7
  403d1e:	bc80      	pop	{r7}
  403d20:	4770      	bx	lr
  403d22:	bf00      	nop

00403d24 <pio_disable_interrupt>:
  403d24:	b480      	push	{r7}
  403d26:	b083      	sub	sp, #12
  403d28:	af00      	add	r7, sp, #0
  403d2a:	6078      	str	r0, [r7, #4]
  403d2c:	6039      	str	r1, [r7, #0]
  403d2e:	687b      	ldr	r3, [r7, #4]
  403d30:	683a      	ldr	r2, [r7, #0]
  403d32:	645a      	str	r2, [r3, #68]	; 0x44
  403d34:	bf00      	nop
  403d36:	370c      	adds	r7, #12
  403d38:	46bd      	mov	sp, r7
  403d3a:	bc80      	pop	{r7}
  403d3c:	4770      	bx	lr
  403d3e:	bf00      	nop

00403d40 <pio_get_interrupt_status>:
  403d40:	b480      	push	{r7}
  403d42:	b083      	sub	sp, #12
  403d44:	af00      	add	r7, sp, #0
  403d46:	6078      	str	r0, [r7, #4]
  403d48:	687b      	ldr	r3, [r7, #4]
  403d4a:	6cdb      	ldr	r3, [r3, #76]	; 0x4c
  403d4c:	4618      	mov	r0, r3
  403d4e:	370c      	adds	r7, #12
  403d50:	46bd      	mov	sp, r7
  403d52:	bc80      	pop	{r7}
  403d54:	4770      	bx	lr
  403d56:	bf00      	nop

00403d58 <pio_get_interrupt_mask>:
  403d58:	b480      	push	{r7}
  403d5a:	b083      	sub	sp, #12
  403d5c:	af00      	add	r7, sp, #0
  403d5e:	6078      	str	r0, [r7, #4]
  403d60:	687b      	ldr	r3, [r7, #4]
  403d62:	6c9b      	ldr	r3, [r3, #72]	; 0x48
  403d64:	4618      	mov	r0, r3
  403d66:	370c      	adds	r7, #12
  403d68:	46bd      	mov	sp, r7
  403d6a:	bc80      	pop	{r7}
  403d6c:	4770      	bx	lr
  403d6e:	bf00      	nop

00403d70 <pio_set_pin_high>:
  403d70:	b580      	push	{r7, lr}
  403d72:	b084      	sub	sp, #16
  403d74:	af00      	add	r7, sp, #0
  403d76:	6078      	str	r0, [r7, #4]
  403d78:	6878      	ldr	r0, [r7, #4]
  403d7a:	4b08      	ldr	r3, [pc, #32]	; (403d9c <pio_set_pin_high+0x2c>)
  403d7c:	4798      	blx	r3
  403d7e:	60f8      	str	r0, [r7, #12]
  403d80:	687b      	ldr	r3, [r7, #4]
  403d82:	f003 031f 	and.w	r3, r3, #31
  403d86:	2201      	movs	r2, #1
  403d88:	fa02 f303 	lsl.w	r3, r2, r3
  403d8c:	461a      	mov	r2, r3
  403d8e:	68fb      	ldr	r3, [r7, #12]
  403d90:	631a      	str	r2, [r3, #48]	; 0x30
  403d92:	bf00      	nop
  403d94:	3710      	adds	r7, #16
  403d96:	46bd      	mov	sp, r7
  403d98:	bd80      	pop	{r7, pc}
  403d9a:	bf00      	nop
  403d9c:	004040ad 	.word	0x004040ad

00403da0 <pio_set_pin_low>:
  403da0:	b580      	push	{r7, lr}
  403da2:	b084      	sub	sp, #16
  403da4:	af00      	add	r7, sp, #0
  403da6:	6078      	str	r0, [r7, #4]
  403da8:	6878      	ldr	r0, [r7, #4]
  403daa:	4b08      	ldr	r3, [pc, #32]	; (403dcc <pio_set_pin_low+0x2c>)
  403dac:	4798      	blx	r3
  403dae:	60f8      	str	r0, [r7, #12]
  403db0:	687b      	ldr	r3, [r7, #4]
  403db2:	f003 031f 	and.w	r3, r3, #31
  403db6:	2201      	movs	r2, #1
  403db8:	fa02 f303 	lsl.w	r3, r2, r3
  403dbc:	461a      	mov	r2, r3
  403dbe:	68fb      	ldr	r3, [r7, #12]
  403dc0:	635a      	str	r2, [r3, #52]	; 0x34
  403dc2:	bf00      	nop
  403dc4:	3710      	adds	r7, #16
  403dc6:	46bd      	mov	sp, r7
  403dc8:	bd80      	pop	{r7, pc}
  403dca:	bf00      	nop
  403dcc:	004040ad 	.word	0x004040ad

00403dd0 <pio_configure_pin>:
  403dd0:	b590      	push	{r4, r7, lr}
  403dd2:	b087      	sub	sp, #28
  403dd4:	af02      	add	r7, sp, #8
  403dd6:	6078      	str	r0, [r7, #4]
  403dd8:	6039      	str	r1, [r7, #0]
  403dda:	6878      	ldr	r0, [r7, #4]
  403ddc:	4b63      	ldr	r3, [pc, #396]	; (403f6c <pio_configure_pin+0x19c>)
  403dde:	4798      	blx	r3
  403de0:	60f8      	str	r0, [r7, #12]
  403de2:	683b      	ldr	r3, [r7, #0]
  403de4:	f003 43f0 	and.w	r3, r3, #2013265920	; 0x78000000
  403de8:	f1b3 5f00 	cmp.w	r3, #536870912	; 0x20000000
  403dec:	d067      	beq.n	403ebe <pio_configure_pin+0xee>
  403dee:	f1b3 5f00 	cmp.w	r3, #536870912	; 0x20000000
  403df2:	d809      	bhi.n	403e08 <pio_configure_pin+0x38>
  403df4:	f1b3 5f80 	cmp.w	r3, #268435456	; 0x10000000
  403df8:	d02b      	beq.n	403e52 <pio_configure_pin+0x82>
  403dfa:	f1b3 5fc0 	cmp.w	r3, #402653184	; 0x18000000
  403dfe:	d043      	beq.n	403e88 <pio_configure_pin+0xb8>
  403e00:	f1b3 6f00 	cmp.w	r3, #134217728	; 0x8000000
  403e04:	d00a      	beq.n	403e1c <pio_configure_pin+0x4c>
  403e06:	e0a9      	b.n	403f5c <pio_configure_pin+0x18c>
  403e08:	f1b3 5f40 	cmp.w	r3, #805306368	; 0x30000000
  403e0c:	d07e      	beq.n	403f0c <pio_configure_pin+0x13c>
  403e0e:	f1b3 5f60 	cmp.w	r3, #939524096	; 0x38000000
  403e12:	d07b      	beq.n	403f0c <pio_configure_pin+0x13c>
  403e14:	f1b3 5f20 	cmp.w	r3, #671088640	; 0x28000000
  403e18:	d06c      	beq.n	403ef4 <pio_configure_pin+0x124>
  403e1a:	e09f      	b.n	403f5c <pio_configure_pin+0x18c>
  403e1c:	687b      	ldr	r3, [r7, #4]
  403e1e:	f003 031f 	and.w	r3, r3, #31
  403e22:	2201      	movs	r2, #1
  403e24:	fa02 f303 	lsl.w	r3, r2, r3
  403e28:	461a      	mov	r2, r3
  403e2a:	f04f 6100 	mov.w	r1, #134217728	; 0x8000000
  403e2e:	68f8      	ldr	r0, [r7, #12]
  403e30:	4b4f      	ldr	r3, [pc, #316]	; (403f70 <pio_configure_pin+0x1a0>)
  403e32:	4798      	blx	r3
  403e34:	687b      	ldr	r3, [r7, #4]
  403e36:	f003 031f 	and.w	r3, r3, #31
  403e3a:	2201      	movs	r2, #1
  403e3c:	fa02 f303 	lsl.w	r3, r2, r3
  403e40:	4619      	mov	r1, r3
  403e42:	683b      	ldr	r3, [r7, #0]
  403e44:	f003 0301 	and.w	r3, r3, #1
  403e48:	461a      	mov	r2, r3
  403e4a:	68f8      	ldr	r0, [r7, #12]
  403e4c:	4b49      	ldr	r3, [pc, #292]	; (403f74 <pio_configure_pin+0x1a4>)
  403e4e:	4798      	blx	r3
  403e50:	e086      	b.n	403f60 <pio_configure_pin+0x190>
  403e52:	687b      	ldr	r3, [r7, #4]
  403e54:	f003 031f 	and.w	r3, r3, #31
  403e58:	2201      	movs	r2, #1
  403e5a:	fa02 f303 	lsl.w	r3, r2, r3
  403e5e:	461a      	mov	r2, r3
  403e60:	f04f 5180 	mov.w	r1, #268435456	; 0x10000000
  403e64:	68f8      	ldr	r0, [r7, #12]
  403e66:	4b42      	ldr	r3, [pc, #264]	; (403f70 <pio_configure_pin+0x1a0>)
  403e68:	4798      	blx	r3
  403e6a:	687b      	ldr	r3, [r7, #4]
  403e6c:	f003 031f 	and.w	r3, r3, #31
  403e70:	2201      	movs	r2, #1
  403e72:	fa02 f303 	lsl.w	r3, r2, r3
  403e76:	4619      	mov	r1, r3
  403e78:	683b      	ldr	r3, [r7, #0]
  403e7a:	f003 0301 	and.w	r3, r3, #1
  403e7e:	461a      	mov	r2, r3
  403e80:	68f8      	ldr	r0, [r7, #12]
  403e82:	4b3c      	ldr	r3, [pc, #240]	; (403f74 <pio_configure_pin+0x1a4>)
  403e84:	4798      	blx	r3
  403e86:	e06b      	b.n	403f60 <pio_configure_pin+0x190>
  403e88:	687b      	ldr	r3, [r7, #4]
  403e8a:	f003 031f 	and.w	r3, r3, #31
  403e8e:	2201      	movs	r2, #1
  403e90:	fa02 f303 	lsl.w	r3, r2, r3
  403e94:	461a      	mov	r2, r3
  403e96:	f04f 51c0 	mov.w	r1, #402653184	; 0x18000000
  403e9a:	68f8      	ldr	r0, [r7, #12]
  403e9c:	4b34      	ldr	r3, [pc, #208]	; (403f70 <pio_configure_pin+0x1a0>)
  403e9e:	4798      	blx	r3
  403ea0:	687b      	ldr	r3, [r7, #4]
  403ea2:	f003 031f 	and.w	r3, r3, #31
  403ea6:	2201      	movs	r2, #1
  403ea8:	fa02 f303 	lsl.w	r3, r2, r3
  403eac:	4619      	mov	r1, r3
  403eae:	683b      	ldr	r3, [r7, #0]
  403eb0:	f003 0301 	and.w	r3, r3, #1
  403eb4:	461a      	mov	r2, r3
  403eb6:	68f8      	ldr	r0, [r7, #12]
  403eb8:	4b2e      	ldr	r3, [pc, #184]	; (403f74 <pio_configure_pin+0x1a4>)
  403eba:	4798      	blx	r3
  403ebc:	e050      	b.n	403f60 <pio_configure_pin+0x190>
  403ebe:	687b      	ldr	r3, [r7, #4]
  403ec0:	f003 031f 	and.w	r3, r3, #31
  403ec4:	2201      	movs	r2, #1
  403ec6:	fa02 f303 	lsl.w	r3, r2, r3
  403eca:	461a      	mov	r2, r3
  403ecc:	f04f 5100 	mov.w	r1, #536870912	; 0x20000000
  403ed0:	68f8      	ldr	r0, [r7, #12]
  403ed2:	4b27      	ldr	r3, [pc, #156]	; (403f70 <pio_configure_pin+0x1a0>)
  403ed4:	4798      	blx	r3
  403ed6:	687b      	ldr	r3, [r7, #4]
  403ed8:	f003 031f 	and.w	r3, r3, #31
  403edc:	2201      	movs	r2, #1
  403ede:	fa02 f303 	lsl.w	r3, r2, r3
  403ee2:	4619      	mov	r1, r3
  403ee4:	683b      	ldr	r3, [r7, #0]
  403ee6:	f003 0301 	and.w	r3, r3, #1
  403eea:	461a      	mov	r2, r3
  403eec:	68f8      	ldr	r0, [r7, #12]
  403eee:	4b21      	ldr	r3, [pc, #132]	; (403f74 <pio_configure_pin+0x1a4>)
  403ef0:	4798      	blx	r3
  403ef2:	e035      	b.n	403f60 <pio_configure_pin+0x190>
  403ef4:	687b      	ldr	r3, [r7, #4]
  403ef6:	f003 031f 	and.w	r3, r3, #31
  403efa:	2201      	movs	r2, #1
  403efc:	fa02 f303 	lsl.w	r3, r2, r3
  403f00:	683a      	ldr	r2, [r7, #0]
  403f02:	4619      	mov	r1, r3
  403f04:	68f8      	ldr	r0, [r7, #12]
  403f06:	4b1c      	ldr	r3, [pc, #112]	; (403f78 <pio_configure_pin+0x1a8>)
  403f08:	4798      	blx	r3
  403f0a:	e029      	b.n	403f60 <pio_configure_pin+0x190>
  403f0c:	687b      	ldr	r3, [r7, #4]
  403f0e:	f003 031f 	and.w	r3, r3, #31
  403f12:	2201      	movs	r2, #1
  403f14:	fa02 f303 	lsl.w	r3, r2, r3
  403f18:	4619      	mov	r1, r3
  403f1a:	683b      	ldr	r3, [r7, #0]
  403f1c:	f003 5360 	and.w	r3, r3, #939524096	; 0x38000000
  403f20:	f1b3 5f60 	cmp.w	r3, #939524096	; 0x38000000
  403f24:	bf0c      	ite	eq
  403f26:	2301      	moveq	r3, #1
  403f28:	2300      	movne	r3, #0
  403f2a:	b2db      	uxtb	r3, r3
  403f2c:	461a      	mov	r2, r3
  403f2e:	683b      	ldr	r3, [r7, #0]
  403f30:	f003 0304 	and.w	r3, r3, #4
  403f34:	2b00      	cmp	r3, #0
  403f36:	bf14      	ite	ne
  403f38:	2301      	movne	r3, #1
  403f3a:	2300      	moveq	r3, #0
  403f3c:	b2db      	uxtb	r3, r3
  403f3e:	4618      	mov	r0, r3
  403f40:	683b      	ldr	r3, [r7, #0]
  403f42:	f003 0301 	and.w	r3, r3, #1
  403f46:	2b00      	cmp	r3, #0
  403f48:	bf14      	ite	ne
  403f4a:	2301      	movne	r3, #1
  403f4c:	2300      	moveq	r3, #0
  403f4e:	b2db      	uxtb	r3, r3
  403f50:	9300      	str	r3, [sp, #0]
  403f52:	4603      	mov	r3, r0
  403f54:	68f8      	ldr	r0, [r7, #12]
  403f56:	4c09      	ldr	r4, [pc, #36]	; (403f7c <pio_configure_pin+0x1ac>)
  403f58:	47a0      	blx	r4
  403f5a:	e001      	b.n	403f60 <pio_configure_pin+0x190>
  403f5c:	2300      	movs	r3, #0
  403f5e:	e000      	b.n	403f62 <pio_configure_pin+0x192>
  403f60:	2301      	movs	r3, #1
  403f62:	4618      	mov	r0, r3
  403f64:	3714      	adds	r7, #20
  403f66:	46bd      	mov	sp, r7
  403f68:	bd90      	pop	{r4, r7, pc}
  403f6a:	bf00      	nop
  403f6c:	004040ad 	.word	0x004040ad
  403f70:	00403aa9 	.word	0x00403aa9
  403f74:	00403a7d 	.word	0x00403a7d
  403f78:	00403bb9 	.word	0x00403bb9
  403f7c:	00403c39 	.word	0x00403c39

00403f80 <pio_configure_pin_group>:
  403f80:	b590      	push	{r4, r7, lr}
  403f82:	b087      	sub	sp, #28
  403f84:	af02      	add	r7, sp, #8
  403f86:	60f8      	str	r0, [r7, #12]
  403f88:	60b9      	str	r1, [r7, #8]
  403f8a:	607a      	str	r2, [r7, #4]
  403f8c:	687b      	ldr	r3, [r7, #4]
  403f8e:	f003 43f0 	and.w	r3, r3, #2013265920	; 0x78000000
  403f92:	f1b3 5f00 	cmp.w	r3, #536870912	; 0x20000000
  403f96:	d043      	beq.n	404020 <pio_configure_pin_group+0xa0>
  403f98:	f1b3 5f00 	cmp.w	r3, #536870912	; 0x20000000
  403f9c:	d809      	bhi.n	403fb2 <pio_configure_pin_group+0x32>
  403f9e:	f1b3 5f80 	cmp.w	r3, #268435456	; 0x10000000
  403fa2:	d01f      	beq.n	403fe4 <pio_configure_pin_group+0x64>
  403fa4:	f1b3 5fc0 	cmp.w	r3, #402653184	; 0x18000000
  403fa8:	d02b      	beq.n	404002 <pio_configure_pin_group+0x82>
  403faa:	f1b3 6f00 	cmp.w	r3, #134217728	; 0x8000000
  403fae:	d00a      	beq.n	403fc6 <pio_configure_pin_group+0x46>
  403fb0:	e06d      	b.n	40408e <pio_configure_pin_group+0x10e>
  403fb2:	f1b3 5f40 	cmp.w	r3, #805306368	; 0x30000000
  403fb6:	d048      	beq.n	40404a <pio_configure_pin_group+0xca>
  403fb8:	f1b3 5f60 	cmp.w	r3, #939524096	; 0x38000000
  403fbc:	d045      	beq.n	40404a <pio_configure_pin_group+0xca>
  403fbe:	f1b3 5f20 	cmp.w	r3, #671088640	; 0x28000000
  403fc2:	d03c      	beq.n	40403e <pio_configure_pin_group+0xbe>
  403fc4:	e063      	b.n	40408e <pio_configure_pin_group+0x10e>
  403fc6:	68ba      	ldr	r2, [r7, #8]
  403fc8:	f04f 6100 	mov.w	r1, #134217728	; 0x8000000
  403fcc:	68f8      	ldr	r0, [r7, #12]
  403fce:	4b33      	ldr	r3, [pc, #204]	; (40409c <pio_configure_pin_group+0x11c>)
  403fd0:	4798      	blx	r3
  403fd2:	687b      	ldr	r3, [r7, #4]
  403fd4:	f003 0301 	and.w	r3, r3, #1
  403fd8:	461a      	mov	r2, r3
  403fda:	68b9      	ldr	r1, [r7, #8]
  403fdc:	68f8      	ldr	r0, [r7, #12]
  403fde:	4b30      	ldr	r3, [pc, #192]	; (4040a0 <pio_configure_pin_group+0x120>)
  403fe0:	4798      	blx	r3
  403fe2:	e056      	b.n	404092 <pio_configure_pin_group+0x112>
  403fe4:	68ba      	ldr	r2, [r7, #8]
  403fe6:	f04f 5180 	mov.w	r1, #268435456	; 0x10000000
  403fea:	68f8      	ldr	r0, [r7, #12]
  403fec:	4b2b      	ldr	r3, [pc, #172]	; (40409c <pio_configure_pin_group+0x11c>)
  403fee:	4798      	blx	r3
  403ff0:	687b      	ldr	r3, [r7, #4]
  403ff2:	f003 0301 	and.w	r3, r3, #1
  403ff6:	461a      	mov	r2, r3
  403ff8:	68b9      	ldr	r1, [r7, #8]
  403ffa:	68f8      	ldr	r0, [r7, #12]
  403ffc:	4b28      	ldr	r3, [pc, #160]	; (4040a0 <pio_configure_pin_group+0x120>)
  403ffe:	4798      	blx	r3
  404000:	e047      	b.n	404092 <pio_configure_pin_group+0x112>
  404002:	68ba      	ldr	r2, [r7, #8]
  404004:	f04f 51c0 	mov.w	r1, #402653184	; 0x18000000
  404008:	68f8      	ldr	r0, [r7, #12]
  40400a:	4b24      	ldr	r3, [pc, #144]	; (40409c <pio_configure_pin_group+0x11c>)
  40400c:	4798      	blx	r3
  40400e:	687b      	ldr	r3, [r7, #4]
  404010:	f003 0301 	and.w	r3, r3, #1
  404014:	461a      	mov	r2, r3
  404016:	68b9      	ldr	r1, [r7, #8]
  404018:	68f8      	ldr	r0, [r7, #12]
  40401a:	4b21      	ldr	r3, [pc, #132]	; (4040a0 <pio_configure_pin_group+0x120>)
  40401c:	4798      	blx	r3
  40401e:	e038      	b.n	404092 <pio_configure_pin_group+0x112>
  404020:	68ba      	ldr	r2, [r7, #8]
  404022:	f04f 5100 	mov.w	r1, #536870912	; 0x20000000
  404026:	68f8      	ldr	r0, [r7, #12]
  404028:	4b1c      	ldr	r3, [pc, #112]	; (40409c <pio_configure_pin_group+0x11c>)
  40402a:	4798      	blx	r3
  40402c:	687b      	ldr	r3, [r7, #4]
  40402e:	f003 0301 	and.w	r3, r3, #1
  404032:	461a      	mov	r2, r3
  404034:	68b9      	ldr	r1, [r7, #8]
  404036:	68f8      	ldr	r0, [r7, #12]
  404038:	4b19      	ldr	r3, [pc, #100]	; (4040a0 <pio_configure_pin_group+0x120>)
  40403a:	4798      	blx	r3
  40403c:	e029      	b.n	404092 <pio_configure_pin_group+0x112>
  40403e:	687a      	ldr	r2, [r7, #4]
  404040:	68b9      	ldr	r1, [r7, #8]
  404042:	68f8      	ldr	r0, [r7, #12]
  404044:	4b17      	ldr	r3, [pc, #92]	; (4040a4 <pio_configure_pin_group+0x124>)
  404046:	4798      	blx	r3
  404048:	e023      	b.n	404092 <pio_configure_pin_group+0x112>
  40404a:	687b      	ldr	r3, [r7, #4]
  40404c:	f003 5360 	and.w	r3, r3, #939524096	; 0x38000000
  404050:	f1b3 5f60 	cmp.w	r3, #939524096	; 0x38000000
  404054:	bf0c      	ite	eq
  404056:	2301      	moveq	r3, #1
  404058:	2300      	movne	r3, #0
  40405a:	b2db      	uxtb	r3, r3
  40405c:	461a      	mov	r2, r3
  40405e:	687b      	ldr	r3, [r7, #4]
  404060:	f003 0304 	and.w	r3, r3, #4
  404064:	2b00      	cmp	r3, #0
  404066:	bf14      	ite	ne
  404068:	2301      	movne	r3, #1
  40406a:	2300      	moveq	r3, #0
  40406c:	b2db      	uxtb	r3, r3
  40406e:	4619      	mov	r1, r3
  404070:	687b      	ldr	r3, [r7, #4]
  404072:	f003 0301 	and.w	r3, r3, #1
  404076:	2b00      	cmp	r3, #0
  404078:	bf14      	ite	ne
  40407a:	2301      	movne	r3, #1
  40407c:	2300      	moveq	r3, #0
  40407e:	b2db      	uxtb	r3, r3
  404080:	9300      	str	r3, [sp, #0]
  404082:	460b      	mov	r3, r1
  404084:	68b9      	ldr	r1, [r7, #8]
  404086:	68f8      	ldr	r0, [r7, #12]
  404088:	4c07      	ldr	r4, [pc, #28]	; (4040a8 <pio_configure_pin_group+0x128>)
  40408a:	47a0      	blx	r4
  40408c:	e001      	b.n	404092 <pio_configure_pin_group+0x112>
  40408e:	2300      	movs	r3, #0
  404090:	e000      	b.n	404094 <pio_configure_pin_group+0x114>
  404092:	2301      	movs	r3, #1
  404094:	4618      	mov	r0, r3
  404096:	3714      	adds	r7, #20
  404098:	46bd      	mov	sp, r7
  40409a:	bd90      	pop	{r4, r7, pc}
  40409c:	00403aa9 	.word	0x00403aa9
  4040a0:	00403a7d 	.word	0x00403a7d
  4040a4:	00403bb9 	.word	0x00403bb9
  4040a8:	00403c39 	.word	0x00403c39

004040ac <pio_get_pin_group>:
  4040ac:	b480      	push	{r7}
  4040ae:	b085      	sub	sp, #20
  4040b0:	af00      	add	r7, sp, #0
  4040b2:	6078      	str	r0, [r7, #4]
  4040b4:	687b      	ldr	r3, [r7, #4]
  4040b6:	095b      	lsrs	r3, r3, #5
  4040b8:	f503 1300 	add.w	r3, r3, #2097152	; 0x200000
  4040bc:	f203 7307 	addw	r3, r3, #1799	; 0x707
  4040c0:	025b      	lsls	r3, r3, #9
  4040c2:	60fb      	str	r3, [r7, #12]
  4040c4:	68fb      	ldr	r3, [r7, #12]
  4040c6:	4618      	mov	r0, r3
  4040c8:	3714      	adds	r7, #20
  4040ca:	46bd      	mov	sp, r7
  4040cc:	bc80      	pop	{r7}
  4040ce:	4770      	bx	lr

004040d0 <NVIC_EnableIRQ>:
  4040d0:	b480      	push	{r7}
  4040d2:	b083      	sub	sp, #12
  4040d4:	af00      	add	r7, sp, #0
  4040d6:	4603      	mov	r3, r0
  4040d8:	71fb      	strb	r3, [r7, #7]
  4040da:	4908      	ldr	r1, [pc, #32]	; (4040fc <NVIC_EnableIRQ+0x2c>)
  4040dc:	f997 3007 	ldrsb.w	r3, [r7, #7]
  4040e0:	095b      	lsrs	r3, r3, #5
  4040e2:	79fa      	ldrb	r2, [r7, #7]
  4040e4:	f002 021f 	and.w	r2, r2, #31
  4040e8:	2001      	movs	r0, #1
  4040ea:	fa00 f202 	lsl.w	r2, r0, r2
  4040ee:	f841 2023 	str.w	r2, [r1, r3, lsl #2]
  4040f2:	bf00      	nop
  4040f4:	370c      	adds	r7, #12
  4040f6:	46bd      	mov	sp, r7
  4040f8:	bc80      	pop	{r7}
  4040fa:	4770      	bx	lr
  4040fc:	e000e100 	.word	0xe000e100

00404100 <NVIC_DisableIRQ>:
  404100:	b480      	push	{r7}
  404102:	b083      	sub	sp, #12
  404104:	af00      	add	r7, sp, #0
  404106:	4603      	mov	r3, r0
  404108:	71fb      	strb	r3, [r7, #7]
  40410a:	4909      	ldr	r1, [pc, #36]	; (404130 <NVIC_DisableIRQ+0x30>)
  40410c:	f997 3007 	ldrsb.w	r3, [r7, #7]
  404110:	095b      	lsrs	r3, r3, #5
  404112:	79fa      	ldrb	r2, [r7, #7]
  404114:	f002 021f 	and.w	r2, r2, #31
  404118:	2001      	movs	r0, #1
  40411a:	fa00 f202 	lsl.w	r2, r0, r2
  40411e:	3320      	adds	r3, #32
  404120:	f841 2023 	str.w	r2, [r1, r3, lsl #2]
  404124:	bf00      	nop
  404126:	370c      	adds	r7, #12
  404128:	46bd      	mov	sp, r7
  40412a:	bc80      	pop	{r7}
  40412c:	4770      	bx	lr
  40412e:	bf00      	nop
  404130:	e000e100 	.word	0xe000e100

00404134 <NVIC_ClearPendingIRQ>:
  404134:	b480      	push	{r7}
  404136:	b083      	sub	sp, #12
  404138:	af00      	add	r7, sp, #0
  40413a:	4603      	mov	r3, r0
  40413c:	71fb      	strb	r3, [r7, #7]
  40413e:	4909      	ldr	r1, [pc, #36]	; (404164 <NVIC_ClearPendingIRQ+0x30>)
  404140:	f997 3007 	ldrsb.w	r3, [r7, #7]
  404144:	095b      	lsrs	r3, r3, #5
  404146:	79fa      	ldrb	r2, [r7, #7]
  404148:	f002 021f 	and.w	r2, r2, #31
  40414c:	2001      	movs	r0, #1
  40414e:	fa00 f202 	lsl.w	r2, r0, r2
  404152:	3360      	adds	r3, #96	; 0x60
  404154:	f841 2023 	str.w	r2, [r1, r3, lsl #2]
  404158:	bf00      	nop
  40415a:	370c      	adds	r7, #12
  40415c:	46bd      	mov	sp, r7
  40415e:	bc80      	pop	{r7}
  404160:	4770      	bx	lr
  404162:	bf00      	nop
  404164:	e000e100 	.word	0xe000e100

00404168 <NVIC_SetPriority>:
  404168:	b480      	push	{r7}
  40416a:	b083      	sub	sp, #12
  40416c:	af00      	add	r7, sp, #0
  40416e:	4603      	mov	r3, r0
  404170:	6039      	str	r1, [r7, #0]
  404172:	71fb      	strb	r3, [r7, #7]
  404174:	f997 3007 	ldrsb.w	r3, [r7, #7]
  404178:	2b00      	cmp	r3, #0
  40417a:	da0b      	bge.n	404194 <NVIC_SetPriority+0x2c>
  40417c:	490d      	ldr	r1, [pc, #52]	; (4041b4 <NVIC_SetPriority+0x4c>)
  40417e:	79fb      	ldrb	r3, [r7, #7]
  404180:	f003 030f 	and.w	r3, r3, #15
  404184:	3b04      	subs	r3, #4
  404186:	683a      	ldr	r2, [r7, #0]
  404188:	b2d2      	uxtb	r2, r2
  40418a:	0112      	lsls	r2, r2, #4
  40418c:	b2d2      	uxtb	r2, r2
  40418e:	440b      	add	r3, r1
  404190:	761a      	strb	r2, [r3, #24]
  404192:	e009      	b.n	4041a8 <NVIC_SetPriority+0x40>
  404194:	4908      	ldr	r1, [pc, #32]	; (4041b8 <NVIC_SetPriority+0x50>)
  404196:	f997 3007 	ldrsb.w	r3, [r7, #7]
  40419a:	683a      	ldr	r2, [r7, #0]
  40419c:	b2d2      	uxtb	r2, r2
  40419e:	0112      	lsls	r2, r2, #4
  4041a0:	b2d2      	uxtb	r2, r2
  4041a2:	440b      	add	r3, r1
  4041a4:	f883 2300 	strb.w	r2, [r3, #768]	; 0x300
  4041a8:	bf00      	nop
  4041aa:	370c      	adds	r7, #12
  4041ac:	46bd      	mov	sp, r7
  4041ae:	bc80      	pop	{r7}
  4041b0:	4770      	bx	lr
  4041b2:	bf00      	nop
  4041b4:	e000ed00 	.word	0xe000ed00
  4041b8:	e000e100 	.word	0xe000e100

004041bc <pio_handler_process>:
  4041bc:	b580      	push	{r7, lr}
  4041be:	b084      	sub	sp, #16
  4041c0:	af00      	add	r7, sp, #0
  4041c2:	6078      	str	r0, [r7, #4]
  4041c4:	6039      	str	r1, [r7, #0]
  4041c6:	6878      	ldr	r0, [r7, #4]
  4041c8:	4b2c      	ldr	r3, [pc, #176]	; (40427c <pio_handler_process+0xc0>)
  4041ca:	4798      	blx	r3
  4041cc:	60f8      	str	r0, [r7, #12]
  4041ce:	6878      	ldr	r0, [r7, #4]
  4041d0:	4b2b      	ldr	r3, [pc, #172]	; (404280 <pio_handler_process+0xc4>)
  4041d2:	4798      	blx	r3
  4041d4:	4602      	mov	r2, r0
  4041d6:	68fb      	ldr	r3, [r7, #12]
  4041d8:	4013      	ands	r3, r2
  4041da:	60fb      	str	r3, [r7, #12]
  4041dc:	68fb      	ldr	r3, [r7, #12]
  4041de:	2b00      	cmp	r3, #0
  4041e0:	d03c      	beq.n	40425c <pio_handler_process+0xa0>
  4041e2:	2300      	movs	r3, #0
  4041e4:	60bb      	str	r3, [r7, #8]
  4041e6:	e034      	b.n	404252 <pio_handler_process+0x96>
  4041e8:	4a26      	ldr	r2, [pc, #152]	; (404284 <pio_handler_process+0xc8>)
  4041ea:	68bb      	ldr	r3, [r7, #8]
  4041ec:	011b      	lsls	r3, r3, #4
  4041ee:	4413      	add	r3, r2
  4041f0:	681a      	ldr	r2, [r3, #0]
  4041f2:	683b      	ldr	r3, [r7, #0]
  4041f4:	429a      	cmp	r2, r3
  4041f6:	d126      	bne.n	404246 <pio_handler_process+0x8a>
  4041f8:	4a22      	ldr	r2, [pc, #136]	; (404284 <pio_handler_process+0xc8>)
  4041fa:	68bb      	ldr	r3, [r7, #8]
  4041fc:	011b      	lsls	r3, r3, #4
  4041fe:	4413      	add	r3, r2
  404200:	3304      	adds	r3, #4
  404202:	681a      	ldr	r2, [r3, #0]
  404204:	68fb      	ldr	r3, [r7, #12]
  404206:	4013      	ands	r3, r2
  404208:	2b00      	cmp	r3, #0
  40420a:	d01c      	beq.n	404246 <pio_handler_process+0x8a>
  40420c:	4a1d      	ldr	r2, [pc, #116]	; (404284 <pio_handler_process+0xc8>)
  40420e:	68bb      	ldr	r3, [r7, #8]
  404210:	011b      	lsls	r3, r3, #4
  404212:	4413      	add	r3, r2
  404214:	330c      	adds	r3, #12
  404216:	681b      	ldr	r3, [r3, #0]
  404218:	491a      	ldr	r1, [pc, #104]	; (404284 <pio_handler_process+0xc8>)
  40421a:	68ba      	ldr	r2, [r7, #8]
  40421c:	0112      	lsls	r2, r2, #4
  40421e:	440a      	add	r2, r1
  404220:	6810      	ldr	r0, [r2, #0]
  404222:	4918      	ldr	r1, [pc, #96]	; (404284 <pio_handler_process+0xc8>)
  404224:	68ba      	ldr	r2, [r7, #8]
  404226:	0112      	lsls	r2, r2, #4
  404228:	440a      	add	r2, r1
  40422a:	3204      	adds	r2, #4
  40422c:	6812      	ldr	r2, [r2, #0]
  40422e:	4611      	mov	r1, r2
  404230:	4798      	blx	r3
  404232:	4a14      	ldr	r2, [pc, #80]	; (404284 <pio_handler_process+0xc8>)
  404234:	68bb      	ldr	r3, [r7, #8]
  404236:	011b      	lsls	r3, r3, #4
  404238:	4413      	add	r3, r2
  40423a:	3304      	adds	r3, #4
  40423c:	681b      	ldr	r3, [r3, #0]
  40423e:	43db      	mvns	r3, r3
  404240:	68fa      	ldr	r2, [r7, #12]
  404242:	4013      	ands	r3, r2
  404244:	60fb      	str	r3, [r7, #12]
  404246:	68bb      	ldr	r3, [r7, #8]
  404248:	3301      	adds	r3, #1
  40424a:	60bb      	str	r3, [r7, #8]
  40424c:	68bb      	ldr	r3, [r7, #8]
  40424e:	2b06      	cmp	r3, #6
  404250:	d803      	bhi.n	40425a <pio_handler_process+0x9e>
  404252:	68fb      	ldr	r3, [r7, #12]
  404254:	2b00      	cmp	r3, #0
  404256:	d1c7      	bne.n	4041e8 <pio_handler_process+0x2c>
  404258:	e000      	b.n	40425c <pio_handler_process+0xa0>
  40425a:	bf00      	nop
  40425c:	4b0a      	ldr	r3, [pc, #40]	; (404288 <pio_handler_process+0xcc>)
  40425e:	681b      	ldr	r3, [r3, #0]
  404260:	2b00      	cmp	r3, #0
  404262:	d007      	beq.n	404274 <pio_handler_process+0xb8>
  404264:	4b09      	ldr	r3, [pc, #36]	; (40428c <pio_handler_process+0xd0>)
  404266:	681b      	ldr	r3, [r3, #0]
  404268:	2b00      	cmp	r3, #0
  40426a:	d003      	beq.n	404274 <pio_handler_process+0xb8>
  40426c:	4b07      	ldr	r3, [pc, #28]	; (40428c <pio_handler_process+0xd0>)
  40426e:	681b      	ldr	r3, [r3, #0]
  404270:	6878      	ldr	r0, [r7, #4]
  404272:	4798      	blx	r3
  404274:	bf00      	nop
  404276:	3710      	adds	r7, #16
  404278:	46bd      	mov	sp, r7
  40427a:	bd80      	pop	{r7, pc}
  40427c:	00403d41 	.word	0x00403d41
  404280:	00403d59 	.word	0x00403d59
  404284:	20000844 	.word	0x20000844
  404288:	20002a14 	.word	0x20002a14
  40428c:	200008b8 	.word	0x200008b8

00404290 <pio_handler_set>:
  404290:	b580      	push	{r7, lr}
  404292:	b086      	sub	sp, #24
  404294:	af00      	add	r7, sp, #0
  404296:	60f8      	str	r0, [r7, #12]
  404298:	60b9      	str	r1, [r7, #8]
  40429a:	607a      	str	r2, [r7, #4]
  40429c:	603b      	str	r3, [r7, #0]
  40429e:	4b21      	ldr	r3, [pc, #132]	; (404324 <pio_handler_set+0x94>)
  4042a0:	681b      	ldr	r3, [r3, #0]
  4042a2:	2b06      	cmp	r3, #6
  4042a4:	d901      	bls.n	4042aa <pio_handler_set+0x1a>
  4042a6:	2301      	movs	r3, #1
  4042a8:	e038      	b.n	40431c <pio_handler_set+0x8c>
  4042aa:	2300      	movs	r3, #0
  4042ac:	75fb      	strb	r3, [r7, #23]
  4042ae:	e011      	b.n	4042d4 <pio_handler_set+0x44>
  4042b0:	7dfb      	ldrb	r3, [r7, #23]
  4042b2:	011b      	lsls	r3, r3, #4
  4042b4:	4a1c      	ldr	r2, [pc, #112]	; (404328 <pio_handler_set+0x98>)
  4042b6:	4413      	add	r3, r2
  4042b8:	613b      	str	r3, [r7, #16]
  4042ba:	693b      	ldr	r3, [r7, #16]
  4042bc:	681a      	ldr	r2, [r3, #0]
  4042be:	68bb      	ldr	r3, [r7, #8]
  4042c0:	429a      	cmp	r2, r3
  4042c2:	d104      	bne.n	4042ce <pio_handler_set+0x3e>
  4042c4:	693b      	ldr	r3, [r7, #16]
  4042c6:	685a      	ldr	r2, [r3, #4]
  4042c8:	687b      	ldr	r3, [r7, #4]
  4042ca:	429a      	cmp	r2, r3
  4042cc:	d008      	beq.n	4042e0 <pio_handler_set+0x50>
  4042ce:	7dfb      	ldrb	r3, [r7, #23]
  4042d0:	3301      	adds	r3, #1
  4042d2:	75fb      	strb	r3, [r7, #23]
  4042d4:	7dfa      	ldrb	r2, [r7, #23]
  4042d6:	4b13      	ldr	r3, [pc, #76]	; (404324 <pio_handler_set+0x94>)
  4042d8:	681b      	ldr	r3, [r3, #0]
  4042da:	429a      	cmp	r2, r3
  4042dc:	d9e8      	bls.n	4042b0 <pio_handler_set+0x20>
  4042de:	e000      	b.n	4042e2 <pio_handler_set+0x52>
  4042e0:	bf00      	nop
  4042e2:	693b      	ldr	r3, [r7, #16]
  4042e4:	68ba      	ldr	r2, [r7, #8]
  4042e6:	601a      	str	r2, [r3, #0]
  4042e8:	693b      	ldr	r3, [r7, #16]
  4042ea:	687a      	ldr	r2, [r7, #4]
  4042ec:	605a      	str	r2, [r3, #4]
  4042ee:	693b      	ldr	r3, [r7, #16]
  4042f0:	683a      	ldr	r2, [r7, #0]
  4042f2:	609a      	str	r2, [r3, #8]
  4042f4:	693b      	ldr	r3, [r7, #16]
  4042f6:	6a3a      	ldr	r2, [r7, #32]
  4042f8:	60da      	str	r2, [r3, #12]
  4042fa:	7dfa      	ldrb	r2, [r7, #23]
  4042fc:	4b09      	ldr	r3, [pc, #36]	; (404324 <pio_handler_set+0x94>)
  4042fe:	681b      	ldr	r3, [r3, #0]
  404300:	3301      	adds	r3, #1
  404302:	429a      	cmp	r2, r3
  404304:	d104      	bne.n	404310 <pio_handler_set+0x80>
  404306:	4b07      	ldr	r3, [pc, #28]	; (404324 <pio_handler_set+0x94>)
  404308:	681b      	ldr	r3, [r3, #0]
  40430a:	3301      	adds	r3, #1
  40430c:	4a05      	ldr	r2, [pc, #20]	; (404324 <pio_handler_set+0x94>)
  40430e:	6013      	str	r3, [r2, #0]
  404310:	683a      	ldr	r2, [r7, #0]
  404312:	6879      	ldr	r1, [r7, #4]
  404314:	68f8      	ldr	r0, [r7, #12]
  404316:	4b05      	ldr	r3, [pc, #20]	; (40432c <pio_handler_set+0x9c>)
  404318:	4798      	blx	r3
  40431a:	2300      	movs	r3, #0
  40431c:	4618      	mov	r0, r3
  40431e:	3718      	adds	r7, #24
  404320:	46bd      	mov	sp, r7
  404322:	bd80      	pop	{r7, pc}
  404324:	200008b4 	.word	0x200008b4
  404328:	20000844 	.word	0x20000844
  40432c:	00403c9d 	.word	0x00403c9d

00404330 <PIOA_Handler>:
  404330:	b580      	push	{r7, lr}
  404332:	af00      	add	r7, sp, #0
  404334:	210b      	movs	r1, #11
  404336:	4802      	ldr	r0, [pc, #8]	; (404340 <PIOA_Handler+0x10>)
  404338:	4b02      	ldr	r3, [pc, #8]	; (404344 <PIOA_Handler+0x14>)
  40433a:	4798      	blx	r3
  40433c:	bf00      	nop
  40433e:	bd80      	pop	{r7, pc}
  404340:	400e0e00 	.word	0x400e0e00
  404344:	004041bd 	.word	0x004041bd

00404348 <PIOB_Handler>:
  404348:	b580      	push	{r7, lr}
  40434a:	af00      	add	r7, sp, #0
  40434c:	210c      	movs	r1, #12
  40434e:	4802      	ldr	r0, [pc, #8]	; (404358 <PIOB_Handler+0x10>)
  404350:	4b02      	ldr	r3, [pc, #8]	; (40435c <PIOB_Handler+0x14>)
  404352:	4798      	blx	r3
  404354:	bf00      	nop
  404356:	bd80      	pop	{r7, pc}
  404358:	400e1000 	.word	0x400e1000
  40435c:	004041bd 	.word	0x004041bd

00404360 <pio_handler_set_priority>:
  404360:	b580      	push	{r7, lr}
  404362:	b086      	sub	sp, #24
  404364:	af00      	add	r7, sp, #0
  404366:	60f8      	str	r0, [r7, #12]
  404368:	460b      	mov	r3, r1
  40436a:	607a      	str	r2, [r7, #4]
  40436c:	72fb      	strb	r3, [r7, #11]
  40436e:	2300      	movs	r3, #0
  404370:	617b      	str	r3, [r7, #20]
  404372:	68f8      	ldr	r0, [r7, #12]
  404374:	4b13      	ldr	r3, [pc, #76]	; (4043c4 <pio_handler_set_priority+0x64>)
  404376:	4798      	blx	r3
  404378:	6178      	str	r0, [r7, #20]
  40437a:	f04f 31ff 	mov.w	r1, #4294967295
  40437e:	68f8      	ldr	r0, [r7, #12]
  404380:	4b11      	ldr	r3, [pc, #68]	; (4043c8 <pio_handler_set_priority+0x68>)
  404382:	4798      	blx	r3
  404384:	68f8      	ldr	r0, [r7, #12]
  404386:	4b11      	ldr	r3, [pc, #68]	; (4043cc <pio_handler_set_priority+0x6c>)
  404388:	4798      	blx	r3
  40438a:	f997 300b 	ldrsb.w	r3, [r7, #11]
  40438e:	4618      	mov	r0, r3
  404390:	4b0f      	ldr	r3, [pc, #60]	; (4043d0 <pio_handler_set_priority+0x70>)
  404392:	4798      	blx	r3
  404394:	f997 300b 	ldrsb.w	r3, [r7, #11]
  404398:	4618      	mov	r0, r3
  40439a:	4b0e      	ldr	r3, [pc, #56]	; (4043d4 <pio_handler_set_priority+0x74>)
  40439c:	4798      	blx	r3
  40439e:	f997 300b 	ldrsb.w	r3, [r7, #11]
  4043a2:	6879      	ldr	r1, [r7, #4]
  4043a4:	4618      	mov	r0, r3
  4043a6:	4b0c      	ldr	r3, [pc, #48]	; (4043d8 <pio_handler_set_priority+0x78>)
  4043a8:	4798      	blx	r3
  4043aa:	f997 300b 	ldrsb.w	r3, [r7, #11]
  4043ae:	4618      	mov	r0, r3
  4043b0:	4b0a      	ldr	r3, [pc, #40]	; (4043dc <pio_handler_set_priority+0x7c>)
  4043b2:	4798      	blx	r3
  4043b4:	6979      	ldr	r1, [r7, #20]
  4043b6:	68f8      	ldr	r0, [r7, #12]
  4043b8:	4b09      	ldr	r3, [pc, #36]	; (4043e0 <pio_handler_set_priority+0x80>)
  4043ba:	4798      	blx	r3
  4043bc:	bf00      	nop
  4043be:	3718      	adds	r7, #24
  4043c0:	46bd      	mov	sp, r7
  4043c2:	bd80      	pop	{r7, pc}
  4043c4:	00403d59 	.word	0x00403d59
  4043c8:	00403d25 	.word	0x00403d25
  4043cc:	00403d41 	.word	0x00403d41
  4043d0:	00404101 	.word	0x00404101
  4043d4:	00404135 	.word	0x00404135
  4043d8:	00404169 	.word	0x00404169
  4043dc:	004040d1 	.word	0x004040d1
  4043e0:	00403d09 	.word	0x00403d09

004043e4 <pmc_switch_mck_to_pllack>:
  4043e4:	b480      	push	{r7}
  4043e6:	b085      	sub	sp, #20
  4043e8:	af00      	add	r7, sp, #0
  4043ea:	6078      	str	r0, [r7, #4]
  4043ec:	491c      	ldr	r1, [pc, #112]	; (404460 <pmc_switch_mck_to_pllack+0x7c>)
  4043ee:	4b1c      	ldr	r3, [pc, #112]	; (404460 <pmc_switch_mck_to_pllack+0x7c>)
  4043f0:	6b1b      	ldr	r3, [r3, #48]	; 0x30
  4043f2:	f023 0270 	bic.w	r2, r3, #112	; 0x70
  4043f6:	687b      	ldr	r3, [r7, #4]
  4043f8:	4313      	orrs	r3, r2
  4043fa:	630b      	str	r3, [r1, #48]	; 0x30
  4043fc:	f44f 6300 	mov.w	r3, #2048	; 0x800
  404400:	60fb      	str	r3, [r7, #12]
  404402:	e007      	b.n	404414 <pmc_switch_mck_to_pllack+0x30>
  404404:	68fb      	ldr	r3, [r7, #12]
  404406:	2b00      	cmp	r3, #0
  404408:	d101      	bne.n	40440e <pmc_switch_mck_to_pllack+0x2a>
  40440a:	2301      	movs	r3, #1
  40440c:	e023      	b.n	404456 <pmc_switch_mck_to_pllack+0x72>
  40440e:	68fb      	ldr	r3, [r7, #12]
  404410:	3b01      	subs	r3, #1
  404412:	60fb      	str	r3, [r7, #12]
  404414:	4b12      	ldr	r3, [pc, #72]	; (404460 <pmc_switch_mck_to_pllack+0x7c>)
  404416:	6e9b      	ldr	r3, [r3, #104]	; 0x68
  404418:	f003 0308 	and.w	r3, r3, #8
  40441c:	2b00      	cmp	r3, #0
  40441e:	d0f1      	beq.n	404404 <pmc_switch_mck_to_pllack+0x20>
  404420:	4a0f      	ldr	r2, [pc, #60]	; (404460 <pmc_switch_mck_to_pllack+0x7c>)
  404422:	4b0f      	ldr	r3, [pc, #60]	; (404460 <pmc_switch_mck_to_pllack+0x7c>)
  404424:	6b1b      	ldr	r3, [r3, #48]	; 0x30
  404426:	f023 0303 	bic.w	r3, r3, #3
  40442a:	f043 0302 	orr.w	r3, r3, #2
  40442e:	6313      	str	r3, [r2, #48]	; 0x30
  404430:	f44f 6300 	mov.w	r3, #2048	; 0x800
  404434:	60fb      	str	r3, [r7, #12]
  404436:	e007      	b.n	404448 <pmc_switch_mck_to_pllack+0x64>
  404438:	68fb      	ldr	r3, [r7, #12]
  40443a:	2b00      	cmp	r3, #0
  40443c:	d101      	bne.n	404442 <pmc_switch_mck_to_pllack+0x5e>
  40443e:	2301      	movs	r3, #1
  404440:	e009      	b.n	404456 <pmc_switch_mck_to_pllack+0x72>
  404442:	68fb      	ldr	r3, [r7, #12]
  404444:	3b01      	subs	r3, #1
  404446:	60fb      	str	r3, [r7, #12]
  404448:	4b05      	ldr	r3, [pc, #20]	; (404460 <pmc_switch_mck_to_pllack+0x7c>)
  40444a:	6e9b      	ldr	r3, [r3, #104]	; 0x68
  40444c:	f003 0308 	and.w	r3, r3, #8
  404450:	2b00      	cmp	r3, #0
  404452:	d0f1      	beq.n	404438 <pmc_switch_mck_to_pllack+0x54>
  404454:	2300      	movs	r3, #0
  404456:	4618      	mov	r0, r3
  404458:	3714      	adds	r7, #20
  40445a:	46bd      	mov	sp, r7
  40445c:	bc80      	pop	{r7}
  40445e:	4770      	bx	lr
  404460:	400e0400 	.word	0x400e0400

00404464 <pmc_switch_sclk_to_32kxtal>:
  404464:	b480      	push	{r7}
  404466:	b083      	sub	sp, #12
  404468:	af00      	add	r7, sp, #0
  40446a:	6078      	str	r0, [r7, #4]
  40446c:	687b      	ldr	r3, [r7, #4]
  40446e:	2b01      	cmp	r3, #1
  404470:	d107      	bne.n	404482 <pmc_switch_sclk_to_32kxtal+0x1e>
  404472:	4a08      	ldr	r2, [pc, #32]	; (404494 <pmc_switch_sclk_to_32kxtal+0x30>)
  404474:	4b07      	ldr	r3, [pc, #28]	; (404494 <pmc_switch_sclk_to_32kxtal+0x30>)
  404476:	689b      	ldr	r3, [r3, #8]
  404478:	f043 4325 	orr.w	r3, r3, #2768240640	; 0xa5000000
  40447c:	f443 1380 	orr.w	r3, r3, #1048576	; 0x100000
  404480:	6093      	str	r3, [r2, #8]
  404482:	4b04      	ldr	r3, [pc, #16]	; (404494 <pmc_switch_sclk_to_32kxtal+0x30>)
  404484:	4a04      	ldr	r2, [pc, #16]	; (404498 <pmc_switch_sclk_to_32kxtal+0x34>)
  404486:	601a      	str	r2, [r3, #0]
  404488:	bf00      	nop
  40448a:	370c      	adds	r7, #12
  40448c:	46bd      	mov	sp, r7
  40448e:	bc80      	pop	{r7}
  404490:	4770      	bx	lr
  404492:	bf00      	nop
  404494:	400e1410 	.word	0x400e1410
  404498:	a5000008 	.word	0xa5000008

0040449c <pmc_osc_is_ready_32kxtal>:
  40449c:	b480      	push	{r7}
  40449e:	af00      	add	r7, sp, #0
  4044a0:	4b09      	ldr	r3, [pc, #36]	; (4044c8 <pmc_osc_is_ready_32kxtal+0x2c>)
  4044a2:	695b      	ldr	r3, [r3, #20]
  4044a4:	f003 0380 	and.w	r3, r3, #128	; 0x80
  4044a8:	2b00      	cmp	r3, #0
  4044aa:	d007      	beq.n	4044bc <pmc_osc_is_ready_32kxtal+0x20>
  4044ac:	4b07      	ldr	r3, [pc, #28]	; (4044cc <pmc_osc_is_ready_32kxtal+0x30>)
  4044ae:	6e9b      	ldr	r3, [r3, #104]	; 0x68
  4044b0:	f003 0380 	and.w	r3, r3, #128	; 0x80
  4044b4:	2b00      	cmp	r3, #0
  4044b6:	d001      	beq.n	4044bc <pmc_osc_is_ready_32kxtal+0x20>
  4044b8:	2301      	movs	r3, #1
  4044ba:	e000      	b.n	4044be <pmc_osc_is_ready_32kxtal+0x22>
  4044bc:	2300      	movs	r3, #0
  4044be:	4618      	mov	r0, r3
  4044c0:	46bd      	mov	sp, r7
  4044c2:	bc80      	pop	{r7}
  4044c4:	4770      	bx	lr
  4044c6:	bf00      	nop
  4044c8:	400e1410 	.word	0x400e1410
  4044cc:	400e0400 	.word	0x400e0400

004044d0 <pmc_switch_mainck_to_fastrc>:
  4044d0:	b480      	push	{r7}
  4044d2:	b083      	sub	sp, #12
  4044d4:	af00      	add	r7, sp, #0
  4044d6:	6078      	str	r0, [r7, #4]
  4044d8:	4a18      	ldr	r2, [pc, #96]	; (40453c <pmc_switch_mainck_to_fastrc+0x6c>)
  4044da:	4b18      	ldr	r3, [pc, #96]	; (40453c <pmc_switch_mainck_to_fastrc+0x6c>)
  4044dc:	6a1b      	ldr	r3, [r3, #32]
  4044de:	f443 135c 	orr.w	r3, r3, #3604480	; 0x370000
  4044e2:	f043 0308 	orr.w	r3, r3, #8
  4044e6:	6213      	str	r3, [r2, #32]
  4044e8:	bf00      	nop
  4044ea:	4b14      	ldr	r3, [pc, #80]	; (40453c <pmc_switch_mainck_to_fastrc+0x6c>)
  4044ec:	6e9b      	ldr	r3, [r3, #104]	; 0x68
  4044ee:	f403 3300 	and.w	r3, r3, #131072	; 0x20000
  4044f2:	2b00      	cmp	r3, #0
  4044f4:	d0f9      	beq.n	4044ea <pmc_switch_mainck_to_fastrc+0x1a>
  4044f6:	4911      	ldr	r1, [pc, #68]	; (40453c <pmc_switch_mainck_to_fastrc+0x6c>)
  4044f8:	4b10      	ldr	r3, [pc, #64]	; (40453c <pmc_switch_mainck_to_fastrc+0x6c>)
  4044fa:	6a1b      	ldr	r3, [r3, #32]
  4044fc:	f423 135c 	bic.w	r3, r3, #3604480	; 0x370000
  404500:	f023 0370 	bic.w	r3, r3, #112	; 0x70
  404504:	687a      	ldr	r2, [r7, #4]
  404506:	4313      	orrs	r3, r2
  404508:	f443 135c 	orr.w	r3, r3, #3604480	; 0x370000
  40450c:	620b      	str	r3, [r1, #32]
  40450e:	bf00      	nop
  404510:	4b0a      	ldr	r3, [pc, #40]	; (40453c <pmc_switch_mainck_to_fastrc+0x6c>)
  404512:	6e9b      	ldr	r3, [r3, #104]	; 0x68
  404514:	f403 3300 	and.w	r3, r3, #131072	; 0x20000
  404518:	2b00      	cmp	r3, #0
  40451a:	d0f9      	beq.n	404510 <pmc_switch_mainck_to_fastrc+0x40>
  40451c:	4a07      	ldr	r2, [pc, #28]	; (40453c <pmc_switch_mainck_to_fastrc+0x6c>)
  40451e:	4b07      	ldr	r3, [pc, #28]	; (40453c <pmc_switch_mainck_to_fastrc+0x6c>)
  404520:	6a1b      	ldr	r3, [r3, #32]
  404522:	f023 739b 	bic.w	r3, r3, #20316160	; 0x1360000
  404526:	f423 3380 	bic.w	r3, r3, #65536	; 0x10000
  40452a:	f443 135c 	orr.w	r3, r3, #3604480	; 0x370000
  40452e:	6213      	str	r3, [r2, #32]
  404530:	bf00      	nop
  404532:	370c      	adds	r7, #12
  404534:	46bd      	mov	sp, r7
  404536:	bc80      	pop	{r7}
  404538:	4770      	bx	lr
  40453a:	bf00      	nop
  40453c:	400e0400 	.word	0x400e0400

00404540 <pmc_switch_mainck_to_xtal>:
  404540:	b480      	push	{r7}
  404542:	b083      	sub	sp, #12
  404544:	af00      	add	r7, sp, #0
  404546:	6078      	str	r0, [r7, #4]
  404548:	6039      	str	r1, [r7, #0]
  40454a:	687b      	ldr	r3, [r7, #4]
  40454c:	2b00      	cmp	r3, #0
  40454e:	d008      	beq.n	404562 <pmc_switch_mainck_to_xtal+0x22>
  404550:	4916      	ldr	r1, [pc, #88]	; (4045ac <pmc_switch_mainck_to_xtal+0x6c>)
  404552:	4b16      	ldr	r3, [pc, #88]	; (4045ac <pmc_switch_mainck_to_xtal+0x6c>)
  404554:	6a1b      	ldr	r3, [r3, #32]
  404556:	4a16      	ldr	r2, [pc, #88]	; (4045b0 <pmc_switch_mainck_to_xtal+0x70>)
  404558:	401a      	ands	r2, r3
  40455a:	4b16      	ldr	r3, [pc, #88]	; (4045b4 <pmc_switch_mainck_to_xtal+0x74>)
  40455c:	4313      	orrs	r3, r2
  40455e:	620b      	str	r3, [r1, #32]
  404560:	e01e      	b.n	4045a0 <pmc_switch_mainck_to_xtal+0x60>
  404562:	4912      	ldr	r1, [pc, #72]	; (4045ac <pmc_switch_mainck_to_xtal+0x6c>)
  404564:	4b11      	ldr	r3, [pc, #68]	; (4045ac <pmc_switch_mainck_to_xtal+0x6c>)
  404566:	6a1b      	ldr	r3, [r3, #32]
  404568:	f423 135c 	bic.w	r3, r3, #3604480	; 0x370000
  40456c:	f023 0303 	bic.w	r3, r3, #3
  404570:	683a      	ldr	r2, [r7, #0]
  404572:	0212      	lsls	r2, r2, #8
  404574:	b292      	uxth	r2, r2
  404576:	4313      	orrs	r3, r2
  404578:	f443 135c 	orr.w	r3, r3, #3604480	; 0x370000
  40457c:	f043 0301 	orr.w	r3, r3, #1
  404580:	620b      	str	r3, [r1, #32]
  404582:	bf00      	nop
  404584:	4b09      	ldr	r3, [pc, #36]	; (4045ac <pmc_switch_mainck_to_xtal+0x6c>)
  404586:	6e9b      	ldr	r3, [r3, #104]	; 0x68
  404588:	f003 0301 	and.w	r3, r3, #1
  40458c:	2b00      	cmp	r3, #0
  40458e:	d0f9      	beq.n	404584 <pmc_switch_mainck_to_xtal+0x44>
  404590:	4a06      	ldr	r2, [pc, #24]	; (4045ac <pmc_switch_mainck_to_xtal+0x6c>)
  404592:	4b06      	ldr	r3, [pc, #24]	; (4045ac <pmc_switch_mainck_to_xtal+0x6c>)
  404594:	6a1b      	ldr	r3, [r3, #32]
  404596:	f043 739b 	orr.w	r3, r3, #20316160	; 0x1360000
  40459a:	f443 3380 	orr.w	r3, r3, #65536	; 0x10000
  40459e:	6213      	str	r3, [r2, #32]
  4045a0:	bf00      	nop
  4045a2:	370c      	adds	r7, #12
  4045a4:	46bd      	mov	sp, r7
  4045a6:	bc80      	pop	{r7}
  4045a8:	4770      	bx	lr
  4045aa:	bf00      	nop
  4045ac:	400e0400 	.word	0x400e0400
  4045b0:	fec8fffc 	.word	0xfec8fffc
  4045b4:	01370002 	.word	0x01370002

004045b8 <pmc_osc_is_ready_mainck>:
  4045b8:	b480      	push	{r7}
  4045ba:	af00      	add	r7, sp, #0
  4045bc:	4b03      	ldr	r3, [pc, #12]	; (4045cc <pmc_osc_is_ready_mainck+0x14>)
  4045be:	6e9b      	ldr	r3, [r3, #104]	; 0x68
  4045c0:	f403 3380 	and.w	r3, r3, #65536	; 0x10000
  4045c4:	4618      	mov	r0, r3
  4045c6:	46bd      	mov	sp, r7
  4045c8:	bc80      	pop	{r7}
  4045ca:	4770      	bx	lr
  4045cc:	400e0400 	.word	0x400e0400

004045d0 <pmc_disable_pllack>:
  4045d0:	b480      	push	{r7}
  4045d2:	af00      	add	r7, sp, #0
  4045d4:	4b03      	ldr	r3, [pc, #12]	; (4045e4 <pmc_disable_pllack+0x14>)
  4045d6:	f04f 5200 	mov.w	r2, #536870912	; 0x20000000
  4045da:	629a      	str	r2, [r3, #40]	; 0x28
  4045dc:	bf00      	nop
  4045de:	46bd      	mov	sp, r7
  4045e0:	bc80      	pop	{r7}
  4045e2:	4770      	bx	lr
  4045e4:	400e0400 	.word	0x400e0400

004045e8 <pmc_is_locked_pllack>:
  4045e8:	b480      	push	{r7}
  4045ea:	af00      	add	r7, sp, #0
  4045ec:	4b03      	ldr	r3, [pc, #12]	; (4045fc <pmc_is_locked_pllack+0x14>)
  4045ee:	6e9b      	ldr	r3, [r3, #104]	; 0x68
  4045f0:	f003 0302 	and.w	r3, r3, #2
  4045f4:	4618      	mov	r0, r3
  4045f6:	46bd      	mov	sp, r7
  4045f8:	bc80      	pop	{r7}
  4045fa:	4770      	bx	lr
  4045fc:	400e0400 	.word	0x400e0400

00404600 <pmc_disable_pllbck>:
  404600:	b480      	push	{r7}
  404602:	af00      	add	r7, sp, #0
  404604:	4b03      	ldr	r3, [pc, #12]	; (404614 <pmc_disable_pllbck+0x14>)
  404606:	2200      	movs	r2, #0
  404608:	62da      	str	r2, [r3, #44]	; 0x2c
  40460a:	bf00      	nop
  40460c:	46bd      	mov	sp, r7
  40460e:	bc80      	pop	{r7}
  404610:	4770      	bx	lr
  404612:	bf00      	nop
  404614:	400e0400 	.word	0x400e0400

00404618 <pmc_is_locked_pllbck>:
  404618:	b480      	push	{r7}
  40461a:	af00      	add	r7, sp, #0
  40461c:	4b03      	ldr	r3, [pc, #12]	; (40462c <pmc_is_locked_pllbck+0x14>)
  40461e:	6e9b      	ldr	r3, [r3, #104]	; 0x68
  404620:	f003 0304 	and.w	r3, r3, #4
  404624:	4618      	mov	r0, r3
  404626:	46bd      	mov	sp, r7
  404628:	bc80      	pop	{r7}
  40462a:	4770      	bx	lr
  40462c:	400e0400 	.word	0x400e0400

00404630 <pmc_enable_periph_clk>:
  404630:	b480      	push	{r7}
  404632:	b083      	sub	sp, #12
  404634:	af00      	add	r7, sp, #0
  404636:	6078      	str	r0, [r7, #4]
  404638:	687b      	ldr	r3, [r7, #4]
  40463a:	2b22      	cmp	r3, #34	; 0x22
  40463c:	d901      	bls.n	404642 <pmc_enable_periph_clk+0x12>
  40463e:	2301      	movs	r3, #1
  404640:	e02f      	b.n	4046a2 <pmc_enable_periph_clk+0x72>
  404642:	687b      	ldr	r3, [r7, #4]
  404644:	2b1f      	cmp	r3, #31
  404646:	d813      	bhi.n	404670 <pmc_enable_periph_clk+0x40>
  404648:	4b18      	ldr	r3, [pc, #96]	; (4046ac <pmc_enable_periph_clk+0x7c>)
  40464a:	699a      	ldr	r2, [r3, #24]
  40464c:	2101      	movs	r1, #1
  40464e:	687b      	ldr	r3, [r7, #4]
  404650:	fa01 f303 	lsl.w	r3, r1, r3
  404654:	401a      	ands	r2, r3
  404656:	2101      	movs	r1, #1
  404658:	687b      	ldr	r3, [r7, #4]
  40465a:	fa01 f303 	lsl.w	r3, r1, r3
  40465e:	429a      	cmp	r2, r3
  404660:	d01e      	beq.n	4046a0 <pmc_enable_periph_clk+0x70>
  404662:	4a12      	ldr	r2, [pc, #72]	; (4046ac <pmc_enable_periph_clk+0x7c>)
  404664:	2101      	movs	r1, #1
  404666:	687b      	ldr	r3, [r7, #4]
  404668:	fa01 f303 	lsl.w	r3, r1, r3
  40466c:	6113      	str	r3, [r2, #16]
  40466e:	e017      	b.n	4046a0 <pmc_enable_periph_clk+0x70>
  404670:	687b      	ldr	r3, [r7, #4]
  404672:	3b20      	subs	r3, #32
  404674:	607b      	str	r3, [r7, #4]
  404676:	4b0d      	ldr	r3, [pc, #52]	; (4046ac <pmc_enable_periph_clk+0x7c>)
  404678:	f8d3 2108 	ldr.w	r2, [r3, #264]	; 0x108
  40467c:	2101      	movs	r1, #1
  40467e:	687b      	ldr	r3, [r7, #4]
  404680:	fa01 f303 	lsl.w	r3, r1, r3
  404684:	401a      	ands	r2, r3
  404686:	2101      	movs	r1, #1
  404688:	687b      	ldr	r3, [r7, #4]
  40468a:	fa01 f303 	lsl.w	r3, r1, r3
  40468e:	429a      	cmp	r2, r3
  404690:	d006      	beq.n	4046a0 <pmc_enable_periph_clk+0x70>
  404692:	4a06      	ldr	r2, [pc, #24]	; (4046ac <pmc_enable_periph_clk+0x7c>)
  404694:	2101      	movs	r1, #1
  404696:	687b      	ldr	r3, [r7, #4]
  404698:	fa01 f303 	lsl.w	r3, r1, r3
  40469c:	f8c2 3100 	str.w	r3, [r2, #256]	; 0x100
  4046a0:	2300      	movs	r3, #0
  4046a2:	4618      	mov	r0, r3
  4046a4:	370c      	adds	r7, #12
  4046a6:	46bd      	mov	sp, r7
  4046a8:	bc80      	pop	{r7}
  4046aa:	4770      	bx	lr
  4046ac:	400e0400 	.word	0x400e0400

004046b0 <Reset_Handler>:
  4046b0:	b580      	push	{r7, lr}
  4046b2:	b084      	sub	sp, #16
  4046b4:	af00      	add	r7, sp, #0
  4046b6:	4b27      	ldr	r3, [pc, #156]	; (404754 <Reset_Handler+0xa4>)
  4046b8:	60fb      	str	r3, [r7, #12]
  4046ba:	4b27      	ldr	r3, [pc, #156]	; (404758 <Reset_Handler+0xa8>)
  4046bc:	60bb      	str	r3, [r7, #8]
  4046be:	68fa      	ldr	r2, [r7, #12]
  4046c0:	68bb      	ldr	r3, [r7, #8]
  4046c2:	429a      	cmp	r2, r3
  4046c4:	d90d      	bls.n	4046e2 <Reset_Handler+0x32>
  4046c6:	e007      	b.n	4046d8 <Reset_Handler+0x28>
  4046c8:	68bb      	ldr	r3, [r7, #8]
  4046ca:	1d1a      	adds	r2, r3, #4
  4046cc:	60ba      	str	r2, [r7, #8]
  4046ce:	68fa      	ldr	r2, [r7, #12]
  4046d0:	1d11      	adds	r1, r2, #4
  4046d2:	60f9      	str	r1, [r7, #12]
  4046d4:	6812      	ldr	r2, [r2, #0]
  4046d6:	601a      	str	r2, [r3, #0]
  4046d8:	68bb      	ldr	r3, [r7, #8]
  4046da:	4a20      	ldr	r2, [pc, #128]	; (40475c <Reset_Handler+0xac>)
  4046dc:	4293      	cmp	r3, r2
  4046de:	d3f3      	bcc.n	4046c8 <Reset_Handler+0x18>
  4046e0:	e020      	b.n	404724 <Reset_Handler+0x74>
  4046e2:	68fa      	ldr	r2, [r7, #12]
  4046e4:	68bb      	ldr	r3, [r7, #8]
  4046e6:	429a      	cmp	r2, r3
  4046e8:	d21c      	bcs.n	404724 <Reset_Handler+0x74>
  4046ea:	4a1c      	ldr	r2, [pc, #112]	; (40475c <Reset_Handler+0xac>)
  4046ec:	4b1a      	ldr	r3, [pc, #104]	; (404758 <Reset_Handler+0xa8>)
  4046ee:	1ad3      	subs	r3, r2, r3
  4046f0:	607b      	str	r3, [r7, #4]
  4046f2:	68fa      	ldr	r2, [r7, #12]
  4046f4:	687b      	ldr	r3, [r7, #4]
  4046f6:	4413      	add	r3, r2
  4046f8:	3b04      	subs	r3, #4
  4046fa:	60fb      	str	r3, [r7, #12]
  4046fc:	68ba      	ldr	r2, [r7, #8]
  4046fe:	687b      	ldr	r3, [r7, #4]
  404700:	4413      	add	r3, r2
  404702:	3b04      	subs	r3, #4
  404704:	60bb      	str	r3, [r7, #8]
  404706:	e00a      	b.n	40471e <Reset_Handler+0x6e>
  404708:	68bb      	ldr	r3, [r7, #8]
  40470a:	1f1a      	subs	r2, r3, #4
  40470c:	60ba      	str	r2, [r7, #8]
  40470e:	68fa      	ldr	r2, [r7, #12]
  404710:	1f11      	subs	r1, r2, #4
  404712:	60f9      	str	r1, [r7, #12]
  404714:	6812      	ldr	r2, [r2, #0]
  404716:	601a      	str	r2, [r3, #0]
  404718:	687b      	ldr	r3, [r7, #4]
  40471a:	3b04      	subs	r3, #4
  40471c:	607b      	str	r3, [r7, #4]
  40471e:	687b      	ldr	r3, [r7, #4]
  404720:	2b00      	cmp	r3, #0
  404722:	d1f1      	bne.n	404708 <Reset_Handler+0x58>
  404724:	bf00      	nop
  404726:	4b0e      	ldr	r3, [pc, #56]	; (404760 <Reset_Handler+0xb0>)
  404728:	60bb      	str	r3, [r7, #8]
  40472a:	e004      	b.n	404736 <Reset_Handler+0x86>
  40472c:	68bb      	ldr	r3, [r7, #8]
  40472e:	1d1a      	adds	r2, r3, #4
  404730:	60ba      	str	r2, [r7, #8]
  404732:	2200      	movs	r2, #0
  404734:	601a      	str	r2, [r3, #0]
  404736:	68bb      	ldr	r3, [r7, #8]
  404738:	4a0a      	ldr	r2, [pc, #40]	; (404764 <Reset_Handler+0xb4>)
  40473a:	4293      	cmp	r3, r2
  40473c:	d3f6      	bcc.n	40472c <Reset_Handler+0x7c>
  40473e:	4b0a      	ldr	r3, [pc, #40]	; (404768 <Reset_Handler+0xb8>)
  404740:	60fb      	str	r3, [r7, #12]
  404742:	4a0a      	ldr	r2, [pc, #40]	; (40476c <Reset_Handler+0xbc>)
  404744:	68fb      	ldr	r3, [r7, #12]
  404746:	6093      	str	r3, [r2, #8]
  404748:	4b09      	ldr	r3, [pc, #36]	; (404770 <Reset_Handler+0xc0>)
  40474a:	4798      	blx	r3
  40474c:	4b09      	ldr	r3, [pc, #36]	; (404774 <Reset_Handler+0xc4>)
  40474e:	4798      	blx	r3
  404750:	e7fe      	b.n	404750 <Reset_Handler+0xa0>
  404752:	bf00      	nop
  404754:	0040b3a4 	.word	0x0040b3a4
  404758:	20000000 	.word	0x20000000
  40475c:	2000055c 	.word	0x2000055c
  404760:	20000560 	.word	0x20000560
  404764:	20002a18 	.word	0x20002a18
  404768:	00400000 	.word	0x00400000
  40476c:	e000ed00 	.word	0xe000ed00
  404770:	0040ad4d 	.word	0x0040ad4d
  404774:	00406fbd 	.word	0x00406fbd

00404778 <Dummy_Handler>:
  404778:	b480      	push	{r7}
  40477a:	af00      	add	r7, sp, #0
  40477c:	e7fe      	b.n	40477c <Dummy_Handler+0x4>
  40477e:	bf00      	nop

00404780 <SystemCoreClockUpdate>:
  404780:	b480      	push	{r7}
  404782:	af00      	add	r7, sp, #0
  404784:	4b5d      	ldr	r3, [pc, #372]	; (4048fc <SystemCoreClockUpdate+0x17c>)
  404786:	6b1b      	ldr	r3, [r3, #48]	; 0x30
  404788:	f003 0303 	and.w	r3, r3, #3
  40478c:	2b03      	cmp	r3, #3
  40478e:	f200 8096 	bhi.w	4048be <SystemCoreClockUpdate+0x13e>
  404792:	a201      	add	r2, pc, #4	; (adr r2, 404798 <SystemCoreClockUpdate+0x18>)
  404794:	f852 f023 	ldr.w	pc, [r2, r3, lsl #2]
  404798:	004047a9 	.word	0x004047a9
  40479c:	004047c9 	.word	0x004047c9
  4047a0:	00404813 	.word	0x00404813
  4047a4:	00404813 	.word	0x00404813
  4047a8:	4b55      	ldr	r3, [pc, #340]	; (404900 <SystemCoreClockUpdate+0x180>)
  4047aa:	695b      	ldr	r3, [r3, #20]
  4047ac:	f003 0380 	and.w	r3, r3, #128	; 0x80
  4047b0:	2b00      	cmp	r3, #0
  4047b2:	d004      	beq.n	4047be <SystemCoreClockUpdate+0x3e>
  4047b4:	4b53      	ldr	r3, [pc, #332]	; (404904 <SystemCoreClockUpdate+0x184>)
  4047b6:	f44f 4200 	mov.w	r2, #32768	; 0x8000
  4047ba:	601a      	str	r2, [r3, #0]
  4047bc:	e080      	b.n	4048c0 <SystemCoreClockUpdate+0x140>
  4047be:	4b51      	ldr	r3, [pc, #324]	; (404904 <SystemCoreClockUpdate+0x184>)
  4047c0:	f44f 42fa 	mov.w	r2, #32000	; 0x7d00
  4047c4:	601a      	str	r2, [r3, #0]
  4047c6:	e07b      	b.n	4048c0 <SystemCoreClockUpdate+0x140>
  4047c8:	4b4c      	ldr	r3, [pc, #304]	; (4048fc <SystemCoreClockUpdate+0x17c>)
  4047ca:	6a1b      	ldr	r3, [r3, #32]
  4047cc:	f003 7380 	and.w	r3, r3, #16777216	; 0x1000000
  4047d0:	2b00      	cmp	r3, #0
  4047d2:	d003      	beq.n	4047dc <SystemCoreClockUpdate+0x5c>
  4047d4:	4b4b      	ldr	r3, [pc, #300]	; (404904 <SystemCoreClockUpdate+0x184>)
  4047d6:	4a4c      	ldr	r2, [pc, #304]	; (404908 <SystemCoreClockUpdate+0x188>)
  4047d8:	601a      	str	r2, [r3, #0]
  4047da:	e071      	b.n	4048c0 <SystemCoreClockUpdate+0x140>
  4047dc:	4b49      	ldr	r3, [pc, #292]	; (404904 <SystemCoreClockUpdate+0x184>)
  4047de:	4a4b      	ldr	r2, [pc, #300]	; (40490c <SystemCoreClockUpdate+0x18c>)
  4047e0:	601a      	str	r2, [r3, #0]
  4047e2:	4b46      	ldr	r3, [pc, #280]	; (4048fc <SystemCoreClockUpdate+0x17c>)
  4047e4:	6a1b      	ldr	r3, [r3, #32]
  4047e6:	f003 0370 	and.w	r3, r3, #112	; 0x70
  4047ea:	2b10      	cmp	r3, #16
  4047ec:	d008      	beq.n	404800 <SystemCoreClockUpdate+0x80>
  4047ee:	2b20      	cmp	r3, #32
  4047f0:	d00a      	beq.n	404808 <SystemCoreClockUpdate+0x88>
  4047f2:	2b00      	cmp	r3, #0
  4047f4:	d000      	beq.n	4047f8 <SystemCoreClockUpdate+0x78>
  4047f6:	e00b      	b.n	404810 <SystemCoreClockUpdate+0x90>
  4047f8:	4b42      	ldr	r3, [pc, #264]	; (404904 <SystemCoreClockUpdate+0x184>)
  4047fa:	4a44      	ldr	r2, [pc, #272]	; (40490c <SystemCoreClockUpdate+0x18c>)
  4047fc:	601a      	str	r2, [r3, #0]
  4047fe:	e007      	b.n	404810 <SystemCoreClockUpdate+0x90>
  404800:	4b40      	ldr	r3, [pc, #256]	; (404904 <SystemCoreClockUpdate+0x184>)
  404802:	4a43      	ldr	r2, [pc, #268]	; (404910 <SystemCoreClockUpdate+0x190>)
  404804:	601a      	str	r2, [r3, #0]
  404806:	e003      	b.n	404810 <SystemCoreClockUpdate+0x90>
  404808:	4b3e      	ldr	r3, [pc, #248]	; (404904 <SystemCoreClockUpdate+0x184>)
  40480a:	4a3f      	ldr	r2, [pc, #252]	; (404908 <SystemCoreClockUpdate+0x188>)
  40480c:	601a      	str	r2, [r3, #0]
  40480e:	bf00      	nop
  404810:	e056      	b.n	4048c0 <SystemCoreClockUpdate+0x140>
  404812:	4b3a      	ldr	r3, [pc, #232]	; (4048fc <SystemCoreClockUpdate+0x17c>)
  404814:	6a1b      	ldr	r3, [r3, #32]
  404816:	f003 7380 	and.w	r3, r3, #16777216	; 0x1000000
  40481a:	2b00      	cmp	r3, #0
  40481c:	d003      	beq.n	404826 <SystemCoreClockUpdate+0xa6>
  40481e:	4b39      	ldr	r3, [pc, #228]	; (404904 <SystemCoreClockUpdate+0x184>)
  404820:	4a39      	ldr	r2, [pc, #228]	; (404908 <SystemCoreClockUpdate+0x188>)
  404822:	601a      	str	r2, [r3, #0]
  404824:	e019      	b.n	40485a <SystemCoreClockUpdate+0xda>
  404826:	4b37      	ldr	r3, [pc, #220]	; (404904 <SystemCoreClockUpdate+0x184>)
  404828:	4a38      	ldr	r2, [pc, #224]	; (40490c <SystemCoreClockUpdate+0x18c>)
  40482a:	601a      	str	r2, [r3, #0]
  40482c:	4b33      	ldr	r3, [pc, #204]	; (4048fc <SystemCoreClockUpdate+0x17c>)
  40482e:	6a1b      	ldr	r3, [r3, #32]
  404830:	f003 0370 	and.w	r3, r3, #112	; 0x70
  404834:	2b10      	cmp	r3, #16
  404836:	d008      	beq.n	40484a <SystemCoreClockUpdate+0xca>
  404838:	2b20      	cmp	r3, #32
  40483a:	d00a      	beq.n	404852 <SystemCoreClockUpdate+0xd2>
  40483c:	2b00      	cmp	r3, #0
  40483e:	d000      	beq.n	404842 <SystemCoreClockUpdate+0xc2>
  404840:	e00b      	b.n	40485a <SystemCoreClockUpdate+0xda>
  404842:	4b30      	ldr	r3, [pc, #192]	; (404904 <SystemCoreClockUpdate+0x184>)
  404844:	4a31      	ldr	r2, [pc, #196]	; (40490c <SystemCoreClockUpdate+0x18c>)
  404846:	601a      	str	r2, [r3, #0]
  404848:	e007      	b.n	40485a <SystemCoreClockUpdate+0xda>
  40484a:	4b2e      	ldr	r3, [pc, #184]	; (404904 <SystemCoreClockUpdate+0x184>)
  40484c:	4a30      	ldr	r2, [pc, #192]	; (404910 <SystemCoreClockUpdate+0x190>)
  40484e:	601a      	str	r2, [r3, #0]
  404850:	e003      	b.n	40485a <SystemCoreClockUpdate+0xda>
  404852:	4b2c      	ldr	r3, [pc, #176]	; (404904 <SystemCoreClockUpdate+0x184>)
  404854:	4a2c      	ldr	r2, [pc, #176]	; (404908 <SystemCoreClockUpdate+0x188>)
  404856:	601a      	str	r2, [r3, #0]
  404858:	bf00      	nop
  40485a:	4b28      	ldr	r3, [pc, #160]	; (4048fc <SystemCoreClockUpdate+0x17c>)
  40485c:	6b1b      	ldr	r3, [r3, #48]	; 0x30
  40485e:	f003 0303 	and.w	r3, r3, #3
  404862:	2b02      	cmp	r3, #2
  404864:	d115      	bne.n	404892 <SystemCoreClockUpdate+0x112>
  404866:	4b25      	ldr	r3, [pc, #148]	; (4048fc <SystemCoreClockUpdate+0x17c>)
  404868:	6a9a      	ldr	r2, [r3, #40]	; 0x28
  40486a:	4b2a      	ldr	r3, [pc, #168]	; (404914 <SystemCoreClockUpdate+0x194>)
  40486c:	4013      	ands	r3, r2
  40486e:	0c1b      	lsrs	r3, r3, #16
  404870:	3301      	adds	r3, #1
  404872:	4a24      	ldr	r2, [pc, #144]	; (404904 <SystemCoreClockUpdate+0x184>)
  404874:	6812      	ldr	r2, [r2, #0]
  404876:	fb02 f303 	mul.w	r3, r2, r3
  40487a:	4a22      	ldr	r2, [pc, #136]	; (404904 <SystemCoreClockUpdate+0x184>)
  40487c:	6013      	str	r3, [r2, #0]
  40487e:	4b1f      	ldr	r3, [pc, #124]	; (4048fc <SystemCoreClockUpdate+0x17c>)
  404880:	6a9b      	ldr	r3, [r3, #40]	; 0x28
  404882:	b2db      	uxtb	r3, r3
  404884:	4a1f      	ldr	r2, [pc, #124]	; (404904 <SystemCoreClockUpdate+0x184>)
  404886:	6812      	ldr	r2, [r2, #0]
  404888:	fbb2 f3f3 	udiv	r3, r2, r3
  40488c:	4a1d      	ldr	r2, [pc, #116]	; (404904 <SystemCoreClockUpdate+0x184>)
  40488e:	6013      	str	r3, [r2, #0]
  404890:	e016      	b.n	4048c0 <SystemCoreClockUpdate+0x140>
  404892:	4b1a      	ldr	r3, [pc, #104]	; (4048fc <SystemCoreClockUpdate+0x17c>)
  404894:	6ada      	ldr	r2, [r3, #44]	; 0x2c
  404896:	4b1f      	ldr	r3, [pc, #124]	; (404914 <SystemCoreClockUpdate+0x194>)
  404898:	4013      	ands	r3, r2
  40489a:	0c1b      	lsrs	r3, r3, #16
  40489c:	3301      	adds	r3, #1
  40489e:	4a19      	ldr	r2, [pc, #100]	; (404904 <SystemCoreClockUpdate+0x184>)
  4048a0:	6812      	ldr	r2, [r2, #0]
  4048a2:	fb02 f303 	mul.w	r3, r2, r3
  4048a6:	4a17      	ldr	r2, [pc, #92]	; (404904 <SystemCoreClockUpdate+0x184>)
  4048a8:	6013      	str	r3, [r2, #0]
  4048aa:	4b14      	ldr	r3, [pc, #80]	; (4048fc <SystemCoreClockUpdate+0x17c>)
  4048ac:	6adb      	ldr	r3, [r3, #44]	; 0x2c
  4048ae:	b2db      	uxtb	r3, r3
  4048b0:	4a14      	ldr	r2, [pc, #80]	; (404904 <SystemCoreClockUpdate+0x184>)
  4048b2:	6812      	ldr	r2, [r2, #0]
  4048b4:	fbb2 f3f3 	udiv	r3, r2, r3
  4048b8:	4a12      	ldr	r2, [pc, #72]	; (404904 <SystemCoreClockUpdate+0x184>)
  4048ba:	6013      	str	r3, [r2, #0]
  4048bc:	e000      	b.n	4048c0 <SystemCoreClockUpdate+0x140>
  4048be:	bf00      	nop
  4048c0:	4b0e      	ldr	r3, [pc, #56]	; (4048fc <SystemCoreClockUpdate+0x17c>)
  4048c2:	6b1b      	ldr	r3, [r3, #48]	; 0x30
  4048c4:	f003 0370 	and.w	r3, r3, #112	; 0x70
  4048c8:	2b70      	cmp	r3, #112	; 0x70
  4048ca:	d108      	bne.n	4048de <SystemCoreClockUpdate+0x15e>
  4048cc:	4b0d      	ldr	r3, [pc, #52]	; (404904 <SystemCoreClockUpdate+0x184>)
  4048ce:	681b      	ldr	r3, [r3, #0]
  4048d0:	4a11      	ldr	r2, [pc, #68]	; (404918 <SystemCoreClockUpdate+0x198>)
  4048d2:	fba2 2303 	umull	r2, r3, r2, r3
  4048d6:	085b      	lsrs	r3, r3, #1
  4048d8:	4a0a      	ldr	r2, [pc, #40]	; (404904 <SystemCoreClockUpdate+0x184>)
  4048da:	6013      	str	r3, [r2, #0]
  4048dc:	e00a      	b.n	4048f4 <SystemCoreClockUpdate+0x174>
  4048de:	4b07      	ldr	r3, [pc, #28]	; (4048fc <SystemCoreClockUpdate+0x17c>)
  4048e0:	6b1b      	ldr	r3, [r3, #48]	; 0x30
  4048e2:	f003 0370 	and.w	r3, r3, #112	; 0x70
  4048e6:	091b      	lsrs	r3, r3, #4
  4048e8:	4a06      	ldr	r2, [pc, #24]	; (404904 <SystemCoreClockUpdate+0x184>)
  4048ea:	6812      	ldr	r2, [r2, #0]
  4048ec:	fa22 f303 	lsr.w	r3, r2, r3
  4048f0:	4a04      	ldr	r2, [pc, #16]	; (404904 <SystemCoreClockUpdate+0x184>)
  4048f2:	6013      	str	r3, [r2, #0]
  4048f4:	bf00      	nop
  4048f6:	46bd      	mov	sp, r7
  4048f8:	bc80      	pop	{r7}
  4048fa:	4770      	bx	lr
  4048fc:	400e0400 	.word	0x400e0400
  404900:	400e1410 	.word	0x400e1410
  404904:	20000118 	.word	0x20000118
  404908:	00b71b00 	.word	0x00b71b00
  40490c:	003d0900 	.word	0x003d0900
  404910:	007a1200 	.word	0x007a1200
  404914:	07ff0000 	.word	0x07ff0000
  404918:	aaaaaaab 	.word	0xaaaaaaab

0040491c <system_init_flash>:
  40491c:	b480      	push	{r7}
  40491e:	b083      	sub	sp, #12
  404920:	af00      	add	r7, sp, #0
  404922:	6078      	str	r0, [r7, #4]
  404924:	687b      	ldr	r3, [r7, #4]
  404926:	4a18      	ldr	r2, [pc, #96]	; (404988 <system_init_flash+0x6c>)
  404928:	4293      	cmp	r3, r2
  40492a:	d804      	bhi.n	404936 <system_init_flash+0x1a>
  40492c:	4b17      	ldr	r3, [pc, #92]	; (40498c <system_init_flash+0x70>)
  40492e:	f04f 6280 	mov.w	r2, #67108864	; 0x4000000
  404932:	601a      	str	r2, [r3, #0]
  404934:	e023      	b.n	40497e <system_init_flash+0x62>
  404936:	687b      	ldr	r3, [r7, #4]
  404938:	4a15      	ldr	r2, [pc, #84]	; (404990 <system_init_flash+0x74>)
  40493a:	4293      	cmp	r3, r2
  40493c:	d803      	bhi.n	404946 <system_init_flash+0x2a>
  40493e:	4b13      	ldr	r3, [pc, #76]	; (40498c <system_init_flash+0x70>)
  404940:	4a14      	ldr	r2, [pc, #80]	; (404994 <system_init_flash+0x78>)
  404942:	601a      	str	r2, [r3, #0]
  404944:	e01b      	b.n	40497e <system_init_flash+0x62>
  404946:	687b      	ldr	r3, [r7, #4]
  404948:	4a13      	ldr	r2, [pc, #76]	; (404998 <system_init_flash+0x7c>)
  40494a:	4293      	cmp	r3, r2
  40494c:	d803      	bhi.n	404956 <system_init_flash+0x3a>
  40494e:	4b0f      	ldr	r3, [pc, #60]	; (40498c <system_init_flash+0x70>)
  404950:	4a12      	ldr	r2, [pc, #72]	; (40499c <system_init_flash+0x80>)
  404952:	601a      	str	r2, [r3, #0]
  404954:	e013      	b.n	40497e <system_init_flash+0x62>
  404956:	687b      	ldr	r3, [r7, #4]
  404958:	4a11      	ldr	r2, [pc, #68]	; (4049a0 <system_init_flash+0x84>)
  40495a:	4293      	cmp	r3, r2
  40495c:	d803      	bhi.n	404966 <system_init_flash+0x4a>
  40495e:	4b0b      	ldr	r3, [pc, #44]	; (40498c <system_init_flash+0x70>)
  404960:	4a10      	ldr	r2, [pc, #64]	; (4049a4 <system_init_flash+0x88>)
  404962:	601a      	str	r2, [r3, #0]
  404964:	e00b      	b.n	40497e <system_init_flash+0x62>
  404966:	687b      	ldr	r3, [r7, #4]
  404968:	4a0f      	ldr	r2, [pc, #60]	; (4049a8 <system_init_flash+0x8c>)
  40496a:	4293      	cmp	r3, r2
  40496c:	d804      	bhi.n	404978 <system_init_flash+0x5c>
  40496e:	4b07      	ldr	r3, [pc, #28]	; (40498c <system_init_flash+0x70>)
  404970:	f04f 2204 	mov.w	r2, #67109888	; 0x4000400
  404974:	601a      	str	r2, [r3, #0]
  404976:	e002      	b.n	40497e <system_init_flash+0x62>
  404978:	4b04      	ldr	r3, [pc, #16]	; (40498c <system_init_flash+0x70>)
  40497a:	4a0c      	ldr	r2, [pc, #48]	; (4049ac <system_init_flash+0x90>)
  40497c:	601a      	str	r2, [r3, #0]
  40497e:	bf00      	nop
  404980:	370c      	adds	r7, #12
  404982:	46bd      	mov	sp, r7
  404984:	bc80      	pop	{r7}
  404986:	4770      	bx	lr
  404988:	01312cff 	.word	0x01312cff
  40498c:	400e0a00 	.word	0x400e0a00
  404990:	026259ff 	.word	0x026259ff
  404994:	04000100 	.word	0x04000100
  404998:	039386ff 	.word	0x039386ff
  40499c:	04000200 	.word	0x04000200
  4049a0:	04c4b3ff 	.word	0x04c4b3ff
  4049a4:	04000300 	.word	0x04000300
  4049a8:	05f5e0ff 	.word	0x05f5e0ff
  4049ac:	04000500 	.word	0x04000500

004049b0 <vListInitialise>:
  4049b0:	b480      	push	{r7}
  4049b2:	b083      	sub	sp, #12
  4049b4:	af00      	add	r7, sp, #0
  4049b6:	6078      	str	r0, [r7, #4]
  4049b8:	687b      	ldr	r3, [r7, #4]
  4049ba:	f103 0208 	add.w	r2, r3, #8
  4049be:	687b      	ldr	r3, [r7, #4]
  4049c0:	605a      	str	r2, [r3, #4]
  4049c2:	687b      	ldr	r3, [r7, #4]
  4049c4:	f04f 32ff 	mov.w	r2, #4294967295
  4049c8:	609a      	str	r2, [r3, #8]
  4049ca:	687b      	ldr	r3, [r7, #4]
  4049cc:	f103 0208 	add.w	r2, r3, #8
  4049d0:	687b      	ldr	r3, [r7, #4]
  4049d2:	60da      	str	r2, [r3, #12]
  4049d4:	687b      	ldr	r3, [r7, #4]
  4049d6:	f103 0208 	add.w	r2, r3, #8
  4049da:	687b      	ldr	r3, [r7, #4]
  4049dc:	611a      	str	r2, [r3, #16]
  4049de:	687b      	ldr	r3, [r7, #4]
  4049e0:	2200      	movs	r2, #0
  4049e2:	601a      	str	r2, [r3, #0]
  4049e4:	bf00      	nop
  4049e6:	370c      	adds	r7, #12
  4049e8:	46bd      	mov	sp, r7
  4049ea:	bc80      	pop	{r7}
  4049ec:	4770      	bx	lr
  4049ee:	bf00      	nop

004049f0 <vListInitialiseItem>:
  4049f0:	b480      	push	{r7}
  4049f2:	b083      	sub	sp, #12
  4049f4:	af00      	add	r7, sp, #0
  4049f6:	6078      	str	r0, [r7, #4]
  4049f8:	687b      	ldr	r3, [r7, #4]
  4049fa:	2200      	movs	r2, #0
  4049fc:	611a      	str	r2, [r3, #16]
  4049fe:	bf00      	nop
  404a00:	370c      	adds	r7, #12
  404a02:	46bd      	mov	sp, r7
  404a04:	bc80      	pop	{r7}
  404a06:	4770      	bx	lr

00404a08 <vListInsertEnd>:
  404a08:	b480      	push	{r7}
  404a0a:	b085      	sub	sp, #20
  404a0c:	af00      	add	r7, sp, #0
  404a0e:	6078      	str	r0, [r7, #4]
  404a10:	6039      	str	r1, [r7, #0]
  404a12:	687b      	ldr	r3, [r7, #4]
  404a14:	685b      	ldr	r3, [r3, #4]
  404a16:	60fb      	str	r3, [r7, #12]
  404a18:	68fb      	ldr	r3, [r7, #12]
  404a1a:	685a      	ldr	r2, [r3, #4]
  404a1c:	683b      	ldr	r3, [r7, #0]
  404a1e:	605a      	str	r2, [r3, #4]
  404a20:	687b      	ldr	r3, [r7, #4]
  404a22:	685a      	ldr	r2, [r3, #4]
  404a24:	683b      	ldr	r3, [r7, #0]
  404a26:	609a      	str	r2, [r3, #8]
  404a28:	68fb      	ldr	r3, [r7, #12]
  404a2a:	685b      	ldr	r3, [r3, #4]
  404a2c:	683a      	ldr	r2, [r7, #0]
  404a2e:	609a      	str	r2, [r3, #8]
  404a30:	68fb      	ldr	r3, [r7, #12]
  404a32:	683a      	ldr	r2, [r7, #0]
  404a34:	605a      	str	r2, [r3, #4]
  404a36:	687b      	ldr	r3, [r7, #4]
  404a38:	683a      	ldr	r2, [r7, #0]
  404a3a:	605a      	str	r2, [r3, #4]
  404a3c:	683b      	ldr	r3, [r7, #0]
  404a3e:	687a      	ldr	r2, [r7, #4]
  404a40:	611a      	str	r2, [r3, #16]
  404a42:	687b      	ldr	r3, [r7, #4]
  404a44:	681b      	ldr	r3, [r3, #0]
  404a46:	1c5a      	adds	r2, r3, #1
  404a48:	687b      	ldr	r3, [r7, #4]
  404a4a:	601a      	str	r2, [r3, #0]
  404a4c:	bf00      	nop
  404a4e:	3714      	adds	r7, #20
  404a50:	46bd      	mov	sp, r7
  404a52:	bc80      	pop	{r7}
  404a54:	4770      	bx	lr
  404a56:	bf00      	nop

00404a58 <vListInsert>:
  404a58:	b480      	push	{r7}
  404a5a:	b085      	sub	sp, #20
  404a5c:	af00      	add	r7, sp, #0
  404a5e:	6078      	str	r0, [r7, #4]
  404a60:	6039      	str	r1, [r7, #0]
  404a62:	683b      	ldr	r3, [r7, #0]
  404a64:	681b      	ldr	r3, [r3, #0]
  404a66:	60bb      	str	r3, [r7, #8]
  404a68:	68bb      	ldr	r3, [r7, #8]
  404a6a:	f1b3 3fff 	cmp.w	r3, #4294967295
  404a6e:	d103      	bne.n	404a78 <vListInsert+0x20>
  404a70:	687b      	ldr	r3, [r7, #4]
  404a72:	691b      	ldr	r3, [r3, #16]
  404a74:	60fb      	str	r3, [r7, #12]
  404a76:	e00c      	b.n	404a92 <vListInsert+0x3a>
  404a78:	687b      	ldr	r3, [r7, #4]
  404a7a:	3308      	adds	r3, #8
  404a7c:	60fb      	str	r3, [r7, #12]
  404a7e:	e002      	b.n	404a86 <vListInsert+0x2e>
  404a80:	68fb      	ldr	r3, [r7, #12]
  404a82:	685b      	ldr	r3, [r3, #4]
  404a84:	60fb      	str	r3, [r7, #12]
  404a86:	68fb      	ldr	r3, [r7, #12]
  404a88:	685b      	ldr	r3, [r3, #4]
  404a8a:	681a      	ldr	r2, [r3, #0]
  404a8c:	68bb      	ldr	r3, [r7, #8]
  404a8e:	429a      	cmp	r2, r3
  404a90:	d9f6      	bls.n	404a80 <vListInsert+0x28>
  404a92:	68fb      	ldr	r3, [r7, #12]
  404a94:	685a      	ldr	r2, [r3, #4]
  404a96:	683b      	ldr	r3, [r7, #0]
  404a98:	605a      	str	r2, [r3, #4]
  404a9a:	683b      	ldr	r3, [r7, #0]
  404a9c:	685b      	ldr	r3, [r3, #4]
  404a9e:	683a      	ldr	r2, [r7, #0]
  404aa0:	609a      	str	r2, [r3, #8]
  404aa2:	683b      	ldr	r3, [r7, #0]
  404aa4:	68fa      	ldr	r2, [r7, #12]
  404aa6:	609a      	str	r2, [r3, #8]
  404aa8:	68fb      	ldr	r3, [r7, #12]
  404aaa:	683a      	ldr	r2, [r7, #0]
  404aac:	605a      	str	r2, [r3, #4]
  404aae:	683b      	ldr	r3, [r7, #0]
  404ab0:	687a      	ldr	r2, [r7, #4]
  404ab2:	611a      	str	r2, [r3, #16]
  404ab4:	687b      	ldr	r3, [r7, #4]
  404ab6:	681b      	ldr	r3, [r3, #0]
  404ab8:	1c5a      	adds	r2, r3, #1
  404aba:	687b      	ldr	r3, [r7, #4]
  404abc:	601a      	str	r2, [r3, #0]
  404abe:	bf00      	nop
  404ac0:	3714      	adds	r7, #20
  404ac2:	46bd      	mov	sp, r7
  404ac4:	bc80      	pop	{r7}
  404ac6:	4770      	bx	lr

00404ac8 <uxListRemove>:
  404ac8:	b480      	push	{r7}
  404aca:	b085      	sub	sp, #20
  404acc:	af00      	add	r7, sp, #0
  404ace:	6078      	str	r0, [r7, #4]
  404ad0:	687b      	ldr	r3, [r7, #4]
  404ad2:	685b      	ldr	r3, [r3, #4]
  404ad4:	687a      	ldr	r2, [r7, #4]
  404ad6:	6892      	ldr	r2, [r2, #8]
  404ad8:	609a      	str	r2, [r3, #8]
  404ada:	687b      	ldr	r3, [r7, #4]
  404adc:	689b      	ldr	r3, [r3, #8]
  404ade:	687a      	ldr	r2, [r7, #4]
  404ae0:	6852      	ldr	r2, [r2, #4]
  404ae2:	605a      	str	r2, [r3, #4]
  404ae4:	687b      	ldr	r3, [r7, #4]
  404ae6:	691b      	ldr	r3, [r3, #16]
  404ae8:	60fb      	str	r3, [r7, #12]
  404aea:	68fb      	ldr	r3, [r7, #12]
  404aec:	685a      	ldr	r2, [r3, #4]
  404aee:	687b      	ldr	r3, [r7, #4]
  404af0:	429a      	cmp	r2, r3
  404af2:	d103      	bne.n	404afc <uxListRemove+0x34>
  404af4:	687b      	ldr	r3, [r7, #4]
  404af6:	689a      	ldr	r2, [r3, #8]
  404af8:	68fb      	ldr	r3, [r7, #12]
  404afa:	605a      	str	r2, [r3, #4]
  404afc:	687b      	ldr	r3, [r7, #4]
  404afe:	2200      	movs	r2, #0
  404b00:	611a      	str	r2, [r3, #16]
  404b02:	68fb      	ldr	r3, [r7, #12]
  404b04:	681b      	ldr	r3, [r3, #0]
  404b06:	1e5a      	subs	r2, r3, #1
  404b08:	68fb      	ldr	r3, [r7, #12]
  404b0a:	601a      	str	r2, [r3, #0]
  404b0c:	68fb      	ldr	r3, [r7, #12]
  404b0e:	681b      	ldr	r3, [r3, #0]
  404b10:	4618      	mov	r0, r3
  404b12:	3714      	adds	r7, #20
  404b14:	46bd      	mov	sp, r7
  404b16:	bc80      	pop	{r7}
  404b18:	4770      	bx	lr
  404b1a:	bf00      	nop

00404b1c <osc_get_rate>:
  404b1c:	b480      	push	{r7}
  404b1e:	b083      	sub	sp, #12
  404b20:	af00      	add	r7, sp, #0
  404b22:	6078      	str	r0, [r7, #4]
  404b24:	687b      	ldr	r3, [r7, #4]
  404b26:	2b07      	cmp	r3, #7
  404b28:	d825      	bhi.n	404b76 <osc_get_rate+0x5a>
  404b2a:	a201      	add	r2, pc, #4	; (adr r2, 404b30 <osc_get_rate+0x14>)
  404b2c:	f852 f023 	ldr.w	pc, [r2, r3, lsl #2]
  404b30:	00404b51 	.word	0x00404b51
  404b34:	00404b57 	.word	0x00404b57
  404b38:	00404b5d 	.word	0x00404b5d
  404b3c:	00404b63 	.word	0x00404b63
  404b40:	00404b67 	.word	0x00404b67
  404b44:	00404b6b 	.word	0x00404b6b
  404b48:	00404b6f 	.word	0x00404b6f
  404b4c:	00404b73 	.word	0x00404b73
  404b50:	f44f 43fa 	mov.w	r3, #32000	; 0x7d00
  404b54:	e010      	b.n	404b78 <osc_get_rate+0x5c>
  404b56:	f44f 4300 	mov.w	r3, #32768	; 0x8000
  404b5a:	e00d      	b.n	404b78 <osc_get_rate+0x5c>
  404b5c:	f44f 4300 	mov.w	r3, #32768	; 0x8000
  404b60:	e00a      	b.n	404b78 <osc_get_rate+0x5c>
  404b62:	4b08      	ldr	r3, [pc, #32]	; (404b84 <osc_get_rate+0x68>)
  404b64:	e008      	b.n	404b78 <osc_get_rate+0x5c>
  404b66:	4b08      	ldr	r3, [pc, #32]	; (404b88 <osc_get_rate+0x6c>)
  404b68:	e006      	b.n	404b78 <osc_get_rate+0x5c>
  404b6a:	4b08      	ldr	r3, [pc, #32]	; (404b8c <osc_get_rate+0x70>)
  404b6c:	e004      	b.n	404b78 <osc_get_rate+0x5c>
  404b6e:	4b07      	ldr	r3, [pc, #28]	; (404b8c <osc_get_rate+0x70>)
  404b70:	e002      	b.n	404b78 <osc_get_rate+0x5c>
  404b72:	4b06      	ldr	r3, [pc, #24]	; (404b8c <osc_get_rate+0x70>)
  404b74:	e000      	b.n	404b78 <osc_get_rate+0x5c>
  404b76:	2300      	movs	r3, #0
  404b78:	4618      	mov	r0, r3
  404b7a:	370c      	adds	r7, #12
  404b7c:	46bd      	mov	sp, r7
  404b7e:	bc80      	pop	{r7}
  404b80:	4770      	bx	lr
  404b82:	bf00      	nop
  404b84:	003d0900 	.word	0x003d0900
  404b88:	007a1200 	.word	0x007a1200
  404b8c:	00b71b00 	.word	0x00b71b00

00404b90 <sysclk_get_main_hz>:
  404b90:	b580      	push	{r7, lr}
  404b92:	af00      	add	r7, sp, #0
  404b94:	2006      	movs	r0, #6
  404b96:	4b04      	ldr	r3, [pc, #16]	; (404ba8 <sysclk_get_main_hz+0x18>)
  404b98:	4798      	blx	r3
  404b9a:	4602      	mov	r2, r0
  404b9c:	4613      	mov	r3, r2
  404b9e:	009b      	lsls	r3, r3, #2
  404ba0:	4413      	add	r3, r2
  404ba2:	009b      	lsls	r3, r3, #2
  404ba4:	4618      	mov	r0, r3
  404ba6:	bd80      	pop	{r7, pc}
  404ba8:	00404b1d 	.word	0x00404b1d

00404bac <sysclk_get_cpu_hz>:
  404bac:	b580      	push	{r7, lr}
  404bae:	af00      	add	r7, sp, #0
  404bb0:	4b02      	ldr	r3, [pc, #8]	; (404bbc <sysclk_get_cpu_hz+0x10>)
  404bb2:	4798      	blx	r3
  404bb4:	4603      	mov	r3, r0
  404bb6:	085b      	lsrs	r3, r3, #1
  404bb8:	4618      	mov	r0, r3
  404bba:	bd80      	pop	{r7, pc}
  404bbc:	00404b91 	.word	0x00404b91

00404bc0 <pxPortInitialiseStack>:
  404bc0:	b480      	push	{r7}
  404bc2:	b085      	sub	sp, #20
  404bc4:	af00      	add	r7, sp, #0
  404bc6:	60f8      	str	r0, [r7, #12]
  404bc8:	60b9      	str	r1, [r7, #8]
  404bca:	607a      	str	r2, [r7, #4]
  404bcc:	68fb      	ldr	r3, [r7, #12]
  404bce:	3b04      	subs	r3, #4
  404bd0:	60fb      	str	r3, [r7, #12]
  404bd2:	68fb      	ldr	r3, [r7, #12]
  404bd4:	f04f 7280 	mov.w	r2, #16777216	; 0x1000000
  404bd8:	601a      	str	r2, [r3, #0]
  404bda:	68fb      	ldr	r3, [r7, #12]
  404bdc:	3b04      	subs	r3, #4
  404bde:	60fb      	str	r3, [r7, #12]
  404be0:	68ba      	ldr	r2, [r7, #8]
  404be2:	68fb      	ldr	r3, [r7, #12]
  404be4:	601a      	str	r2, [r3, #0]
  404be6:	68fb      	ldr	r3, [r7, #12]
  404be8:	3b04      	subs	r3, #4
  404bea:	60fb      	str	r3, [r7, #12]
  404bec:	68fb      	ldr	r3, [r7, #12]
  404bee:	2200      	movs	r2, #0
  404bf0:	601a      	str	r2, [r3, #0]
  404bf2:	68fb      	ldr	r3, [r7, #12]
  404bf4:	3b14      	subs	r3, #20
  404bf6:	60fb      	str	r3, [r7, #12]
  404bf8:	687a      	ldr	r2, [r7, #4]
  404bfa:	68fb      	ldr	r3, [r7, #12]
  404bfc:	601a      	str	r2, [r3, #0]
  404bfe:	68fb      	ldr	r3, [r7, #12]
  404c00:	3b20      	subs	r3, #32
  404c02:	60fb      	str	r3, [r7, #12]
  404c04:	68fb      	ldr	r3, [r7, #12]
  404c06:	4618      	mov	r0, r3
  404c08:	3714      	adds	r7, #20
  404c0a:	46bd      	mov	sp, r7
  404c0c:	bc80      	pop	{r7}
  404c0e:	4770      	bx	lr

00404c10 <SVC_Handler>:
  404c10:	4b06      	ldr	r3, [pc, #24]	; (404c2c <pxCurrentTCBConst2>)
  404c12:	6819      	ldr	r1, [r3, #0]
  404c14:	6808      	ldr	r0, [r1, #0]
  404c16:	e8b0 0ff0 	ldmia.w	r0!, {r4, r5, r6, r7, r8, r9, sl, fp}
  404c1a:	f380 8809 	msr	PSP, r0
  404c1e:	f04f 0000 	mov.w	r0, #0
  404c22:	f380 8811 	msr	BASEPRI, r0
  404c26:	f04e 0e0d 	orr.w	lr, lr, #13
  404c2a:	4770      	bx	lr

00404c2c <pxCurrentTCBConst2>:
  404c2c:	200028cc 	.word	0x200028cc
  404c30:	bf00      	nop
  404c32:	bf00      	nop

00404c34 <prvPortStartFirstTask>:
  404c34:	4804      	ldr	r0, [pc, #16]	; (404c48 <prvPortStartFirstTask+0x14>)
  404c36:	6800      	ldr	r0, [r0, #0]
  404c38:	6800      	ldr	r0, [r0, #0]
  404c3a:	f380 8808 	msr	MSP, r0
  404c3e:	b662      	cpsie	i
  404c40:	df00      	svc	0
  404c42:	bf00      	nop
  404c44:	bf00      	nop
  404c46:	0000      	.short	0x0000
  404c48:	e000ed08 	.word	0xe000ed08

00404c4c <xPortStartScheduler>:
  404c4c:	b580      	push	{r7, lr}
  404c4e:	af00      	add	r7, sp, #0
  404c50:	4a0a      	ldr	r2, [pc, #40]	; (404c7c <xPortStartScheduler+0x30>)
  404c52:	4b0a      	ldr	r3, [pc, #40]	; (404c7c <xPortStartScheduler+0x30>)
  404c54:	681b      	ldr	r3, [r3, #0]
  404c56:	f443 0370 	orr.w	r3, r3, #15728640	; 0xf00000
  404c5a:	6013      	str	r3, [r2, #0]
  404c5c:	4a07      	ldr	r2, [pc, #28]	; (404c7c <xPortStartScheduler+0x30>)
  404c5e:	4b07      	ldr	r3, [pc, #28]	; (404c7c <xPortStartScheduler+0x30>)
  404c60:	681b      	ldr	r3, [r3, #0]
  404c62:	f043 4370 	orr.w	r3, r3, #4026531840	; 0xf0000000
  404c66:	6013      	str	r3, [r2, #0]
  404c68:	4b05      	ldr	r3, [pc, #20]	; (404c80 <xPortStartScheduler+0x34>)
  404c6a:	4798      	blx	r3
  404c6c:	4b05      	ldr	r3, [pc, #20]	; (404c84 <xPortStartScheduler+0x38>)
  404c6e:	2200      	movs	r2, #0
  404c70:	601a      	str	r2, [r3, #0]
  404c72:	4b05      	ldr	r3, [pc, #20]	; (404c88 <xPortStartScheduler+0x3c>)
  404c74:	4798      	blx	r3
  404c76:	2300      	movs	r3, #0
  404c78:	4618      	mov	r0, r3
  404c7a:	bd80      	pop	{r7, pc}
  404c7c:	e000ed20 	.word	0xe000ed20
  404c80:	00404d79 	.word	0x00404d79
  404c84:	2000011c 	.word	0x2000011c
  404c88:	00404c35 	.word	0x00404c35

00404c8c <vPortYieldFromISR>:
  404c8c:	b480      	push	{r7}
  404c8e:	af00      	add	r7, sp, #0
  404c90:	4b03      	ldr	r3, [pc, #12]	; (404ca0 <vPortYieldFromISR+0x14>)
  404c92:	f04f 5280 	mov.w	r2, #268435456	; 0x10000000
  404c96:	601a      	str	r2, [r3, #0]
  404c98:	bf00      	nop
  404c9a:	46bd      	mov	sp, r7
  404c9c:	bc80      	pop	{r7}
  404c9e:	4770      	bx	lr
  404ca0:	e000ed04 	.word	0xe000ed04

00404ca4 <vPortEnterCritical>:
  404ca4:	b580      	push	{r7, lr}
  404ca6:	af00      	add	r7, sp, #0
  404ca8:	4b04      	ldr	r3, [pc, #16]	; (404cbc <vPortEnterCritical+0x18>)
  404caa:	4798      	blx	r3
  404cac:	4b04      	ldr	r3, [pc, #16]	; (404cc0 <vPortEnterCritical+0x1c>)
  404cae:	681b      	ldr	r3, [r3, #0]
  404cb0:	3301      	adds	r3, #1
  404cb2:	4a03      	ldr	r2, [pc, #12]	; (404cc0 <vPortEnterCritical+0x1c>)
  404cb4:	6013      	str	r3, [r2, #0]
  404cb6:	bf00      	nop
  404cb8:	bd80      	pop	{r7, pc}
  404cba:	bf00      	nop
  404cbc:	00404ced 	.word	0x00404ced
  404cc0:	2000011c 	.word	0x2000011c

00404cc4 <vPortExitCritical>:
  404cc4:	b580      	push	{r7, lr}
  404cc6:	af00      	add	r7, sp, #0
  404cc8:	4b06      	ldr	r3, [pc, #24]	; (404ce4 <vPortExitCritical+0x20>)
  404cca:	681b      	ldr	r3, [r3, #0]
  404ccc:	3b01      	subs	r3, #1
  404cce:	4a05      	ldr	r2, [pc, #20]	; (404ce4 <vPortExitCritical+0x20>)
  404cd0:	6013      	str	r3, [r2, #0]
  404cd2:	4b04      	ldr	r3, [pc, #16]	; (404ce4 <vPortExitCritical+0x20>)
  404cd4:	681b      	ldr	r3, [r3, #0]
  404cd6:	2b00      	cmp	r3, #0
  404cd8:	d102      	bne.n	404ce0 <vPortExitCritical+0x1c>
  404cda:	2000      	movs	r0, #0
  404cdc:	4b02      	ldr	r3, [pc, #8]	; (404ce8 <vPortExitCritical+0x24>)
  404cde:	4798      	blx	r3
  404ce0:	bf00      	nop
  404ce2:	bd80      	pop	{r7, pc}
  404ce4:	2000011c 	.word	0x2000011c
  404ce8:	00404d01 	.word	0x00404d01

00404cec <ulPortSetInterruptMask>:
  404cec:	f3ef 8011 	mrs	r0, BASEPRI
  404cf0:	f04f 01a0 	mov.w	r1, #160	; 0xa0
  404cf4:	f381 8811 	msr	BASEPRI, r1
  404cf8:	4770      	bx	lr
  404cfa:	2300      	movs	r3, #0
  404cfc:	4618      	mov	r0, r3
  404cfe:	bf00      	nop

00404d00 <vPortClearInterruptMask>:
  404d00:	f380 8811 	msr	BASEPRI, r0
  404d04:	4770      	bx	lr
  404d06:	bf00      	nop

00404d08 <PendSV_Handler>:
  404d08:	f3ef 8009 	mrs	r0, PSP
  404d0c:	4b0c      	ldr	r3, [pc, #48]	; (404d40 <pxCurrentTCBConst>)
  404d0e:	681a      	ldr	r2, [r3, #0]
  404d10:	e920 0ff0 	stmdb	r0!, {r4, r5, r6, r7, r8, r9, sl, fp}
  404d14:	6010      	str	r0, [r2, #0]
  404d16:	e92d 4008 	stmdb	sp!, {r3, lr}
  404d1a:	f04f 00a0 	mov.w	r0, #160	; 0xa0
  404d1e:	f380 8811 	msr	BASEPRI, r0
  404d22:	f001 f829 	bl	405d78 <vTaskSwitchContext>
  404d26:	f04f 0000 	mov.w	r0, #0
  404d2a:	f380 8811 	msr	BASEPRI, r0
  404d2e:	e8bd 4008 	ldmia.w	sp!, {r3, lr}
  404d32:	6819      	ldr	r1, [r3, #0]
  404d34:	6808      	ldr	r0, [r1, #0]
  404d36:	e8b0 0ff0 	ldmia.w	r0!, {r4, r5, r6, r7, r8, r9, sl, fp}
  404d3a:	f380 8809 	msr	PSP, r0
  404d3e:	4770      	bx	lr

00404d40 <pxCurrentTCBConst>:
  404d40:	200028cc 	.word	0x200028cc
  404d44:	bf00      	nop
  404d46:	bf00      	nop

00404d48 <SysTick_Handler>:
  404d48:	b580      	push	{r7, lr}
  404d4a:	af00      	add	r7, sp, #0
  404d4c:	4b06      	ldr	r3, [pc, #24]	; (404d68 <SysTick_Handler+0x20>)
  404d4e:	f04f 5280 	mov.w	r2, #268435456	; 0x10000000
  404d52:	601a      	str	r2, [r3, #0]
  404d54:	4b05      	ldr	r3, [pc, #20]	; (404d6c <SysTick_Handler+0x24>)
  404d56:	4798      	blx	r3
  404d58:	4b05      	ldr	r3, [pc, #20]	; (404d70 <SysTick_Handler+0x28>)
  404d5a:	4798      	blx	r3
  404d5c:	2000      	movs	r0, #0
  404d5e:	4b05      	ldr	r3, [pc, #20]	; (404d74 <SysTick_Handler+0x2c>)
  404d60:	4798      	blx	r3
  404d62:	bf00      	nop
  404d64:	bd80      	pop	{r7, pc}
  404d66:	bf00      	nop
  404d68:	e000ed04 	.word	0xe000ed04
  404d6c:	00404ced 	.word	0x00404ced
  404d70:	00405c2d 	.word	0x00405c2d
  404d74:	00404d01 	.word	0x00404d01

00404d78 <vPortSetupTimerInterrupt>:
  404d78:	b598      	push	{r3, r4, r7, lr}
  404d7a:	af00      	add	r7, sp, #0
  404d7c:	4c07      	ldr	r4, [pc, #28]	; (404d9c <vPortSetupTimerInterrupt+0x24>)
  404d7e:	4b08      	ldr	r3, [pc, #32]	; (404da0 <vPortSetupTimerInterrupt+0x28>)
  404d80:	4798      	blx	r3
  404d82:	4602      	mov	r2, r0
  404d84:	4b07      	ldr	r3, [pc, #28]	; (404da4 <vPortSetupTimerInterrupt+0x2c>)
  404d86:	fba3 2302 	umull	r2, r3, r3, r2
  404d8a:	099b      	lsrs	r3, r3, #6
  404d8c:	3b01      	subs	r3, #1
  404d8e:	6023      	str	r3, [r4, #0]
  404d90:	4b05      	ldr	r3, [pc, #20]	; (404da8 <vPortSetupTimerInterrupt+0x30>)
  404d92:	2207      	movs	r2, #7
  404d94:	601a      	str	r2, [r3, #0]
  404d96:	bf00      	nop
  404d98:	bd98      	pop	{r3, r4, r7, pc}
  404d9a:	bf00      	nop
  404d9c:	e000e014 	.word	0xe000e014
  404da0:	00404bad 	.word	0x00404bad
  404da4:	51eb851f 	.word	0x51eb851f
  404da8:	e000e010 	.word	0xe000e010

00404dac <pvPortMalloc>:
  404dac:	b580      	push	{r7, lr}
  404dae:	b086      	sub	sp, #24
  404db0:	af00      	add	r7, sp, #0
  404db2:	6078      	str	r0, [r7, #4]
  404db4:	2300      	movs	r3, #0
  404db6:	60fb      	str	r3, [r7, #12]
  404db8:	4b37      	ldr	r3, [pc, #220]	; (404e98 <pvPortMalloc+0xec>)
  404dba:	4798      	blx	r3
  404dbc:	4b37      	ldr	r3, [pc, #220]	; (404e9c <pvPortMalloc+0xf0>)
  404dbe:	681b      	ldr	r3, [r3, #0]
  404dc0:	2b00      	cmp	r3, #0
  404dc2:	d101      	bne.n	404dc8 <pvPortMalloc+0x1c>
  404dc4:	4b36      	ldr	r3, [pc, #216]	; (404ea0 <pvPortMalloc+0xf4>)
  404dc6:	4798      	blx	r3
  404dc8:	687b      	ldr	r3, [r7, #4]
  404dca:	2b00      	cmp	r3, #0
  404dcc:	d00e      	beq.n	404dec <pvPortMalloc+0x40>
  404dce:	2310      	movs	r3, #16
  404dd0:	461a      	mov	r2, r3
  404dd2:	687b      	ldr	r3, [r7, #4]
  404dd4:	4413      	add	r3, r2
  404dd6:	607b      	str	r3, [r7, #4]
  404dd8:	687b      	ldr	r3, [r7, #4]
  404dda:	f003 0307 	and.w	r3, r3, #7
  404dde:	2b00      	cmp	r3, #0
  404de0:	d004      	beq.n	404dec <pvPortMalloc+0x40>
  404de2:	687b      	ldr	r3, [r7, #4]
  404de4:	f023 0307 	bic.w	r3, r3, #7
  404de8:	3308      	adds	r3, #8
  404dea:	607b      	str	r3, [r7, #4]
  404dec:	687b      	ldr	r3, [r7, #4]
  404dee:	2b00      	cmp	r3, #0
  404df0:	d045      	beq.n	404e7e <pvPortMalloc+0xd2>
  404df2:	f44f 5200 	mov.w	r2, #8192	; 0x2000
  404df6:	687b      	ldr	r3, [r7, #4]
  404df8:	4293      	cmp	r3, r2
  404dfa:	d240      	bcs.n	404e7e <pvPortMalloc+0xd2>
  404dfc:	4b29      	ldr	r3, [pc, #164]	; (404ea4 <pvPortMalloc+0xf8>)
  404dfe:	613b      	str	r3, [r7, #16]
  404e00:	4b28      	ldr	r3, [pc, #160]	; (404ea4 <pvPortMalloc+0xf8>)
  404e02:	681b      	ldr	r3, [r3, #0]
  404e04:	617b      	str	r3, [r7, #20]
  404e06:	e004      	b.n	404e12 <pvPortMalloc+0x66>
  404e08:	697b      	ldr	r3, [r7, #20]
  404e0a:	613b      	str	r3, [r7, #16]
  404e0c:	697b      	ldr	r3, [r7, #20]
  404e0e:	681b      	ldr	r3, [r3, #0]
  404e10:	617b      	str	r3, [r7, #20]
  404e12:	697b      	ldr	r3, [r7, #20]
  404e14:	685a      	ldr	r2, [r3, #4]
  404e16:	687b      	ldr	r3, [r7, #4]
  404e18:	429a      	cmp	r2, r3
  404e1a:	d203      	bcs.n	404e24 <pvPortMalloc+0x78>
  404e1c:	697b      	ldr	r3, [r7, #20]
  404e1e:	681b      	ldr	r3, [r3, #0]
  404e20:	2b00      	cmp	r3, #0
  404e22:	d1f1      	bne.n	404e08 <pvPortMalloc+0x5c>
  404e24:	4b1d      	ldr	r3, [pc, #116]	; (404e9c <pvPortMalloc+0xf0>)
  404e26:	681b      	ldr	r3, [r3, #0]
  404e28:	697a      	ldr	r2, [r7, #20]
  404e2a:	429a      	cmp	r2, r3
  404e2c:	d027      	beq.n	404e7e <pvPortMalloc+0xd2>
  404e2e:	693b      	ldr	r3, [r7, #16]
  404e30:	681b      	ldr	r3, [r3, #0]
  404e32:	2210      	movs	r2, #16
  404e34:	4413      	add	r3, r2
  404e36:	60fb      	str	r3, [r7, #12]
  404e38:	697b      	ldr	r3, [r7, #20]
  404e3a:	681a      	ldr	r2, [r3, #0]
  404e3c:	693b      	ldr	r3, [r7, #16]
  404e3e:	601a      	str	r2, [r3, #0]
  404e40:	697b      	ldr	r3, [r7, #20]
  404e42:	685a      	ldr	r2, [r3, #4]
  404e44:	687b      	ldr	r3, [r7, #4]
  404e46:	1ad3      	subs	r3, r2, r3
  404e48:	2210      	movs	r2, #16
  404e4a:	0052      	lsls	r2, r2, #1
  404e4c:	4293      	cmp	r3, r2
  404e4e:	d90f      	bls.n	404e70 <pvPortMalloc+0xc4>
  404e50:	697a      	ldr	r2, [r7, #20]
  404e52:	687b      	ldr	r3, [r7, #4]
  404e54:	4413      	add	r3, r2
  404e56:	60bb      	str	r3, [r7, #8]
  404e58:	697b      	ldr	r3, [r7, #20]
  404e5a:	685a      	ldr	r2, [r3, #4]
  404e5c:	687b      	ldr	r3, [r7, #4]
  404e5e:	1ad2      	subs	r2, r2, r3
  404e60:	68bb      	ldr	r3, [r7, #8]
  404e62:	605a      	str	r2, [r3, #4]
  404e64:	697b      	ldr	r3, [r7, #20]
  404e66:	687a      	ldr	r2, [r7, #4]
  404e68:	605a      	str	r2, [r3, #4]
  404e6a:	68b8      	ldr	r0, [r7, #8]
  404e6c:	4b0e      	ldr	r3, [pc, #56]	; (404ea8 <pvPortMalloc+0xfc>)
  404e6e:	4798      	blx	r3
  404e70:	4b0e      	ldr	r3, [pc, #56]	; (404eac <pvPortMalloc+0x100>)
  404e72:	681a      	ldr	r2, [r3, #0]
  404e74:	697b      	ldr	r3, [r7, #20]
  404e76:	685b      	ldr	r3, [r3, #4]
  404e78:	1ad3      	subs	r3, r2, r3
  404e7a:	4a0c      	ldr	r2, [pc, #48]	; (404eac <pvPortMalloc+0x100>)
  404e7c:	6013      	str	r3, [r2, #0]
  404e7e:	4b0c      	ldr	r3, [pc, #48]	; (404eb0 <pvPortMalloc+0x104>)
  404e80:	4798      	blx	r3
  404e82:	68fb      	ldr	r3, [r7, #12]
  404e84:	2b00      	cmp	r3, #0
  404e86:	d101      	bne.n	404e8c <pvPortMalloc+0xe0>
  404e88:	4b0a      	ldr	r3, [pc, #40]	; (404eb4 <pvPortMalloc+0x108>)
  404e8a:	4798      	blx	r3
  404e8c:	68fb      	ldr	r3, [r7, #12]
  404e8e:	4618      	mov	r0, r3
  404e90:	3718      	adds	r7, #24
  404e92:	46bd      	mov	sp, r7
  404e94:	bd80      	pop	{r7, pc}
  404e96:	bf00      	nop
  404e98:	00405ac5 	.word	0x00405ac5
  404e9c:	200028c8 	.word	0x200028c8
  404ea0:	00404f0d 	.word	0x00404f0d
  404ea4:	200028c0 	.word	0x200028c0
  404ea8:	00404f9d 	.word	0x00404f9d
  404eac:	20000120 	.word	0x20000120
  404eb0:	00405ae1 	.word	0x00405ae1
  404eb4:	00407059 	.word	0x00407059

00404eb8 <vPortFree>:
  404eb8:	b580      	push	{r7, lr}
  404eba:	b084      	sub	sp, #16
  404ebc:	af00      	add	r7, sp, #0
  404ebe:	6078      	str	r0, [r7, #4]
  404ec0:	687b      	ldr	r3, [r7, #4]
  404ec2:	60fb      	str	r3, [r7, #12]
  404ec4:	687b      	ldr	r3, [r7, #4]
  404ec6:	2b00      	cmp	r3, #0
  404ec8:	d014      	beq.n	404ef4 <vPortFree+0x3c>
  404eca:	2310      	movs	r3, #16
  404ecc:	425b      	negs	r3, r3
  404ece:	68fa      	ldr	r2, [r7, #12]
  404ed0:	4413      	add	r3, r2
  404ed2:	60fb      	str	r3, [r7, #12]
  404ed4:	68fb      	ldr	r3, [r7, #12]
  404ed6:	60bb      	str	r3, [r7, #8]
  404ed8:	4b08      	ldr	r3, [pc, #32]	; (404efc <vPortFree+0x44>)
  404eda:	4798      	blx	r3
  404edc:	68bb      	ldr	r3, [r7, #8]
  404ede:	685a      	ldr	r2, [r3, #4]
  404ee0:	4b07      	ldr	r3, [pc, #28]	; (404f00 <vPortFree+0x48>)
  404ee2:	681b      	ldr	r3, [r3, #0]
  404ee4:	4413      	add	r3, r2
  404ee6:	4a06      	ldr	r2, [pc, #24]	; (404f00 <vPortFree+0x48>)
  404ee8:	6013      	str	r3, [r2, #0]
  404eea:	68b8      	ldr	r0, [r7, #8]
  404eec:	4b05      	ldr	r3, [pc, #20]	; (404f04 <vPortFree+0x4c>)
  404eee:	4798      	blx	r3
  404ef0:	4b05      	ldr	r3, [pc, #20]	; (404f08 <vPortFree+0x50>)
  404ef2:	4798      	blx	r3
  404ef4:	bf00      	nop
  404ef6:	3710      	adds	r7, #16
  404ef8:	46bd      	mov	sp, r7
  404efa:	bd80      	pop	{r7, pc}
  404efc:	00405ac5 	.word	0x00405ac5
  404f00:	20000120 	.word	0x20000120
  404f04:	00404f9d 	.word	0x00404f9d
  404f08:	00405ae1 	.word	0x00405ae1

00404f0c <prvHeapInit>:
  404f0c:	b580      	push	{r7, lr}
  404f0e:	b082      	sub	sp, #8
  404f10:	af00      	add	r7, sp, #0
  404f12:	4b1d      	ldr	r3, [pc, #116]	; (404f88 <prvHeapInit+0x7c>)
  404f14:	4a1d      	ldr	r2, [pc, #116]	; (404f8c <prvHeapInit+0x80>)
  404f16:	601a      	str	r2, [r3, #0]
  404f18:	4b1b      	ldr	r3, [pc, #108]	; (404f88 <prvHeapInit+0x7c>)
  404f1a:	2200      	movs	r2, #0
  404f1c:	605a      	str	r2, [r3, #4]
  404f1e:	f44f 5200 	mov.w	r2, #8192	; 0x2000
  404f22:	4b1a      	ldr	r3, [pc, #104]	; (404f8c <prvHeapInit+0x80>)
  404f24:	4413      	add	r3, r2
  404f26:	607b      	str	r3, [r7, #4]
  404f28:	2310      	movs	r3, #16
  404f2a:	425b      	negs	r3, r3
  404f2c:	687a      	ldr	r2, [r7, #4]
  404f2e:	4413      	add	r3, r2
  404f30:	607b      	str	r3, [r7, #4]
  404f32:	4a17      	ldr	r2, [pc, #92]	; (404f90 <prvHeapInit+0x84>)
  404f34:	687b      	ldr	r3, [r7, #4]
  404f36:	6013      	str	r3, [r2, #0]
  404f38:	4b15      	ldr	r3, [pc, #84]	; (404f90 <prvHeapInit+0x84>)
  404f3a:	681b      	ldr	r3, [r3, #0]
  404f3c:	f003 0307 	and.w	r3, r3, #7
  404f40:	2b00      	cmp	r3, #0
  404f42:	d003      	beq.n	404f4c <prvHeapInit+0x40>
  404f44:	4b13      	ldr	r3, [pc, #76]	; (404f94 <prvHeapInit+0x88>)
  404f46:	4798      	blx	r3
  404f48:	bf00      	nop
  404f4a:	e7fd      	b.n	404f48 <prvHeapInit+0x3c>
  404f4c:	4b10      	ldr	r3, [pc, #64]	; (404f90 <prvHeapInit+0x84>)
  404f4e:	681b      	ldr	r3, [r3, #0]
  404f50:	2200      	movs	r2, #0
  404f52:	605a      	str	r2, [r3, #4]
  404f54:	4b0e      	ldr	r3, [pc, #56]	; (404f90 <prvHeapInit+0x84>)
  404f56:	681b      	ldr	r3, [r3, #0]
  404f58:	2200      	movs	r2, #0
  404f5a:	601a      	str	r2, [r3, #0]
  404f5c:	4b0b      	ldr	r3, [pc, #44]	; (404f8c <prvHeapInit+0x80>)
  404f5e:	603b      	str	r3, [r7, #0]
  404f60:	f44f 5300 	mov.w	r3, #8192	; 0x2000
  404f64:	2210      	movs	r2, #16
  404f66:	1a9a      	subs	r2, r3, r2
  404f68:	683b      	ldr	r3, [r7, #0]
  404f6a:	605a      	str	r2, [r3, #4]
  404f6c:	4b08      	ldr	r3, [pc, #32]	; (404f90 <prvHeapInit+0x84>)
  404f6e:	681a      	ldr	r2, [r3, #0]
  404f70:	683b      	ldr	r3, [r7, #0]
  404f72:	601a      	str	r2, [r3, #0]
  404f74:	4b08      	ldr	r3, [pc, #32]	; (404f98 <prvHeapInit+0x8c>)
  404f76:	681b      	ldr	r3, [r3, #0]
  404f78:	2210      	movs	r2, #16
  404f7a:	1a9b      	subs	r3, r3, r2
  404f7c:	4a06      	ldr	r2, [pc, #24]	; (404f98 <prvHeapInit+0x8c>)
  404f7e:	6013      	str	r3, [r2, #0]
  404f80:	bf00      	nop
  404f82:	3708      	adds	r7, #8
  404f84:	46bd      	mov	sp, r7
  404f86:	bd80      	pop	{r7, pc}
  404f88:	200028c0 	.word	0x200028c0
  404f8c:	200008c0 	.word	0x200008c0
  404f90:	200028c8 	.word	0x200028c8
  404f94:	00404ced 	.word	0x00404ced
  404f98:	20000120 	.word	0x20000120

00404f9c <prvInsertBlockIntoFreeList>:
  404f9c:	b480      	push	{r7}
  404f9e:	b085      	sub	sp, #20
  404fa0:	af00      	add	r7, sp, #0
  404fa2:	6078      	str	r0, [r7, #4]
  404fa4:	4b27      	ldr	r3, [pc, #156]	; (405044 <prvInsertBlockIntoFreeList+0xa8>)
  404fa6:	60fb      	str	r3, [r7, #12]
  404fa8:	e002      	b.n	404fb0 <prvInsertBlockIntoFreeList+0x14>
  404faa:	68fb      	ldr	r3, [r7, #12]
  404fac:	681b      	ldr	r3, [r3, #0]
  404fae:	60fb      	str	r3, [r7, #12]
  404fb0:	68fb      	ldr	r3, [r7, #12]
  404fb2:	681a      	ldr	r2, [r3, #0]
  404fb4:	687b      	ldr	r3, [r7, #4]
  404fb6:	429a      	cmp	r2, r3
  404fb8:	d3f7      	bcc.n	404faa <prvInsertBlockIntoFreeList+0xe>
  404fba:	68fb      	ldr	r3, [r7, #12]
  404fbc:	60bb      	str	r3, [r7, #8]
  404fbe:	68fb      	ldr	r3, [r7, #12]
  404fc0:	685b      	ldr	r3, [r3, #4]
  404fc2:	68ba      	ldr	r2, [r7, #8]
  404fc4:	441a      	add	r2, r3
  404fc6:	687b      	ldr	r3, [r7, #4]
  404fc8:	429a      	cmp	r2, r3
  404fca:	d108      	bne.n	404fde <prvInsertBlockIntoFreeList+0x42>
  404fcc:	68fb      	ldr	r3, [r7, #12]
  404fce:	685a      	ldr	r2, [r3, #4]
  404fd0:	687b      	ldr	r3, [r7, #4]
  404fd2:	685b      	ldr	r3, [r3, #4]
  404fd4:	441a      	add	r2, r3
  404fd6:	68fb      	ldr	r3, [r7, #12]
  404fd8:	605a      	str	r2, [r3, #4]
  404fda:	68fb      	ldr	r3, [r7, #12]
  404fdc:	607b      	str	r3, [r7, #4]
  404fde:	687b      	ldr	r3, [r7, #4]
  404fe0:	60bb      	str	r3, [r7, #8]
  404fe2:	687b      	ldr	r3, [r7, #4]
  404fe4:	685b      	ldr	r3, [r3, #4]
  404fe6:	68ba      	ldr	r2, [r7, #8]
  404fe8:	441a      	add	r2, r3
  404fea:	68fb      	ldr	r3, [r7, #12]
  404fec:	681b      	ldr	r3, [r3, #0]
  404fee:	429a      	cmp	r2, r3
  404ff0:	d118      	bne.n	405024 <prvInsertBlockIntoFreeList+0x88>
  404ff2:	68fb      	ldr	r3, [r7, #12]
  404ff4:	681a      	ldr	r2, [r3, #0]
  404ff6:	4b14      	ldr	r3, [pc, #80]	; (405048 <prvInsertBlockIntoFreeList+0xac>)
  404ff8:	681b      	ldr	r3, [r3, #0]
  404ffa:	429a      	cmp	r2, r3
  404ffc:	d00d      	beq.n	40501a <prvInsertBlockIntoFreeList+0x7e>
  404ffe:	687b      	ldr	r3, [r7, #4]
  405000:	685a      	ldr	r2, [r3, #4]
  405002:	68fb      	ldr	r3, [r7, #12]
  405004:	681b      	ldr	r3, [r3, #0]
  405006:	685b      	ldr	r3, [r3, #4]
  405008:	441a      	add	r2, r3
  40500a:	687b      	ldr	r3, [r7, #4]
  40500c:	605a      	str	r2, [r3, #4]
  40500e:	68fb      	ldr	r3, [r7, #12]
  405010:	681b      	ldr	r3, [r3, #0]
  405012:	681a      	ldr	r2, [r3, #0]
  405014:	687b      	ldr	r3, [r7, #4]
  405016:	601a      	str	r2, [r3, #0]
  405018:	e008      	b.n	40502c <prvInsertBlockIntoFreeList+0x90>
  40501a:	4b0b      	ldr	r3, [pc, #44]	; (405048 <prvInsertBlockIntoFreeList+0xac>)
  40501c:	681a      	ldr	r2, [r3, #0]
  40501e:	687b      	ldr	r3, [r7, #4]
  405020:	601a      	str	r2, [r3, #0]
  405022:	e003      	b.n	40502c <prvInsertBlockIntoFreeList+0x90>
  405024:	68fb      	ldr	r3, [r7, #12]
  405026:	681a      	ldr	r2, [r3, #0]
  405028:	687b      	ldr	r3, [r7, #4]
  40502a:	601a      	str	r2, [r3, #0]
  40502c:	68fa      	ldr	r2, [r7, #12]
  40502e:	687b      	ldr	r3, [r7, #4]
  405030:	429a      	cmp	r2, r3
  405032:	d002      	beq.n	40503a <prvInsertBlockIntoFreeList+0x9e>
  405034:	68fb      	ldr	r3, [r7, #12]
  405036:	687a      	ldr	r2, [r7, #4]
  405038:	601a      	str	r2, [r3, #0]
  40503a:	bf00      	nop
  40503c:	3714      	adds	r7, #20
  40503e:	46bd      	mov	sp, r7
  405040:	bc80      	pop	{r7}
  405042:	4770      	bx	lr
  405044:	200028c0 	.word	0x200028c0
  405048:	200028c8 	.word	0x200028c8

0040504c <xQueueGenericReset>:
  40504c:	b580      	push	{r7, lr}
  40504e:	b082      	sub	sp, #8
  405050:	af00      	add	r7, sp, #0
  405052:	6078      	str	r0, [r7, #4]
  405054:	6039      	str	r1, [r7, #0]
  405056:	687b      	ldr	r3, [r7, #4]
  405058:	2b00      	cmp	r3, #0
  40505a:	d103      	bne.n	405064 <xQueueGenericReset+0x18>
  40505c:	4b27      	ldr	r3, [pc, #156]	; (4050fc <xQueueGenericReset+0xb0>)
  40505e:	4798      	blx	r3
  405060:	bf00      	nop
  405062:	e7fd      	b.n	405060 <xQueueGenericReset+0x14>
  405064:	4b26      	ldr	r3, [pc, #152]	; (405100 <xQueueGenericReset+0xb4>)
  405066:	4798      	blx	r3
  405068:	687b      	ldr	r3, [r7, #4]
  40506a:	681a      	ldr	r2, [r3, #0]
  40506c:	687b      	ldr	r3, [r7, #4]
  40506e:	6bdb      	ldr	r3, [r3, #60]	; 0x3c
  405070:	6879      	ldr	r1, [r7, #4]
  405072:	6c09      	ldr	r1, [r1, #64]	; 0x40
  405074:	fb01 f303 	mul.w	r3, r1, r3
  405078:	441a      	add	r2, r3
  40507a:	687b      	ldr	r3, [r7, #4]
  40507c:	605a      	str	r2, [r3, #4]
  40507e:	687b      	ldr	r3, [r7, #4]
  405080:	2200      	movs	r2, #0
  405082:	639a      	str	r2, [r3, #56]	; 0x38
  405084:	687b      	ldr	r3, [r7, #4]
  405086:	681a      	ldr	r2, [r3, #0]
  405088:	687b      	ldr	r3, [r7, #4]
  40508a:	609a      	str	r2, [r3, #8]
  40508c:	687b      	ldr	r3, [r7, #4]
  40508e:	681a      	ldr	r2, [r3, #0]
  405090:	687b      	ldr	r3, [r7, #4]
  405092:	6bdb      	ldr	r3, [r3, #60]	; 0x3c
  405094:	3b01      	subs	r3, #1
  405096:	6879      	ldr	r1, [r7, #4]
  405098:	6c09      	ldr	r1, [r1, #64]	; 0x40
  40509a:	fb01 f303 	mul.w	r3, r1, r3
  40509e:	441a      	add	r2, r3
  4050a0:	687b      	ldr	r3, [r7, #4]
  4050a2:	60da      	str	r2, [r3, #12]
  4050a4:	687b      	ldr	r3, [r7, #4]
  4050a6:	f04f 32ff 	mov.w	r2, #4294967295
  4050aa:	645a      	str	r2, [r3, #68]	; 0x44
  4050ac:	687b      	ldr	r3, [r7, #4]
  4050ae:	f04f 32ff 	mov.w	r2, #4294967295
  4050b2:	649a      	str	r2, [r3, #72]	; 0x48
  4050b4:	683b      	ldr	r3, [r7, #0]
  4050b6:	2b00      	cmp	r3, #0
  4050b8:	d10e      	bne.n	4050d8 <xQueueGenericReset+0x8c>
  4050ba:	687b      	ldr	r3, [r7, #4]
  4050bc:	691b      	ldr	r3, [r3, #16]
  4050be:	2b00      	cmp	r3, #0
  4050c0:	d014      	beq.n	4050ec <xQueueGenericReset+0xa0>
  4050c2:	687b      	ldr	r3, [r7, #4]
  4050c4:	3310      	adds	r3, #16
  4050c6:	4618      	mov	r0, r3
  4050c8:	4b0e      	ldr	r3, [pc, #56]	; (405104 <xQueueGenericReset+0xb8>)
  4050ca:	4798      	blx	r3
  4050cc:	4603      	mov	r3, r0
  4050ce:	2b01      	cmp	r3, #1
  4050d0:	d10c      	bne.n	4050ec <xQueueGenericReset+0xa0>
  4050d2:	4b0d      	ldr	r3, [pc, #52]	; (405108 <xQueueGenericReset+0xbc>)
  4050d4:	4798      	blx	r3
  4050d6:	e009      	b.n	4050ec <xQueueGenericReset+0xa0>
  4050d8:	687b      	ldr	r3, [r7, #4]
  4050da:	3310      	adds	r3, #16
  4050dc:	4618      	mov	r0, r3
  4050de:	4b0b      	ldr	r3, [pc, #44]	; (40510c <xQueueGenericReset+0xc0>)
  4050e0:	4798      	blx	r3
  4050e2:	687b      	ldr	r3, [r7, #4]
  4050e4:	3324      	adds	r3, #36	; 0x24
  4050e6:	4618      	mov	r0, r3
  4050e8:	4b08      	ldr	r3, [pc, #32]	; (40510c <xQueueGenericReset+0xc0>)
  4050ea:	4798      	blx	r3
  4050ec:	4b08      	ldr	r3, [pc, #32]	; (405110 <xQueueGenericReset+0xc4>)
  4050ee:	4798      	blx	r3
  4050f0:	2301      	movs	r3, #1
  4050f2:	4618      	mov	r0, r3
  4050f4:	3708      	adds	r7, #8
  4050f6:	46bd      	mov	sp, r7
  4050f8:	bd80      	pop	{r7, pc}
  4050fa:	bf00      	nop
  4050fc:	00404ced 	.word	0x00404ced
  405100:	00404ca5 	.word	0x00404ca5
  405104:	00405f05 	.word	0x00405f05
  405108:	00404c8d 	.word	0x00404c8d
  40510c:	004049b1 	.word	0x004049b1
  405110:	00404cc5 	.word	0x00404cc5

00405114 <xQueueGenericCreate>:
  405114:	b580      	push	{r7, lr}
  405116:	b088      	sub	sp, #32
  405118:	af00      	add	r7, sp, #0
  40511a:	60f8      	str	r0, [r7, #12]
  40511c:	60b9      	str	r1, [r7, #8]
  40511e:	4613      	mov	r3, r2
  405120:	71fb      	strb	r3, [r7, #7]
  405122:	2300      	movs	r3, #0
  405124:	61fb      	str	r3, [r7, #28]
  405126:	68fb      	ldr	r3, [r7, #12]
  405128:	2b00      	cmp	r3, #0
  40512a:	d026      	beq.n	40517a <xQueueGenericCreate+0x66>
  40512c:	204c      	movs	r0, #76	; 0x4c
  40512e:	4b19      	ldr	r3, [pc, #100]	; (405194 <xQueueGenericCreate+0x80>)
  405130:	4798      	blx	r3
  405132:	61b8      	str	r0, [r7, #24]
  405134:	69bb      	ldr	r3, [r7, #24]
  405136:	2b00      	cmp	r3, #0
  405138:	d01f      	beq.n	40517a <xQueueGenericCreate+0x66>
  40513a:	68fb      	ldr	r3, [r7, #12]
  40513c:	68ba      	ldr	r2, [r7, #8]
  40513e:	fb02 f303 	mul.w	r3, r2, r3
  405142:	3301      	adds	r3, #1
  405144:	617b      	str	r3, [r7, #20]
  405146:	6978      	ldr	r0, [r7, #20]
  405148:	4b12      	ldr	r3, [pc, #72]	; (405194 <xQueueGenericCreate+0x80>)
  40514a:	4798      	blx	r3
  40514c:	4602      	mov	r2, r0
  40514e:	69bb      	ldr	r3, [r7, #24]
  405150:	601a      	str	r2, [r3, #0]
  405152:	69bb      	ldr	r3, [r7, #24]
  405154:	681b      	ldr	r3, [r3, #0]
  405156:	2b00      	cmp	r3, #0
  405158:	d00c      	beq.n	405174 <xQueueGenericCreate+0x60>
  40515a:	69bb      	ldr	r3, [r7, #24]
  40515c:	68fa      	ldr	r2, [r7, #12]
  40515e:	63da      	str	r2, [r3, #60]	; 0x3c
  405160:	69bb      	ldr	r3, [r7, #24]
  405162:	68ba      	ldr	r2, [r7, #8]
  405164:	641a      	str	r2, [r3, #64]	; 0x40
  405166:	2101      	movs	r1, #1
  405168:	69b8      	ldr	r0, [r7, #24]
  40516a:	4b0b      	ldr	r3, [pc, #44]	; (405198 <xQueueGenericCreate+0x84>)
  40516c:	4798      	blx	r3
  40516e:	69bb      	ldr	r3, [r7, #24]
  405170:	61fb      	str	r3, [r7, #28]
  405172:	e002      	b.n	40517a <xQueueGenericCreate+0x66>
  405174:	69b8      	ldr	r0, [r7, #24]
  405176:	4b09      	ldr	r3, [pc, #36]	; (40519c <xQueueGenericCreate+0x88>)
  405178:	4798      	blx	r3
  40517a:	69fb      	ldr	r3, [r7, #28]
  40517c:	2b00      	cmp	r3, #0
  40517e:	d103      	bne.n	405188 <xQueueGenericCreate+0x74>
  405180:	4b07      	ldr	r3, [pc, #28]	; (4051a0 <xQueueGenericCreate+0x8c>)
  405182:	4798      	blx	r3
  405184:	bf00      	nop
  405186:	e7fd      	b.n	405184 <xQueueGenericCreate+0x70>
  405188:	69fb      	ldr	r3, [r7, #28]
  40518a:	4618      	mov	r0, r3
  40518c:	3720      	adds	r7, #32
  40518e:	46bd      	mov	sp, r7
  405190:	bd80      	pop	{r7, pc}
  405192:	bf00      	nop
  405194:	00404dad 	.word	0x00404dad
  405198:	0040504d 	.word	0x0040504d
  40519c:	00404eb9 	.word	0x00404eb9
  4051a0:	00404ced 	.word	0x00404ced

004051a4 <xQueueGenericSend>:
  4051a4:	b580      	push	{r7, lr}
  4051a6:	b088      	sub	sp, #32
  4051a8:	af00      	add	r7, sp, #0
  4051aa:	60f8      	str	r0, [r7, #12]
  4051ac:	60b9      	str	r1, [r7, #8]
  4051ae:	607a      	str	r2, [r7, #4]
  4051b0:	603b      	str	r3, [r7, #0]
  4051b2:	2300      	movs	r3, #0
  4051b4:	61fb      	str	r3, [r7, #28]
  4051b6:	68fb      	ldr	r3, [r7, #12]
  4051b8:	2b00      	cmp	r3, #0
  4051ba:	d103      	bne.n	4051c4 <xQueueGenericSend+0x20>
  4051bc:	4b46      	ldr	r3, [pc, #280]	; (4052d8 <xQueueGenericSend+0x134>)
  4051be:	4798      	blx	r3
  4051c0:	bf00      	nop
  4051c2:	e7fd      	b.n	4051c0 <xQueueGenericSend+0x1c>
  4051c4:	68bb      	ldr	r3, [r7, #8]
  4051c6:	2b00      	cmp	r3, #0
  4051c8:	d103      	bne.n	4051d2 <xQueueGenericSend+0x2e>
  4051ca:	68fb      	ldr	r3, [r7, #12]
  4051cc:	6c1b      	ldr	r3, [r3, #64]	; 0x40
  4051ce:	2b00      	cmp	r3, #0
  4051d0:	d101      	bne.n	4051d6 <xQueueGenericSend+0x32>
  4051d2:	2301      	movs	r3, #1
  4051d4:	e000      	b.n	4051d8 <xQueueGenericSend+0x34>
  4051d6:	2300      	movs	r3, #0
  4051d8:	2b00      	cmp	r3, #0
  4051da:	d103      	bne.n	4051e4 <xQueueGenericSend+0x40>
  4051dc:	4b3e      	ldr	r3, [pc, #248]	; (4052d8 <xQueueGenericSend+0x134>)
  4051de:	4798      	blx	r3
  4051e0:	bf00      	nop
  4051e2:	e7fd      	b.n	4051e0 <xQueueGenericSend+0x3c>
  4051e4:	4b3d      	ldr	r3, [pc, #244]	; (4052dc <xQueueGenericSend+0x138>)
  4051e6:	4798      	blx	r3
  4051e8:	68fb      	ldr	r3, [r7, #12]
  4051ea:	6b9a      	ldr	r2, [r3, #56]	; 0x38
  4051ec:	68fb      	ldr	r3, [r7, #12]
  4051ee:	6bdb      	ldr	r3, [r3, #60]	; 0x3c
  4051f0:	429a      	cmp	r2, r3
  4051f2:	d216      	bcs.n	405222 <xQueueGenericSend+0x7e>
  4051f4:	683a      	ldr	r2, [r7, #0]
  4051f6:	68b9      	ldr	r1, [r7, #8]
  4051f8:	68f8      	ldr	r0, [r7, #12]
  4051fa:	4b39      	ldr	r3, [pc, #228]	; (4052e0 <xQueueGenericSend+0x13c>)
  4051fc:	4798      	blx	r3
  4051fe:	68fb      	ldr	r3, [r7, #12]
  405200:	6a5b      	ldr	r3, [r3, #36]	; 0x24
  405202:	2b00      	cmp	r3, #0
  405204:	d009      	beq.n	40521a <xQueueGenericSend+0x76>
  405206:	68fb      	ldr	r3, [r7, #12]
  405208:	3324      	adds	r3, #36	; 0x24
  40520a:	4618      	mov	r0, r3
  40520c:	4b35      	ldr	r3, [pc, #212]	; (4052e4 <xQueueGenericSend+0x140>)
  40520e:	4798      	blx	r3
  405210:	4603      	mov	r3, r0
  405212:	2b01      	cmp	r3, #1
  405214:	d101      	bne.n	40521a <xQueueGenericSend+0x76>
  405216:	4b34      	ldr	r3, [pc, #208]	; (4052e8 <xQueueGenericSend+0x144>)
  405218:	4798      	blx	r3
  40521a:	4b34      	ldr	r3, [pc, #208]	; (4052ec <xQueueGenericSend+0x148>)
  40521c:	4798      	blx	r3
  40521e:	2301      	movs	r3, #1
  405220:	e056      	b.n	4052d0 <xQueueGenericSend+0x12c>
  405222:	687b      	ldr	r3, [r7, #4]
  405224:	2b00      	cmp	r3, #0
  405226:	d103      	bne.n	405230 <xQueueGenericSend+0x8c>
  405228:	4b30      	ldr	r3, [pc, #192]	; (4052ec <xQueueGenericSend+0x148>)
  40522a:	4798      	blx	r3
  40522c:	2300      	movs	r3, #0
  40522e:	e04f      	b.n	4052d0 <xQueueGenericSend+0x12c>
  405230:	69fb      	ldr	r3, [r7, #28]
  405232:	2b00      	cmp	r3, #0
  405234:	d106      	bne.n	405244 <xQueueGenericSend+0xa0>
  405236:	f107 0314 	add.w	r3, r7, #20
  40523a:	4618      	mov	r0, r3
  40523c:	4b2c      	ldr	r3, [pc, #176]	; (4052f0 <xQueueGenericSend+0x14c>)
  40523e:	4798      	blx	r3
  405240:	2301      	movs	r3, #1
  405242:	61fb      	str	r3, [r7, #28]
  405244:	4b29      	ldr	r3, [pc, #164]	; (4052ec <xQueueGenericSend+0x148>)
  405246:	4798      	blx	r3
  405248:	4b2a      	ldr	r3, [pc, #168]	; (4052f4 <xQueueGenericSend+0x150>)
  40524a:	4798      	blx	r3
  40524c:	4b23      	ldr	r3, [pc, #140]	; (4052dc <xQueueGenericSend+0x138>)
  40524e:	4798      	blx	r3
  405250:	68fb      	ldr	r3, [r7, #12]
  405252:	6c5b      	ldr	r3, [r3, #68]	; 0x44
  405254:	f1b3 3fff 	cmp.w	r3, #4294967295
  405258:	d102      	bne.n	405260 <xQueueGenericSend+0xbc>
  40525a:	68fb      	ldr	r3, [r7, #12]
  40525c:	2200      	movs	r2, #0
  40525e:	645a      	str	r2, [r3, #68]	; 0x44
  405260:	68fb      	ldr	r3, [r7, #12]
  405262:	6c9b      	ldr	r3, [r3, #72]	; 0x48
  405264:	f1b3 3fff 	cmp.w	r3, #4294967295
  405268:	d102      	bne.n	405270 <xQueueGenericSend+0xcc>
  40526a:	68fb      	ldr	r3, [r7, #12]
  40526c:	2200      	movs	r2, #0
  40526e:	649a      	str	r2, [r3, #72]	; 0x48
  405270:	4b1e      	ldr	r3, [pc, #120]	; (4052ec <xQueueGenericSend+0x148>)
  405272:	4798      	blx	r3
  405274:	1d3a      	adds	r2, r7, #4
  405276:	f107 0314 	add.w	r3, r7, #20
  40527a:	4611      	mov	r1, r2
  40527c:	4618      	mov	r0, r3
  40527e:	4b1e      	ldr	r3, [pc, #120]	; (4052f8 <xQueueGenericSend+0x154>)
  405280:	4798      	blx	r3
  405282:	4603      	mov	r3, r0
  405284:	2b00      	cmp	r3, #0
  405286:	d11d      	bne.n	4052c4 <xQueueGenericSend+0x120>
  405288:	68f8      	ldr	r0, [r7, #12]
  40528a:	4b1c      	ldr	r3, [pc, #112]	; (4052fc <xQueueGenericSend+0x158>)
  40528c:	4798      	blx	r3
  40528e:	4603      	mov	r3, r0
  405290:	2b00      	cmp	r3, #0
  405292:	d011      	beq.n	4052b8 <xQueueGenericSend+0x114>
  405294:	68fb      	ldr	r3, [r7, #12]
  405296:	3310      	adds	r3, #16
  405298:	687a      	ldr	r2, [r7, #4]
  40529a:	4611      	mov	r1, r2
  40529c:	4618      	mov	r0, r3
  40529e:	4b18      	ldr	r3, [pc, #96]	; (405300 <xQueueGenericSend+0x15c>)
  4052a0:	4798      	blx	r3
  4052a2:	68f8      	ldr	r0, [r7, #12]
  4052a4:	4b17      	ldr	r3, [pc, #92]	; (405304 <xQueueGenericSend+0x160>)
  4052a6:	4798      	blx	r3
  4052a8:	4b17      	ldr	r3, [pc, #92]	; (405308 <xQueueGenericSend+0x164>)
  4052aa:	4798      	blx	r3
  4052ac:	4603      	mov	r3, r0
  4052ae:	2b00      	cmp	r3, #0
  4052b0:	d198      	bne.n	4051e4 <xQueueGenericSend+0x40>
  4052b2:	4b0d      	ldr	r3, [pc, #52]	; (4052e8 <xQueueGenericSend+0x144>)
  4052b4:	4798      	blx	r3
  4052b6:	e795      	b.n	4051e4 <xQueueGenericSend+0x40>
  4052b8:	68f8      	ldr	r0, [r7, #12]
  4052ba:	4b12      	ldr	r3, [pc, #72]	; (405304 <xQueueGenericSend+0x160>)
  4052bc:	4798      	blx	r3
  4052be:	4b12      	ldr	r3, [pc, #72]	; (405308 <xQueueGenericSend+0x164>)
  4052c0:	4798      	blx	r3
  4052c2:	e78f      	b.n	4051e4 <xQueueGenericSend+0x40>
  4052c4:	68f8      	ldr	r0, [r7, #12]
  4052c6:	4b0f      	ldr	r3, [pc, #60]	; (405304 <xQueueGenericSend+0x160>)
  4052c8:	4798      	blx	r3
  4052ca:	4b0f      	ldr	r3, [pc, #60]	; (405308 <xQueueGenericSend+0x164>)
  4052cc:	4798      	blx	r3
  4052ce:	2300      	movs	r3, #0
  4052d0:	4618      	mov	r0, r3
  4052d2:	3720      	adds	r7, #32
  4052d4:	46bd      	mov	sp, r7
  4052d6:	bd80      	pop	{r7, pc}
  4052d8:	00404ced 	.word	0x00404ced
  4052dc:	00404ca5 	.word	0x00404ca5
  4052e0:	0040559d 	.word	0x0040559d
  4052e4:	00405f05 	.word	0x00405f05
  4052e8:	00404c8d 	.word	0x00404c8d
  4052ec:	00404cc5 	.word	0x00404cc5
  4052f0:	00405fc1 	.word	0x00405fc1
  4052f4:	00405ac5 	.word	0x00405ac5
  4052f8:	00405ffd 	.word	0x00405ffd
  4052fc:	00405789 	.word	0x00405789
  405300:	00405e1d 	.word	0x00405e1d
  405304:	004056ad 	.word	0x004056ad
  405308:	00405ae1 	.word	0x00405ae1

0040530c <xQueueGenericSendFromISR>:
  40530c:	b580      	push	{r7, lr}
  40530e:	b086      	sub	sp, #24
  405310:	af00      	add	r7, sp, #0
  405312:	60f8      	str	r0, [r7, #12]
  405314:	60b9      	str	r1, [r7, #8]
  405316:	607a      	str	r2, [r7, #4]
  405318:	603b      	str	r3, [r7, #0]
  40531a:	68fb      	ldr	r3, [r7, #12]
  40531c:	2b00      	cmp	r3, #0
  40531e:	d103      	bne.n	405328 <xQueueGenericSendFromISR+0x1c>
  405320:	4b25      	ldr	r3, [pc, #148]	; (4053b8 <xQueueGenericSendFromISR+0xac>)
  405322:	4798      	blx	r3
  405324:	bf00      	nop
  405326:	e7fd      	b.n	405324 <xQueueGenericSendFromISR+0x18>
  405328:	68bb      	ldr	r3, [r7, #8]
  40532a:	2b00      	cmp	r3, #0
  40532c:	d103      	bne.n	405336 <xQueueGenericSendFromISR+0x2a>
  40532e:	68fb      	ldr	r3, [r7, #12]
  405330:	6c1b      	ldr	r3, [r3, #64]	; 0x40
  405332:	2b00      	cmp	r3, #0
  405334:	d101      	bne.n	40533a <xQueueGenericSendFromISR+0x2e>
  405336:	2301      	movs	r3, #1
  405338:	e000      	b.n	40533c <xQueueGenericSendFromISR+0x30>
  40533a:	2300      	movs	r3, #0
  40533c:	2b00      	cmp	r3, #0
  40533e:	d103      	bne.n	405348 <xQueueGenericSendFromISR+0x3c>
  405340:	4b1d      	ldr	r3, [pc, #116]	; (4053b8 <xQueueGenericSendFromISR+0xac>)
  405342:	4798      	blx	r3
  405344:	bf00      	nop
  405346:	e7fd      	b.n	405344 <xQueueGenericSendFromISR+0x38>
  405348:	4b1b      	ldr	r3, [pc, #108]	; (4053b8 <xQueueGenericSendFromISR+0xac>)
  40534a:	4798      	blx	r3
  40534c:	6138      	str	r0, [r7, #16]
  40534e:	68fb      	ldr	r3, [r7, #12]
  405350:	6b9a      	ldr	r2, [r3, #56]	; 0x38
  405352:	68fb      	ldr	r3, [r7, #12]
  405354:	6bdb      	ldr	r3, [r3, #60]	; 0x3c
  405356:	429a      	cmp	r2, r3
  405358:	d224      	bcs.n	4053a4 <xQueueGenericSendFromISR+0x98>
  40535a:	683a      	ldr	r2, [r7, #0]
  40535c:	68b9      	ldr	r1, [r7, #8]
  40535e:	68f8      	ldr	r0, [r7, #12]
  405360:	4b16      	ldr	r3, [pc, #88]	; (4053bc <xQueueGenericSendFromISR+0xb0>)
  405362:	4798      	blx	r3
  405364:	68fb      	ldr	r3, [r7, #12]
  405366:	6c9b      	ldr	r3, [r3, #72]	; 0x48
  405368:	f1b3 3fff 	cmp.w	r3, #4294967295
  40536c:	d112      	bne.n	405394 <xQueueGenericSendFromISR+0x88>
  40536e:	68fb      	ldr	r3, [r7, #12]
  405370:	6a5b      	ldr	r3, [r3, #36]	; 0x24
  405372:	2b00      	cmp	r3, #0
  405374:	d013      	beq.n	40539e <xQueueGenericSendFromISR+0x92>
  405376:	68fb      	ldr	r3, [r7, #12]
  405378:	3324      	adds	r3, #36	; 0x24
  40537a:	4618      	mov	r0, r3
  40537c:	4b10      	ldr	r3, [pc, #64]	; (4053c0 <xQueueGenericSendFromISR+0xb4>)
  40537e:	4798      	blx	r3
  405380:	4603      	mov	r3, r0
  405382:	2b00      	cmp	r3, #0
  405384:	d00b      	beq.n	40539e <xQueueGenericSendFromISR+0x92>
  405386:	687b      	ldr	r3, [r7, #4]
  405388:	2b00      	cmp	r3, #0
  40538a:	d008      	beq.n	40539e <xQueueGenericSendFromISR+0x92>
  40538c:	687b      	ldr	r3, [r7, #4]
  40538e:	2201      	movs	r2, #1
  405390:	601a      	str	r2, [r3, #0]
  405392:	e004      	b.n	40539e <xQueueGenericSendFromISR+0x92>
  405394:	68fb      	ldr	r3, [r7, #12]
  405396:	6c9b      	ldr	r3, [r3, #72]	; 0x48
  405398:	1c5a      	adds	r2, r3, #1
  40539a:	68fb      	ldr	r3, [r7, #12]
  40539c:	649a      	str	r2, [r3, #72]	; 0x48
  40539e:	2301      	movs	r3, #1
  4053a0:	617b      	str	r3, [r7, #20]
  4053a2:	e001      	b.n	4053a8 <xQueueGenericSendFromISR+0x9c>
  4053a4:	2300      	movs	r3, #0
  4053a6:	617b      	str	r3, [r7, #20]
  4053a8:	6938      	ldr	r0, [r7, #16]
  4053aa:	4b06      	ldr	r3, [pc, #24]	; (4053c4 <xQueueGenericSendFromISR+0xb8>)
  4053ac:	4798      	blx	r3
  4053ae:	697b      	ldr	r3, [r7, #20]
  4053b0:	4618      	mov	r0, r3
  4053b2:	3718      	adds	r7, #24
  4053b4:	46bd      	mov	sp, r7
  4053b6:	bd80      	pop	{r7, pc}
  4053b8:	00404ced 	.word	0x00404ced
  4053bc:	0040559d 	.word	0x0040559d
  4053c0:	00405f05 	.word	0x00405f05
  4053c4:	00404d01 	.word	0x00404d01

004053c8 <xQueueGenericReceive>:
  4053c8:	b580      	push	{r7, lr}
  4053ca:	b088      	sub	sp, #32
  4053cc:	af00      	add	r7, sp, #0
  4053ce:	60f8      	str	r0, [r7, #12]
  4053d0:	60b9      	str	r1, [r7, #8]
  4053d2:	607a      	str	r2, [r7, #4]
  4053d4:	603b      	str	r3, [r7, #0]
  4053d6:	2300      	movs	r3, #0
  4053d8:	61fb      	str	r3, [r7, #28]
  4053da:	68fb      	ldr	r3, [r7, #12]
  4053dc:	2b00      	cmp	r3, #0
  4053de:	d103      	bne.n	4053e8 <xQueueGenericReceive+0x20>
  4053e0:	4b5f      	ldr	r3, [pc, #380]	; (405560 <xQueueGenericReceive+0x198>)
  4053e2:	4798      	blx	r3
  4053e4:	bf00      	nop
  4053e6:	e7fd      	b.n	4053e4 <xQueueGenericReceive+0x1c>
  4053e8:	68bb      	ldr	r3, [r7, #8]
  4053ea:	2b00      	cmp	r3, #0
  4053ec:	d103      	bne.n	4053f6 <xQueueGenericReceive+0x2e>
  4053ee:	68fb      	ldr	r3, [r7, #12]
  4053f0:	6c1b      	ldr	r3, [r3, #64]	; 0x40
  4053f2:	2b00      	cmp	r3, #0
  4053f4:	d101      	bne.n	4053fa <xQueueGenericReceive+0x32>
  4053f6:	2301      	movs	r3, #1
  4053f8:	e000      	b.n	4053fc <xQueueGenericReceive+0x34>
  4053fa:	2300      	movs	r3, #0
  4053fc:	2b00      	cmp	r3, #0
  4053fe:	d103      	bne.n	405408 <xQueueGenericReceive+0x40>
  405400:	4b57      	ldr	r3, [pc, #348]	; (405560 <xQueueGenericReceive+0x198>)
  405402:	4798      	blx	r3
  405404:	bf00      	nop
  405406:	e7fd      	b.n	405404 <xQueueGenericReceive+0x3c>
  405408:	4b56      	ldr	r3, [pc, #344]	; (405564 <xQueueGenericReceive+0x19c>)
  40540a:	4798      	blx	r3
  40540c:	68fb      	ldr	r3, [r7, #12]
  40540e:	6b9b      	ldr	r3, [r3, #56]	; 0x38
  405410:	2b00      	cmp	r3, #0
  405412:	d03b      	beq.n	40548c <xQueueGenericReceive+0xc4>
  405414:	68fb      	ldr	r3, [r7, #12]
  405416:	68db      	ldr	r3, [r3, #12]
  405418:	61bb      	str	r3, [r7, #24]
  40541a:	68b9      	ldr	r1, [r7, #8]
  40541c:	68f8      	ldr	r0, [r7, #12]
  40541e:	4b52      	ldr	r3, [pc, #328]	; (405568 <xQueueGenericReceive+0x1a0>)
  405420:	4798      	blx	r3
  405422:	683b      	ldr	r3, [r7, #0]
  405424:	2b00      	cmp	r3, #0
  405426:	d11c      	bne.n	405462 <xQueueGenericReceive+0x9a>
  405428:	68fb      	ldr	r3, [r7, #12]
  40542a:	6b9b      	ldr	r3, [r3, #56]	; 0x38
  40542c:	1e5a      	subs	r2, r3, #1
  40542e:	68fb      	ldr	r3, [r7, #12]
  405430:	639a      	str	r2, [r3, #56]	; 0x38
  405432:	68fb      	ldr	r3, [r7, #12]
  405434:	681b      	ldr	r3, [r3, #0]
  405436:	2b00      	cmp	r3, #0
  405438:	d104      	bne.n	405444 <xQueueGenericReceive+0x7c>
  40543a:	4b4c      	ldr	r3, [pc, #304]	; (40556c <xQueueGenericReceive+0x1a4>)
  40543c:	4798      	blx	r3
  40543e:	4602      	mov	r2, r0
  405440:	68fb      	ldr	r3, [r7, #12]
  405442:	605a      	str	r2, [r3, #4]
  405444:	68fb      	ldr	r3, [r7, #12]
  405446:	691b      	ldr	r3, [r3, #16]
  405448:	2b00      	cmp	r3, #0
  40544a:	d01b      	beq.n	405484 <xQueueGenericReceive+0xbc>
  40544c:	68fb      	ldr	r3, [r7, #12]
  40544e:	3310      	adds	r3, #16
  405450:	4618      	mov	r0, r3
  405452:	4b47      	ldr	r3, [pc, #284]	; (405570 <xQueueGenericReceive+0x1a8>)
  405454:	4798      	blx	r3
  405456:	4603      	mov	r3, r0
  405458:	2b01      	cmp	r3, #1
  40545a:	d113      	bne.n	405484 <xQueueGenericReceive+0xbc>
  40545c:	4b45      	ldr	r3, [pc, #276]	; (405574 <xQueueGenericReceive+0x1ac>)
  40545e:	4798      	blx	r3
  405460:	e010      	b.n	405484 <xQueueGenericReceive+0xbc>
  405462:	68fb      	ldr	r3, [r7, #12]
  405464:	69ba      	ldr	r2, [r7, #24]
  405466:	60da      	str	r2, [r3, #12]
  405468:	68fb      	ldr	r3, [r7, #12]
  40546a:	6a5b      	ldr	r3, [r3, #36]	; 0x24
  40546c:	2b00      	cmp	r3, #0
  40546e:	d009      	beq.n	405484 <xQueueGenericReceive+0xbc>
  405470:	68fb      	ldr	r3, [r7, #12]
  405472:	3324      	adds	r3, #36	; 0x24
  405474:	4618      	mov	r0, r3
  405476:	4b3e      	ldr	r3, [pc, #248]	; (405570 <xQueueGenericReceive+0x1a8>)
  405478:	4798      	blx	r3
  40547a:	4603      	mov	r3, r0
  40547c:	2b00      	cmp	r3, #0
  40547e:	d001      	beq.n	405484 <xQueueGenericReceive+0xbc>
  405480:	4b3c      	ldr	r3, [pc, #240]	; (405574 <xQueueGenericReceive+0x1ac>)
  405482:	4798      	blx	r3
  405484:	4b3c      	ldr	r3, [pc, #240]	; (405578 <xQueueGenericReceive+0x1b0>)
  405486:	4798      	blx	r3
  405488:	2301      	movs	r3, #1
  40548a:	e064      	b.n	405556 <xQueueGenericReceive+0x18e>
  40548c:	687b      	ldr	r3, [r7, #4]
  40548e:	2b00      	cmp	r3, #0
  405490:	d103      	bne.n	40549a <xQueueGenericReceive+0xd2>
  405492:	4b39      	ldr	r3, [pc, #228]	; (405578 <xQueueGenericReceive+0x1b0>)
  405494:	4798      	blx	r3
  405496:	2300      	movs	r3, #0
  405498:	e05d      	b.n	405556 <xQueueGenericReceive+0x18e>
  40549a:	69fb      	ldr	r3, [r7, #28]
  40549c:	2b00      	cmp	r3, #0
  40549e:	d106      	bne.n	4054ae <xQueueGenericReceive+0xe6>
  4054a0:	f107 0310 	add.w	r3, r7, #16
  4054a4:	4618      	mov	r0, r3
  4054a6:	4b35      	ldr	r3, [pc, #212]	; (40557c <xQueueGenericReceive+0x1b4>)
  4054a8:	4798      	blx	r3
  4054aa:	2301      	movs	r3, #1
  4054ac:	61fb      	str	r3, [r7, #28]
  4054ae:	4b32      	ldr	r3, [pc, #200]	; (405578 <xQueueGenericReceive+0x1b0>)
  4054b0:	4798      	blx	r3
  4054b2:	4b33      	ldr	r3, [pc, #204]	; (405580 <xQueueGenericReceive+0x1b8>)
  4054b4:	4798      	blx	r3
  4054b6:	4b2b      	ldr	r3, [pc, #172]	; (405564 <xQueueGenericReceive+0x19c>)
  4054b8:	4798      	blx	r3
  4054ba:	68fb      	ldr	r3, [r7, #12]
  4054bc:	6c5b      	ldr	r3, [r3, #68]	; 0x44
  4054be:	f1b3 3fff 	cmp.w	r3, #4294967295
  4054c2:	d102      	bne.n	4054ca <xQueueGenericReceive+0x102>
  4054c4:	68fb      	ldr	r3, [r7, #12]
  4054c6:	2200      	movs	r2, #0
  4054c8:	645a      	str	r2, [r3, #68]	; 0x44
  4054ca:	68fb      	ldr	r3, [r7, #12]
  4054cc:	6c9b      	ldr	r3, [r3, #72]	; 0x48
  4054ce:	f1b3 3fff 	cmp.w	r3, #4294967295
  4054d2:	d102      	bne.n	4054da <xQueueGenericReceive+0x112>
  4054d4:	68fb      	ldr	r3, [r7, #12]
  4054d6:	2200      	movs	r2, #0
  4054d8:	649a      	str	r2, [r3, #72]	; 0x48
  4054da:	4b27      	ldr	r3, [pc, #156]	; (405578 <xQueueGenericReceive+0x1b0>)
  4054dc:	4798      	blx	r3
  4054de:	1d3a      	adds	r2, r7, #4
  4054e0:	f107 0310 	add.w	r3, r7, #16
  4054e4:	4611      	mov	r1, r2
  4054e6:	4618      	mov	r0, r3
  4054e8:	4b26      	ldr	r3, [pc, #152]	; (405584 <xQueueGenericReceive+0x1bc>)
  4054ea:	4798      	blx	r3
  4054ec:	4603      	mov	r3, r0
  4054ee:	2b00      	cmp	r3, #0
  4054f0:	d12b      	bne.n	40554a <xQueueGenericReceive+0x182>
  4054f2:	68f8      	ldr	r0, [r7, #12]
  4054f4:	4b24      	ldr	r3, [pc, #144]	; (405588 <xQueueGenericReceive+0x1c0>)
  4054f6:	4798      	blx	r3
  4054f8:	4603      	mov	r3, r0
  4054fa:	2b00      	cmp	r3, #0
  4054fc:	d01f      	beq.n	40553e <xQueueGenericReceive+0x176>
  4054fe:	68fb      	ldr	r3, [r7, #12]
  405500:	681b      	ldr	r3, [r3, #0]
  405502:	2b00      	cmp	r3, #0
  405504:	d108      	bne.n	405518 <xQueueGenericReceive+0x150>
  405506:	4b17      	ldr	r3, [pc, #92]	; (405564 <xQueueGenericReceive+0x19c>)
  405508:	4798      	blx	r3
  40550a:	68fb      	ldr	r3, [r7, #12]
  40550c:	685b      	ldr	r3, [r3, #4]
  40550e:	4618      	mov	r0, r3
  405510:	4b1e      	ldr	r3, [pc, #120]	; (40558c <xQueueGenericReceive+0x1c4>)
  405512:	4798      	blx	r3
  405514:	4b18      	ldr	r3, [pc, #96]	; (405578 <xQueueGenericReceive+0x1b0>)
  405516:	4798      	blx	r3
  405518:	68fb      	ldr	r3, [r7, #12]
  40551a:	3324      	adds	r3, #36	; 0x24
  40551c:	687a      	ldr	r2, [r7, #4]
  40551e:	4611      	mov	r1, r2
  405520:	4618      	mov	r0, r3
  405522:	4b1b      	ldr	r3, [pc, #108]	; (405590 <xQueueGenericReceive+0x1c8>)
  405524:	4798      	blx	r3
  405526:	68f8      	ldr	r0, [r7, #12]
  405528:	4b1a      	ldr	r3, [pc, #104]	; (405594 <xQueueGenericReceive+0x1cc>)
  40552a:	4798      	blx	r3
  40552c:	4b1a      	ldr	r3, [pc, #104]	; (405598 <xQueueGenericReceive+0x1d0>)
  40552e:	4798      	blx	r3
  405530:	4603      	mov	r3, r0
  405532:	2b00      	cmp	r3, #0
  405534:	f47f af68 	bne.w	405408 <xQueueGenericReceive+0x40>
  405538:	4b0e      	ldr	r3, [pc, #56]	; (405574 <xQueueGenericReceive+0x1ac>)
  40553a:	4798      	blx	r3
  40553c:	e764      	b.n	405408 <xQueueGenericReceive+0x40>
  40553e:	68f8      	ldr	r0, [r7, #12]
  405540:	4b14      	ldr	r3, [pc, #80]	; (405594 <xQueueGenericReceive+0x1cc>)
  405542:	4798      	blx	r3
  405544:	4b14      	ldr	r3, [pc, #80]	; (405598 <xQueueGenericReceive+0x1d0>)
  405546:	4798      	blx	r3
  405548:	e75e      	b.n	405408 <xQueueGenericReceive+0x40>
  40554a:	68f8      	ldr	r0, [r7, #12]
  40554c:	4b11      	ldr	r3, [pc, #68]	; (405594 <xQueueGenericReceive+0x1cc>)
  40554e:	4798      	blx	r3
  405550:	4b11      	ldr	r3, [pc, #68]	; (405598 <xQueueGenericReceive+0x1d0>)
  405552:	4798      	blx	r3
  405554:	2300      	movs	r3, #0
  405556:	4618      	mov	r0, r3
  405558:	3720      	adds	r7, #32
  40555a:	46bd      	mov	sp, r7
  40555c:	bd80      	pop	{r7, pc}
  40555e:	bf00      	nop
  405560:	00404ced 	.word	0x00404ced
  405564:	00404ca5 	.word	0x00404ca5
  405568:	0040565d 	.word	0x0040565d
  40556c:	00406369 	.word	0x00406369
  405570:	00405f05 	.word	0x00405f05
  405574:	00404c8d 	.word	0x00404c8d
  405578:	00404cc5 	.word	0x00404cc5
  40557c:	00405fc1 	.word	0x00405fc1
  405580:	00405ac5 	.word	0x00405ac5
  405584:	00405ffd 	.word	0x00405ffd
  405588:	00405755 	.word	0x00405755
  40558c:	004063c1 	.word	0x004063c1
  405590:	00405e1d 	.word	0x00405e1d
  405594:	004056ad 	.word	0x004056ad
  405598:	00405ae1 	.word	0x00405ae1

0040559c <prvCopyDataToQueue>:
  40559c:	b580      	push	{r7, lr}
  40559e:	b084      	sub	sp, #16
  4055a0:	af00      	add	r7, sp, #0
  4055a2:	60f8      	str	r0, [r7, #12]
  4055a4:	60b9      	str	r1, [r7, #8]
  4055a6:	607a      	str	r2, [r7, #4]
  4055a8:	68fb      	ldr	r3, [r7, #12]
  4055aa:	6c1b      	ldr	r3, [r3, #64]	; 0x40
  4055ac:	2b00      	cmp	r3, #0
  4055ae:	d10c      	bne.n	4055ca <prvCopyDataToQueue+0x2e>
  4055b0:	68fb      	ldr	r3, [r7, #12]
  4055b2:	681b      	ldr	r3, [r3, #0]
  4055b4:	2b00      	cmp	r3, #0
  4055b6:	d143      	bne.n	405640 <prvCopyDataToQueue+0xa4>
  4055b8:	68fb      	ldr	r3, [r7, #12]
  4055ba:	685b      	ldr	r3, [r3, #4]
  4055bc:	4618      	mov	r0, r3
  4055be:	4b25      	ldr	r3, [pc, #148]	; (405654 <prvCopyDataToQueue+0xb8>)
  4055c0:	4798      	blx	r3
  4055c2:	68fb      	ldr	r3, [r7, #12]
  4055c4:	2200      	movs	r2, #0
  4055c6:	605a      	str	r2, [r3, #4]
  4055c8:	e03a      	b.n	405640 <prvCopyDataToQueue+0xa4>
  4055ca:	687b      	ldr	r3, [r7, #4]
  4055cc:	2b00      	cmp	r3, #0
  4055ce:	d119      	bne.n	405604 <prvCopyDataToQueue+0x68>
  4055d0:	68fb      	ldr	r3, [r7, #12]
  4055d2:	6898      	ldr	r0, [r3, #8]
  4055d4:	68fb      	ldr	r3, [r7, #12]
  4055d6:	6c1b      	ldr	r3, [r3, #64]	; 0x40
  4055d8:	461a      	mov	r2, r3
  4055da:	68b9      	ldr	r1, [r7, #8]
  4055dc:	4b1e      	ldr	r3, [pc, #120]	; (405658 <prvCopyDataToQueue+0xbc>)
  4055de:	4798      	blx	r3
  4055e0:	68fb      	ldr	r3, [r7, #12]
  4055e2:	689a      	ldr	r2, [r3, #8]
  4055e4:	68fb      	ldr	r3, [r7, #12]
  4055e6:	6c1b      	ldr	r3, [r3, #64]	; 0x40
  4055e8:	441a      	add	r2, r3
  4055ea:	68fb      	ldr	r3, [r7, #12]
  4055ec:	609a      	str	r2, [r3, #8]
  4055ee:	68fb      	ldr	r3, [r7, #12]
  4055f0:	689a      	ldr	r2, [r3, #8]
  4055f2:	68fb      	ldr	r3, [r7, #12]
  4055f4:	685b      	ldr	r3, [r3, #4]
  4055f6:	429a      	cmp	r2, r3
  4055f8:	d322      	bcc.n	405640 <prvCopyDataToQueue+0xa4>
  4055fa:	68fb      	ldr	r3, [r7, #12]
  4055fc:	681a      	ldr	r2, [r3, #0]
  4055fe:	68fb      	ldr	r3, [r7, #12]
  405600:	609a      	str	r2, [r3, #8]
  405602:	e01d      	b.n	405640 <prvCopyDataToQueue+0xa4>
  405604:	68fb      	ldr	r3, [r7, #12]
  405606:	68d8      	ldr	r0, [r3, #12]
  405608:	68fb      	ldr	r3, [r7, #12]
  40560a:	6c1b      	ldr	r3, [r3, #64]	; 0x40
  40560c:	461a      	mov	r2, r3
  40560e:	68b9      	ldr	r1, [r7, #8]
  405610:	4b11      	ldr	r3, [pc, #68]	; (405658 <prvCopyDataToQueue+0xbc>)
  405612:	4798      	blx	r3
  405614:	68fb      	ldr	r3, [r7, #12]
  405616:	68da      	ldr	r2, [r3, #12]
  405618:	68fb      	ldr	r3, [r7, #12]
  40561a:	6c1b      	ldr	r3, [r3, #64]	; 0x40
  40561c:	425b      	negs	r3, r3
  40561e:	441a      	add	r2, r3
  405620:	68fb      	ldr	r3, [r7, #12]
  405622:	60da      	str	r2, [r3, #12]
  405624:	68fb      	ldr	r3, [r7, #12]
  405626:	68da      	ldr	r2, [r3, #12]
  405628:	68fb      	ldr	r3, [r7, #12]
  40562a:	681b      	ldr	r3, [r3, #0]
  40562c:	429a      	cmp	r2, r3
  40562e:	d207      	bcs.n	405640 <prvCopyDataToQueue+0xa4>
  405630:	68fb      	ldr	r3, [r7, #12]
  405632:	685a      	ldr	r2, [r3, #4]
  405634:	68fb      	ldr	r3, [r7, #12]
  405636:	6c1b      	ldr	r3, [r3, #64]	; 0x40
  405638:	425b      	negs	r3, r3
  40563a:	441a      	add	r2, r3
  40563c:	68fb      	ldr	r3, [r7, #12]
  40563e:	60da      	str	r2, [r3, #12]
  405640:	68fb      	ldr	r3, [r7, #12]
  405642:	6b9b      	ldr	r3, [r3, #56]	; 0x38
  405644:	1c5a      	adds	r2, r3, #1
  405646:	68fb      	ldr	r3, [r7, #12]
  405648:	639a      	str	r2, [r3, #56]	; 0x38
  40564a:	bf00      	nop
  40564c:	3710      	adds	r7, #16
  40564e:	46bd      	mov	sp, r7
  405650:	bd80      	pop	{r7, pc}
  405652:	bf00      	nop
  405654:	00406475 	.word	0x00406475
  405658:	0040ad9d 	.word	0x0040ad9d

0040565c <prvCopyDataFromQueue>:
  40565c:	b580      	push	{r7, lr}
  40565e:	b082      	sub	sp, #8
  405660:	af00      	add	r7, sp, #0
  405662:	6078      	str	r0, [r7, #4]
  405664:	6039      	str	r1, [r7, #0]
  405666:	687b      	ldr	r3, [r7, #4]
  405668:	681b      	ldr	r3, [r3, #0]
  40566a:	2b00      	cmp	r3, #0
  40566c:	d018      	beq.n	4056a0 <prvCopyDataFromQueue+0x44>
  40566e:	687b      	ldr	r3, [r7, #4]
  405670:	68da      	ldr	r2, [r3, #12]
  405672:	687b      	ldr	r3, [r7, #4]
  405674:	6c1b      	ldr	r3, [r3, #64]	; 0x40
  405676:	441a      	add	r2, r3
  405678:	687b      	ldr	r3, [r7, #4]
  40567a:	60da      	str	r2, [r3, #12]
  40567c:	687b      	ldr	r3, [r7, #4]
  40567e:	68da      	ldr	r2, [r3, #12]
  405680:	687b      	ldr	r3, [r7, #4]
  405682:	685b      	ldr	r3, [r3, #4]
  405684:	429a      	cmp	r2, r3
  405686:	d303      	bcc.n	405690 <prvCopyDataFromQueue+0x34>
  405688:	687b      	ldr	r3, [r7, #4]
  40568a:	681a      	ldr	r2, [r3, #0]
  40568c:	687b      	ldr	r3, [r7, #4]
  40568e:	60da      	str	r2, [r3, #12]
  405690:	687b      	ldr	r3, [r7, #4]
  405692:	68d9      	ldr	r1, [r3, #12]
  405694:	687b      	ldr	r3, [r7, #4]
  405696:	6c1b      	ldr	r3, [r3, #64]	; 0x40
  405698:	461a      	mov	r2, r3
  40569a:	6838      	ldr	r0, [r7, #0]
  40569c:	4b02      	ldr	r3, [pc, #8]	; (4056a8 <prvCopyDataFromQueue+0x4c>)
  40569e:	4798      	blx	r3
  4056a0:	bf00      	nop
  4056a2:	3708      	adds	r7, #8
  4056a4:	46bd      	mov	sp, r7
  4056a6:	bd80      	pop	{r7, pc}
  4056a8:	0040ad9d 	.word	0x0040ad9d

004056ac <prvUnlockQueue>:
  4056ac:	b580      	push	{r7, lr}
  4056ae:	b082      	sub	sp, #8
  4056b0:	af00      	add	r7, sp, #0
  4056b2:	6078      	str	r0, [r7, #4]
  4056b4:	4b23      	ldr	r3, [pc, #140]	; (405744 <prvUnlockQueue+0x98>)
  4056b6:	4798      	blx	r3
  4056b8:	e012      	b.n	4056e0 <prvUnlockQueue+0x34>
  4056ba:	687b      	ldr	r3, [r7, #4]
  4056bc:	6a5b      	ldr	r3, [r3, #36]	; 0x24
  4056be:	2b00      	cmp	r3, #0
  4056c0:	d013      	beq.n	4056ea <prvUnlockQueue+0x3e>
  4056c2:	687b      	ldr	r3, [r7, #4]
  4056c4:	3324      	adds	r3, #36	; 0x24
  4056c6:	4618      	mov	r0, r3
  4056c8:	4b1f      	ldr	r3, [pc, #124]	; (405748 <prvUnlockQueue+0x9c>)
  4056ca:	4798      	blx	r3
  4056cc:	4603      	mov	r3, r0
  4056ce:	2b00      	cmp	r3, #0
  4056d0:	d001      	beq.n	4056d6 <prvUnlockQueue+0x2a>
  4056d2:	4b1e      	ldr	r3, [pc, #120]	; (40574c <prvUnlockQueue+0xa0>)
  4056d4:	4798      	blx	r3
  4056d6:	687b      	ldr	r3, [r7, #4]
  4056d8:	6c9b      	ldr	r3, [r3, #72]	; 0x48
  4056da:	1e5a      	subs	r2, r3, #1
  4056dc:	687b      	ldr	r3, [r7, #4]
  4056de:	649a      	str	r2, [r3, #72]	; 0x48
  4056e0:	687b      	ldr	r3, [r7, #4]
  4056e2:	6c9b      	ldr	r3, [r3, #72]	; 0x48
  4056e4:	2b00      	cmp	r3, #0
  4056e6:	dce8      	bgt.n	4056ba <prvUnlockQueue+0xe>
  4056e8:	e000      	b.n	4056ec <prvUnlockQueue+0x40>
  4056ea:	bf00      	nop
  4056ec:	687b      	ldr	r3, [r7, #4]
  4056ee:	f04f 32ff 	mov.w	r2, #4294967295
  4056f2:	649a      	str	r2, [r3, #72]	; 0x48
  4056f4:	4b16      	ldr	r3, [pc, #88]	; (405750 <prvUnlockQueue+0xa4>)
  4056f6:	4798      	blx	r3
  4056f8:	4b12      	ldr	r3, [pc, #72]	; (405744 <prvUnlockQueue+0x98>)
  4056fa:	4798      	blx	r3
  4056fc:	e012      	b.n	405724 <prvUnlockQueue+0x78>
  4056fe:	687b      	ldr	r3, [r7, #4]
  405700:	691b      	ldr	r3, [r3, #16]
  405702:	2b00      	cmp	r3, #0
  405704:	d013      	beq.n	40572e <prvUnlockQueue+0x82>
  405706:	687b      	ldr	r3, [r7, #4]
  405708:	3310      	adds	r3, #16
  40570a:	4618      	mov	r0, r3
  40570c:	4b0e      	ldr	r3, [pc, #56]	; (405748 <prvUnlockQueue+0x9c>)
  40570e:	4798      	blx	r3
  405710:	4603      	mov	r3, r0
  405712:	2b00      	cmp	r3, #0
  405714:	d001      	beq.n	40571a <prvUnlockQueue+0x6e>
  405716:	4b0d      	ldr	r3, [pc, #52]	; (40574c <prvUnlockQueue+0xa0>)
  405718:	4798      	blx	r3
  40571a:	687b      	ldr	r3, [r7, #4]
  40571c:	6c5b      	ldr	r3, [r3, #68]	; 0x44
  40571e:	1e5a      	subs	r2, r3, #1
  405720:	687b      	ldr	r3, [r7, #4]
  405722:	645a      	str	r2, [r3, #68]	; 0x44
  405724:	687b      	ldr	r3, [r7, #4]
  405726:	6c5b      	ldr	r3, [r3, #68]	; 0x44
  405728:	2b00      	cmp	r3, #0
  40572a:	dce8      	bgt.n	4056fe <prvUnlockQueue+0x52>
  40572c:	e000      	b.n	405730 <prvUnlockQueue+0x84>
  40572e:	bf00      	nop
  405730:	687b      	ldr	r3, [r7, #4]
  405732:	f04f 32ff 	mov.w	r2, #4294967295
  405736:	645a      	str	r2, [r3, #68]	; 0x44
  405738:	4b05      	ldr	r3, [pc, #20]	; (405750 <prvUnlockQueue+0xa4>)
  40573a:	4798      	blx	r3
  40573c:	bf00      	nop
  40573e:	3708      	adds	r7, #8
  405740:	46bd      	mov	sp, r7
  405742:	bd80      	pop	{r7, pc}
  405744:	00404ca5 	.word	0x00404ca5
  405748:	00405f05 	.word	0x00405f05
  40574c:	004060b1 	.word	0x004060b1
  405750:	00404cc5 	.word	0x00404cc5

00405754 <prvIsQueueEmpty>:
  405754:	b580      	push	{r7, lr}
  405756:	b084      	sub	sp, #16
  405758:	af00      	add	r7, sp, #0
  40575a:	6078      	str	r0, [r7, #4]
  40575c:	4b08      	ldr	r3, [pc, #32]	; (405780 <prvIsQueueEmpty+0x2c>)
  40575e:	4798      	blx	r3
  405760:	687b      	ldr	r3, [r7, #4]
  405762:	6b9b      	ldr	r3, [r3, #56]	; 0x38
  405764:	2b00      	cmp	r3, #0
  405766:	bf0c      	ite	eq
  405768:	2301      	moveq	r3, #1
  40576a:	2300      	movne	r3, #0
  40576c:	b2db      	uxtb	r3, r3
  40576e:	60fb      	str	r3, [r7, #12]
  405770:	4b04      	ldr	r3, [pc, #16]	; (405784 <prvIsQueueEmpty+0x30>)
  405772:	4798      	blx	r3
  405774:	68fb      	ldr	r3, [r7, #12]
  405776:	4618      	mov	r0, r3
  405778:	3710      	adds	r7, #16
  40577a:	46bd      	mov	sp, r7
  40577c:	bd80      	pop	{r7, pc}
  40577e:	bf00      	nop
  405780:	00404ca5 	.word	0x00404ca5
  405784:	00404cc5 	.word	0x00404cc5

00405788 <prvIsQueueFull>:
  405788:	b580      	push	{r7, lr}
  40578a:	b084      	sub	sp, #16
  40578c:	af00      	add	r7, sp, #0
  40578e:	6078      	str	r0, [r7, #4]
  405790:	4b09      	ldr	r3, [pc, #36]	; (4057b8 <prvIsQueueFull+0x30>)
  405792:	4798      	blx	r3
  405794:	687b      	ldr	r3, [r7, #4]
  405796:	6b9a      	ldr	r2, [r3, #56]	; 0x38
  405798:	687b      	ldr	r3, [r7, #4]
  40579a:	6bdb      	ldr	r3, [r3, #60]	; 0x3c
  40579c:	429a      	cmp	r2, r3
  40579e:	bf0c      	ite	eq
  4057a0:	2301      	moveq	r3, #1
  4057a2:	2300      	movne	r3, #0
  4057a4:	b2db      	uxtb	r3, r3
  4057a6:	60fb      	str	r3, [r7, #12]
  4057a8:	4b04      	ldr	r3, [pc, #16]	; (4057bc <prvIsQueueFull+0x34>)
  4057aa:	4798      	blx	r3
  4057ac:	68fb      	ldr	r3, [r7, #12]
  4057ae:	4618      	mov	r0, r3
  4057b0:	3710      	adds	r7, #16
  4057b2:	46bd      	mov	sp, r7
  4057b4:	bd80      	pop	{r7, pc}
  4057b6:	bf00      	nop
  4057b8:	00404ca5 	.word	0x00404ca5
  4057bc:	00404cc5 	.word	0x00404cc5

004057c0 <vQueueWaitForMessageRestricted>:
  4057c0:	b580      	push	{r7, lr}
  4057c2:	b082      	sub	sp, #8
  4057c4:	af00      	add	r7, sp, #0
  4057c6:	6078      	str	r0, [r7, #4]
  4057c8:	6039      	str	r1, [r7, #0]
  4057ca:	4b12      	ldr	r3, [pc, #72]	; (405814 <vQueueWaitForMessageRestricted+0x54>)
  4057cc:	4798      	blx	r3
  4057ce:	687b      	ldr	r3, [r7, #4]
  4057d0:	6c5b      	ldr	r3, [r3, #68]	; 0x44
  4057d2:	f1b3 3fff 	cmp.w	r3, #4294967295
  4057d6:	d102      	bne.n	4057de <vQueueWaitForMessageRestricted+0x1e>
  4057d8:	687b      	ldr	r3, [r7, #4]
  4057da:	2200      	movs	r2, #0
  4057dc:	645a      	str	r2, [r3, #68]	; 0x44
  4057de:	687b      	ldr	r3, [r7, #4]
  4057e0:	6c9b      	ldr	r3, [r3, #72]	; 0x48
  4057e2:	f1b3 3fff 	cmp.w	r3, #4294967295
  4057e6:	d102      	bne.n	4057ee <vQueueWaitForMessageRestricted+0x2e>
  4057e8:	687b      	ldr	r3, [r7, #4]
  4057ea:	2200      	movs	r2, #0
  4057ec:	649a      	str	r2, [r3, #72]	; 0x48
  4057ee:	4b0a      	ldr	r3, [pc, #40]	; (405818 <vQueueWaitForMessageRestricted+0x58>)
  4057f0:	4798      	blx	r3
  4057f2:	687b      	ldr	r3, [r7, #4]
  4057f4:	6b9b      	ldr	r3, [r3, #56]	; 0x38
  4057f6:	2b00      	cmp	r3, #0
  4057f8:	d105      	bne.n	405806 <vQueueWaitForMessageRestricted+0x46>
  4057fa:	687b      	ldr	r3, [r7, #4]
  4057fc:	3324      	adds	r3, #36	; 0x24
  4057fe:	6839      	ldr	r1, [r7, #0]
  405800:	4618      	mov	r0, r3
  405802:	4b06      	ldr	r3, [pc, #24]	; (40581c <vQueueWaitForMessageRestricted+0x5c>)
  405804:	4798      	blx	r3
  405806:	6878      	ldr	r0, [r7, #4]
  405808:	4b05      	ldr	r3, [pc, #20]	; (405820 <vQueueWaitForMessageRestricted+0x60>)
  40580a:	4798      	blx	r3
  40580c:	bf00      	nop
  40580e:	3708      	adds	r7, #8
  405810:	46bd      	mov	sp, r7
  405812:	bd80      	pop	{r7, pc}
  405814:	00404ca5 	.word	0x00404ca5
  405818:	00404cc5 	.word	0x00404cc5
  40581c:	00405ea1 	.word	0x00405ea1
  405820:	004056ad 	.word	0x004056ad

00405824 <xTaskGenericCreate>:
  405824:	b590      	push	{r4, r7, lr}
  405826:	b08b      	sub	sp, #44	; 0x2c
  405828:	af02      	add	r7, sp, #8
  40582a:	60f8      	str	r0, [r7, #12]
  40582c:	60b9      	str	r1, [r7, #8]
  40582e:	603b      	str	r3, [r7, #0]
  405830:	4613      	mov	r3, r2
  405832:	80fb      	strh	r3, [r7, #6]
  405834:	68fb      	ldr	r3, [r7, #12]
  405836:	2b00      	cmp	r3, #0
  405838:	d103      	bne.n	405842 <xTaskGenericCreate+0x1e>
  40583a:	4b58      	ldr	r3, [pc, #352]	; (40599c <xTaskGenericCreate+0x178>)
  40583c:	4798      	blx	r3
  40583e:	bf00      	nop
  405840:	e7fd      	b.n	40583e <xTaskGenericCreate+0x1a>
  405842:	6b3b      	ldr	r3, [r7, #48]	; 0x30
  405844:	2b04      	cmp	r3, #4
  405846:	d903      	bls.n	405850 <xTaskGenericCreate+0x2c>
  405848:	4b54      	ldr	r3, [pc, #336]	; (40599c <xTaskGenericCreate+0x178>)
  40584a:	4798      	blx	r3
  40584c:	bf00      	nop
  40584e:	e7fd      	b.n	40584c <xTaskGenericCreate+0x28>
  405850:	88fb      	ldrh	r3, [r7, #6]
  405852:	6bb9      	ldr	r1, [r7, #56]	; 0x38
  405854:	4618      	mov	r0, r3
  405856:	4b52      	ldr	r3, [pc, #328]	; (4059a0 <xTaskGenericCreate+0x17c>)
  405858:	4798      	blx	r3
  40585a:	61b8      	str	r0, [r7, #24]
  40585c:	69bb      	ldr	r3, [r7, #24]
  40585e:	2b00      	cmp	r3, #0
  405860:	f000 8084 	beq.w	40596c <xTaskGenericCreate+0x148>
  405864:	69bb      	ldr	r3, [r7, #24]
  405866:	6b1a      	ldr	r2, [r3, #48]	; 0x30
  405868:	88fb      	ldrh	r3, [r7, #6]
  40586a:	f103 4380 	add.w	r3, r3, #1073741824	; 0x40000000
  40586e:	3b01      	subs	r3, #1
  405870:	009b      	lsls	r3, r3, #2
  405872:	4413      	add	r3, r2
  405874:	617b      	str	r3, [r7, #20]
  405876:	697b      	ldr	r3, [r7, #20]
  405878:	f023 0307 	bic.w	r3, r3, #7
  40587c:	617b      	str	r3, [r7, #20]
  40587e:	697b      	ldr	r3, [r7, #20]
  405880:	f003 0307 	and.w	r3, r3, #7
  405884:	2b00      	cmp	r3, #0
  405886:	d003      	beq.n	405890 <xTaskGenericCreate+0x6c>
  405888:	4b44      	ldr	r3, [pc, #272]	; (40599c <xTaskGenericCreate+0x178>)
  40588a:	4798      	blx	r3
  40588c:	bf00      	nop
  40588e:	e7fd      	b.n	40588c <xTaskGenericCreate+0x68>
  405890:	88fb      	ldrh	r3, [r7, #6]
  405892:	9300      	str	r3, [sp, #0]
  405894:	6bfb      	ldr	r3, [r7, #60]	; 0x3c
  405896:	6b3a      	ldr	r2, [r7, #48]	; 0x30
  405898:	68b9      	ldr	r1, [r7, #8]
  40589a:	69b8      	ldr	r0, [r7, #24]
  40589c:	4c41      	ldr	r4, [pc, #260]	; (4059a4 <xTaskGenericCreate+0x180>)
  40589e:	47a0      	blx	r4
  4058a0:	683a      	ldr	r2, [r7, #0]
  4058a2:	68f9      	ldr	r1, [r7, #12]
  4058a4:	6978      	ldr	r0, [r7, #20]
  4058a6:	4b40      	ldr	r3, [pc, #256]	; (4059a8 <xTaskGenericCreate+0x184>)
  4058a8:	4798      	blx	r3
  4058aa:	4602      	mov	r2, r0
  4058ac:	69bb      	ldr	r3, [r7, #24]
  4058ae:	601a      	str	r2, [r3, #0]
  4058b0:	69bb      	ldr	r3, [r7, #24]
  4058b2:	681b      	ldr	r3, [r3, #0]
  4058b4:	f003 0307 	and.w	r3, r3, #7
  4058b8:	2b00      	cmp	r3, #0
  4058ba:	d003      	beq.n	4058c4 <xTaskGenericCreate+0xa0>
  4058bc:	4b37      	ldr	r3, [pc, #220]	; (40599c <xTaskGenericCreate+0x178>)
  4058be:	4798      	blx	r3
  4058c0:	bf00      	nop
  4058c2:	e7fd      	b.n	4058c0 <xTaskGenericCreate+0x9c>
  4058c4:	6b7b      	ldr	r3, [r7, #52]	; 0x34
  4058c6:	2b00      	cmp	r3, #0
  4058c8:	d002      	beq.n	4058d0 <xTaskGenericCreate+0xac>
  4058ca:	6b7b      	ldr	r3, [r7, #52]	; 0x34
  4058cc:	69ba      	ldr	r2, [r7, #24]
  4058ce:	601a      	str	r2, [r3, #0]
  4058d0:	4b36      	ldr	r3, [pc, #216]	; (4059ac <xTaskGenericCreate+0x188>)
  4058d2:	4798      	blx	r3
  4058d4:	4b36      	ldr	r3, [pc, #216]	; (4059b0 <xTaskGenericCreate+0x18c>)
  4058d6:	681b      	ldr	r3, [r3, #0]
  4058d8:	3301      	adds	r3, #1
  4058da:	4a35      	ldr	r2, [pc, #212]	; (4059b0 <xTaskGenericCreate+0x18c>)
  4058dc:	6013      	str	r3, [r2, #0]
  4058de:	4b35      	ldr	r3, [pc, #212]	; (4059b4 <xTaskGenericCreate+0x190>)
  4058e0:	681b      	ldr	r3, [r3, #0]
  4058e2:	2b00      	cmp	r3, #0
  4058e4:	d109      	bne.n	4058fa <xTaskGenericCreate+0xd6>
  4058e6:	4a33      	ldr	r2, [pc, #204]	; (4059b4 <xTaskGenericCreate+0x190>)
  4058e8:	69bb      	ldr	r3, [r7, #24]
  4058ea:	6013      	str	r3, [r2, #0]
  4058ec:	4b30      	ldr	r3, [pc, #192]	; (4059b0 <xTaskGenericCreate+0x18c>)
  4058ee:	681b      	ldr	r3, [r3, #0]
  4058f0:	2b01      	cmp	r3, #1
  4058f2:	d10f      	bne.n	405914 <xTaskGenericCreate+0xf0>
  4058f4:	4b30      	ldr	r3, [pc, #192]	; (4059b8 <xTaskGenericCreate+0x194>)
  4058f6:	4798      	blx	r3
  4058f8:	e00c      	b.n	405914 <xTaskGenericCreate+0xf0>
  4058fa:	4b30      	ldr	r3, [pc, #192]	; (4059bc <xTaskGenericCreate+0x198>)
  4058fc:	681b      	ldr	r3, [r3, #0]
  4058fe:	2b00      	cmp	r3, #0
  405900:	d108      	bne.n	405914 <xTaskGenericCreate+0xf0>
  405902:	4b2c      	ldr	r3, [pc, #176]	; (4059b4 <xTaskGenericCreate+0x190>)
  405904:	681b      	ldr	r3, [r3, #0]
  405906:	6ada      	ldr	r2, [r3, #44]	; 0x2c
  405908:	6b3b      	ldr	r3, [r7, #48]	; 0x30
  40590a:	429a      	cmp	r2, r3
  40590c:	d802      	bhi.n	405914 <xTaskGenericCreate+0xf0>
  40590e:	4a29      	ldr	r2, [pc, #164]	; (4059b4 <xTaskGenericCreate+0x190>)
  405910:	69bb      	ldr	r3, [r7, #24]
  405912:	6013      	str	r3, [r2, #0]
  405914:	69bb      	ldr	r3, [r7, #24]
  405916:	6ada      	ldr	r2, [r3, #44]	; 0x2c
  405918:	4b29      	ldr	r3, [pc, #164]	; (4059c0 <xTaskGenericCreate+0x19c>)
  40591a:	681b      	ldr	r3, [r3, #0]
  40591c:	429a      	cmp	r2, r3
  40591e:	d903      	bls.n	405928 <xTaskGenericCreate+0x104>
  405920:	69bb      	ldr	r3, [r7, #24]
  405922:	6adb      	ldr	r3, [r3, #44]	; 0x2c
  405924:	4a26      	ldr	r2, [pc, #152]	; (4059c0 <xTaskGenericCreate+0x19c>)
  405926:	6013      	str	r3, [r2, #0]
  405928:	4b26      	ldr	r3, [pc, #152]	; (4059c4 <xTaskGenericCreate+0x1a0>)
  40592a:	681b      	ldr	r3, [r3, #0]
  40592c:	3301      	adds	r3, #1
  40592e:	4a25      	ldr	r2, [pc, #148]	; (4059c4 <xTaskGenericCreate+0x1a0>)
  405930:	6013      	str	r3, [r2, #0]
  405932:	69bb      	ldr	r3, [r7, #24]
  405934:	6ada      	ldr	r2, [r3, #44]	; 0x2c
  405936:	4b24      	ldr	r3, [pc, #144]	; (4059c8 <xTaskGenericCreate+0x1a4>)
  405938:	681b      	ldr	r3, [r3, #0]
  40593a:	429a      	cmp	r2, r3
  40593c:	d903      	bls.n	405946 <xTaskGenericCreate+0x122>
  40593e:	69bb      	ldr	r3, [r7, #24]
  405940:	6adb      	ldr	r3, [r3, #44]	; 0x2c
  405942:	4a21      	ldr	r2, [pc, #132]	; (4059c8 <xTaskGenericCreate+0x1a4>)
  405944:	6013      	str	r3, [r2, #0]
  405946:	69bb      	ldr	r3, [r7, #24]
  405948:	6ada      	ldr	r2, [r3, #44]	; 0x2c
  40594a:	4613      	mov	r3, r2
  40594c:	009b      	lsls	r3, r3, #2
  40594e:	4413      	add	r3, r2
  405950:	009b      	lsls	r3, r3, #2
  405952:	4a1e      	ldr	r2, [pc, #120]	; (4059cc <xTaskGenericCreate+0x1a8>)
  405954:	441a      	add	r2, r3
  405956:	69bb      	ldr	r3, [r7, #24]
  405958:	3304      	adds	r3, #4
  40595a:	4619      	mov	r1, r3
  40595c:	4610      	mov	r0, r2
  40595e:	4b1c      	ldr	r3, [pc, #112]	; (4059d0 <xTaskGenericCreate+0x1ac>)
  405960:	4798      	blx	r3
  405962:	2301      	movs	r3, #1
  405964:	61fb      	str	r3, [r7, #28]
  405966:	4b1b      	ldr	r3, [pc, #108]	; (4059d4 <xTaskGenericCreate+0x1b0>)
  405968:	4798      	blx	r3
  40596a:	e002      	b.n	405972 <xTaskGenericCreate+0x14e>
  40596c:	f04f 33ff 	mov.w	r3, #4294967295
  405970:	61fb      	str	r3, [r7, #28]
  405972:	69fb      	ldr	r3, [r7, #28]
  405974:	2b01      	cmp	r3, #1
  405976:	d10b      	bne.n	405990 <xTaskGenericCreate+0x16c>
  405978:	4b10      	ldr	r3, [pc, #64]	; (4059bc <xTaskGenericCreate+0x198>)
  40597a:	681b      	ldr	r3, [r3, #0]
  40597c:	2b00      	cmp	r3, #0
  40597e:	d007      	beq.n	405990 <xTaskGenericCreate+0x16c>
  405980:	4b0c      	ldr	r3, [pc, #48]	; (4059b4 <xTaskGenericCreate+0x190>)
  405982:	681b      	ldr	r3, [r3, #0]
  405984:	6ada      	ldr	r2, [r3, #44]	; 0x2c
  405986:	6b3b      	ldr	r3, [r7, #48]	; 0x30
  405988:	429a      	cmp	r2, r3
  40598a:	d201      	bcs.n	405990 <xTaskGenericCreate+0x16c>
  40598c:	4b12      	ldr	r3, [pc, #72]	; (4059d8 <xTaskGenericCreate+0x1b4>)
  40598e:	4798      	blx	r3
  405990:	69fb      	ldr	r3, [r7, #28]
  405992:	4618      	mov	r0, r3
  405994:	3724      	adds	r7, #36	; 0x24
  405996:	46bd      	mov	sp, r7
  405998:	bd90      	pop	{r4, r7, pc}
  40599a:	bf00      	nop
  40599c:	00404ced 	.word	0x00404ced
  4059a0:	004062d5 	.word	0x004062d5
  4059a4:	004060dd 	.word	0x004060dd
  4059a8:	00404bc1 	.word	0x00404bc1
  4059ac:	00404ca5 	.word	0x00404ca5
  4059b0:	200029a4 	.word	0x200029a4
  4059b4:	200028cc 	.word	0x200028cc
  4059b8:	00406151 	.word	0x00406151
  4059bc:	200029b4 	.word	0x200029b4
  4059c0:	200029ac 	.word	0x200029ac
  4059c4:	200029c8 	.word	0x200029c8
  4059c8:	200029b0 	.word	0x200029b0
  4059cc:	200028d0 	.word	0x200028d0
  4059d0:	00404a09 	.word	0x00404a09
  4059d4:	00404cc5 	.word	0x00404cc5
  4059d8:	00404c8d 	.word	0x00404c8d

004059dc <vTaskDelay>:
  4059dc:	b580      	push	{r7, lr}
  4059de:	b084      	sub	sp, #16
  4059e0:	af00      	add	r7, sp, #0
  4059e2:	6078      	str	r0, [r7, #4]
  4059e4:	2300      	movs	r3, #0
  4059e6:	60fb      	str	r3, [r7, #12]
  4059e8:	687b      	ldr	r3, [r7, #4]
  4059ea:	2b00      	cmp	r3, #0
  4059ec:	d012      	beq.n	405a14 <vTaskDelay+0x38>
  4059ee:	4b0e      	ldr	r3, [pc, #56]	; (405a28 <vTaskDelay+0x4c>)
  4059f0:	4798      	blx	r3
  4059f2:	4b0e      	ldr	r3, [pc, #56]	; (405a2c <vTaskDelay+0x50>)
  4059f4:	681a      	ldr	r2, [r3, #0]
  4059f6:	687b      	ldr	r3, [r7, #4]
  4059f8:	4413      	add	r3, r2
  4059fa:	60bb      	str	r3, [r7, #8]
  4059fc:	4b0c      	ldr	r3, [pc, #48]	; (405a30 <vTaskDelay+0x54>)
  4059fe:	681b      	ldr	r3, [r3, #0]
  405a00:	3304      	adds	r3, #4
  405a02:	4618      	mov	r0, r3
  405a04:	4b0b      	ldr	r3, [pc, #44]	; (405a34 <vTaskDelay+0x58>)
  405a06:	4798      	blx	r3
  405a08:	68b8      	ldr	r0, [r7, #8]
  405a0a:	4b0b      	ldr	r3, [pc, #44]	; (405a38 <vTaskDelay+0x5c>)
  405a0c:	4798      	blx	r3
  405a0e:	4b0b      	ldr	r3, [pc, #44]	; (405a3c <vTaskDelay+0x60>)
  405a10:	4798      	blx	r3
  405a12:	60f8      	str	r0, [r7, #12]
  405a14:	68fb      	ldr	r3, [r7, #12]
  405a16:	2b00      	cmp	r3, #0
  405a18:	d101      	bne.n	405a1e <vTaskDelay+0x42>
  405a1a:	4b09      	ldr	r3, [pc, #36]	; (405a40 <vTaskDelay+0x64>)
  405a1c:	4798      	blx	r3
  405a1e:	bf00      	nop
  405a20:	3710      	adds	r7, #16
  405a22:	46bd      	mov	sp, r7
  405a24:	bd80      	pop	{r7, pc}
  405a26:	bf00      	nop
  405a28:	00405ac5 	.word	0x00405ac5
  405a2c:	200029a8 	.word	0x200029a8
  405a30:	200028cc 	.word	0x200028cc
  405a34:	00404ac9 	.word	0x00404ac9
  405a38:	00406265 	.word	0x00406265
  405a3c:	00405ae1 	.word	0x00405ae1
  405a40:	00404c8d 	.word	0x00404c8d

00405a44 <vTaskStartScheduler>:
  405a44:	b590      	push	{r4, r7, lr}
  405a46:	b087      	sub	sp, #28
  405a48:	af04      	add	r7, sp, #16
  405a4a:	2300      	movs	r3, #0
  405a4c:	9303      	str	r3, [sp, #12]
  405a4e:	2300      	movs	r3, #0
  405a50:	9302      	str	r3, [sp, #8]
  405a52:	2300      	movs	r3, #0
  405a54:	9301      	str	r3, [sp, #4]
  405a56:	2300      	movs	r3, #0
  405a58:	9300      	str	r3, [sp, #0]
  405a5a:	2300      	movs	r3, #0
  405a5c:	2264      	movs	r2, #100	; 0x64
  405a5e:	4911      	ldr	r1, [pc, #68]	; (405aa4 <vTaskStartScheduler+0x60>)
  405a60:	4811      	ldr	r0, [pc, #68]	; (405aa8 <vTaskStartScheduler+0x64>)
  405a62:	4c12      	ldr	r4, [pc, #72]	; (405aac <vTaskStartScheduler+0x68>)
  405a64:	47a0      	blx	r4
  405a66:	6078      	str	r0, [r7, #4]
  405a68:	687b      	ldr	r3, [r7, #4]
  405a6a:	2b01      	cmp	r3, #1
  405a6c:	d102      	bne.n	405a74 <vTaskStartScheduler+0x30>
  405a6e:	4b10      	ldr	r3, [pc, #64]	; (405ab0 <vTaskStartScheduler+0x6c>)
  405a70:	4798      	blx	r3
  405a72:	6078      	str	r0, [r7, #4]
  405a74:	687b      	ldr	r3, [r7, #4]
  405a76:	2b01      	cmp	r3, #1
  405a78:	d109      	bne.n	405a8e <vTaskStartScheduler+0x4a>
  405a7a:	4b0e      	ldr	r3, [pc, #56]	; (405ab4 <vTaskStartScheduler+0x70>)
  405a7c:	4798      	blx	r3
  405a7e:	4b0e      	ldr	r3, [pc, #56]	; (405ab8 <vTaskStartScheduler+0x74>)
  405a80:	2201      	movs	r2, #1
  405a82:	601a      	str	r2, [r3, #0]
  405a84:	4b0d      	ldr	r3, [pc, #52]	; (405abc <vTaskStartScheduler+0x78>)
  405a86:	2200      	movs	r2, #0
  405a88:	601a      	str	r2, [r3, #0]
  405a8a:	4b0d      	ldr	r3, [pc, #52]	; (405ac0 <vTaskStartScheduler+0x7c>)
  405a8c:	4798      	blx	r3
  405a8e:	687b      	ldr	r3, [r7, #4]
  405a90:	2b00      	cmp	r3, #0
  405a92:	d103      	bne.n	405a9c <vTaskStartScheduler+0x58>
  405a94:	4b07      	ldr	r3, [pc, #28]	; (405ab4 <vTaskStartScheduler+0x70>)
  405a96:	4798      	blx	r3
  405a98:	bf00      	nop
  405a9a:	e7fd      	b.n	405a98 <vTaskStartScheduler+0x54>
  405a9c:	bf00      	nop
  405a9e:	370c      	adds	r7, #12
  405aa0:	46bd      	mov	sp, r7
  405aa2:	bd90      	pop	{r4, r7, pc}
  405aa4:	0040b118 	.word	0x0040b118
  405aa8:	004060c9 	.word	0x004060c9
  405aac:	00405825 	.word	0x00405825
  405ab0:	004064f9 	.word	0x004064f9
  405ab4:	00404ced 	.word	0x00404ced
  405ab8:	200029b4 	.word	0x200029b4
  405abc:	200029a8 	.word	0x200029a8
  405ac0:	00404c4d 	.word	0x00404c4d

00405ac4 <vTaskSuspendAll>:
  405ac4:	b480      	push	{r7}
  405ac6:	af00      	add	r7, sp, #0
  405ac8:	4b04      	ldr	r3, [pc, #16]	; (405adc <vTaskSuspendAll+0x18>)
  405aca:	681b      	ldr	r3, [r3, #0]
  405acc:	3301      	adds	r3, #1
  405ace:	4a03      	ldr	r2, [pc, #12]	; (405adc <vTaskSuspendAll+0x18>)
  405ad0:	6013      	str	r3, [r2, #0]
  405ad2:	bf00      	nop
  405ad4:	46bd      	mov	sp, r7
  405ad6:	bc80      	pop	{r7}
  405ad8:	4770      	bx	lr
  405ada:	bf00      	nop
  405adc:	200029b8 	.word	0x200029b8

00405ae0 <xTaskResumeAll>:
  405ae0:	b590      	push	{r4, r7, lr}
  405ae2:	b083      	sub	sp, #12
  405ae4:	af00      	add	r7, sp, #0
  405ae6:	2300      	movs	r3, #0
  405ae8:	607b      	str	r3, [r7, #4]
  405aea:	4b36      	ldr	r3, [pc, #216]	; (405bc4 <xTaskResumeAll+0xe4>)
  405aec:	681b      	ldr	r3, [r3, #0]
  405aee:	2b00      	cmp	r3, #0
  405af0:	d103      	bne.n	405afa <xTaskResumeAll+0x1a>
  405af2:	4b35      	ldr	r3, [pc, #212]	; (405bc8 <xTaskResumeAll+0xe8>)
  405af4:	4798      	blx	r3
  405af6:	bf00      	nop
  405af8:	e7fd      	b.n	405af6 <xTaskResumeAll+0x16>
  405afa:	4b34      	ldr	r3, [pc, #208]	; (405bcc <xTaskResumeAll+0xec>)
  405afc:	4798      	blx	r3
  405afe:	4b31      	ldr	r3, [pc, #196]	; (405bc4 <xTaskResumeAll+0xe4>)
  405b00:	681b      	ldr	r3, [r3, #0]
  405b02:	3b01      	subs	r3, #1
  405b04:	4a2f      	ldr	r2, [pc, #188]	; (405bc4 <xTaskResumeAll+0xe4>)
  405b06:	6013      	str	r3, [r2, #0]
  405b08:	4b2e      	ldr	r3, [pc, #184]	; (405bc4 <xTaskResumeAll+0xe4>)
  405b0a:	681b      	ldr	r3, [r3, #0]
  405b0c:	2b00      	cmp	r3, #0
  405b0e:	d152      	bne.n	405bb6 <xTaskResumeAll+0xd6>
  405b10:	4b2f      	ldr	r3, [pc, #188]	; (405bd0 <xTaskResumeAll+0xf0>)
  405b12:	681b      	ldr	r3, [r3, #0]
  405b14:	2b00      	cmp	r3, #0
  405b16:	d04e      	beq.n	405bb6 <xTaskResumeAll+0xd6>
  405b18:	2300      	movs	r3, #0
  405b1a:	603b      	str	r3, [r7, #0]
  405b1c:	e027      	b.n	405b6e <xTaskResumeAll+0x8e>
  405b1e:	4b2d      	ldr	r3, [pc, #180]	; (405bd4 <xTaskResumeAll+0xf4>)
  405b20:	68db      	ldr	r3, [r3, #12]
  405b22:	68dc      	ldr	r4, [r3, #12]
  405b24:	f104 0318 	add.w	r3, r4, #24
  405b28:	4618      	mov	r0, r3
  405b2a:	4b2b      	ldr	r3, [pc, #172]	; (405bd8 <xTaskResumeAll+0xf8>)
  405b2c:	4798      	blx	r3
  405b2e:	1d23      	adds	r3, r4, #4
  405b30:	4618      	mov	r0, r3
  405b32:	4b29      	ldr	r3, [pc, #164]	; (405bd8 <xTaskResumeAll+0xf8>)
  405b34:	4798      	blx	r3
  405b36:	6ae2      	ldr	r2, [r4, #44]	; 0x2c
  405b38:	4b28      	ldr	r3, [pc, #160]	; (405bdc <xTaskResumeAll+0xfc>)
  405b3a:	681b      	ldr	r3, [r3, #0]
  405b3c:	429a      	cmp	r2, r3
  405b3e:	d902      	bls.n	405b46 <xTaskResumeAll+0x66>
  405b40:	6ae3      	ldr	r3, [r4, #44]	; 0x2c
  405b42:	4a26      	ldr	r2, [pc, #152]	; (405bdc <xTaskResumeAll+0xfc>)
  405b44:	6013      	str	r3, [r2, #0]
  405b46:	6ae2      	ldr	r2, [r4, #44]	; 0x2c
  405b48:	4613      	mov	r3, r2
  405b4a:	009b      	lsls	r3, r3, #2
  405b4c:	4413      	add	r3, r2
  405b4e:	009b      	lsls	r3, r3, #2
  405b50:	4a23      	ldr	r2, [pc, #140]	; (405be0 <xTaskResumeAll+0x100>)
  405b52:	4413      	add	r3, r2
  405b54:	1d22      	adds	r2, r4, #4
  405b56:	4611      	mov	r1, r2
  405b58:	4618      	mov	r0, r3
  405b5a:	4b22      	ldr	r3, [pc, #136]	; (405be4 <xTaskResumeAll+0x104>)
  405b5c:	4798      	blx	r3
  405b5e:	6ae2      	ldr	r2, [r4, #44]	; 0x2c
  405b60:	4b21      	ldr	r3, [pc, #132]	; (405be8 <xTaskResumeAll+0x108>)
  405b62:	681b      	ldr	r3, [r3, #0]
  405b64:	6adb      	ldr	r3, [r3, #44]	; 0x2c
  405b66:	429a      	cmp	r2, r3
  405b68:	d301      	bcc.n	405b6e <xTaskResumeAll+0x8e>
  405b6a:	2301      	movs	r3, #1
  405b6c:	603b      	str	r3, [r7, #0]
  405b6e:	4b19      	ldr	r3, [pc, #100]	; (405bd4 <xTaskResumeAll+0xf4>)
  405b70:	681b      	ldr	r3, [r3, #0]
  405b72:	2b00      	cmp	r3, #0
  405b74:	d1d3      	bne.n	405b1e <xTaskResumeAll+0x3e>
  405b76:	4b1d      	ldr	r3, [pc, #116]	; (405bec <xTaskResumeAll+0x10c>)
  405b78:	681b      	ldr	r3, [r3, #0]
  405b7a:	2b00      	cmp	r3, #0
  405b7c:	d00d      	beq.n	405b9a <xTaskResumeAll+0xba>
  405b7e:	e006      	b.n	405b8e <xTaskResumeAll+0xae>
  405b80:	4b1b      	ldr	r3, [pc, #108]	; (405bf0 <xTaskResumeAll+0x110>)
  405b82:	4798      	blx	r3
  405b84:	4b19      	ldr	r3, [pc, #100]	; (405bec <xTaskResumeAll+0x10c>)
  405b86:	681b      	ldr	r3, [r3, #0]
  405b88:	3b01      	subs	r3, #1
  405b8a:	4a18      	ldr	r2, [pc, #96]	; (405bec <xTaskResumeAll+0x10c>)
  405b8c:	6013      	str	r3, [r2, #0]
  405b8e:	4b17      	ldr	r3, [pc, #92]	; (405bec <xTaskResumeAll+0x10c>)
  405b90:	681b      	ldr	r3, [r3, #0]
  405b92:	2b00      	cmp	r3, #0
  405b94:	d1f4      	bne.n	405b80 <xTaskResumeAll+0xa0>
  405b96:	2301      	movs	r3, #1
  405b98:	603b      	str	r3, [r7, #0]
  405b9a:	683b      	ldr	r3, [r7, #0]
  405b9c:	2b01      	cmp	r3, #1
  405b9e:	d003      	beq.n	405ba8 <xTaskResumeAll+0xc8>
  405ba0:	4b14      	ldr	r3, [pc, #80]	; (405bf4 <xTaskResumeAll+0x114>)
  405ba2:	681b      	ldr	r3, [r3, #0]
  405ba4:	2b01      	cmp	r3, #1
  405ba6:	d106      	bne.n	405bb6 <xTaskResumeAll+0xd6>
  405ba8:	2301      	movs	r3, #1
  405baa:	607b      	str	r3, [r7, #4]
  405bac:	4b11      	ldr	r3, [pc, #68]	; (405bf4 <xTaskResumeAll+0x114>)
  405bae:	2200      	movs	r2, #0
  405bb0:	601a      	str	r2, [r3, #0]
  405bb2:	4b11      	ldr	r3, [pc, #68]	; (405bf8 <xTaskResumeAll+0x118>)
  405bb4:	4798      	blx	r3
  405bb6:	4b11      	ldr	r3, [pc, #68]	; (405bfc <xTaskResumeAll+0x11c>)
  405bb8:	4798      	blx	r3
  405bba:	687b      	ldr	r3, [r7, #4]
  405bbc:	4618      	mov	r0, r3
  405bbe:	370c      	adds	r7, #12
  405bc0:	46bd      	mov	sp, r7
  405bc2:	bd90      	pop	{r4, r7, pc}
  405bc4:	200029b8 	.word	0x200029b8
  405bc8:	00404ced 	.word	0x00404ced
  405bcc:	00404ca5 	.word	0x00404ca5
  405bd0:	200029a4 	.word	0x200029a4
  405bd4:	20002964 	.word	0x20002964
  405bd8:	00404ac9 	.word	0x00404ac9
  405bdc:	200029b0 	.word	0x200029b0
  405be0:	200028d0 	.word	0x200028d0
  405be4:	00404a09 	.word	0x00404a09
  405be8:	200028cc 	.word	0x200028cc
  405bec:	200029bc 	.word	0x200029bc
  405bf0:	00405c2d 	.word	0x00405c2d
  405bf4:	200029c0 	.word	0x200029c0
  405bf8:	00404c8d 	.word	0x00404c8d
  405bfc:	00404cc5 	.word	0x00404cc5

00405c00 <xTaskGetTickCount>:
  405c00:	b580      	push	{r7, lr}
  405c02:	b082      	sub	sp, #8
  405c04:	af00      	add	r7, sp, #0
  405c06:	4b06      	ldr	r3, [pc, #24]	; (405c20 <xTaskGetTickCount+0x20>)
  405c08:	4798      	blx	r3
  405c0a:	4b06      	ldr	r3, [pc, #24]	; (405c24 <xTaskGetTickCount+0x24>)
  405c0c:	681b      	ldr	r3, [r3, #0]
  405c0e:	607b      	str	r3, [r7, #4]
  405c10:	4b05      	ldr	r3, [pc, #20]	; (405c28 <xTaskGetTickCount+0x28>)
  405c12:	4798      	blx	r3
  405c14:	687b      	ldr	r3, [r7, #4]
  405c16:	4618      	mov	r0, r3
  405c18:	3708      	adds	r7, #8
  405c1a:	46bd      	mov	sp, r7
  405c1c:	bd80      	pop	{r7, pc}
  405c1e:	bf00      	nop
  405c20:	00404ca5 	.word	0x00404ca5
  405c24:	200029a8 	.word	0x200029a8
  405c28:	00404cc5 	.word	0x00404cc5

00405c2c <vTaskIncrementTick>:
  405c2c:	b580      	push	{r7, lr}
  405c2e:	b084      	sub	sp, #16
  405c30:	af00      	add	r7, sp, #0
  405c32:	4b45      	ldr	r3, [pc, #276]	; (405d48 <vTaskIncrementTick+0x11c>)
  405c34:	681b      	ldr	r3, [r3, #0]
  405c36:	2b00      	cmp	r3, #0
  405c38:	d17b      	bne.n	405d32 <vTaskIncrementTick+0x106>
  405c3a:	4b44      	ldr	r3, [pc, #272]	; (405d4c <vTaskIncrementTick+0x120>)
  405c3c:	681b      	ldr	r3, [r3, #0]
  405c3e:	3301      	adds	r3, #1
  405c40:	4a42      	ldr	r2, [pc, #264]	; (405d4c <vTaskIncrementTick+0x120>)
  405c42:	6013      	str	r3, [r2, #0]
  405c44:	4b41      	ldr	r3, [pc, #260]	; (405d4c <vTaskIncrementTick+0x120>)
  405c46:	681b      	ldr	r3, [r3, #0]
  405c48:	2b00      	cmp	r3, #0
  405c4a:	d12a      	bne.n	405ca2 <vTaskIncrementTick+0x76>
  405c4c:	4b40      	ldr	r3, [pc, #256]	; (405d50 <vTaskIncrementTick+0x124>)
  405c4e:	681b      	ldr	r3, [r3, #0]
  405c50:	681b      	ldr	r3, [r3, #0]
  405c52:	2b00      	cmp	r3, #0
  405c54:	d003      	beq.n	405c5e <vTaskIncrementTick+0x32>
  405c56:	4b3f      	ldr	r3, [pc, #252]	; (405d54 <vTaskIncrementTick+0x128>)
  405c58:	4798      	blx	r3
  405c5a:	bf00      	nop
  405c5c:	e7fd      	b.n	405c5a <vTaskIncrementTick+0x2e>
  405c5e:	4b3c      	ldr	r3, [pc, #240]	; (405d50 <vTaskIncrementTick+0x124>)
  405c60:	681b      	ldr	r3, [r3, #0]
  405c62:	60fb      	str	r3, [r7, #12]
  405c64:	4b3c      	ldr	r3, [pc, #240]	; (405d58 <vTaskIncrementTick+0x12c>)
  405c66:	681b      	ldr	r3, [r3, #0]
  405c68:	4a39      	ldr	r2, [pc, #228]	; (405d50 <vTaskIncrementTick+0x124>)
  405c6a:	6013      	str	r3, [r2, #0]
  405c6c:	4a3a      	ldr	r2, [pc, #232]	; (405d58 <vTaskIncrementTick+0x12c>)
  405c6e:	68fb      	ldr	r3, [r7, #12]
  405c70:	6013      	str	r3, [r2, #0]
  405c72:	4b3a      	ldr	r3, [pc, #232]	; (405d5c <vTaskIncrementTick+0x130>)
  405c74:	681b      	ldr	r3, [r3, #0]
  405c76:	3301      	adds	r3, #1
  405c78:	4a38      	ldr	r2, [pc, #224]	; (405d5c <vTaskIncrementTick+0x130>)
  405c7a:	6013      	str	r3, [r2, #0]
  405c7c:	4b34      	ldr	r3, [pc, #208]	; (405d50 <vTaskIncrementTick+0x124>)
  405c7e:	681b      	ldr	r3, [r3, #0]
  405c80:	681b      	ldr	r3, [r3, #0]
  405c82:	2b00      	cmp	r3, #0
  405c84:	d104      	bne.n	405c90 <vTaskIncrementTick+0x64>
  405c86:	4b36      	ldr	r3, [pc, #216]	; (405d60 <vTaskIncrementTick+0x134>)
  405c88:	f04f 32ff 	mov.w	r2, #4294967295
  405c8c:	601a      	str	r2, [r3, #0]
  405c8e:	e008      	b.n	405ca2 <vTaskIncrementTick+0x76>
  405c90:	4b2f      	ldr	r3, [pc, #188]	; (405d50 <vTaskIncrementTick+0x124>)
  405c92:	681b      	ldr	r3, [r3, #0]
  405c94:	68db      	ldr	r3, [r3, #12]
  405c96:	68db      	ldr	r3, [r3, #12]
  405c98:	60bb      	str	r3, [r7, #8]
  405c9a:	68bb      	ldr	r3, [r7, #8]
  405c9c:	685b      	ldr	r3, [r3, #4]
  405c9e:	4a30      	ldr	r2, [pc, #192]	; (405d60 <vTaskIncrementTick+0x134>)
  405ca0:	6013      	str	r3, [r2, #0]
  405ca2:	4b2a      	ldr	r3, [pc, #168]	; (405d4c <vTaskIncrementTick+0x120>)
  405ca4:	681a      	ldr	r2, [r3, #0]
  405ca6:	4b2e      	ldr	r3, [pc, #184]	; (405d60 <vTaskIncrementTick+0x134>)
  405ca8:	681b      	ldr	r3, [r3, #0]
  405caa:	429a      	cmp	r2, r3
  405cac:	d347      	bcc.n	405d3e <vTaskIncrementTick+0x112>
  405cae:	4b28      	ldr	r3, [pc, #160]	; (405d50 <vTaskIncrementTick+0x124>)
  405cb0:	681b      	ldr	r3, [r3, #0]
  405cb2:	681b      	ldr	r3, [r3, #0]
  405cb4:	2b00      	cmp	r3, #0
  405cb6:	d104      	bne.n	405cc2 <vTaskIncrementTick+0x96>
  405cb8:	4b29      	ldr	r3, [pc, #164]	; (405d60 <vTaskIncrementTick+0x134>)
  405cba:	f04f 32ff 	mov.w	r2, #4294967295
  405cbe:	601a      	str	r2, [r3, #0]
  405cc0:	e03d      	b.n	405d3e <vTaskIncrementTick+0x112>
  405cc2:	4b23      	ldr	r3, [pc, #140]	; (405d50 <vTaskIncrementTick+0x124>)
  405cc4:	681b      	ldr	r3, [r3, #0]
  405cc6:	68db      	ldr	r3, [r3, #12]
  405cc8:	68db      	ldr	r3, [r3, #12]
  405cca:	60bb      	str	r3, [r7, #8]
  405ccc:	68bb      	ldr	r3, [r7, #8]
  405cce:	685b      	ldr	r3, [r3, #4]
  405cd0:	607b      	str	r3, [r7, #4]
  405cd2:	4b1e      	ldr	r3, [pc, #120]	; (405d4c <vTaskIncrementTick+0x120>)
  405cd4:	681a      	ldr	r2, [r3, #0]
  405cd6:	687b      	ldr	r3, [r7, #4]
  405cd8:	429a      	cmp	r2, r3
  405cda:	d203      	bcs.n	405ce4 <vTaskIncrementTick+0xb8>
  405cdc:	4a20      	ldr	r2, [pc, #128]	; (405d60 <vTaskIncrementTick+0x134>)
  405cde:	687b      	ldr	r3, [r7, #4]
  405ce0:	6013      	str	r3, [r2, #0]
  405ce2:	e02c      	b.n	405d3e <vTaskIncrementTick+0x112>
  405ce4:	68bb      	ldr	r3, [r7, #8]
  405ce6:	3304      	adds	r3, #4
  405ce8:	4618      	mov	r0, r3
  405cea:	4b1e      	ldr	r3, [pc, #120]	; (405d64 <vTaskIncrementTick+0x138>)
  405cec:	4798      	blx	r3
  405cee:	68bb      	ldr	r3, [r7, #8]
  405cf0:	6a9b      	ldr	r3, [r3, #40]	; 0x28
  405cf2:	2b00      	cmp	r3, #0
  405cf4:	d004      	beq.n	405d00 <vTaskIncrementTick+0xd4>
  405cf6:	68bb      	ldr	r3, [r7, #8]
  405cf8:	3318      	adds	r3, #24
  405cfa:	4618      	mov	r0, r3
  405cfc:	4b19      	ldr	r3, [pc, #100]	; (405d64 <vTaskIncrementTick+0x138>)
  405cfe:	4798      	blx	r3
  405d00:	68bb      	ldr	r3, [r7, #8]
  405d02:	6ada      	ldr	r2, [r3, #44]	; 0x2c
  405d04:	4b18      	ldr	r3, [pc, #96]	; (405d68 <vTaskIncrementTick+0x13c>)
  405d06:	681b      	ldr	r3, [r3, #0]
  405d08:	429a      	cmp	r2, r3
  405d0a:	d903      	bls.n	405d14 <vTaskIncrementTick+0xe8>
  405d0c:	68bb      	ldr	r3, [r7, #8]
  405d0e:	6adb      	ldr	r3, [r3, #44]	; 0x2c
  405d10:	4a15      	ldr	r2, [pc, #84]	; (405d68 <vTaskIncrementTick+0x13c>)
  405d12:	6013      	str	r3, [r2, #0]
  405d14:	68bb      	ldr	r3, [r7, #8]
  405d16:	6ada      	ldr	r2, [r3, #44]	; 0x2c
  405d18:	4613      	mov	r3, r2
  405d1a:	009b      	lsls	r3, r3, #2
  405d1c:	4413      	add	r3, r2
  405d1e:	009b      	lsls	r3, r3, #2
  405d20:	4a12      	ldr	r2, [pc, #72]	; (405d6c <vTaskIncrementTick+0x140>)
  405d22:	441a      	add	r2, r3
  405d24:	68bb      	ldr	r3, [r7, #8]
  405d26:	3304      	adds	r3, #4
  405d28:	4619      	mov	r1, r3
  405d2a:	4610      	mov	r0, r2
  405d2c:	4b10      	ldr	r3, [pc, #64]	; (405d70 <vTaskIncrementTick+0x144>)
  405d2e:	4798      	blx	r3
  405d30:	e7bd      	b.n	405cae <vTaskIncrementTick+0x82>
  405d32:	4b10      	ldr	r3, [pc, #64]	; (405d74 <vTaskIncrementTick+0x148>)
  405d34:	681b      	ldr	r3, [r3, #0]
  405d36:	3301      	adds	r3, #1
  405d38:	4a0e      	ldr	r2, [pc, #56]	; (405d74 <vTaskIncrementTick+0x148>)
  405d3a:	6013      	str	r3, [r2, #0]
  405d3c:	e7ff      	b.n	405d3e <vTaskIncrementTick+0x112>
  405d3e:	bf00      	nop
  405d40:	3710      	adds	r7, #16
  405d42:	46bd      	mov	sp, r7
  405d44:	bd80      	pop	{r7, pc}
  405d46:	bf00      	nop
  405d48:	200029b8 	.word	0x200029b8
  405d4c:	200029a8 	.word	0x200029a8
  405d50:	2000295c 	.word	0x2000295c
  405d54:	00404ced 	.word	0x00404ced
  405d58:	20002960 	.word	0x20002960
  405d5c:	200029c4 	.word	0x200029c4
  405d60:	20000124 	.word	0x20000124
  405d64:	00404ac9 	.word	0x00404ac9
  405d68:	200029b0 	.word	0x200029b0
  405d6c:	200028d0 	.word	0x200028d0
  405d70:	00404a09 	.word	0x00404a09
  405d74:	200029bc 	.word	0x200029bc

00405d78 <vTaskSwitchContext>:
  405d78:	b580      	push	{r7, lr}
  405d7a:	b082      	sub	sp, #8
  405d7c:	af00      	add	r7, sp, #0
  405d7e:	4b21      	ldr	r3, [pc, #132]	; (405e04 <vTaskSwitchContext+0x8c>)
  405d80:	681b      	ldr	r3, [r3, #0]
  405d82:	2b00      	cmp	r3, #0
  405d84:	d010      	beq.n	405da8 <vTaskSwitchContext+0x30>
  405d86:	4b20      	ldr	r3, [pc, #128]	; (405e08 <vTaskSwitchContext+0x90>)
  405d88:	2201      	movs	r2, #1
  405d8a:	601a      	str	r2, [r3, #0]
  405d8c:	e035      	b.n	405dfa <vTaskSwitchContext+0x82>
  405d8e:	4b1f      	ldr	r3, [pc, #124]	; (405e0c <vTaskSwitchContext+0x94>)
  405d90:	681b      	ldr	r3, [r3, #0]
  405d92:	2b00      	cmp	r3, #0
  405d94:	d103      	bne.n	405d9e <vTaskSwitchContext+0x26>
  405d96:	4b1e      	ldr	r3, [pc, #120]	; (405e10 <vTaskSwitchContext+0x98>)
  405d98:	4798      	blx	r3
  405d9a:	bf00      	nop
  405d9c:	e7fd      	b.n	405d9a <vTaskSwitchContext+0x22>
  405d9e:	4b1b      	ldr	r3, [pc, #108]	; (405e0c <vTaskSwitchContext+0x94>)
  405da0:	681b      	ldr	r3, [r3, #0]
  405da2:	3b01      	subs	r3, #1
  405da4:	4a19      	ldr	r2, [pc, #100]	; (405e0c <vTaskSwitchContext+0x94>)
  405da6:	6013      	str	r3, [r2, #0]
  405da8:	4b18      	ldr	r3, [pc, #96]	; (405e0c <vTaskSwitchContext+0x94>)
  405daa:	681a      	ldr	r2, [r3, #0]
  405dac:	4919      	ldr	r1, [pc, #100]	; (405e14 <vTaskSwitchContext+0x9c>)
  405dae:	4613      	mov	r3, r2
  405db0:	009b      	lsls	r3, r3, #2
  405db2:	4413      	add	r3, r2
  405db4:	009b      	lsls	r3, r3, #2
  405db6:	440b      	add	r3, r1
  405db8:	681b      	ldr	r3, [r3, #0]
  405dba:	2b00      	cmp	r3, #0
  405dbc:	d0e7      	beq.n	405d8e <vTaskSwitchContext+0x16>
  405dbe:	4b13      	ldr	r3, [pc, #76]	; (405e0c <vTaskSwitchContext+0x94>)
  405dc0:	681a      	ldr	r2, [r3, #0]
  405dc2:	4613      	mov	r3, r2
  405dc4:	009b      	lsls	r3, r3, #2
  405dc6:	4413      	add	r3, r2
  405dc8:	009b      	lsls	r3, r3, #2
  405dca:	4a12      	ldr	r2, [pc, #72]	; (405e14 <vTaskSwitchContext+0x9c>)
  405dcc:	4413      	add	r3, r2
  405dce:	607b      	str	r3, [r7, #4]
  405dd0:	687b      	ldr	r3, [r7, #4]
  405dd2:	685b      	ldr	r3, [r3, #4]
  405dd4:	685a      	ldr	r2, [r3, #4]
  405dd6:	687b      	ldr	r3, [r7, #4]
  405dd8:	605a      	str	r2, [r3, #4]
  405dda:	687b      	ldr	r3, [r7, #4]
  405ddc:	685a      	ldr	r2, [r3, #4]
  405dde:	687b      	ldr	r3, [r7, #4]
  405de0:	3308      	adds	r3, #8
  405de2:	429a      	cmp	r2, r3
  405de4:	d104      	bne.n	405df0 <vTaskSwitchContext+0x78>
  405de6:	687b      	ldr	r3, [r7, #4]
  405de8:	685b      	ldr	r3, [r3, #4]
  405dea:	685a      	ldr	r2, [r3, #4]
  405dec:	687b      	ldr	r3, [r7, #4]
  405dee:	605a      	str	r2, [r3, #4]
  405df0:	687b      	ldr	r3, [r7, #4]
  405df2:	685b      	ldr	r3, [r3, #4]
  405df4:	68db      	ldr	r3, [r3, #12]
  405df6:	4a08      	ldr	r2, [pc, #32]	; (405e18 <vTaskSwitchContext+0xa0>)
  405df8:	6013      	str	r3, [r2, #0]
  405dfa:	bf00      	nop
  405dfc:	3708      	adds	r7, #8
  405dfe:	46bd      	mov	sp, r7
  405e00:	bd80      	pop	{r7, pc}
  405e02:	bf00      	nop
  405e04:	200029b8 	.word	0x200029b8
  405e08:	200029c0 	.word	0x200029c0
  405e0c:	200029b0 	.word	0x200029b0
  405e10:	00404ced 	.word	0x00404ced
  405e14:	200028d0 	.word	0x200028d0
  405e18:	200028cc 	.word	0x200028cc

00405e1c <vTaskPlaceOnEventList>:
  405e1c:	b580      	push	{r7, lr}
  405e1e:	b084      	sub	sp, #16
  405e20:	af00      	add	r7, sp, #0
  405e22:	6078      	str	r0, [r7, #4]
  405e24:	6039      	str	r1, [r7, #0]
  405e26:	687b      	ldr	r3, [r7, #4]
  405e28:	2b00      	cmp	r3, #0
  405e2a:	d103      	bne.n	405e34 <vTaskPlaceOnEventList+0x18>
  405e2c:	4b14      	ldr	r3, [pc, #80]	; (405e80 <vTaskPlaceOnEventList+0x64>)
  405e2e:	4798      	blx	r3
  405e30:	bf00      	nop
  405e32:	e7fd      	b.n	405e30 <vTaskPlaceOnEventList+0x14>
  405e34:	4b13      	ldr	r3, [pc, #76]	; (405e84 <vTaskPlaceOnEventList+0x68>)
  405e36:	681b      	ldr	r3, [r3, #0]
  405e38:	3318      	adds	r3, #24
  405e3a:	4619      	mov	r1, r3
  405e3c:	6878      	ldr	r0, [r7, #4]
  405e3e:	4b12      	ldr	r3, [pc, #72]	; (405e88 <vTaskPlaceOnEventList+0x6c>)
  405e40:	4798      	blx	r3
  405e42:	4b10      	ldr	r3, [pc, #64]	; (405e84 <vTaskPlaceOnEventList+0x68>)
  405e44:	681b      	ldr	r3, [r3, #0]
  405e46:	3304      	adds	r3, #4
  405e48:	4618      	mov	r0, r3
  405e4a:	4b10      	ldr	r3, [pc, #64]	; (405e8c <vTaskPlaceOnEventList+0x70>)
  405e4c:	4798      	blx	r3
  405e4e:	683b      	ldr	r3, [r7, #0]
  405e50:	f1b3 3fff 	cmp.w	r3, #4294967295
  405e54:	d107      	bne.n	405e66 <vTaskPlaceOnEventList+0x4a>
  405e56:	4b0b      	ldr	r3, [pc, #44]	; (405e84 <vTaskPlaceOnEventList+0x68>)
  405e58:	681b      	ldr	r3, [r3, #0]
  405e5a:	3304      	adds	r3, #4
  405e5c:	4619      	mov	r1, r3
  405e5e:	480c      	ldr	r0, [pc, #48]	; (405e90 <vTaskPlaceOnEventList+0x74>)
  405e60:	4b0c      	ldr	r3, [pc, #48]	; (405e94 <vTaskPlaceOnEventList+0x78>)
  405e62:	4798      	blx	r3
  405e64:	e007      	b.n	405e76 <vTaskPlaceOnEventList+0x5a>
  405e66:	4b0c      	ldr	r3, [pc, #48]	; (405e98 <vTaskPlaceOnEventList+0x7c>)
  405e68:	681a      	ldr	r2, [r3, #0]
  405e6a:	683b      	ldr	r3, [r7, #0]
  405e6c:	4413      	add	r3, r2
  405e6e:	60fb      	str	r3, [r7, #12]
  405e70:	68f8      	ldr	r0, [r7, #12]
  405e72:	4b0a      	ldr	r3, [pc, #40]	; (405e9c <vTaskPlaceOnEventList+0x80>)
  405e74:	4798      	blx	r3
  405e76:	bf00      	nop
  405e78:	3710      	adds	r7, #16
  405e7a:	46bd      	mov	sp, r7
  405e7c:	bd80      	pop	{r7, pc}
  405e7e:	bf00      	nop
  405e80:	00404ced 	.word	0x00404ced
  405e84:	200028cc 	.word	0x200028cc
  405e88:	00404a59 	.word	0x00404a59
  405e8c:	00404ac9 	.word	0x00404ac9
  405e90:	20002990 	.word	0x20002990
  405e94:	00404a09 	.word	0x00404a09
  405e98:	200029a8 	.word	0x200029a8
  405e9c:	00406265 	.word	0x00406265

00405ea0 <vTaskPlaceOnEventListRestricted>:
  405ea0:	b580      	push	{r7, lr}
  405ea2:	b084      	sub	sp, #16
  405ea4:	af00      	add	r7, sp, #0
  405ea6:	6078      	str	r0, [r7, #4]
  405ea8:	6039      	str	r1, [r7, #0]
  405eaa:	687b      	ldr	r3, [r7, #4]
  405eac:	2b00      	cmp	r3, #0
  405eae:	d103      	bne.n	405eb8 <vTaskPlaceOnEventListRestricted+0x18>
  405eb0:	4b0e      	ldr	r3, [pc, #56]	; (405eec <vTaskPlaceOnEventListRestricted+0x4c>)
  405eb2:	4798      	blx	r3
  405eb4:	bf00      	nop
  405eb6:	e7fd      	b.n	405eb4 <vTaskPlaceOnEventListRestricted+0x14>
  405eb8:	4b0d      	ldr	r3, [pc, #52]	; (405ef0 <vTaskPlaceOnEventListRestricted+0x50>)
  405eba:	681b      	ldr	r3, [r3, #0]
  405ebc:	3318      	adds	r3, #24
  405ebe:	4619      	mov	r1, r3
  405ec0:	6878      	ldr	r0, [r7, #4]
  405ec2:	4b0c      	ldr	r3, [pc, #48]	; (405ef4 <vTaskPlaceOnEventListRestricted+0x54>)
  405ec4:	4798      	blx	r3
  405ec6:	4b0a      	ldr	r3, [pc, #40]	; (405ef0 <vTaskPlaceOnEventListRestricted+0x50>)
  405ec8:	681b      	ldr	r3, [r3, #0]
  405eca:	3304      	adds	r3, #4
  405ecc:	4618      	mov	r0, r3
  405ece:	4b0a      	ldr	r3, [pc, #40]	; (405ef8 <vTaskPlaceOnEventListRestricted+0x58>)
  405ed0:	4798      	blx	r3
  405ed2:	4b0a      	ldr	r3, [pc, #40]	; (405efc <vTaskPlaceOnEventListRestricted+0x5c>)
  405ed4:	681a      	ldr	r2, [r3, #0]
  405ed6:	683b      	ldr	r3, [r7, #0]
  405ed8:	4413      	add	r3, r2
  405eda:	60fb      	str	r3, [r7, #12]
  405edc:	68f8      	ldr	r0, [r7, #12]
  405ede:	4b08      	ldr	r3, [pc, #32]	; (405f00 <vTaskPlaceOnEventListRestricted+0x60>)
  405ee0:	4798      	blx	r3
  405ee2:	bf00      	nop
  405ee4:	3710      	adds	r7, #16
  405ee6:	46bd      	mov	sp, r7
  405ee8:	bd80      	pop	{r7, pc}
  405eea:	bf00      	nop
  405eec:	00404ced 	.word	0x00404ced
  405ef0:	200028cc 	.word	0x200028cc
  405ef4:	00404a09 	.word	0x00404a09
  405ef8:	00404ac9 	.word	0x00404ac9
  405efc:	200029a8 	.word	0x200029a8
  405f00:	00406265 	.word	0x00406265

00405f04 <xTaskRemoveFromEventList>:
  405f04:	b580      	push	{r7, lr}
  405f06:	b084      	sub	sp, #16
  405f08:	af00      	add	r7, sp, #0
  405f0a:	6078      	str	r0, [r7, #4]
  405f0c:	687b      	ldr	r3, [r7, #4]
  405f0e:	68db      	ldr	r3, [r3, #12]
  405f10:	68db      	ldr	r3, [r3, #12]
  405f12:	60bb      	str	r3, [r7, #8]
  405f14:	68bb      	ldr	r3, [r7, #8]
  405f16:	2b00      	cmp	r3, #0
  405f18:	d103      	bne.n	405f22 <xTaskRemoveFromEventList+0x1e>
  405f1a:	4b21      	ldr	r3, [pc, #132]	; (405fa0 <xTaskRemoveFromEventList+0x9c>)
  405f1c:	4798      	blx	r3
  405f1e:	bf00      	nop
  405f20:	e7fd      	b.n	405f1e <xTaskRemoveFromEventList+0x1a>
  405f22:	68bb      	ldr	r3, [r7, #8]
  405f24:	3318      	adds	r3, #24
  405f26:	4618      	mov	r0, r3
  405f28:	4b1e      	ldr	r3, [pc, #120]	; (405fa4 <xTaskRemoveFromEventList+0xa0>)
  405f2a:	4798      	blx	r3
  405f2c:	4b1e      	ldr	r3, [pc, #120]	; (405fa8 <xTaskRemoveFromEventList+0xa4>)
  405f2e:	681b      	ldr	r3, [r3, #0]
  405f30:	2b00      	cmp	r3, #0
  405f32:	d11d      	bne.n	405f70 <xTaskRemoveFromEventList+0x6c>
  405f34:	68bb      	ldr	r3, [r7, #8]
  405f36:	3304      	adds	r3, #4
  405f38:	4618      	mov	r0, r3
  405f3a:	4b1a      	ldr	r3, [pc, #104]	; (405fa4 <xTaskRemoveFromEventList+0xa0>)
  405f3c:	4798      	blx	r3
  405f3e:	68bb      	ldr	r3, [r7, #8]
  405f40:	6ada      	ldr	r2, [r3, #44]	; 0x2c
  405f42:	4b1a      	ldr	r3, [pc, #104]	; (405fac <xTaskRemoveFromEventList+0xa8>)
  405f44:	681b      	ldr	r3, [r3, #0]
  405f46:	429a      	cmp	r2, r3
  405f48:	d903      	bls.n	405f52 <xTaskRemoveFromEventList+0x4e>
  405f4a:	68bb      	ldr	r3, [r7, #8]
  405f4c:	6adb      	ldr	r3, [r3, #44]	; 0x2c
  405f4e:	4a17      	ldr	r2, [pc, #92]	; (405fac <xTaskRemoveFromEventList+0xa8>)
  405f50:	6013      	str	r3, [r2, #0]
  405f52:	68bb      	ldr	r3, [r7, #8]
  405f54:	6ada      	ldr	r2, [r3, #44]	; 0x2c
  405f56:	4613      	mov	r3, r2
  405f58:	009b      	lsls	r3, r3, #2
  405f5a:	4413      	add	r3, r2
  405f5c:	009b      	lsls	r3, r3, #2
  405f5e:	4a14      	ldr	r2, [pc, #80]	; (405fb0 <xTaskRemoveFromEventList+0xac>)
  405f60:	441a      	add	r2, r3
  405f62:	68bb      	ldr	r3, [r7, #8]
  405f64:	3304      	adds	r3, #4
  405f66:	4619      	mov	r1, r3
  405f68:	4610      	mov	r0, r2
  405f6a:	4b12      	ldr	r3, [pc, #72]	; (405fb4 <xTaskRemoveFromEventList+0xb0>)
  405f6c:	4798      	blx	r3
  405f6e:	e005      	b.n	405f7c <xTaskRemoveFromEventList+0x78>
  405f70:	68bb      	ldr	r3, [r7, #8]
  405f72:	3318      	adds	r3, #24
  405f74:	4619      	mov	r1, r3
  405f76:	4810      	ldr	r0, [pc, #64]	; (405fb8 <xTaskRemoveFromEventList+0xb4>)
  405f78:	4b0e      	ldr	r3, [pc, #56]	; (405fb4 <xTaskRemoveFromEventList+0xb0>)
  405f7a:	4798      	blx	r3
  405f7c:	68bb      	ldr	r3, [r7, #8]
  405f7e:	6ada      	ldr	r2, [r3, #44]	; 0x2c
  405f80:	4b0e      	ldr	r3, [pc, #56]	; (405fbc <xTaskRemoveFromEventList+0xb8>)
  405f82:	681b      	ldr	r3, [r3, #0]
  405f84:	6adb      	ldr	r3, [r3, #44]	; 0x2c
  405f86:	429a      	cmp	r2, r3
  405f88:	d302      	bcc.n	405f90 <xTaskRemoveFromEventList+0x8c>
  405f8a:	2301      	movs	r3, #1
  405f8c:	60fb      	str	r3, [r7, #12]
  405f8e:	e001      	b.n	405f94 <xTaskRemoveFromEventList+0x90>
  405f90:	2300      	movs	r3, #0
  405f92:	60fb      	str	r3, [r7, #12]
  405f94:	68fb      	ldr	r3, [r7, #12]
  405f96:	4618      	mov	r0, r3
  405f98:	3710      	adds	r7, #16
  405f9a:	46bd      	mov	sp, r7
  405f9c:	bd80      	pop	{r7, pc}
  405f9e:	bf00      	nop
  405fa0:	00404ced 	.word	0x00404ced
  405fa4:	00404ac9 	.word	0x00404ac9
  405fa8:	200029b8 	.word	0x200029b8
  405fac:	200029b0 	.word	0x200029b0
  405fb0:	200028d0 	.word	0x200028d0
  405fb4:	00404a09 	.word	0x00404a09
  405fb8:	20002964 	.word	0x20002964
  405fbc:	200028cc 	.word	0x200028cc

00405fc0 <vTaskSetTimeOutState>:
  405fc0:	b580      	push	{r7, lr}
  405fc2:	b082      	sub	sp, #8
  405fc4:	af00      	add	r7, sp, #0
  405fc6:	6078      	str	r0, [r7, #4]
  405fc8:	687b      	ldr	r3, [r7, #4]
  405fca:	2b00      	cmp	r3, #0
  405fcc:	d103      	bne.n	405fd6 <vTaskSetTimeOutState+0x16>
  405fce:	4b08      	ldr	r3, [pc, #32]	; (405ff0 <vTaskSetTimeOutState+0x30>)
  405fd0:	4798      	blx	r3
  405fd2:	bf00      	nop
  405fd4:	e7fd      	b.n	405fd2 <vTaskSetTimeOutState+0x12>
  405fd6:	4b07      	ldr	r3, [pc, #28]	; (405ff4 <vTaskSetTimeOutState+0x34>)
  405fd8:	681a      	ldr	r2, [r3, #0]
  405fda:	687b      	ldr	r3, [r7, #4]
  405fdc:	601a      	str	r2, [r3, #0]
  405fde:	4b06      	ldr	r3, [pc, #24]	; (405ff8 <vTaskSetTimeOutState+0x38>)
  405fe0:	681a      	ldr	r2, [r3, #0]
  405fe2:	687b      	ldr	r3, [r7, #4]
  405fe4:	605a      	str	r2, [r3, #4]
  405fe6:	bf00      	nop
  405fe8:	3708      	adds	r7, #8
  405fea:	46bd      	mov	sp, r7
  405fec:	bd80      	pop	{r7, pc}
  405fee:	bf00      	nop
  405ff0:	00404ced 	.word	0x00404ced
  405ff4:	200029c4 	.word	0x200029c4
  405ff8:	200029a8 	.word	0x200029a8

00405ffc <xTaskCheckForTimeOut>:
  405ffc:	b580      	push	{r7, lr}
  405ffe:	b084      	sub	sp, #16
  406000:	af00      	add	r7, sp, #0
  406002:	6078      	str	r0, [r7, #4]
  406004:	6039      	str	r1, [r7, #0]
  406006:	687b      	ldr	r3, [r7, #4]
  406008:	2b00      	cmp	r3, #0
  40600a:	d103      	bne.n	406014 <xTaskCheckForTimeOut+0x18>
  40600c:	4b22      	ldr	r3, [pc, #136]	; (406098 <xTaskCheckForTimeOut+0x9c>)
  40600e:	4798      	blx	r3
  406010:	bf00      	nop
  406012:	e7fd      	b.n	406010 <xTaskCheckForTimeOut+0x14>
  406014:	683b      	ldr	r3, [r7, #0]
  406016:	2b00      	cmp	r3, #0
  406018:	d103      	bne.n	406022 <xTaskCheckForTimeOut+0x26>
  40601a:	4b1f      	ldr	r3, [pc, #124]	; (406098 <xTaskCheckForTimeOut+0x9c>)
  40601c:	4798      	blx	r3
  40601e:	bf00      	nop
  406020:	e7fd      	b.n	40601e <xTaskCheckForTimeOut+0x22>
  406022:	4b1e      	ldr	r3, [pc, #120]	; (40609c <xTaskCheckForTimeOut+0xa0>)
  406024:	4798      	blx	r3
  406026:	683b      	ldr	r3, [r7, #0]
  406028:	681b      	ldr	r3, [r3, #0]
  40602a:	f1b3 3fff 	cmp.w	r3, #4294967295
  40602e:	d102      	bne.n	406036 <xTaskCheckForTimeOut+0x3a>
  406030:	2300      	movs	r3, #0
  406032:	60fb      	str	r3, [r7, #12]
  406034:	e029      	b.n	40608a <xTaskCheckForTimeOut+0x8e>
  406036:	687b      	ldr	r3, [r7, #4]
  406038:	681a      	ldr	r2, [r3, #0]
  40603a:	4b19      	ldr	r3, [pc, #100]	; (4060a0 <xTaskCheckForTimeOut+0xa4>)
  40603c:	681b      	ldr	r3, [r3, #0]
  40603e:	429a      	cmp	r2, r3
  406040:	d008      	beq.n	406054 <xTaskCheckForTimeOut+0x58>
  406042:	687b      	ldr	r3, [r7, #4]
  406044:	685a      	ldr	r2, [r3, #4]
  406046:	4b17      	ldr	r3, [pc, #92]	; (4060a4 <xTaskCheckForTimeOut+0xa8>)
  406048:	681b      	ldr	r3, [r3, #0]
  40604a:	429a      	cmp	r2, r3
  40604c:	d802      	bhi.n	406054 <xTaskCheckForTimeOut+0x58>
  40604e:	2301      	movs	r3, #1
  406050:	60fb      	str	r3, [r7, #12]
  406052:	e01a      	b.n	40608a <xTaskCheckForTimeOut+0x8e>
  406054:	4b13      	ldr	r3, [pc, #76]	; (4060a4 <xTaskCheckForTimeOut+0xa8>)
  406056:	681a      	ldr	r2, [r3, #0]
  406058:	687b      	ldr	r3, [r7, #4]
  40605a:	685b      	ldr	r3, [r3, #4]
  40605c:	1ad2      	subs	r2, r2, r3
  40605e:	683b      	ldr	r3, [r7, #0]
  406060:	681b      	ldr	r3, [r3, #0]
  406062:	429a      	cmp	r2, r3
  406064:	d20f      	bcs.n	406086 <xTaskCheckForTimeOut+0x8a>
  406066:	4b0f      	ldr	r3, [pc, #60]	; (4060a4 <xTaskCheckForTimeOut+0xa8>)
  406068:	681a      	ldr	r2, [r3, #0]
  40606a:	687b      	ldr	r3, [r7, #4]
  40606c:	685b      	ldr	r3, [r3, #4]
  40606e:	1ad3      	subs	r3, r2, r3
  406070:	683a      	ldr	r2, [r7, #0]
  406072:	6812      	ldr	r2, [r2, #0]
  406074:	1ad2      	subs	r2, r2, r3
  406076:	683b      	ldr	r3, [r7, #0]
  406078:	601a      	str	r2, [r3, #0]
  40607a:	6878      	ldr	r0, [r7, #4]
  40607c:	4b0a      	ldr	r3, [pc, #40]	; (4060a8 <xTaskCheckForTimeOut+0xac>)
  40607e:	4798      	blx	r3
  406080:	2300      	movs	r3, #0
  406082:	60fb      	str	r3, [r7, #12]
  406084:	e001      	b.n	40608a <xTaskCheckForTimeOut+0x8e>
  406086:	2301      	movs	r3, #1
  406088:	60fb      	str	r3, [r7, #12]
  40608a:	4b08      	ldr	r3, [pc, #32]	; (4060ac <xTaskCheckForTimeOut+0xb0>)
  40608c:	4798      	blx	r3
  40608e:	68fb      	ldr	r3, [r7, #12]
  406090:	4618      	mov	r0, r3
  406092:	3710      	adds	r7, #16
  406094:	46bd      	mov	sp, r7
  406096:	bd80      	pop	{r7, pc}
  406098:	00404ced 	.word	0x00404ced
  40609c:	00404ca5 	.word	0x00404ca5
  4060a0:	200029c4 	.word	0x200029c4
  4060a4:	200029a8 	.word	0x200029a8
  4060a8:	00405fc1 	.word	0x00405fc1
  4060ac:	00404cc5 	.word	0x00404cc5

004060b0 <vTaskMissedYield>:
  4060b0:	b480      	push	{r7}
  4060b2:	af00      	add	r7, sp, #0
  4060b4:	4b03      	ldr	r3, [pc, #12]	; (4060c4 <vTaskMissedYield+0x14>)
  4060b6:	2201      	movs	r2, #1
  4060b8:	601a      	str	r2, [r3, #0]
  4060ba:	bf00      	nop
  4060bc:	46bd      	mov	sp, r7
  4060be:	bc80      	pop	{r7}
  4060c0:	4770      	bx	lr
  4060c2:	bf00      	nop
  4060c4:	200029c0 	.word	0x200029c0

004060c8 <prvIdleTask>:
  4060c8:	b580      	push	{r7, lr}
  4060ca:	b082      	sub	sp, #8
  4060cc:	af00      	add	r7, sp, #0
  4060ce:	6078      	str	r0, [r7, #4]
  4060d0:	4b01      	ldr	r3, [pc, #4]	; (4060d8 <prvIdleTask+0x10>)
  4060d2:	4798      	blx	r3
  4060d4:	e7fc      	b.n	4060d0 <prvIdleTask+0x8>
  4060d6:	bf00      	nop
  4060d8:	004061d5 	.word	0x004061d5

004060dc <prvInitialiseTCBVariables>:
  4060dc:	b580      	push	{r7, lr}
  4060de:	b084      	sub	sp, #16
  4060e0:	af00      	add	r7, sp, #0
  4060e2:	60f8      	str	r0, [r7, #12]
  4060e4:	60b9      	str	r1, [r7, #8]
  4060e6:	607a      	str	r2, [r7, #4]
  4060e8:	603b      	str	r3, [r7, #0]
  4060ea:	68fb      	ldr	r3, [r7, #12]
  4060ec:	3334      	adds	r3, #52	; 0x34
  4060ee:	220c      	movs	r2, #12
  4060f0:	68b9      	ldr	r1, [r7, #8]
  4060f2:	4618      	mov	r0, r3
  4060f4:	4b14      	ldr	r3, [pc, #80]	; (406148 <prvInitialiseTCBVariables+0x6c>)
  4060f6:	4798      	blx	r3
  4060f8:	68fb      	ldr	r3, [r7, #12]
  4060fa:	2200      	movs	r2, #0
  4060fc:	f883 203f 	strb.w	r2, [r3, #63]	; 0x3f
  406100:	687b      	ldr	r3, [r7, #4]
  406102:	2b04      	cmp	r3, #4
  406104:	d901      	bls.n	40610a <prvInitialiseTCBVariables+0x2e>
  406106:	2304      	movs	r3, #4
  406108:	607b      	str	r3, [r7, #4]
  40610a:	68fb      	ldr	r3, [r7, #12]
  40610c:	687a      	ldr	r2, [r7, #4]
  40610e:	62da      	str	r2, [r3, #44]	; 0x2c
  406110:	68fb      	ldr	r3, [r7, #12]
  406112:	687a      	ldr	r2, [r7, #4]
  406114:	641a      	str	r2, [r3, #64]	; 0x40
  406116:	68fb      	ldr	r3, [r7, #12]
  406118:	3304      	adds	r3, #4
  40611a:	4618      	mov	r0, r3
  40611c:	4b0b      	ldr	r3, [pc, #44]	; (40614c <prvInitialiseTCBVariables+0x70>)
  40611e:	4798      	blx	r3
  406120:	68fb      	ldr	r3, [r7, #12]
  406122:	3318      	adds	r3, #24
  406124:	4618      	mov	r0, r3
  406126:	4b09      	ldr	r3, [pc, #36]	; (40614c <prvInitialiseTCBVariables+0x70>)
  406128:	4798      	blx	r3
  40612a:	68fb      	ldr	r3, [r7, #12]
  40612c:	68fa      	ldr	r2, [r7, #12]
  40612e:	611a      	str	r2, [r3, #16]
  406130:	687b      	ldr	r3, [r7, #4]
  406132:	f1c3 0205 	rsb	r2, r3, #5
  406136:	68fb      	ldr	r3, [r7, #12]
  406138:	619a      	str	r2, [r3, #24]
  40613a:	68fb      	ldr	r3, [r7, #12]
  40613c:	68fa      	ldr	r2, [r7, #12]
  40613e:	625a      	str	r2, [r3, #36]	; 0x24
  406140:	bf00      	nop
  406142:	3710      	adds	r7, #16
  406144:	46bd      	mov	sp, r7
  406146:	bd80      	pop	{r7, pc}
  406148:	0040af6d 	.word	0x0040af6d
  40614c:	004049f1 	.word	0x004049f1

00406150 <prvInitialiseTaskLists>:
  406150:	b580      	push	{r7, lr}
  406152:	b082      	sub	sp, #8
  406154:	af00      	add	r7, sp, #0
  406156:	2300      	movs	r3, #0
  406158:	607b      	str	r3, [r7, #4]
  40615a:	e00c      	b.n	406176 <prvInitialiseTaskLists+0x26>
  40615c:	687a      	ldr	r2, [r7, #4]
  40615e:	4613      	mov	r3, r2
  406160:	009b      	lsls	r3, r3, #2
  406162:	4413      	add	r3, r2
  406164:	009b      	lsls	r3, r3, #2
  406166:	4a12      	ldr	r2, [pc, #72]	; (4061b0 <prvInitialiseTaskLists+0x60>)
  406168:	4413      	add	r3, r2
  40616a:	4618      	mov	r0, r3
  40616c:	4b11      	ldr	r3, [pc, #68]	; (4061b4 <prvInitialiseTaskLists+0x64>)
  40616e:	4798      	blx	r3
  406170:	687b      	ldr	r3, [r7, #4]
  406172:	3301      	adds	r3, #1
  406174:	607b      	str	r3, [r7, #4]
  406176:	687b      	ldr	r3, [r7, #4]
  406178:	2b04      	cmp	r3, #4
  40617a:	d9ef      	bls.n	40615c <prvInitialiseTaskLists+0xc>
  40617c:	480e      	ldr	r0, [pc, #56]	; (4061b8 <prvInitialiseTaskLists+0x68>)
  40617e:	4b0d      	ldr	r3, [pc, #52]	; (4061b4 <prvInitialiseTaskLists+0x64>)
  406180:	4798      	blx	r3
  406182:	480e      	ldr	r0, [pc, #56]	; (4061bc <prvInitialiseTaskLists+0x6c>)
  406184:	4b0b      	ldr	r3, [pc, #44]	; (4061b4 <prvInitialiseTaskLists+0x64>)
  406186:	4798      	blx	r3
  406188:	480d      	ldr	r0, [pc, #52]	; (4061c0 <prvInitialiseTaskLists+0x70>)
  40618a:	4b0a      	ldr	r3, [pc, #40]	; (4061b4 <prvInitialiseTaskLists+0x64>)
  40618c:	4798      	blx	r3
  40618e:	480d      	ldr	r0, [pc, #52]	; (4061c4 <prvInitialiseTaskLists+0x74>)
  406190:	4b08      	ldr	r3, [pc, #32]	; (4061b4 <prvInitialiseTaskLists+0x64>)
  406192:	4798      	blx	r3
  406194:	480c      	ldr	r0, [pc, #48]	; (4061c8 <prvInitialiseTaskLists+0x78>)
  406196:	4b07      	ldr	r3, [pc, #28]	; (4061b4 <prvInitialiseTaskLists+0x64>)
  406198:	4798      	blx	r3
  40619a:	4b0c      	ldr	r3, [pc, #48]	; (4061cc <prvInitialiseTaskLists+0x7c>)
  40619c:	4a06      	ldr	r2, [pc, #24]	; (4061b8 <prvInitialiseTaskLists+0x68>)
  40619e:	601a      	str	r2, [r3, #0]
  4061a0:	4b0b      	ldr	r3, [pc, #44]	; (4061d0 <prvInitialiseTaskLists+0x80>)
  4061a2:	4a06      	ldr	r2, [pc, #24]	; (4061bc <prvInitialiseTaskLists+0x6c>)
  4061a4:	601a      	str	r2, [r3, #0]
  4061a6:	bf00      	nop
  4061a8:	3708      	adds	r7, #8
  4061aa:	46bd      	mov	sp, r7
  4061ac:	bd80      	pop	{r7, pc}
  4061ae:	bf00      	nop
  4061b0:	200028d0 	.word	0x200028d0
  4061b4:	004049b1 	.word	0x004049b1
  4061b8:	20002934 	.word	0x20002934
  4061bc:	20002948 	.word	0x20002948
  4061c0:	20002964 	.word	0x20002964
  4061c4:	20002978 	.word	0x20002978
  4061c8:	20002990 	.word	0x20002990
  4061cc:	2000295c 	.word	0x2000295c
  4061d0:	20002960 	.word	0x20002960

004061d4 <prvCheckTasksWaitingTermination>:
  4061d4:	b580      	push	{r7, lr}
  4061d6:	b082      	sub	sp, #8
  4061d8:	af00      	add	r7, sp, #0
  4061da:	e028      	b.n	40622e <prvCheckTasksWaitingTermination+0x5a>
  4061dc:	4b18      	ldr	r3, [pc, #96]	; (406240 <prvCheckTasksWaitingTermination+0x6c>)
  4061de:	4798      	blx	r3
  4061e0:	4b18      	ldr	r3, [pc, #96]	; (406244 <prvCheckTasksWaitingTermination+0x70>)
  4061e2:	681b      	ldr	r3, [r3, #0]
  4061e4:	2b00      	cmp	r3, #0
  4061e6:	bf0c      	ite	eq
  4061e8:	2301      	moveq	r3, #1
  4061ea:	2300      	movne	r3, #0
  4061ec:	b2db      	uxtb	r3, r3
  4061ee:	607b      	str	r3, [r7, #4]
  4061f0:	4b15      	ldr	r3, [pc, #84]	; (406248 <prvCheckTasksWaitingTermination+0x74>)
  4061f2:	4798      	blx	r3
  4061f4:	687b      	ldr	r3, [r7, #4]
  4061f6:	2b00      	cmp	r3, #0
  4061f8:	d119      	bne.n	40622e <prvCheckTasksWaitingTermination+0x5a>
  4061fa:	4b14      	ldr	r3, [pc, #80]	; (40624c <prvCheckTasksWaitingTermination+0x78>)
  4061fc:	4798      	blx	r3
  4061fe:	4b11      	ldr	r3, [pc, #68]	; (406244 <prvCheckTasksWaitingTermination+0x70>)
  406200:	68db      	ldr	r3, [r3, #12]
  406202:	68db      	ldr	r3, [r3, #12]
  406204:	603b      	str	r3, [r7, #0]
  406206:	683b      	ldr	r3, [r7, #0]
  406208:	3304      	adds	r3, #4
  40620a:	4618      	mov	r0, r3
  40620c:	4b10      	ldr	r3, [pc, #64]	; (406250 <prvCheckTasksWaitingTermination+0x7c>)
  40620e:	4798      	blx	r3
  406210:	4b10      	ldr	r3, [pc, #64]	; (406254 <prvCheckTasksWaitingTermination+0x80>)
  406212:	681b      	ldr	r3, [r3, #0]
  406214:	3b01      	subs	r3, #1
  406216:	4a0f      	ldr	r2, [pc, #60]	; (406254 <prvCheckTasksWaitingTermination+0x80>)
  406218:	6013      	str	r3, [r2, #0]
  40621a:	4b0f      	ldr	r3, [pc, #60]	; (406258 <prvCheckTasksWaitingTermination+0x84>)
  40621c:	681b      	ldr	r3, [r3, #0]
  40621e:	3b01      	subs	r3, #1
  406220:	4a0d      	ldr	r2, [pc, #52]	; (406258 <prvCheckTasksWaitingTermination+0x84>)
  406222:	6013      	str	r3, [r2, #0]
  406224:	4b0d      	ldr	r3, [pc, #52]	; (40625c <prvCheckTasksWaitingTermination+0x88>)
  406226:	4798      	blx	r3
  406228:	6838      	ldr	r0, [r7, #0]
  40622a:	4b0d      	ldr	r3, [pc, #52]	; (406260 <prvCheckTasksWaitingTermination+0x8c>)
  40622c:	4798      	blx	r3
  40622e:	4b0a      	ldr	r3, [pc, #40]	; (406258 <prvCheckTasksWaitingTermination+0x84>)
  406230:	681b      	ldr	r3, [r3, #0]
  406232:	2b00      	cmp	r3, #0
  406234:	d1d2      	bne.n	4061dc <prvCheckTasksWaitingTermination+0x8>
  406236:	bf00      	nop
  406238:	3708      	adds	r7, #8
  40623a:	46bd      	mov	sp, r7
  40623c:	bd80      	pop	{r7, pc}
  40623e:	bf00      	nop
  406240:	00405ac5 	.word	0x00405ac5
  406244:	20002978 	.word	0x20002978
  406248:	00405ae1 	.word	0x00405ae1
  40624c:	00404ca5 	.word	0x00404ca5
  406250:	00404ac9 	.word	0x00404ac9
  406254:	200029a4 	.word	0x200029a4
  406258:	2000298c 	.word	0x2000298c
  40625c:	00404cc5 	.word	0x00404cc5
  406260:	00406345 	.word	0x00406345

00406264 <prvAddCurrentTaskToDelayedList>:
  406264:	b580      	push	{r7, lr}
  406266:	b082      	sub	sp, #8
  406268:	af00      	add	r7, sp, #0
  40626a:	6078      	str	r0, [r7, #4]
  40626c:	4b13      	ldr	r3, [pc, #76]	; (4062bc <prvAddCurrentTaskToDelayedList+0x58>)
  40626e:	681b      	ldr	r3, [r3, #0]
  406270:	687a      	ldr	r2, [r7, #4]
  406272:	605a      	str	r2, [r3, #4]
  406274:	4b12      	ldr	r3, [pc, #72]	; (4062c0 <prvAddCurrentTaskToDelayedList+0x5c>)
  406276:	681b      	ldr	r3, [r3, #0]
  406278:	687a      	ldr	r2, [r7, #4]
  40627a:	429a      	cmp	r2, r3
  40627c:	d209      	bcs.n	406292 <prvAddCurrentTaskToDelayedList+0x2e>
  40627e:	4b11      	ldr	r3, [pc, #68]	; (4062c4 <prvAddCurrentTaskToDelayedList+0x60>)
  406280:	681a      	ldr	r2, [r3, #0]
  406282:	4b0e      	ldr	r3, [pc, #56]	; (4062bc <prvAddCurrentTaskToDelayedList+0x58>)
  406284:	681b      	ldr	r3, [r3, #0]
  406286:	3304      	adds	r3, #4
  406288:	4619      	mov	r1, r3
  40628a:	4610      	mov	r0, r2
  40628c:	4b0e      	ldr	r3, [pc, #56]	; (4062c8 <prvAddCurrentTaskToDelayedList+0x64>)
  40628e:	4798      	blx	r3
  406290:	e010      	b.n	4062b4 <prvAddCurrentTaskToDelayedList+0x50>
  406292:	4b0e      	ldr	r3, [pc, #56]	; (4062cc <prvAddCurrentTaskToDelayedList+0x68>)
  406294:	681a      	ldr	r2, [r3, #0]
  406296:	4b09      	ldr	r3, [pc, #36]	; (4062bc <prvAddCurrentTaskToDelayedList+0x58>)
  406298:	681b      	ldr	r3, [r3, #0]
  40629a:	3304      	adds	r3, #4
  40629c:	4619      	mov	r1, r3
  40629e:	4610      	mov	r0, r2
  4062a0:	4b09      	ldr	r3, [pc, #36]	; (4062c8 <prvAddCurrentTaskToDelayedList+0x64>)
  4062a2:	4798      	blx	r3
  4062a4:	4b0a      	ldr	r3, [pc, #40]	; (4062d0 <prvAddCurrentTaskToDelayedList+0x6c>)
  4062a6:	681b      	ldr	r3, [r3, #0]
  4062a8:	687a      	ldr	r2, [r7, #4]
  4062aa:	429a      	cmp	r2, r3
  4062ac:	d202      	bcs.n	4062b4 <prvAddCurrentTaskToDelayedList+0x50>
  4062ae:	4a08      	ldr	r2, [pc, #32]	; (4062d0 <prvAddCurrentTaskToDelayedList+0x6c>)
  4062b0:	687b      	ldr	r3, [r7, #4]
  4062b2:	6013      	str	r3, [r2, #0]
  4062b4:	bf00      	nop
  4062b6:	3708      	adds	r7, #8
  4062b8:	46bd      	mov	sp, r7
  4062ba:	bd80      	pop	{r7, pc}
  4062bc:	200028cc 	.word	0x200028cc
  4062c0:	200029a8 	.word	0x200029a8
  4062c4:	20002960 	.word	0x20002960
  4062c8:	00404a59 	.word	0x00404a59
  4062cc:	2000295c 	.word	0x2000295c
  4062d0:	20000124 	.word	0x20000124

004062d4 <prvAllocateTCBAndStack>:
  4062d4:	b580      	push	{r7, lr}
  4062d6:	b084      	sub	sp, #16
  4062d8:	af00      	add	r7, sp, #0
  4062da:	4603      	mov	r3, r0
  4062dc:	6039      	str	r1, [r7, #0]
  4062de:	80fb      	strh	r3, [r7, #6]
  4062e0:	2044      	movs	r0, #68	; 0x44
  4062e2:	4b15      	ldr	r3, [pc, #84]	; (406338 <prvAllocateTCBAndStack+0x64>)
  4062e4:	4798      	blx	r3
  4062e6:	60f8      	str	r0, [r7, #12]
  4062e8:	68fb      	ldr	r3, [r7, #12]
  4062ea:	2b00      	cmp	r3, #0
  4062ec:	d01e      	beq.n	40632c <prvAllocateTCBAndStack+0x58>
  4062ee:	683b      	ldr	r3, [r7, #0]
  4062f0:	2b00      	cmp	r3, #0
  4062f2:	d106      	bne.n	406302 <prvAllocateTCBAndStack+0x2e>
  4062f4:	88fb      	ldrh	r3, [r7, #6]
  4062f6:	009b      	lsls	r3, r3, #2
  4062f8:	4618      	mov	r0, r3
  4062fa:	4b0f      	ldr	r3, [pc, #60]	; (406338 <prvAllocateTCBAndStack+0x64>)
  4062fc:	4798      	blx	r3
  4062fe:	4603      	mov	r3, r0
  406300:	e000      	b.n	406304 <prvAllocateTCBAndStack+0x30>
  406302:	683b      	ldr	r3, [r7, #0]
  406304:	68fa      	ldr	r2, [r7, #12]
  406306:	6313      	str	r3, [r2, #48]	; 0x30
  406308:	68fb      	ldr	r3, [r7, #12]
  40630a:	6b1b      	ldr	r3, [r3, #48]	; 0x30
  40630c:	2b00      	cmp	r3, #0
  40630e:	d105      	bne.n	40631c <prvAllocateTCBAndStack+0x48>
  406310:	68f8      	ldr	r0, [r7, #12]
  406312:	4b0a      	ldr	r3, [pc, #40]	; (40633c <prvAllocateTCBAndStack+0x68>)
  406314:	4798      	blx	r3
  406316:	2300      	movs	r3, #0
  406318:	60fb      	str	r3, [r7, #12]
  40631a:	e007      	b.n	40632c <prvAllocateTCBAndStack+0x58>
  40631c:	68fb      	ldr	r3, [r7, #12]
  40631e:	6b18      	ldr	r0, [r3, #48]	; 0x30
  406320:	88fb      	ldrh	r3, [r7, #6]
  406322:	009b      	lsls	r3, r3, #2
  406324:	461a      	mov	r2, r3
  406326:	21a5      	movs	r1, #165	; 0xa5
  406328:	4b05      	ldr	r3, [pc, #20]	; (406340 <prvAllocateTCBAndStack+0x6c>)
  40632a:	4798      	blx	r3
  40632c:	68fb      	ldr	r3, [r7, #12]
  40632e:	4618      	mov	r0, r3
  406330:	3710      	adds	r7, #16
  406332:	46bd      	mov	sp, r7
  406334:	bd80      	pop	{r7, pc}
  406336:	bf00      	nop
  406338:	00404dad 	.word	0x00404dad
  40633c:	00404eb9 	.word	0x00404eb9
  406340:	0040aed1 	.word	0x0040aed1

00406344 <prvDeleteTCB>:
  406344:	b580      	push	{r7, lr}
  406346:	b082      	sub	sp, #8
  406348:	af00      	add	r7, sp, #0
  40634a:	6078      	str	r0, [r7, #4]
  40634c:	687b      	ldr	r3, [r7, #4]
  40634e:	6b1b      	ldr	r3, [r3, #48]	; 0x30
  406350:	4618      	mov	r0, r3
  406352:	4b04      	ldr	r3, [pc, #16]	; (406364 <prvDeleteTCB+0x20>)
  406354:	4798      	blx	r3
  406356:	6878      	ldr	r0, [r7, #4]
  406358:	4b02      	ldr	r3, [pc, #8]	; (406364 <prvDeleteTCB+0x20>)
  40635a:	4798      	blx	r3
  40635c:	bf00      	nop
  40635e:	3708      	adds	r7, #8
  406360:	46bd      	mov	sp, r7
  406362:	bd80      	pop	{r7, pc}
  406364:	00404eb9 	.word	0x00404eb9

00406368 <xTaskGetCurrentTaskHandle>:
  406368:	b480      	push	{r7}
  40636a:	b083      	sub	sp, #12
  40636c:	af00      	add	r7, sp, #0
  40636e:	4b04      	ldr	r3, [pc, #16]	; (406380 <xTaskGetCurrentTaskHandle+0x18>)
  406370:	681b      	ldr	r3, [r3, #0]
  406372:	607b      	str	r3, [r7, #4]
  406374:	687b      	ldr	r3, [r7, #4]
  406376:	4618      	mov	r0, r3
  406378:	370c      	adds	r7, #12
  40637a:	46bd      	mov	sp, r7
  40637c:	bc80      	pop	{r7}
  40637e:	4770      	bx	lr
  406380:	200028cc 	.word	0x200028cc

00406384 <xTaskGetSchedulerState>:
  406384:	b480      	push	{r7}
  406386:	b083      	sub	sp, #12
  406388:	af00      	add	r7, sp, #0
  40638a:	4b0b      	ldr	r3, [pc, #44]	; (4063b8 <xTaskGetSchedulerState+0x34>)
  40638c:	681b      	ldr	r3, [r3, #0]
  40638e:	2b00      	cmp	r3, #0
  406390:	d102      	bne.n	406398 <xTaskGetSchedulerState+0x14>
  406392:	2300      	movs	r3, #0
  406394:	607b      	str	r3, [r7, #4]
  406396:	e008      	b.n	4063aa <xTaskGetSchedulerState+0x26>
  406398:	4b08      	ldr	r3, [pc, #32]	; (4063bc <xTaskGetSchedulerState+0x38>)
  40639a:	681b      	ldr	r3, [r3, #0]
  40639c:	2b00      	cmp	r3, #0
  40639e:	d102      	bne.n	4063a6 <xTaskGetSchedulerState+0x22>
  4063a0:	2301      	movs	r3, #1
  4063a2:	607b      	str	r3, [r7, #4]
  4063a4:	e001      	b.n	4063aa <xTaskGetSchedulerState+0x26>
  4063a6:	2302      	movs	r3, #2
  4063a8:	607b      	str	r3, [r7, #4]
  4063aa:	687b      	ldr	r3, [r7, #4]
  4063ac:	4618      	mov	r0, r3
  4063ae:	370c      	adds	r7, #12
  4063b0:	46bd      	mov	sp, r7
  4063b2:	bc80      	pop	{r7}
  4063b4:	4770      	bx	lr
  4063b6:	bf00      	nop
  4063b8:	200029b4 	.word	0x200029b4
  4063bc:	200029b8 	.word	0x200029b8

004063c0 <vTaskPriorityInherit>:
  4063c0:	b580      	push	{r7, lr}
  4063c2:	b084      	sub	sp, #16
  4063c4:	af00      	add	r7, sp, #0
  4063c6:	6078      	str	r0, [r7, #4]
  4063c8:	687b      	ldr	r3, [r7, #4]
  4063ca:	60fb      	str	r3, [r7, #12]
  4063cc:	687b      	ldr	r3, [r7, #4]
  4063ce:	2b00      	cmp	r3, #0
  4063d0:	d041      	beq.n	406456 <vTaskPriorityInherit+0x96>
  4063d2:	68fb      	ldr	r3, [r7, #12]
  4063d4:	6ada      	ldr	r2, [r3, #44]	; 0x2c
  4063d6:	4b22      	ldr	r3, [pc, #136]	; (406460 <vTaskPriorityInherit+0xa0>)
  4063d8:	681b      	ldr	r3, [r3, #0]
  4063da:	6adb      	ldr	r3, [r3, #44]	; 0x2c
  4063dc:	429a      	cmp	r2, r3
  4063de:	d23a      	bcs.n	406456 <vTaskPriorityInherit+0x96>
  4063e0:	4b1f      	ldr	r3, [pc, #124]	; (406460 <vTaskPriorityInherit+0xa0>)
  4063e2:	681b      	ldr	r3, [r3, #0]
  4063e4:	6adb      	ldr	r3, [r3, #44]	; 0x2c
  4063e6:	f1c3 0205 	rsb	r2, r3, #5
  4063ea:	68fb      	ldr	r3, [r7, #12]
  4063ec:	619a      	str	r2, [r3, #24]
  4063ee:	68fb      	ldr	r3, [r7, #12]
  4063f0:	6959      	ldr	r1, [r3, #20]
  4063f2:	68fb      	ldr	r3, [r7, #12]
  4063f4:	6ada      	ldr	r2, [r3, #44]	; 0x2c
  4063f6:	4613      	mov	r3, r2
  4063f8:	009b      	lsls	r3, r3, #2
  4063fa:	4413      	add	r3, r2
  4063fc:	009b      	lsls	r3, r3, #2
  4063fe:	4a19      	ldr	r2, [pc, #100]	; (406464 <vTaskPriorityInherit+0xa4>)
  406400:	4413      	add	r3, r2
  406402:	4299      	cmp	r1, r3
  406404:	d122      	bne.n	40644c <vTaskPriorityInherit+0x8c>
  406406:	68fb      	ldr	r3, [r7, #12]
  406408:	3304      	adds	r3, #4
  40640a:	4618      	mov	r0, r3
  40640c:	4b16      	ldr	r3, [pc, #88]	; (406468 <vTaskPriorityInherit+0xa8>)
  40640e:	4798      	blx	r3
  406410:	4b13      	ldr	r3, [pc, #76]	; (406460 <vTaskPriorityInherit+0xa0>)
  406412:	681b      	ldr	r3, [r3, #0]
  406414:	6ada      	ldr	r2, [r3, #44]	; 0x2c
  406416:	68fb      	ldr	r3, [r7, #12]
  406418:	62da      	str	r2, [r3, #44]	; 0x2c
  40641a:	68fb      	ldr	r3, [r7, #12]
  40641c:	6ada      	ldr	r2, [r3, #44]	; 0x2c
  40641e:	4b13      	ldr	r3, [pc, #76]	; (40646c <vTaskPriorityInherit+0xac>)
  406420:	681b      	ldr	r3, [r3, #0]
  406422:	429a      	cmp	r2, r3
  406424:	d903      	bls.n	40642e <vTaskPriorityInherit+0x6e>
  406426:	68fb      	ldr	r3, [r7, #12]
  406428:	6adb      	ldr	r3, [r3, #44]	; 0x2c
  40642a:	4a10      	ldr	r2, [pc, #64]	; (40646c <vTaskPriorityInherit+0xac>)
  40642c:	6013      	str	r3, [r2, #0]
  40642e:	68fb      	ldr	r3, [r7, #12]
  406430:	6ada      	ldr	r2, [r3, #44]	; 0x2c
  406432:	4613      	mov	r3, r2
  406434:	009b      	lsls	r3, r3, #2
  406436:	4413      	add	r3, r2
  406438:	009b      	lsls	r3, r3, #2
  40643a:	4a0a      	ldr	r2, [pc, #40]	; (406464 <vTaskPriorityInherit+0xa4>)
  40643c:	441a      	add	r2, r3
  40643e:	68fb      	ldr	r3, [r7, #12]
  406440:	3304      	adds	r3, #4
  406442:	4619      	mov	r1, r3
  406444:	4610      	mov	r0, r2
  406446:	4b0a      	ldr	r3, [pc, #40]	; (406470 <vTaskPriorityInherit+0xb0>)
  406448:	4798      	blx	r3
  40644a:	e004      	b.n	406456 <vTaskPriorityInherit+0x96>
  40644c:	4b04      	ldr	r3, [pc, #16]	; (406460 <vTaskPriorityInherit+0xa0>)
  40644e:	681b      	ldr	r3, [r3, #0]
  406450:	6ada      	ldr	r2, [r3, #44]	; 0x2c
  406452:	68fb      	ldr	r3, [r7, #12]
  406454:	62da      	str	r2, [r3, #44]	; 0x2c
  406456:	bf00      	nop
  406458:	3710      	adds	r7, #16
  40645a:	46bd      	mov	sp, r7
  40645c:	bd80      	pop	{r7, pc}
  40645e:	bf00      	nop
  406460:	200028cc 	.word	0x200028cc
  406464:	200028d0 	.word	0x200028d0
  406468:	00404ac9 	.word	0x00404ac9
  40646c:	200029b0 	.word	0x200029b0
  406470:	00404a09 	.word	0x00404a09

00406474 <vTaskPriorityDisinherit>:
  406474:	b580      	push	{r7, lr}
  406476:	b084      	sub	sp, #16
  406478:	af00      	add	r7, sp, #0
  40647a:	6078      	str	r0, [r7, #4]
  40647c:	687b      	ldr	r3, [r7, #4]
  40647e:	60fb      	str	r3, [r7, #12]
  406480:	687b      	ldr	r3, [r7, #4]
  406482:	2b00      	cmp	r3, #0
  406484:	d02c      	beq.n	4064e0 <vTaskPriorityDisinherit+0x6c>
  406486:	68fb      	ldr	r3, [r7, #12]
  406488:	6ada      	ldr	r2, [r3, #44]	; 0x2c
  40648a:	68fb      	ldr	r3, [r7, #12]
  40648c:	6c1b      	ldr	r3, [r3, #64]	; 0x40
  40648e:	429a      	cmp	r2, r3
  406490:	d026      	beq.n	4064e0 <vTaskPriorityDisinherit+0x6c>
  406492:	68fb      	ldr	r3, [r7, #12]
  406494:	3304      	adds	r3, #4
  406496:	4618      	mov	r0, r3
  406498:	4b13      	ldr	r3, [pc, #76]	; (4064e8 <vTaskPriorityDisinherit+0x74>)
  40649a:	4798      	blx	r3
  40649c:	68fb      	ldr	r3, [r7, #12]
  40649e:	6c1a      	ldr	r2, [r3, #64]	; 0x40
  4064a0:	68fb      	ldr	r3, [r7, #12]
  4064a2:	62da      	str	r2, [r3, #44]	; 0x2c
  4064a4:	68fb      	ldr	r3, [r7, #12]
  4064a6:	6adb      	ldr	r3, [r3, #44]	; 0x2c
  4064a8:	f1c3 0205 	rsb	r2, r3, #5
  4064ac:	68fb      	ldr	r3, [r7, #12]
  4064ae:	619a      	str	r2, [r3, #24]
  4064b0:	68fb      	ldr	r3, [r7, #12]
  4064b2:	6ada      	ldr	r2, [r3, #44]	; 0x2c
  4064b4:	4b0d      	ldr	r3, [pc, #52]	; (4064ec <vTaskPriorityDisinherit+0x78>)
  4064b6:	681b      	ldr	r3, [r3, #0]
  4064b8:	429a      	cmp	r2, r3
  4064ba:	d903      	bls.n	4064c4 <vTaskPriorityDisinherit+0x50>
  4064bc:	68fb      	ldr	r3, [r7, #12]
  4064be:	6adb      	ldr	r3, [r3, #44]	; 0x2c
  4064c0:	4a0a      	ldr	r2, [pc, #40]	; (4064ec <vTaskPriorityDisinherit+0x78>)
  4064c2:	6013      	str	r3, [r2, #0]
  4064c4:	68fb      	ldr	r3, [r7, #12]
  4064c6:	6ada      	ldr	r2, [r3, #44]	; 0x2c
  4064c8:	4613      	mov	r3, r2
  4064ca:	009b      	lsls	r3, r3, #2
  4064cc:	4413      	add	r3, r2
  4064ce:	009b      	lsls	r3, r3, #2
  4064d0:	4a07      	ldr	r2, [pc, #28]	; (4064f0 <vTaskPriorityDisinherit+0x7c>)
  4064d2:	441a      	add	r2, r3
  4064d4:	68fb      	ldr	r3, [r7, #12]
  4064d6:	3304      	adds	r3, #4
  4064d8:	4619      	mov	r1, r3
  4064da:	4610      	mov	r0, r2
  4064dc:	4b05      	ldr	r3, [pc, #20]	; (4064f4 <vTaskPriorityDisinherit+0x80>)
  4064de:	4798      	blx	r3
  4064e0:	bf00      	nop
  4064e2:	3710      	adds	r7, #16
  4064e4:	46bd      	mov	sp, r7
  4064e6:	bd80      	pop	{r7, pc}
  4064e8:	00404ac9 	.word	0x00404ac9
  4064ec:	200029b0 	.word	0x200029b0
  4064f0:	200028d0 	.word	0x200028d0
  4064f4:	00404a09 	.word	0x00404a09

004064f8 <xTimerCreateTimerTask>:
  4064f8:	b590      	push	{r4, r7, lr}
  4064fa:	b087      	sub	sp, #28
  4064fc:	af04      	add	r7, sp, #16
  4064fe:	2300      	movs	r3, #0
  406500:	607b      	str	r3, [r7, #4]
  406502:	4b10      	ldr	r3, [pc, #64]	; (406544 <xTimerCreateTimerTask+0x4c>)
  406504:	4798      	blx	r3
  406506:	4b10      	ldr	r3, [pc, #64]	; (406548 <xTimerCreateTimerTask+0x50>)
  406508:	681b      	ldr	r3, [r3, #0]
  40650a:	2b00      	cmp	r3, #0
  40650c:	d00e      	beq.n	40652c <xTimerCreateTimerTask+0x34>
  40650e:	2300      	movs	r3, #0
  406510:	9303      	str	r3, [sp, #12]
  406512:	2300      	movs	r3, #0
  406514:	9302      	str	r3, [sp, #8]
  406516:	2300      	movs	r3, #0
  406518:	9301      	str	r3, [sp, #4]
  40651a:	2304      	movs	r3, #4
  40651c:	9300      	str	r3, [sp, #0]
  40651e:	2300      	movs	r3, #0
  406520:	22c8      	movs	r2, #200	; 0xc8
  406522:	490a      	ldr	r1, [pc, #40]	; (40654c <xTimerCreateTimerTask+0x54>)
  406524:	480a      	ldr	r0, [pc, #40]	; (406550 <xTimerCreateTimerTask+0x58>)
  406526:	4c0b      	ldr	r4, [pc, #44]	; (406554 <xTimerCreateTimerTask+0x5c>)
  406528:	47a0      	blx	r4
  40652a:	6078      	str	r0, [r7, #4]
  40652c:	687b      	ldr	r3, [r7, #4]
  40652e:	2b00      	cmp	r3, #0
  406530:	d103      	bne.n	40653a <xTimerCreateTimerTask+0x42>
  406532:	4b09      	ldr	r3, [pc, #36]	; (406558 <xTimerCreateTimerTask+0x60>)
  406534:	4798      	blx	r3
  406536:	bf00      	nop
  406538:	e7fd      	b.n	406536 <xTimerCreateTimerTask+0x3e>
  40653a:	687b      	ldr	r3, [r7, #4]
  40653c:	4618      	mov	r0, r3
  40653e:	370c      	adds	r7, #12
  406540:	46bd      	mov	sp, r7
  406542:	bd90      	pop	{r4, r7, pc}
  406544:	00406a11 	.word	0x00406a11
  406548:	200029fc 	.word	0x200029fc
  40654c:	0040b120 	.word	0x0040b120
  406550:	0040666d 	.word	0x0040666d
  406554:	00405825 	.word	0x00405825
  406558:	00404ced 	.word	0x00404ced

0040655c <xTimerGenericCommand>:
  40655c:	b590      	push	{r4, r7, lr}
  40655e:	b089      	sub	sp, #36	; 0x24
  406560:	af00      	add	r7, sp, #0
  406562:	60f8      	str	r0, [r7, #12]
  406564:	60b9      	str	r1, [r7, #8]
  406566:	607a      	str	r2, [r7, #4]
  406568:	603b      	str	r3, [r7, #0]
  40656a:	2300      	movs	r3, #0
  40656c:	61fb      	str	r3, [r7, #28]
  40656e:	4b1a      	ldr	r3, [pc, #104]	; (4065d8 <xTimerGenericCommand+0x7c>)
  406570:	681b      	ldr	r3, [r3, #0]
  406572:	2b00      	cmp	r3, #0
  406574:	d02a      	beq.n	4065cc <xTimerGenericCommand+0x70>
  406576:	68bb      	ldr	r3, [r7, #8]
  406578:	613b      	str	r3, [r7, #16]
  40657a:	687b      	ldr	r3, [r7, #4]
  40657c:	617b      	str	r3, [r7, #20]
  40657e:	68fb      	ldr	r3, [r7, #12]
  406580:	61bb      	str	r3, [r7, #24]
  406582:	683b      	ldr	r3, [r7, #0]
  406584:	2b00      	cmp	r3, #0
  406586:	d118      	bne.n	4065ba <xTimerGenericCommand+0x5e>
  406588:	4b14      	ldr	r3, [pc, #80]	; (4065dc <xTimerGenericCommand+0x80>)
  40658a:	4798      	blx	r3
  40658c:	4603      	mov	r3, r0
  40658e:	2b01      	cmp	r3, #1
  406590:	d109      	bne.n	4065a6 <xTimerGenericCommand+0x4a>
  406592:	4b11      	ldr	r3, [pc, #68]	; (4065d8 <xTimerGenericCommand+0x7c>)
  406594:	6818      	ldr	r0, [r3, #0]
  406596:	f107 0110 	add.w	r1, r7, #16
  40659a:	2300      	movs	r3, #0
  40659c:	6b3a      	ldr	r2, [r7, #48]	; 0x30
  40659e:	4c10      	ldr	r4, [pc, #64]	; (4065e0 <xTimerGenericCommand+0x84>)
  4065a0:	47a0      	blx	r4
  4065a2:	61f8      	str	r0, [r7, #28]
  4065a4:	e012      	b.n	4065cc <xTimerGenericCommand+0x70>
  4065a6:	4b0c      	ldr	r3, [pc, #48]	; (4065d8 <xTimerGenericCommand+0x7c>)
  4065a8:	6818      	ldr	r0, [r3, #0]
  4065aa:	f107 0110 	add.w	r1, r7, #16
  4065ae:	2300      	movs	r3, #0
  4065b0:	2200      	movs	r2, #0
  4065b2:	4c0b      	ldr	r4, [pc, #44]	; (4065e0 <xTimerGenericCommand+0x84>)
  4065b4:	47a0      	blx	r4
  4065b6:	61f8      	str	r0, [r7, #28]
  4065b8:	e008      	b.n	4065cc <xTimerGenericCommand+0x70>
  4065ba:	4b07      	ldr	r3, [pc, #28]	; (4065d8 <xTimerGenericCommand+0x7c>)
  4065bc:	6818      	ldr	r0, [r3, #0]
  4065be:	f107 0110 	add.w	r1, r7, #16
  4065c2:	2300      	movs	r3, #0
  4065c4:	683a      	ldr	r2, [r7, #0]
  4065c6:	4c07      	ldr	r4, [pc, #28]	; (4065e4 <xTimerGenericCommand+0x88>)
  4065c8:	47a0      	blx	r4
  4065ca:	61f8      	str	r0, [r7, #28]
  4065cc:	69fb      	ldr	r3, [r7, #28]
  4065ce:	4618      	mov	r0, r3
  4065d0:	3724      	adds	r7, #36	; 0x24
  4065d2:	46bd      	mov	sp, r7
  4065d4:	bd90      	pop	{r4, r7, pc}
  4065d6:	bf00      	nop
  4065d8:	200029fc 	.word	0x200029fc
  4065dc:	00406385 	.word	0x00406385
  4065e0:	004051a5 	.word	0x004051a5
  4065e4:	0040530d 	.word	0x0040530d

004065e8 <prvProcessExpiredTimer>:
  4065e8:	b590      	push	{r4, r7, lr}
  4065ea:	b087      	sub	sp, #28
  4065ec:	af02      	add	r7, sp, #8
  4065ee:	6078      	str	r0, [r7, #4]
  4065f0:	6039      	str	r1, [r7, #0]
  4065f2:	4b19      	ldr	r3, [pc, #100]	; (406658 <prvProcessExpiredTimer+0x70>)
  4065f4:	681b      	ldr	r3, [r3, #0]
  4065f6:	68db      	ldr	r3, [r3, #12]
  4065f8:	68db      	ldr	r3, [r3, #12]
  4065fa:	60fb      	str	r3, [r7, #12]
  4065fc:	68fb      	ldr	r3, [r7, #12]
  4065fe:	3304      	adds	r3, #4
  406600:	4618      	mov	r0, r3
  406602:	4b16      	ldr	r3, [pc, #88]	; (40665c <prvProcessExpiredTimer+0x74>)
  406604:	4798      	blx	r3
  406606:	68fb      	ldr	r3, [r7, #12]
  406608:	69db      	ldr	r3, [r3, #28]
  40660a:	2b01      	cmp	r3, #1
  40660c:	d11b      	bne.n	406646 <prvProcessExpiredTimer+0x5e>
  40660e:	68fb      	ldr	r3, [r7, #12]
  406610:	699a      	ldr	r2, [r3, #24]
  406612:	687b      	ldr	r3, [r7, #4]
  406614:	18d1      	adds	r1, r2, r3
  406616:	687b      	ldr	r3, [r7, #4]
  406618:	683a      	ldr	r2, [r7, #0]
  40661a:	68f8      	ldr	r0, [r7, #12]
  40661c:	4c10      	ldr	r4, [pc, #64]	; (406660 <prvProcessExpiredTimer+0x78>)
  40661e:	47a0      	blx	r4
  406620:	4603      	mov	r3, r0
  406622:	2b01      	cmp	r3, #1
  406624:	d10f      	bne.n	406646 <prvProcessExpiredTimer+0x5e>
  406626:	2300      	movs	r3, #0
  406628:	9300      	str	r3, [sp, #0]
  40662a:	2300      	movs	r3, #0
  40662c:	687a      	ldr	r2, [r7, #4]
  40662e:	2100      	movs	r1, #0
  406630:	68f8      	ldr	r0, [r7, #12]
  406632:	4c0c      	ldr	r4, [pc, #48]	; (406664 <prvProcessExpiredTimer+0x7c>)
  406634:	47a0      	blx	r4
  406636:	60b8      	str	r0, [r7, #8]
  406638:	68bb      	ldr	r3, [r7, #8]
  40663a:	2b00      	cmp	r3, #0
  40663c:	d103      	bne.n	406646 <prvProcessExpiredTimer+0x5e>
  40663e:	4b0a      	ldr	r3, [pc, #40]	; (406668 <prvProcessExpiredTimer+0x80>)
  406640:	4798      	blx	r3
  406642:	bf00      	nop
  406644:	e7fd      	b.n	406642 <prvProcessExpiredTimer+0x5a>
  406646:	68fb      	ldr	r3, [r7, #12]
  406648:	6a5b      	ldr	r3, [r3, #36]	; 0x24
  40664a:	68f8      	ldr	r0, [r7, #12]
  40664c:	4798      	blx	r3
  40664e:	bf00      	nop
  406650:	3714      	adds	r7, #20
  406652:	46bd      	mov	sp, r7
  406654:	bd90      	pop	{r4, r7, pc}
  406656:	bf00      	nop
  406658:	200029f4 	.word	0x200029f4
  40665c:	00404ac9 	.word	0x00404ac9
  406660:	004067b5 	.word	0x004067b5
  406664:	0040655d 	.word	0x0040655d
  406668:	00404ced 	.word	0x00404ced

0040666c <prvTimerTask>:
  40666c:	b580      	push	{r7, lr}
  40666e:	b084      	sub	sp, #16
  406670:	af00      	add	r7, sp, #0
  406672:	6078      	str	r0, [r7, #4]
  406674:	f107 0308 	add.w	r3, r7, #8
  406678:	4618      	mov	r0, r3
  40667a:	4b05      	ldr	r3, [pc, #20]	; (406690 <prvTimerTask+0x24>)
  40667c:	4798      	blx	r3
  40667e:	60f8      	str	r0, [r7, #12]
  406680:	68bb      	ldr	r3, [r7, #8]
  406682:	4619      	mov	r1, r3
  406684:	68f8      	ldr	r0, [r7, #12]
  406686:	4b03      	ldr	r3, [pc, #12]	; (406694 <prvTimerTask+0x28>)
  406688:	4798      	blx	r3
  40668a:	4b03      	ldr	r3, [pc, #12]	; (406698 <prvTimerTask+0x2c>)
  40668c:	4798      	blx	r3
  40668e:	e7f1      	b.n	406674 <prvTimerTask+0x8>
  406690:	00406721 	.word	0x00406721
  406694:	0040669d 	.word	0x0040669d
  406698:	0040683d 	.word	0x0040683d

0040669c <prvProcessTimerOrBlockTask>:
  40669c:	b580      	push	{r7, lr}
  40669e:	b084      	sub	sp, #16
  4066a0:	af00      	add	r7, sp, #0
  4066a2:	6078      	str	r0, [r7, #4]
  4066a4:	6039      	str	r1, [r7, #0]
  4066a6:	4b17      	ldr	r3, [pc, #92]	; (406704 <prvProcessTimerOrBlockTask+0x68>)
  4066a8:	4798      	blx	r3
  4066aa:	f107 0308 	add.w	r3, r7, #8
  4066ae:	4618      	mov	r0, r3
  4066b0:	4b15      	ldr	r3, [pc, #84]	; (406708 <prvProcessTimerOrBlockTask+0x6c>)
  4066b2:	4798      	blx	r3
  4066b4:	60f8      	str	r0, [r7, #12]
  4066b6:	68bb      	ldr	r3, [r7, #8]
  4066b8:	2b00      	cmp	r3, #0
  4066ba:	d11d      	bne.n	4066f8 <prvProcessTimerOrBlockTask+0x5c>
  4066bc:	683b      	ldr	r3, [r7, #0]
  4066be:	2b00      	cmp	r3, #0
  4066c0:	d10a      	bne.n	4066d8 <prvProcessTimerOrBlockTask+0x3c>
  4066c2:	687a      	ldr	r2, [r7, #4]
  4066c4:	68fb      	ldr	r3, [r7, #12]
  4066c6:	429a      	cmp	r2, r3
  4066c8:	d806      	bhi.n	4066d8 <prvProcessTimerOrBlockTask+0x3c>
  4066ca:	4b10      	ldr	r3, [pc, #64]	; (40670c <prvProcessTimerOrBlockTask+0x70>)
  4066cc:	4798      	blx	r3
  4066ce:	68f9      	ldr	r1, [r7, #12]
  4066d0:	6878      	ldr	r0, [r7, #4]
  4066d2:	4b0f      	ldr	r3, [pc, #60]	; (406710 <prvProcessTimerOrBlockTask+0x74>)
  4066d4:	4798      	blx	r3
  4066d6:	e011      	b.n	4066fc <prvProcessTimerOrBlockTask+0x60>
  4066d8:	4b0e      	ldr	r3, [pc, #56]	; (406714 <prvProcessTimerOrBlockTask+0x78>)
  4066da:	6818      	ldr	r0, [r3, #0]
  4066dc:	687a      	ldr	r2, [r7, #4]
  4066de:	68fb      	ldr	r3, [r7, #12]
  4066e0:	1ad3      	subs	r3, r2, r3
  4066e2:	4619      	mov	r1, r3
  4066e4:	4b0c      	ldr	r3, [pc, #48]	; (406718 <prvProcessTimerOrBlockTask+0x7c>)
  4066e6:	4798      	blx	r3
  4066e8:	4b08      	ldr	r3, [pc, #32]	; (40670c <prvProcessTimerOrBlockTask+0x70>)
  4066ea:	4798      	blx	r3
  4066ec:	4603      	mov	r3, r0
  4066ee:	2b00      	cmp	r3, #0
  4066f0:	d104      	bne.n	4066fc <prvProcessTimerOrBlockTask+0x60>
  4066f2:	4b0a      	ldr	r3, [pc, #40]	; (40671c <prvProcessTimerOrBlockTask+0x80>)
  4066f4:	4798      	blx	r3
  4066f6:	e001      	b.n	4066fc <prvProcessTimerOrBlockTask+0x60>
  4066f8:	4b04      	ldr	r3, [pc, #16]	; (40670c <prvProcessTimerOrBlockTask+0x70>)
  4066fa:	4798      	blx	r3
  4066fc:	bf00      	nop
  4066fe:	3710      	adds	r7, #16
  406700:	46bd      	mov	sp, r7
  406702:	bd80      	pop	{r7, pc}
  406704:	00405ac5 	.word	0x00405ac5
  406708:	00406769 	.word	0x00406769
  40670c:	00405ae1 	.word	0x00405ae1
  406710:	004065e9 	.word	0x004065e9
  406714:	200029fc 	.word	0x200029fc
  406718:	004057c1 	.word	0x004057c1
  40671c:	00404c8d 	.word	0x00404c8d

00406720 <prvGetNextExpireTime>:
  406720:	b480      	push	{r7}
  406722:	b085      	sub	sp, #20
  406724:	af00      	add	r7, sp, #0
  406726:	6078      	str	r0, [r7, #4]
  406728:	4b0e      	ldr	r3, [pc, #56]	; (406764 <prvGetNextExpireTime+0x44>)
  40672a:	681b      	ldr	r3, [r3, #0]
  40672c:	681b      	ldr	r3, [r3, #0]
  40672e:	2b00      	cmp	r3, #0
  406730:	bf0c      	ite	eq
  406732:	2301      	moveq	r3, #1
  406734:	2300      	movne	r3, #0
  406736:	b2db      	uxtb	r3, r3
  406738:	461a      	mov	r2, r3
  40673a:	687b      	ldr	r3, [r7, #4]
  40673c:	601a      	str	r2, [r3, #0]
  40673e:	687b      	ldr	r3, [r7, #4]
  406740:	681b      	ldr	r3, [r3, #0]
  406742:	2b00      	cmp	r3, #0
  406744:	d105      	bne.n	406752 <prvGetNextExpireTime+0x32>
  406746:	4b07      	ldr	r3, [pc, #28]	; (406764 <prvGetNextExpireTime+0x44>)
  406748:	681b      	ldr	r3, [r3, #0]
  40674a:	68db      	ldr	r3, [r3, #12]
  40674c:	681b      	ldr	r3, [r3, #0]
  40674e:	60fb      	str	r3, [r7, #12]
  406750:	e001      	b.n	406756 <prvGetNextExpireTime+0x36>
  406752:	2300      	movs	r3, #0
  406754:	60fb      	str	r3, [r7, #12]
  406756:	68fb      	ldr	r3, [r7, #12]
  406758:	4618      	mov	r0, r3
  40675a:	3714      	adds	r7, #20
  40675c:	46bd      	mov	sp, r7
  40675e:	bc80      	pop	{r7}
  406760:	4770      	bx	lr
  406762:	bf00      	nop
  406764:	200029f4 	.word	0x200029f4

00406768 <prvSampleTimeNow>:
  406768:	b580      	push	{r7, lr}
  40676a:	b084      	sub	sp, #16
  40676c:	af00      	add	r7, sp, #0
  40676e:	6078      	str	r0, [r7, #4]
  406770:	4b0d      	ldr	r3, [pc, #52]	; (4067a8 <prvSampleTimeNow+0x40>)
  406772:	4798      	blx	r3
  406774:	60f8      	str	r0, [r7, #12]
  406776:	4b0d      	ldr	r3, [pc, #52]	; (4067ac <prvSampleTimeNow+0x44>)
  406778:	681b      	ldr	r3, [r3, #0]
  40677a:	68fa      	ldr	r2, [r7, #12]
  40677c:	429a      	cmp	r2, r3
  40677e:	d208      	bcs.n	406792 <prvSampleTimeNow+0x2a>
  406780:	4b0a      	ldr	r3, [pc, #40]	; (4067ac <prvSampleTimeNow+0x44>)
  406782:	681b      	ldr	r3, [r3, #0]
  406784:	4618      	mov	r0, r3
  406786:	4b0a      	ldr	r3, [pc, #40]	; (4067b0 <prvSampleTimeNow+0x48>)
  406788:	4798      	blx	r3
  40678a:	687b      	ldr	r3, [r7, #4]
  40678c:	2201      	movs	r2, #1
  40678e:	601a      	str	r2, [r3, #0]
  406790:	e002      	b.n	406798 <prvSampleTimeNow+0x30>
  406792:	687b      	ldr	r3, [r7, #4]
  406794:	2200      	movs	r2, #0
  406796:	601a      	str	r2, [r3, #0]
  406798:	4a04      	ldr	r2, [pc, #16]	; (4067ac <prvSampleTimeNow+0x44>)
  40679a:	68fb      	ldr	r3, [r7, #12]
  40679c:	6013      	str	r3, [r2, #0]
  40679e:	68fb      	ldr	r3, [r7, #12]
  4067a0:	4618      	mov	r0, r3
  4067a2:	3710      	adds	r7, #16
  4067a4:	46bd      	mov	sp, r7
  4067a6:	bd80      	pop	{r7, pc}
  4067a8:	00405c01 	.word	0x00405c01
  4067ac:	20002a00 	.word	0x20002a00
  4067b0:	00406949 	.word	0x00406949

004067b4 <prvInsertTimerInActiveList>:
  4067b4:	b580      	push	{r7, lr}
  4067b6:	b086      	sub	sp, #24
  4067b8:	af00      	add	r7, sp, #0
  4067ba:	60f8      	str	r0, [r7, #12]
  4067bc:	60b9      	str	r1, [r7, #8]
  4067be:	607a      	str	r2, [r7, #4]
  4067c0:	603b      	str	r3, [r7, #0]
  4067c2:	2300      	movs	r3, #0
  4067c4:	617b      	str	r3, [r7, #20]
  4067c6:	68fb      	ldr	r3, [r7, #12]
  4067c8:	68ba      	ldr	r2, [r7, #8]
  4067ca:	605a      	str	r2, [r3, #4]
  4067cc:	68fb      	ldr	r3, [r7, #12]
  4067ce:	68fa      	ldr	r2, [r7, #12]
  4067d0:	611a      	str	r2, [r3, #16]
  4067d2:	68ba      	ldr	r2, [r7, #8]
  4067d4:	687b      	ldr	r3, [r7, #4]
  4067d6:	429a      	cmp	r2, r3
  4067d8:	d812      	bhi.n	406800 <prvInsertTimerInActiveList+0x4c>
  4067da:	687a      	ldr	r2, [r7, #4]
  4067dc:	683b      	ldr	r3, [r7, #0]
  4067de:	1ad2      	subs	r2, r2, r3
  4067e0:	68fb      	ldr	r3, [r7, #12]
  4067e2:	699b      	ldr	r3, [r3, #24]
  4067e4:	429a      	cmp	r2, r3
  4067e6:	d302      	bcc.n	4067ee <prvInsertTimerInActiveList+0x3a>
  4067e8:	2301      	movs	r3, #1
  4067ea:	617b      	str	r3, [r7, #20]
  4067ec:	e01b      	b.n	406826 <prvInsertTimerInActiveList+0x72>
  4067ee:	4b10      	ldr	r3, [pc, #64]	; (406830 <prvInsertTimerInActiveList+0x7c>)
  4067f0:	681a      	ldr	r2, [r3, #0]
  4067f2:	68fb      	ldr	r3, [r7, #12]
  4067f4:	3304      	adds	r3, #4
  4067f6:	4619      	mov	r1, r3
  4067f8:	4610      	mov	r0, r2
  4067fa:	4b0e      	ldr	r3, [pc, #56]	; (406834 <prvInsertTimerInActiveList+0x80>)
  4067fc:	4798      	blx	r3
  4067fe:	e012      	b.n	406826 <prvInsertTimerInActiveList+0x72>
  406800:	687a      	ldr	r2, [r7, #4]
  406802:	683b      	ldr	r3, [r7, #0]
  406804:	429a      	cmp	r2, r3
  406806:	d206      	bcs.n	406816 <prvInsertTimerInActiveList+0x62>
  406808:	68ba      	ldr	r2, [r7, #8]
  40680a:	683b      	ldr	r3, [r7, #0]
  40680c:	429a      	cmp	r2, r3
  40680e:	d302      	bcc.n	406816 <prvInsertTimerInActiveList+0x62>
  406810:	2301      	movs	r3, #1
  406812:	617b      	str	r3, [r7, #20]
  406814:	e007      	b.n	406826 <prvInsertTimerInActiveList+0x72>
  406816:	4b08      	ldr	r3, [pc, #32]	; (406838 <prvInsertTimerInActiveList+0x84>)
  406818:	681a      	ldr	r2, [r3, #0]
  40681a:	68fb      	ldr	r3, [r7, #12]
  40681c:	3304      	adds	r3, #4
  40681e:	4619      	mov	r1, r3
  406820:	4610      	mov	r0, r2
  406822:	4b04      	ldr	r3, [pc, #16]	; (406834 <prvInsertTimerInActiveList+0x80>)
  406824:	4798      	blx	r3
  406826:	697b      	ldr	r3, [r7, #20]
  406828:	4618      	mov	r0, r3
  40682a:	3718      	adds	r7, #24
  40682c:	46bd      	mov	sp, r7
  40682e:	bd80      	pop	{r7, pc}
  406830:	200029f8 	.word	0x200029f8
  406834:	00404a59 	.word	0x00404a59
  406838:	200029f4 	.word	0x200029f4

0040683c <prvProcessReceivedCommands>:
  40683c:	b590      	push	{r4, r7, lr}
  40683e:	b08b      	sub	sp, #44	; 0x2c
  406840:	af02      	add	r7, sp, #8
  406842:	1d3b      	adds	r3, r7, #4
  406844:	4618      	mov	r0, r3
  406846:	4b38      	ldr	r3, [pc, #224]	; (406928 <prvProcessReceivedCommands+0xec>)
  406848:	4798      	blx	r3
  40684a:	61f8      	str	r0, [r7, #28]
  40684c:	e05d      	b.n	40690a <prvProcessReceivedCommands+0xce>
  40684e:	693b      	ldr	r3, [r7, #16]
  406850:	61bb      	str	r3, [r7, #24]
  406852:	69bb      	ldr	r3, [r7, #24]
  406854:	2b00      	cmp	r3, #0
  406856:	d008      	beq.n	40686a <prvProcessReceivedCommands+0x2e>
  406858:	69bb      	ldr	r3, [r7, #24]
  40685a:	695b      	ldr	r3, [r3, #20]
  40685c:	2b00      	cmp	r3, #0
  40685e:	d004      	beq.n	40686a <prvProcessReceivedCommands+0x2e>
  406860:	69bb      	ldr	r3, [r7, #24]
  406862:	3304      	adds	r3, #4
  406864:	4618      	mov	r0, r3
  406866:	4b31      	ldr	r3, [pc, #196]	; (40692c <prvProcessReceivedCommands+0xf0>)
  406868:	4798      	blx	r3
  40686a:	68bb      	ldr	r3, [r7, #8]
  40686c:	2b03      	cmp	r3, #3
  40686e:	d84b      	bhi.n	406908 <prvProcessReceivedCommands+0xcc>
  406870:	a201      	add	r2, pc, #4	; (adr r2, 406878 <prvProcessReceivedCommands+0x3c>)
  406872:	f852 f023 	ldr.w	pc, [r2, r3, lsl #2]
  406876:	bf00      	nop
  406878:	00406889 	.word	0x00406889
  40687c:	0040690b 	.word	0x0040690b
  406880:	004068d7 	.word	0x004068d7
  406884:	00406901 	.word	0x00406901
  406888:	68fa      	ldr	r2, [r7, #12]
  40688a:	69bb      	ldr	r3, [r7, #24]
  40688c:	699b      	ldr	r3, [r3, #24]
  40688e:	18d1      	adds	r1, r2, r3
  406890:	68fb      	ldr	r3, [r7, #12]
  406892:	69fa      	ldr	r2, [r7, #28]
  406894:	69b8      	ldr	r0, [r7, #24]
  406896:	4c26      	ldr	r4, [pc, #152]	; (406930 <prvProcessReceivedCommands+0xf4>)
  406898:	47a0      	blx	r4
  40689a:	4603      	mov	r3, r0
  40689c:	2b01      	cmp	r3, #1
  40689e:	d134      	bne.n	40690a <prvProcessReceivedCommands+0xce>
  4068a0:	69bb      	ldr	r3, [r7, #24]
  4068a2:	6a5b      	ldr	r3, [r3, #36]	; 0x24
  4068a4:	69b8      	ldr	r0, [r7, #24]
  4068a6:	4798      	blx	r3
  4068a8:	69bb      	ldr	r3, [r7, #24]
  4068aa:	69db      	ldr	r3, [r3, #28]
  4068ac:	2b01      	cmp	r3, #1
  4068ae:	d12c      	bne.n	40690a <prvProcessReceivedCommands+0xce>
  4068b0:	68fa      	ldr	r2, [r7, #12]
  4068b2:	69bb      	ldr	r3, [r7, #24]
  4068b4:	699b      	ldr	r3, [r3, #24]
  4068b6:	441a      	add	r2, r3
  4068b8:	2300      	movs	r3, #0
  4068ba:	9300      	str	r3, [sp, #0]
  4068bc:	2300      	movs	r3, #0
  4068be:	2100      	movs	r1, #0
  4068c0:	69b8      	ldr	r0, [r7, #24]
  4068c2:	4c1c      	ldr	r4, [pc, #112]	; (406934 <prvProcessReceivedCommands+0xf8>)
  4068c4:	47a0      	blx	r4
  4068c6:	6178      	str	r0, [r7, #20]
  4068c8:	697b      	ldr	r3, [r7, #20]
  4068ca:	2b00      	cmp	r3, #0
  4068cc:	d11d      	bne.n	40690a <prvProcessReceivedCommands+0xce>
  4068ce:	4b1a      	ldr	r3, [pc, #104]	; (406938 <prvProcessReceivedCommands+0xfc>)
  4068d0:	4798      	blx	r3
  4068d2:	bf00      	nop
  4068d4:	e7fd      	b.n	4068d2 <prvProcessReceivedCommands+0x96>
  4068d6:	68fa      	ldr	r2, [r7, #12]
  4068d8:	69bb      	ldr	r3, [r7, #24]
  4068da:	619a      	str	r2, [r3, #24]
  4068dc:	69bb      	ldr	r3, [r7, #24]
  4068de:	699b      	ldr	r3, [r3, #24]
  4068e0:	2b00      	cmp	r3, #0
  4068e2:	d103      	bne.n	4068ec <prvProcessReceivedCommands+0xb0>
  4068e4:	4b14      	ldr	r3, [pc, #80]	; (406938 <prvProcessReceivedCommands+0xfc>)
  4068e6:	4798      	blx	r3
  4068e8:	bf00      	nop
  4068ea:	e7fd      	b.n	4068e8 <prvProcessReceivedCommands+0xac>
  4068ec:	69bb      	ldr	r3, [r7, #24]
  4068ee:	699a      	ldr	r2, [r3, #24]
  4068f0:	69fb      	ldr	r3, [r7, #28]
  4068f2:	18d1      	adds	r1, r2, r3
  4068f4:	69fb      	ldr	r3, [r7, #28]
  4068f6:	69fa      	ldr	r2, [r7, #28]
  4068f8:	69b8      	ldr	r0, [r7, #24]
  4068fa:	4c0d      	ldr	r4, [pc, #52]	; (406930 <prvProcessReceivedCommands+0xf4>)
  4068fc:	47a0      	blx	r4
  4068fe:	e004      	b.n	40690a <prvProcessReceivedCommands+0xce>
  406900:	69b8      	ldr	r0, [r7, #24]
  406902:	4b0e      	ldr	r3, [pc, #56]	; (40693c <prvProcessReceivedCommands+0x100>)
  406904:	4798      	blx	r3
  406906:	e000      	b.n	40690a <prvProcessReceivedCommands+0xce>
  406908:	bf00      	nop
  40690a:	4b0d      	ldr	r3, [pc, #52]	; (406940 <prvProcessReceivedCommands+0x104>)
  40690c:	6818      	ldr	r0, [r3, #0]
  40690e:	f107 0108 	add.w	r1, r7, #8
  406912:	2300      	movs	r3, #0
  406914:	2200      	movs	r2, #0
  406916:	4c0b      	ldr	r4, [pc, #44]	; (406944 <prvProcessReceivedCommands+0x108>)
  406918:	47a0      	blx	r4
  40691a:	4603      	mov	r3, r0
  40691c:	2b00      	cmp	r3, #0
  40691e:	d196      	bne.n	40684e <prvProcessReceivedCommands+0x12>
  406920:	bf00      	nop
  406922:	3724      	adds	r7, #36	; 0x24
  406924:	46bd      	mov	sp, r7
  406926:	bd90      	pop	{r4, r7, pc}
  406928:	00406769 	.word	0x00406769
  40692c:	00404ac9 	.word	0x00404ac9
  406930:	004067b5 	.word	0x004067b5
  406934:	0040655d 	.word	0x0040655d
  406938:	00404ced 	.word	0x00404ced
  40693c:	00404eb9 	.word	0x00404eb9
  406940:	200029fc 	.word	0x200029fc
  406944:	004053c9 	.word	0x004053c9

00406948 <prvSwitchTimerLists>:
  406948:	b590      	push	{r4, r7, lr}
  40694a:	b08b      	sub	sp, #44	; 0x2c
  40694c:	af02      	add	r7, sp, #8
  40694e:	6078      	str	r0, [r7, #4]
  406950:	e03e      	b.n	4069d0 <prvSwitchTimerLists+0x88>
  406952:	4b29      	ldr	r3, [pc, #164]	; (4069f8 <prvSwitchTimerLists+0xb0>)
  406954:	681b      	ldr	r3, [r3, #0]
  406956:	68db      	ldr	r3, [r3, #12]
  406958:	681b      	ldr	r3, [r3, #0]
  40695a:	61fb      	str	r3, [r7, #28]
  40695c:	4b26      	ldr	r3, [pc, #152]	; (4069f8 <prvSwitchTimerLists+0xb0>)
  40695e:	681b      	ldr	r3, [r3, #0]
  406960:	68db      	ldr	r3, [r3, #12]
  406962:	68db      	ldr	r3, [r3, #12]
  406964:	61bb      	str	r3, [r7, #24]
  406966:	69bb      	ldr	r3, [r7, #24]
  406968:	3304      	adds	r3, #4
  40696a:	4618      	mov	r0, r3
  40696c:	4b23      	ldr	r3, [pc, #140]	; (4069fc <prvSwitchTimerLists+0xb4>)
  40696e:	4798      	blx	r3
  406970:	69bb      	ldr	r3, [r7, #24]
  406972:	6a5b      	ldr	r3, [r3, #36]	; 0x24
  406974:	69b8      	ldr	r0, [r7, #24]
  406976:	4798      	blx	r3
  406978:	69bb      	ldr	r3, [r7, #24]
  40697a:	69db      	ldr	r3, [r3, #28]
  40697c:	2b01      	cmp	r3, #1
  40697e:	d127      	bne.n	4069d0 <prvSwitchTimerLists+0x88>
  406980:	69bb      	ldr	r3, [r7, #24]
  406982:	699a      	ldr	r2, [r3, #24]
  406984:	69fb      	ldr	r3, [r7, #28]
  406986:	4413      	add	r3, r2
  406988:	617b      	str	r3, [r7, #20]
  40698a:	697a      	ldr	r2, [r7, #20]
  40698c:	69fb      	ldr	r3, [r7, #28]
  40698e:	429a      	cmp	r2, r3
  406990:	d90e      	bls.n	4069b0 <prvSwitchTimerLists+0x68>
  406992:	69bb      	ldr	r3, [r7, #24]
  406994:	697a      	ldr	r2, [r7, #20]
  406996:	605a      	str	r2, [r3, #4]
  406998:	69bb      	ldr	r3, [r7, #24]
  40699a:	69ba      	ldr	r2, [r7, #24]
  40699c:	611a      	str	r2, [r3, #16]
  40699e:	4b16      	ldr	r3, [pc, #88]	; (4069f8 <prvSwitchTimerLists+0xb0>)
  4069a0:	681a      	ldr	r2, [r3, #0]
  4069a2:	69bb      	ldr	r3, [r7, #24]
  4069a4:	3304      	adds	r3, #4
  4069a6:	4619      	mov	r1, r3
  4069a8:	4610      	mov	r0, r2
  4069aa:	4b15      	ldr	r3, [pc, #84]	; (406a00 <prvSwitchTimerLists+0xb8>)
  4069ac:	4798      	blx	r3
  4069ae:	e00f      	b.n	4069d0 <prvSwitchTimerLists+0x88>
  4069b0:	2300      	movs	r3, #0
  4069b2:	9300      	str	r3, [sp, #0]
  4069b4:	2300      	movs	r3, #0
  4069b6:	69fa      	ldr	r2, [r7, #28]
  4069b8:	2100      	movs	r1, #0
  4069ba:	69b8      	ldr	r0, [r7, #24]
  4069bc:	4c11      	ldr	r4, [pc, #68]	; (406a04 <prvSwitchTimerLists+0xbc>)
  4069be:	47a0      	blx	r4
  4069c0:	6138      	str	r0, [r7, #16]
  4069c2:	693b      	ldr	r3, [r7, #16]
  4069c4:	2b00      	cmp	r3, #0
  4069c6:	d103      	bne.n	4069d0 <prvSwitchTimerLists+0x88>
  4069c8:	4b0f      	ldr	r3, [pc, #60]	; (406a08 <prvSwitchTimerLists+0xc0>)
  4069ca:	4798      	blx	r3
  4069cc:	bf00      	nop
  4069ce:	e7fd      	b.n	4069cc <prvSwitchTimerLists+0x84>
  4069d0:	4b09      	ldr	r3, [pc, #36]	; (4069f8 <prvSwitchTimerLists+0xb0>)
  4069d2:	681b      	ldr	r3, [r3, #0]
  4069d4:	681b      	ldr	r3, [r3, #0]
  4069d6:	2b00      	cmp	r3, #0
  4069d8:	d1bb      	bne.n	406952 <prvSwitchTimerLists+0xa>
  4069da:	4b07      	ldr	r3, [pc, #28]	; (4069f8 <prvSwitchTimerLists+0xb0>)
  4069dc:	681b      	ldr	r3, [r3, #0]
  4069de:	60fb      	str	r3, [r7, #12]
  4069e0:	4b0a      	ldr	r3, [pc, #40]	; (406a0c <prvSwitchTimerLists+0xc4>)
  4069e2:	681b      	ldr	r3, [r3, #0]
  4069e4:	4a04      	ldr	r2, [pc, #16]	; (4069f8 <prvSwitchTimerLists+0xb0>)
  4069e6:	6013      	str	r3, [r2, #0]
  4069e8:	4a08      	ldr	r2, [pc, #32]	; (406a0c <prvSwitchTimerLists+0xc4>)
  4069ea:	68fb      	ldr	r3, [r7, #12]
  4069ec:	6013      	str	r3, [r2, #0]
  4069ee:	bf00      	nop
  4069f0:	3724      	adds	r7, #36	; 0x24
  4069f2:	46bd      	mov	sp, r7
  4069f4:	bd90      	pop	{r4, r7, pc}
  4069f6:	bf00      	nop
  4069f8:	200029f4 	.word	0x200029f4
  4069fc:	00404ac9 	.word	0x00404ac9
  406a00:	00404a59 	.word	0x00404a59
  406a04:	0040655d 	.word	0x0040655d
  406a08:	00404ced 	.word	0x00404ced
  406a0c:	200029f8 	.word	0x200029f8

00406a10 <prvCheckForValidListAndQueue>:
  406a10:	b580      	push	{r7, lr}
  406a12:	af00      	add	r7, sp, #0
  406a14:	4b0e      	ldr	r3, [pc, #56]	; (406a50 <prvCheckForValidListAndQueue+0x40>)
  406a16:	4798      	blx	r3
  406a18:	4b0e      	ldr	r3, [pc, #56]	; (406a54 <prvCheckForValidListAndQueue+0x44>)
  406a1a:	681b      	ldr	r3, [r3, #0]
  406a1c:	2b00      	cmp	r3, #0
  406a1e:	d113      	bne.n	406a48 <prvCheckForValidListAndQueue+0x38>
  406a20:	480d      	ldr	r0, [pc, #52]	; (406a58 <prvCheckForValidListAndQueue+0x48>)
  406a22:	4b0e      	ldr	r3, [pc, #56]	; (406a5c <prvCheckForValidListAndQueue+0x4c>)
  406a24:	4798      	blx	r3
  406a26:	480e      	ldr	r0, [pc, #56]	; (406a60 <prvCheckForValidListAndQueue+0x50>)
  406a28:	4b0c      	ldr	r3, [pc, #48]	; (406a5c <prvCheckForValidListAndQueue+0x4c>)
  406a2a:	4798      	blx	r3
  406a2c:	4b0d      	ldr	r3, [pc, #52]	; (406a64 <prvCheckForValidListAndQueue+0x54>)
  406a2e:	4a0a      	ldr	r2, [pc, #40]	; (406a58 <prvCheckForValidListAndQueue+0x48>)
  406a30:	601a      	str	r2, [r3, #0]
  406a32:	4b0d      	ldr	r3, [pc, #52]	; (406a68 <prvCheckForValidListAndQueue+0x58>)
  406a34:	4a0a      	ldr	r2, [pc, #40]	; (406a60 <prvCheckForValidListAndQueue+0x50>)
  406a36:	601a      	str	r2, [r3, #0]
  406a38:	2200      	movs	r2, #0
  406a3a:	210c      	movs	r1, #12
  406a3c:	2005      	movs	r0, #5
  406a3e:	4b0b      	ldr	r3, [pc, #44]	; (406a6c <prvCheckForValidListAndQueue+0x5c>)
  406a40:	4798      	blx	r3
  406a42:	4602      	mov	r2, r0
  406a44:	4b03      	ldr	r3, [pc, #12]	; (406a54 <prvCheckForValidListAndQueue+0x44>)
  406a46:	601a      	str	r2, [r3, #0]
  406a48:	4b09      	ldr	r3, [pc, #36]	; (406a70 <prvCheckForValidListAndQueue+0x60>)
  406a4a:	4798      	blx	r3
  406a4c:	bf00      	nop
  406a4e:	bd80      	pop	{r7, pc}
  406a50:	00404ca5 	.word	0x00404ca5
  406a54:	200029fc 	.word	0x200029fc
  406a58:	200029cc 	.word	0x200029cc
  406a5c:	004049b1 	.word	0x004049b1
  406a60:	200029e0 	.word	0x200029e0
  406a64:	200029f4 	.word	0x200029f4
  406a68:	200029f8 	.word	0x200029f8
  406a6c:	00405115 	.word	0x00405115
  406a70:	00404cc5 	.word	0x00404cc5

00406a74 <vCommTask>:
  406a74:	b590      	push	{r4, r7, lr}
  406a76:	b0d3      	sub	sp, #332	; 0x14c
  406a78:	af02      	add	r7, sp, #8
  406a7a:	1d3b      	adds	r3, r7, #4
  406a7c:	6018      	str	r0, [r3, #0]
  406a7e:	f107 030b 	add.w	r3, r7, #11
  406a82:	2200      	movs	r2, #0
  406a84:	701a      	strb	r2, [r3, #0]
  406a86:	2300      	movs	r3, #0
  406a88:	f887 313f 	strb.w	r3, [r7, #319]	; 0x13f
  406a8c:	2300      	movs	r3, #0
  406a8e:	f887 313d 	strb.w	r3, [r7, #317]	; 0x13d
  406a92:	4b40      	ldr	r3, [pc, #256]	; (406b94 <vCommTask+0x120>)
  406a94:	4a40      	ldr	r2, [pc, #256]	; (406b98 <vCommTask+0x124>)
  406a96:	601a      	str	r2, [r3, #0]
  406a98:	4840      	ldr	r0, [pc, #256]	; (406b9c <vCommTask+0x128>)
  406a9a:	4b41      	ldr	r3, [pc, #260]	; (406ba0 <vCommTask+0x12c>)
  406a9c:	4798      	blx	r3
  406a9e:	483f      	ldr	r0, [pc, #252]	; (406b9c <vCommTask+0x128>)
  406aa0:	4b40      	ldr	r3, [pc, #256]	; (406ba4 <vCommTask+0x130>)
  406aa2:	4798      	blx	r3
  406aa4:	f107 03a4 	add.w	r3, r7, #164	; 0xa4
  406aa8:	2196      	movs	r1, #150	; 0x96
  406aaa:	4618      	mov	r0, r3
  406aac:	4b3e      	ldr	r3, [pc, #248]	; (406ba8 <vCommTask+0x134>)
  406aae:	4798      	blx	r3
  406ab0:	2028      	movs	r0, #40	; 0x28
  406ab2:	4b3e      	ldr	r3, [pc, #248]	; (406bac <vCommTask+0x138>)
  406ab4:	4798      	blx	r3
  406ab6:	4b3e      	ldr	r3, [pc, #248]	; (406bb0 <vCommTask+0x13c>)
  406ab8:	4798      	blx	r3
  406aba:	4603      	mov	r3, r0
  406abc:	f887 313d 	strb.w	r3, [r7, #317]	; 0x13d
  406ac0:	f897 313f 	ldrb.w	r3, [r7, #319]	; 0x13f
  406ac4:	2b00      	cmp	r3, #0
  406ac6:	d002      	beq.n	406ace <vCommTask+0x5a>
  406ac8:	2b01      	cmp	r3, #1
  406aca:	d00c      	beq.n	406ae6 <vCommTask+0x72>
  406acc:	e061      	b.n	406b92 <vCommTask+0x11e>
  406ace:	f897 313d 	ldrb.w	r3, [r7, #317]	; 0x13d
  406ad2:	2b00      	cmp	r3, #0
  406ad4:	d05c      	beq.n	406b90 <vCommTask+0x11c>
  406ad6:	2301      	movs	r3, #1
  406ad8:	f887 313f 	strb.w	r3, [r7, #319]	; 0x13f
  406adc:	f897 313d 	ldrb.w	r3, [r7, #317]	; 0x13d
  406ae0:	f887 313e 	strb.w	r3, [r7, #318]	; 0x13e
  406ae4:	e054      	b.n	406b90 <vCommTask+0x11c>
  406ae6:	f897 213e 	ldrb.w	r2, [r7, #318]	; 0x13e
  406aea:	f897 313d 	ldrb.w	r3, [r7, #317]	; 0x13d
  406aee:	429a      	cmp	r2, r3
  406af0:	d004      	beq.n	406afc <vCommTask+0x88>
  406af2:	f897 313d 	ldrb.w	r3, [r7, #317]	; 0x13d
  406af6:	f887 313e 	strb.w	r3, [r7, #318]	; 0x13e
  406afa:	e04a      	b.n	406b92 <vCommTask+0x11e>
  406afc:	4827      	ldr	r0, [pc, #156]	; (406b9c <vCommTask+0x128>)
  406afe:	4b2d      	ldr	r3, [pc, #180]	; (406bb4 <vCommTask+0x140>)
  406b00:	4798      	blx	r3
  406b02:	4b2d      	ldr	r3, [pc, #180]	; (406bb8 <vCommTask+0x144>)
  406b04:	681b      	ldr	r3, [r3, #0]
  406b06:	2101      	movs	r1, #1
  406b08:	4618      	mov	r0, r3
  406b0a:	4b2c      	ldr	r3, [pc, #176]	; (406bbc <vCommTask+0x148>)
  406b0c:	4798      	blx	r3
  406b0e:	4b2c      	ldr	r3, [pc, #176]	; (406bc0 <vCommTask+0x14c>)
  406b10:	7818      	ldrb	r0, [r3, #0]
  406b12:	f107 040c 	add.w	r4, r7, #12
  406b16:	f897 213d 	ldrb.w	r2, [r7, #317]	; 0x13d
  406b1a:	f107 01a4 	add.w	r1, r7, #164	; 0xa4
  406b1e:	f107 030b 	add.w	r3, r7, #11
  406b22:	9300      	str	r3, [sp, #0]
  406b24:	4623      	mov	r3, r4
  406b26:	4c27      	ldr	r4, [pc, #156]	; (406bc4 <vCommTask+0x150>)
  406b28:	47a0      	blx	r4
  406b2a:	f107 030b 	add.w	r3, r7, #11
  406b2e:	781b      	ldrb	r3, [r3, #0]
  406b30:	2b00      	cmp	r3, #0
  406b32:	d008      	beq.n	406b46 <vCommTask+0xd2>
  406b34:	f107 030b 	add.w	r3, r7, #11
  406b38:	781a      	ldrb	r2, [r3, #0]
  406b3a:	f107 030c 	add.w	r3, r7, #12
  406b3e:	4611      	mov	r1, r2
  406b40:	4618      	mov	r0, r3
  406b42:	4b21      	ldr	r3, [pc, #132]	; (406bc8 <vCommTask+0x154>)
  406b44:	4798      	blx	r3
  406b46:	f107 03a4 	add.w	r3, r7, #164	; 0xa4
  406b4a:	2296      	movs	r2, #150	; 0x96
  406b4c:	2100      	movs	r1, #0
  406b4e:	4618      	mov	r0, r3
  406b50:	4b1e      	ldr	r3, [pc, #120]	; (406bcc <vCommTask+0x158>)
  406b52:	4798      	blx	r3
  406b54:	f107 030c 	add.w	r3, r7, #12
  406b58:	2296      	movs	r2, #150	; 0x96
  406b5a:	2100      	movs	r1, #0
  406b5c:	4618      	mov	r0, r3
  406b5e:	4b1b      	ldr	r3, [pc, #108]	; (406bcc <vCommTask+0x158>)
  406b60:	4798      	blx	r3
  406b62:	f107 030b 	add.w	r3, r7, #11
  406b66:	2200      	movs	r2, #0
  406b68:	701a      	strb	r2, [r3, #0]
  406b6a:	2300      	movs	r3, #0
  406b6c:	f887 313f 	strb.w	r3, [r7, #319]	; 0x13f
  406b70:	480a      	ldr	r0, [pc, #40]	; (406b9c <vCommTask+0x128>)
  406b72:	4b0c      	ldr	r3, [pc, #48]	; (406ba4 <vCommTask+0x130>)
  406b74:	4798      	blx	r3
  406b76:	4b10      	ldr	r3, [pc, #64]	; (406bb8 <vCommTask+0x144>)
  406b78:	681b      	ldr	r3, [r3, #0]
  406b7a:	2101      	movs	r1, #1
  406b7c:	4618      	mov	r0, r3
  406b7e:	4b14      	ldr	r3, [pc, #80]	; (406bd0 <vCommTask+0x15c>)
  406b80:	4798      	blx	r3
  406b82:	f107 03a4 	add.w	r3, r7, #164	; 0xa4
  406b86:	2196      	movs	r1, #150	; 0x96
  406b88:	4618      	mov	r0, r3
  406b8a:	4b07      	ldr	r3, [pc, #28]	; (406ba8 <vCommTask+0x134>)
  406b8c:	4798      	blx	r3
  406b8e:	e000      	b.n	406b92 <vCommTask+0x11e>
  406b90:	bf00      	nop
  406b92:	e78d      	b.n	406ab0 <vCommTask+0x3c>
  406b94:	20002a04 	.word	0x20002a04
  406b98:	00406be5 	.word	0x00406be5
  406b9c:	40024000 	.word	0x40024000
  406ba0:	00403431 	.word	0x00403431
  406ba4:	00403461 	.word	0x00403461
  406ba8:	00402689 	.word	0x00402689
  406bac:	004059dd 	.word	0x004059dd
  406bb0:	004026c5 	.word	0x004026c5
  406bb4:	00403479 	.word	0x00403479
  406bb8:	20002a08 	.word	0x20002a08
  406bbc:	00402e09 	.word	0x00402e09
  406bc0:	20000128 	.word	0x20000128
  406bc4:	004008ad 	.word	0x004008ad
  406bc8:	00406ec1 	.word	0x00406ec1
  406bcc:	0040aed1 	.word	0x0040aed1
  406bd0:	00402de9 	.word	0x00402de9

00406bd4 <vCommInit>:
  406bd4:	b580      	push	{r7, lr}
  406bd6:	af00      	add	r7, sp, #0
  406bd8:	4b01      	ldr	r3, [pc, #4]	; (406be0 <vCommInit+0xc>)
  406bda:	4798      	blx	r3
  406bdc:	bf00      	nop
  406bde:	bd80      	pop	{r7, pc}
  406be0:	004025c9 	.word	0x004025c9

00406be4 <WriteMbusRegs>:
  406be4:	b590      	push	{r4, r7, lr}
  406be6:	b085      	sub	sp, #20
  406be8:	af00      	add	r7, sp, #0
  406bea:	6078      	str	r0, [r7, #4]
  406bec:	460b      	mov	r3, r1
  406bee:	70fb      	strb	r3, [r7, #3]
  406bf0:	4613      	mov	r3, r2
  406bf2:	70bb      	strb	r3, [r7, #2]
  406bf4:	e11f      	b.n	406e36 <WriteMbusRegs+0x252>
  406bf6:	78fb      	ldrb	r3, [r7, #3]
  406bf8:	2b23      	cmp	r3, #35	; 0x23
  406bfa:	f200 8115 	bhi.w	406e28 <WriteMbusRegs+0x244>
  406bfe:	a201      	add	r2, pc, #4	; (adr r2, 406c04 <WriteMbusRegs+0x20>)
  406c00:	f852 f023 	ldr.w	pc, [r2, r3, lsl #2]
  406c04:	00406c95 	.word	0x00406c95
  406c08:	00406cab 	.word	0x00406cab
  406c0c:	00406cc1 	.word	0x00406cc1
  406c10:	00406cd7 	.word	0x00406cd7
  406c14:	00406ced 	.word	0x00406ced
  406c18:	00406d03 	.word	0x00406d03
  406c1c:	00406d19 	.word	0x00406d19
  406c20:	00406e29 	.word	0x00406e29
  406c24:	00406e29 	.word	0x00406e29
  406c28:	00406d2f 	.word	0x00406d2f
  406c2c:	00406e29 	.word	0x00406e29
  406c30:	00406d53 	.word	0x00406d53
  406c34:	00406e29 	.word	0x00406e29
  406c38:	00406d77 	.word	0x00406d77
  406c3c:	00406e29 	.word	0x00406e29
  406c40:	00406e29 	.word	0x00406e29
  406c44:	00406e29 	.word	0x00406e29
  406c48:	00406e29 	.word	0x00406e29
  406c4c:	00406e29 	.word	0x00406e29
  406c50:	00406d9b 	.word	0x00406d9b
  406c54:	00406e29 	.word	0x00406e29
  406c58:	00406e29 	.word	0x00406e29
  406c5c:	00406e29 	.word	0x00406e29
  406c60:	00406e29 	.word	0x00406e29
  406c64:	00406e0f 	.word	0x00406e0f
  406c68:	00406e29 	.word	0x00406e29
  406c6c:	00406e29 	.word	0x00406e29
  406c70:	00406e29 	.word	0x00406e29
  406c74:	00406e29 	.word	0x00406e29
  406c78:	00406e29 	.word	0x00406e29
  406c7c:	00406e29 	.word	0x00406e29
  406c80:	00406e29 	.word	0x00406e29
  406c84:	00406e29 	.word	0x00406e29
  406c88:	00406dbf 	.word	0x00406dbf
  406c8c:	00406e29 	.word	0x00406e29
  406c90:	00406de7 	.word	0x00406de7
  406c94:	78fb      	ldrb	r3, [r7, #3]
  406c96:	005b      	lsls	r3, r3, #1
  406c98:	687a      	ldr	r2, [r7, #4]
  406c9a:	4413      	add	r3, r2
  406c9c:	881b      	ldrh	r3, [r3, #0]
  406c9e:	b2db      	uxtb	r3, r3
  406ca0:	4619      	mov	r1, r3
  406ca2:	4869      	ldr	r0, [pc, #420]	; (406e48 <WriteMbusRegs+0x264>)
  406ca4:	4b69      	ldr	r3, [pc, #420]	; (406e4c <WriteMbusRegs+0x268>)
  406ca6:	4798      	blx	r3
  406ca8:	e0bf      	b.n	406e2a <WriteMbusRegs+0x246>
  406caa:	78fb      	ldrb	r3, [r7, #3]
  406cac:	005b      	lsls	r3, r3, #1
  406cae:	687a      	ldr	r2, [r7, #4]
  406cb0:	4413      	add	r3, r2
  406cb2:	881b      	ldrh	r3, [r3, #0]
  406cb4:	b2db      	uxtb	r3, r3
  406cb6:	4619      	mov	r1, r3
  406cb8:	4863      	ldr	r0, [pc, #396]	; (406e48 <WriteMbusRegs+0x264>)
  406cba:	4b65      	ldr	r3, [pc, #404]	; (406e50 <WriteMbusRegs+0x26c>)
  406cbc:	4798      	blx	r3
  406cbe:	e0b4      	b.n	406e2a <WriteMbusRegs+0x246>
  406cc0:	78fb      	ldrb	r3, [r7, #3]
  406cc2:	005b      	lsls	r3, r3, #1
  406cc4:	687a      	ldr	r2, [r7, #4]
  406cc6:	4413      	add	r3, r2
  406cc8:	881b      	ldrh	r3, [r3, #0]
  406cca:	b2db      	uxtb	r3, r3
  406ccc:	4619      	mov	r1, r3
  406cce:	485e      	ldr	r0, [pc, #376]	; (406e48 <WriteMbusRegs+0x264>)
  406cd0:	4b60      	ldr	r3, [pc, #384]	; (406e54 <WriteMbusRegs+0x270>)
  406cd2:	4798      	blx	r3
  406cd4:	e0a9      	b.n	406e2a <WriteMbusRegs+0x246>
  406cd6:	78fb      	ldrb	r3, [r7, #3]
  406cd8:	005b      	lsls	r3, r3, #1
  406cda:	687a      	ldr	r2, [r7, #4]
  406cdc:	4413      	add	r3, r2
  406cde:	881b      	ldrh	r3, [r3, #0]
  406ce0:	b2db      	uxtb	r3, r3
  406ce2:	4619      	mov	r1, r3
  406ce4:	4858      	ldr	r0, [pc, #352]	; (406e48 <WriteMbusRegs+0x264>)
  406ce6:	4b5c      	ldr	r3, [pc, #368]	; (406e58 <WriteMbusRegs+0x274>)
  406ce8:	4798      	blx	r3
  406cea:	e09e      	b.n	406e2a <WriteMbusRegs+0x246>
  406cec:	78fb      	ldrb	r3, [r7, #3]
  406cee:	005b      	lsls	r3, r3, #1
  406cf0:	687a      	ldr	r2, [r7, #4]
  406cf2:	4413      	add	r3, r2
  406cf4:	881b      	ldrh	r3, [r3, #0]
  406cf6:	b2db      	uxtb	r3, r3
  406cf8:	4619      	mov	r1, r3
  406cfa:	4853      	ldr	r0, [pc, #332]	; (406e48 <WriteMbusRegs+0x264>)
  406cfc:	4b57      	ldr	r3, [pc, #348]	; (406e5c <WriteMbusRegs+0x278>)
  406cfe:	4798      	blx	r3
  406d00:	e093      	b.n	406e2a <WriteMbusRegs+0x246>
  406d02:	78fb      	ldrb	r3, [r7, #3]
  406d04:	005b      	lsls	r3, r3, #1
  406d06:	687a      	ldr	r2, [r7, #4]
  406d08:	4413      	add	r3, r2
  406d0a:	881b      	ldrh	r3, [r3, #0]
  406d0c:	b2db      	uxtb	r3, r3
  406d0e:	4619      	mov	r1, r3
  406d10:	484d      	ldr	r0, [pc, #308]	; (406e48 <WriteMbusRegs+0x264>)
  406d12:	4b53      	ldr	r3, [pc, #332]	; (406e60 <WriteMbusRegs+0x27c>)
  406d14:	4798      	blx	r3
  406d16:	e088      	b.n	406e2a <WriteMbusRegs+0x246>
  406d18:	78fb      	ldrb	r3, [r7, #3]
  406d1a:	005b      	lsls	r3, r3, #1
  406d1c:	687a      	ldr	r2, [r7, #4]
  406d1e:	4413      	add	r3, r2
  406d20:	881b      	ldrh	r3, [r3, #0]
  406d22:	b2db      	uxtb	r3, r3
  406d24:	4619      	mov	r1, r3
  406d26:	4848      	ldr	r0, [pc, #288]	; (406e48 <WriteMbusRegs+0x264>)
  406d28:	4b4e      	ldr	r3, [pc, #312]	; (406e64 <WriteMbusRegs+0x280>)
  406d2a:	4798      	blx	r3
  406d2c:	e07d      	b.n	406e2a <WriteMbusRegs+0x246>
  406d2e:	4b4e      	ldr	r3, [pc, #312]	; (406e68 <WriteMbusRegs+0x284>)
  406d30:	60fb      	str	r3, [r7, #12]
  406d32:	68fb      	ldr	r3, [r7, #12]
  406d34:	3302      	adds	r3, #2
  406d36:	4a4d      	ldr	r2, [pc, #308]	; (406e6c <WriteMbusRegs+0x288>)
  406d38:	8a52      	ldrh	r2, [r2, #18]
  406d3a:	801a      	strh	r2, [r3, #0]
  406d3c:	4b4b      	ldr	r3, [pc, #300]	; (406e6c <WriteMbusRegs+0x288>)
  406d3e:	8a1a      	ldrh	r2, [r3, #16]
  406d40:	68fb      	ldr	r3, [r7, #12]
  406d42:	801a      	strh	r2, [r3, #0]
  406d44:	2304      	movs	r3, #4
  406d46:	4a4a      	ldr	r2, [pc, #296]	; (406e70 <WriteMbusRegs+0x28c>)
  406d48:	494a      	ldr	r1, [pc, #296]	; (406e74 <WriteMbusRegs+0x290>)
  406d4a:	2000      	movs	r0, #0
  406d4c:	4c4a      	ldr	r4, [pc, #296]	; (406e78 <WriteMbusRegs+0x294>)
  406d4e:	47a0      	blx	r4
  406d50:	e06b      	b.n	406e2a <WriteMbusRegs+0x246>
  406d52:	4b4a      	ldr	r3, [pc, #296]	; (406e7c <WriteMbusRegs+0x298>)
  406d54:	60fb      	str	r3, [r7, #12]
  406d56:	68fb      	ldr	r3, [r7, #12]
  406d58:	3302      	adds	r3, #2
  406d5a:	4a44      	ldr	r2, [pc, #272]	; (406e6c <WriteMbusRegs+0x288>)
  406d5c:	8ad2      	ldrh	r2, [r2, #22]
  406d5e:	801a      	strh	r2, [r3, #0]
  406d60:	4b42      	ldr	r3, [pc, #264]	; (406e6c <WriteMbusRegs+0x288>)
  406d62:	8a9a      	ldrh	r2, [r3, #20]
  406d64:	68fb      	ldr	r3, [r7, #12]
  406d66:	801a      	strh	r2, [r3, #0]
  406d68:	2304      	movs	r3, #4
  406d6a:	4a45      	ldr	r2, [pc, #276]	; (406e80 <WriteMbusRegs+0x29c>)
  406d6c:	4945      	ldr	r1, [pc, #276]	; (406e84 <WriteMbusRegs+0x2a0>)
  406d6e:	2000      	movs	r0, #0
  406d70:	4c41      	ldr	r4, [pc, #260]	; (406e78 <WriteMbusRegs+0x294>)
  406d72:	47a0      	blx	r4
  406d74:	e059      	b.n	406e2a <WriteMbusRegs+0x246>
  406d76:	4b44      	ldr	r3, [pc, #272]	; (406e88 <WriteMbusRegs+0x2a4>)
  406d78:	60fb      	str	r3, [r7, #12]
  406d7a:	68fb      	ldr	r3, [r7, #12]
  406d7c:	3302      	adds	r3, #2
  406d7e:	4a3b      	ldr	r2, [pc, #236]	; (406e6c <WriteMbusRegs+0x288>)
  406d80:	8b52      	ldrh	r2, [r2, #26]
  406d82:	801a      	strh	r2, [r3, #0]
  406d84:	4b39      	ldr	r3, [pc, #228]	; (406e6c <WriteMbusRegs+0x288>)
  406d86:	8b1a      	ldrh	r2, [r3, #24]
  406d88:	68fb      	ldr	r3, [r7, #12]
  406d8a:	801a      	strh	r2, [r3, #0]
  406d8c:	2304      	movs	r3, #4
  406d8e:	4a3f      	ldr	r2, [pc, #252]	; (406e8c <WriteMbusRegs+0x2a8>)
  406d90:	493f      	ldr	r1, [pc, #252]	; (406e90 <WriteMbusRegs+0x2ac>)
  406d92:	2000      	movs	r0, #0
  406d94:	4c38      	ldr	r4, [pc, #224]	; (406e78 <WriteMbusRegs+0x294>)
  406d96:	47a0      	blx	r4
  406d98:	e047      	b.n	406e2a <WriteMbusRegs+0x246>
  406d9a:	4b3e      	ldr	r3, [pc, #248]	; (406e94 <WriteMbusRegs+0x2b0>)
  406d9c:	60fb      	str	r3, [r7, #12]
  406d9e:	68fb      	ldr	r3, [r7, #12]
  406da0:	3302      	adds	r3, #2
  406da2:	4a32      	ldr	r2, [pc, #200]	; (406e6c <WriteMbusRegs+0x288>)
  406da4:	8cd2      	ldrh	r2, [r2, #38]	; 0x26
  406da6:	801a      	strh	r2, [r3, #0]
  406da8:	4b30      	ldr	r3, [pc, #192]	; (406e6c <WriteMbusRegs+0x288>)
  406daa:	8c9a      	ldrh	r2, [r3, #36]	; 0x24
  406dac:	68fb      	ldr	r3, [r7, #12]
  406dae:	801a      	strh	r2, [r3, #0]
  406db0:	2304      	movs	r3, #4
  406db2:	4a39      	ldr	r2, [pc, #228]	; (406e98 <WriteMbusRegs+0x2b4>)
  406db4:	4939      	ldr	r1, [pc, #228]	; (406e9c <WriteMbusRegs+0x2b8>)
  406db6:	2000      	movs	r0, #0
  406db8:	4c2f      	ldr	r4, [pc, #188]	; (406e78 <WriteMbusRegs+0x294>)
  406dba:	47a0      	blx	r4
  406dbc:	e035      	b.n	406e2a <WriteMbusRegs+0x246>
  406dbe:	4b38      	ldr	r3, [pc, #224]	; (406ea0 <WriteMbusRegs+0x2bc>)
  406dc0:	60fb      	str	r3, [r7, #12]
  406dc2:	68fb      	ldr	r3, [r7, #12]
  406dc4:	3302      	adds	r3, #2
  406dc6:	4a29      	ldr	r2, [pc, #164]	; (406e6c <WriteMbusRegs+0x288>)
  406dc8:	f8b2 2042 	ldrh.w	r2, [r2, #66]	; 0x42
  406dcc:	801a      	strh	r2, [r3, #0]
  406dce:	4b27      	ldr	r3, [pc, #156]	; (406e6c <WriteMbusRegs+0x288>)
  406dd0:	f8b3 2040 	ldrh.w	r2, [r3, #64]	; 0x40
  406dd4:	68fb      	ldr	r3, [r7, #12]
  406dd6:	801a      	strh	r2, [r3, #0]
  406dd8:	2304      	movs	r3, #4
  406dda:	4a32      	ldr	r2, [pc, #200]	; (406ea4 <WriteMbusRegs+0x2c0>)
  406ddc:	4932      	ldr	r1, [pc, #200]	; (406ea8 <WriteMbusRegs+0x2c4>)
  406dde:	2000      	movs	r0, #0
  406de0:	4c25      	ldr	r4, [pc, #148]	; (406e78 <WriteMbusRegs+0x294>)
  406de2:	47a0      	blx	r4
  406de4:	e021      	b.n	406e2a <WriteMbusRegs+0x246>
  406de6:	4b31      	ldr	r3, [pc, #196]	; (406eac <WriteMbusRegs+0x2c8>)
  406de8:	60fb      	str	r3, [r7, #12]
  406dea:	68fb      	ldr	r3, [r7, #12]
  406dec:	3302      	adds	r3, #2
  406dee:	4a1f      	ldr	r2, [pc, #124]	; (406e6c <WriteMbusRegs+0x288>)
  406df0:	f8b2 2046 	ldrh.w	r2, [r2, #70]	; 0x46
  406df4:	801a      	strh	r2, [r3, #0]
  406df6:	4b1d      	ldr	r3, [pc, #116]	; (406e6c <WriteMbusRegs+0x288>)
  406df8:	f8b3 2044 	ldrh.w	r2, [r3, #68]	; 0x44
  406dfc:	68fb      	ldr	r3, [r7, #12]
  406dfe:	801a      	strh	r2, [r3, #0]
  406e00:	2304      	movs	r3, #4
  406e02:	4a2b      	ldr	r2, [pc, #172]	; (406eb0 <WriteMbusRegs+0x2cc>)
  406e04:	492b      	ldr	r1, [pc, #172]	; (406eb4 <WriteMbusRegs+0x2d0>)
  406e06:	2000      	movs	r0, #0
  406e08:	4c1b      	ldr	r4, [pc, #108]	; (406e78 <WriteMbusRegs+0x294>)
  406e0a:	47a0      	blx	r4
  406e0c:	e00d      	b.n	406e2a <WriteMbusRegs+0x246>
  406e0e:	4b17      	ldr	r3, [pc, #92]	; (406e6c <WriteMbusRegs+0x288>)
  406e10:	2200      	movs	r2, #0
  406e12:	869a      	strh	r2, [r3, #52]	; 0x34
  406e14:	4b28      	ldr	r3, [pc, #160]	; (406eb8 <WriteMbusRegs+0x2d4>)
  406e16:	2200      	movs	r2, #0
  406e18:	701a      	strb	r2, [r3, #0]
  406e1a:	2020      	movs	r0, #32
  406e1c:	4b27      	ldr	r3, [pc, #156]	; (406ebc <WriteMbusRegs+0x2d8>)
  406e1e:	4798      	blx	r3
  406e20:	2021      	movs	r0, #33	; 0x21
  406e22:	4b26      	ldr	r3, [pc, #152]	; (406ebc <WriteMbusRegs+0x2d8>)
  406e24:	4798      	blx	r3
  406e26:	e000      	b.n	406e2a <WriteMbusRegs+0x246>
  406e28:	bf00      	nop
  406e2a:	78fb      	ldrb	r3, [r7, #3]
  406e2c:	3301      	adds	r3, #1
  406e2e:	70fb      	strb	r3, [r7, #3]
  406e30:	78bb      	ldrb	r3, [r7, #2]
  406e32:	3b01      	subs	r3, #1
  406e34:	70bb      	strb	r3, [r7, #2]
  406e36:	78bb      	ldrb	r3, [r7, #2]
  406e38:	2b00      	cmp	r3, #0
  406e3a:	f47f aedc 	bne.w	406bf6 <WriteMbusRegs+0x12>
  406e3e:	bf00      	nop
  406e40:	3714      	adds	r7, #20
  406e42:	46bd      	mov	sp, r7
  406e44:	bd90      	pop	{r4, r7, pc}
  406e46:	bf00      	nop
  406e48:	40018000 	.word	0x40018000
  406e4c:	00400505 	.word	0x00400505
  406e50:	00400529 	.word	0x00400529
  406e54:	0040054d 	.word	0x0040054d
  406e58:	004005d1 	.word	0x004005d1
  406e5c:	004005f5 	.word	0x004005f5
  406e60:	00400619 	.word	0x00400619
  406e64:	0040063d 	.word	0x0040063d
  406e68:	200000fc 	.word	0x200000fc
  406e6c:	2000077c 	.word	0x2000077c
  406e70:	2000078c 	.word	0x2000078c
  406e74:	0043fc00 	.word	0x0043fc00
  406e78:	00400129 	.word	0x00400129
  406e7c:	20000100 	.word	0x20000100
  406e80:	20000790 	.word	0x20000790
  406e84:	0043fc04 	.word	0x0043fc04
  406e88:	20000104 	.word	0x20000104
  406e8c:	20000794 	.word	0x20000794
  406e90:	0043fc08 	.word	0x0043fc08
  406e94:	20000110 	.word	0x20000110
  406e98:	200007a0 	.word	0x200007a0
  406e9c:	0043fc16 	.word	0x0043fc16
  406ea0:	20000108 	.word	0x20000108
  406ea4:	200007bc 	.word	0x200007bc
  406ea8:	0043fc0e 	.word	0x0043fc0e
  406eac:	2000010c 	.word	0x2000010c
  406eb0:	200007c0 	.word	0x200007c0
  406eb4:	0043fc12 	.word	0x0043fc12
  406eb8:	200007c5 	.word	0x200007c5
  406ebc:	00403da1 	.word	0x00403da1

00406ec0 <SendRespPkt>:
  406ec0:	b580      	push	{r7, lr}
  406ec2:	b082      	sub	sp, #8
  406ec4:	af00      	add	r7, sp, #0
  406ec6:	6078      	str	r0, [r7, #4]
  406ec8:	460b      	mov	r3, r1
  406eca:	70fb      	strb	r3, [r7, #3]
  406ecc:	480c      	ldr	r0, [pc, #48]	; (406f00 <SendRespPkt+0x40>)
  406ece:	4b0d      	ldr	r3, [pc, #52]	; (406f04 <SendRespPkt+0x44>)
  406ed0:	4798      	blx	r3
  406ed2:	687b      	ldr	r3, [r7, #4]
  406ed4:	78fa      	ldrb	r2, [r7, #3]
  406ed6:	b292      	uxth	r2, r2
  406ed8:	4611      	mov	r1, r2
  406eda:	4618      	mov	r0, r3
  406edc:	4b0a      	ldr	r3, [pc, #40]	; (406f08 <SendRespPkt+0x48>)
  406ede:	4798      	blx	r3
  406ee0:	e002      	b.n	406ee8 <SendRespPkt+0x28>
  406ee2:	200a      	movs	r0, #10
  406ee4:	4b09      	ldr	r3, [pc, #36]	; (406f0c <SendRespPkt+0x4c>)
  406ee6:	4798      	blx	r3
  406ee8:	4b09      	ldr	r3, [pc, #36]	; (406f10 <SendRespPkt+0x50>)
  406eea:	4798      	blx	r3
  406eec:	4603      	mov	r3, r0
  406eee:	2b00      	cmp	r3, #0
  406ef0:	d0f7      	beq.n	406ee2 <SendRespPkt+0x22>
  406ef2:	4803      	ldr	r0, [pc, #12]	; (406f00 <SendRespPkt+0x40>)
  406ef4:	4b07      	ldr	r3, [pc, #28]	; (406f14 <SendRespPkt+0x54>)
  406ef6:	4798      	blx	r3
  406ef8:	bf00      	nop
  406efa:	3708      	adds	r7, #8
  406efc:	46bd      	mov	sp, r7
  406efe:	bd80      	pop	{r7, pc}
  406f00:	40024000 	.word	0x40024000
  406f04:	00403419 	.word	0x00403419
  406f08:	0040264d 	.word	0x0040264d
  406f0c:	004059dd 	.word	0x004059dd
  406f10:	004026fd 	.word	0x004026fd
  406f14:	00403431 	.word	0x00403431

00406f18 <osc_get_rate>:

	return 0;
}

static inline uint32_t osc_get_rate(uint32_t ul_id)
{
  406f18:	b480      	push	{r7}
  406f1a:	b083      	sub	sp, #12
  406f1c:	af00      	add	r7, sp, #0
  406f1e:	6078      	str	r0, [r7, #4]
	switch (ul_id) {
  406f20:	687b      	ldr	r3, [r7, #4]
  406f22:	2b07      	cmp	r3, #7
  406f24:	d825      	bhi.n	406f72 <osc_get_rate+0x5a>
  406f26:	a201      	add	r2, pc, #4	; (adr r2, 406f2c <osc_get_rate+0x14>)
  406f28:	f852 f023 	ldr.w	pc, [r2, r3, lsl #2]
  406f2c:	00406f4d 	.word	0x00406f4d
  406f30:	00406f53 	.word	0x00406f53
  406f34:	00406f59 	.word	0x00406f59
  406f38:	00406f5f 	.word	0x00406f5f
  406f3c:	00406f63 	.word	0x00406f63
  406f40:	00406f67 	.word	0x00406f67
  406f44:	00406f6b 	.word	0x00406f6b
  406f48:	00406f6f 	.word	0x00406f6f
	case OSC_SLCK_32K_RC:
		return OSC_SLCK_32K_RC_HZ;
  406f4c:	f44f 43fa 	mov.w	r3, #32000	; 0x7d00
  406f50:	e010      	b.n	406f74 <osc_get_rate+0x5c>

	case OSC_SLCK_32K_XTAL:
		return BOARD_FREQ_SLCK_XTAL;
  406f52:	f44f 4300 	mov.w	r3, #32768	; 0x8000
  406f56:	e00d      	b.n	406f74 <osc_get_rate+0x5c>

	case OSC_SLCK_32K_BYPASS:
		return BOARD_FREQ_SLCK_BYPASS;
  406f58:	f44f 4300 	mov.w	r3, #32768	; 0x8000
  406f5c:	e00a      	b.n	406f74 <osc_get_rate+0x5c>

	case OSC_MAINCK_4M_RC:
		return OSC_MAINCK_4M_RC_HZ;
  406f5e:	4b08      	ldr	r3, [pc, #32]	; (406f80 <osc_get_rate+0x68>)
  406f60:	e008      	b.n	406f74 <osc_get_rate+0x5c>

	case OSC_MAINCK_8M_RC:
		return OSC_MAINCK_8M_RC_HZ;
  406f62:	4b08      	ldr	r3, [pc, #32]	; (406f84 <osc_get_rate+0x6c>)
  406f64:	e006      	b.n	406f74 <osc_get_rate+0x5c>

	case OSC_MAINCK_12M_RC:
		return OSC_MAINCK_12M_RC_HZ;
  406f66:	4b08      	ldr	r3, [pc, #32]	; (406f88 <osc_get_rate+0x70>)
  406f68:	e004      	b.n	406f74 <osc_get_rate+0x5c>

	case OSC_MAINCK_XTAL:
		return BOARD_FREQ_MAINCK_XTAL;
  406f6a:	4b07      	ldr	r3, [pc, #28]	; (406f88 <osc_get_rate+0x70>)
  406f6c:	e002      	b.n	406f74 <osc_get_rate+0x5c>

	case OSC_MAINCK_BYPASS:
		return BOARD_FREQ_MAINCK_BYPASS;
  406f6e:	4b06      	ldr	r3, [pc, #24]	; (406f88 <osc_get_rate+0x70>)
  406f70:	e000      	b.n	406f74 <osc_get_rate+0x5c>
	}

	return 0;
  406f72:	2300      	movs	r3, #0
}
  406f74:	4618      	mov	r0, r3
  406f76:	370c      	adds	r7, #12
  406f78:	46bd      	mov	sp, r7
  406f7a:	bc80      	pop	{r7}
  406f7c:	4770      	bx	lr
  406f7e:	bf00      	nop
  406f80:	003d0900 	.word	0x003d0900
  406f84:	007a1200 	.word	0x007a1200
  406f88:	00b71b00 	.word	0x00b71b00

00406f8c <sysclk_get_main_hz>:
 */
#if (defined CONFIG_SYSCLK_DEFAULT_RETURNS_SLOW_OSC)
extern uint32_t sysclk_initialized;
#endif
static inline uint32_t sysclk_get_main_hz(void)
{
  406f8c:	b580      	push	{r7, lr}
  406f8e:	af00      	add	r7, sp, #0
	} else if (CONFIG_SYSCLK_SOURCE == SYSCLK_SRC_MAINCK_BYPASS) {
		return OSC_MAINCK_BYPASS_HZ;
	}
#ifdef CONFIG_PLL0_SOURCE
	else if (CONFIG_SYSCLK_SOURCE == SYSCLK_SRC_PLLACK) {
		return pll_get_default_rate(0);
  406f90:	2006      	movs	r0, #6
  406f92:	4b04      	ldr	r3, [pc, #16]	; (406fa4 <sysclk_get_main_hz+0x18>)
  406f94:	4798      	blx	r3
  406f96:	4602      	mov	r2, r0
  406f98:	4613      	mov	r3, r2
  406f9a:	009b      	lsls	r3, r3, #2
  406f9c:	4413      	add	r3, r2
  406f9e:	009b      	lsls	r3, r3, #2

	else {
		/* unhandled_case(CONFIG_SYSCLK_SOURCE); */
		return 0;
	}
}
  406fa0:	4618      	mov	r0, r3
  406fa2:	bd80      	pop	{r7, pc}
  406fa4:	00406f19 	.word	0x00406f19

00406fa8 <sysclk_get_cpu_hz>:
 * clocks.
 *
 * \return Frequency of the CPU clock, in Hz.
 */
static inline uint32_t sysclk_get_cpu_hz(void)
{
  406fa8:	b580      	push	{r7, lr}
  406faa:	af00      	add	r7, sp, #0
	/* CONFIG_SYSCLK_PRES is the register value for setting the expected */
	/* prescaler, not an immediate value. */
	return sysclk_get_main_hz() /
  406fac:	4b02      	ldr	r3, [pc, #8]	; (406fb8 <sysclk_get_cpu_hz+0x10>)
  406fae:	4798      	blx	r3
  406fb0:	4603      	mov	r3, r0
  406fb2:	085b      	lsrs	r3, r3, #1
		((CONFIG_SYSCLK_PRES == SYSCLK_PRES_3) ? 3 :
			(1 << (CONFIG_SYSCLK_PRES >> PMC_MCKR_PRES_Pos)));
}
  406fb4:	4618      	mov	r0, r3
  406fb6:	bd80      	pop	{r7, pc}
  406fb8:	00406f8d 	.word	0x00406f8d

00406fbc <main>:
	Code untested. 

*/

int main (void)
{
  406fbc:	b590      	push	{r4, r7, lr}
  406fbe:	b085      	sub	sp, #20
  406fc0:	af04      	add	r7, sp, #16
	/* Insert system clock initialization code here (sysclk_init()). */
	sysclk_init();
  406fc2:	4b1a      	ldr	r3, [pc, #104]	; (40702c <main+0x70>)
  406fc4:	4798      	blx	r3

	/* Initialize all peripherals */
	board_init();
  406fc6:	4b1a      	ldr	r3, [pc, #104]	; (407030 <main+0x74>)
  406fc8:	4798      	blx	r3
	delay_init(sysclk_get_cpu_hz());

	vInitPeripherals();
  406fca:	4b1a      	ldr	r3, [pc, #104]	; (407034 <main+0x78>)
  406fcc:	4798      	blx	r3
	
    /* Enable global interrupts. */   
    
//     xTaskCreate(vCCTask, "Cc", 100, NULL, 2, NULL);
    xTaskCreate(vPvTrackerTask, (const signed char *)"Pv", 300, NULL, 1, NULL);
  406fce:	2300      	movs	r3, #0
  406fd0:	9303      	str	r3, [sp, #12]
  406fd2:	2300      	movs	r3, #0
  406fd4:	9302      	str	r3, [sp, #8]
  406fd6:	2300      	movs	r3, #0
  406fd8:	9301      	str	r3, [sp, #4]
  406fda:	2301      	movs	r3, #1
  406fdc:	9300      	str	r3, [sp, #0]
  406fde:	2300      	movs	r3, #0
  406fe0:	f44f 7296 	mov.w	r2, #300	; 0x12c
  406fe4:	4914      	ldr	r1, [pc, #80]	; (407038 <main+0x7c>)
  406fe6:	4815      	ldr	r0, [pc, #84]	; (40703c <main+0x80>)
  406fe8:	4c15      	ldr	r4, [pc, #84]	; (407040 <main+0x84>)
  406fea:	47a0      	blx	r4
    xTaskCreate(vCommTask, (const signed char *)"Comm", 512, NULL, 1, NULL);
  406fec:	2300      	movs	r3, #0
  406fee:	9303      	str	r3, [sp, #12]
  406ff0:	2300      	movs	r3, #0
  406ff2:	9302      	str	r3, [sp, #8]
  406ff4:	2300      	movs	r3, #0
  406ff6:	9301      	str	r3, [sp, #4]
  406ff8:	2301      	movs	r3, #1
  406ffa:	9300      	str	r3, [sp, #0]
  406ffc:	2300      	movs	r3, #0
  406ffe:	f44f 7200 	mov.w	r2, #512	; 0x200
  407002:	4910      	ldr	r1, [pc, #64]	; (407044 <main+0x88>)
  407004:	4810      	ldr	r0, [pc, #64]	; (407048 <main+0x8c>)
  407006:	4c0e      	ldr	r4, [pc, #56]	; (407040 <main+0x84>)
  407008:	47a0      	blx	r4
	xTaskCreate(vBlinkTask, (const signed char *)"Blinky", 100, NULL, 1, NULL);
  40700a:	2300      	movs	r3, #0
  40700c:	9303      	str	r3, [sp, #12]
  40700e:	2300      	movs	r3, #0
  407010:	9302      	str	r3, [sp, #8]
  407012:	2300      	movs	r3, #0
  407014:	9301      	str	r3, [sp, #4]
  407016:	2301      	movs	r3, #1
  407018:	9300      	str	r3, [sp, #0]
  40701a:	2300      	movs	r3, #0
  40701c:	2264      	movs	r2, #100	; 0x64
  40701e:	490b      	ldr	r1, [pc, #44]	; (40704c <main+0x90>)
  407020:	480b      	ldr	r0, [pc, #44]	; (407050 <main+0x94>)
  407022:	4c07      	ldr	r4, [pc, #28]	; (407040 <main+0x84>)
  407024:	47a0      	blx	r4
    
    /* Start Watchdog Timer */
        
    vTaskStartScheduler();
  407026:	4b0b      	ldr	r3, [pc, #44]	; (407054 <main+0x98>)
  407028:	4798      	blx	r3
    
	for( ;; );
  40702a:	e7fe      	b.n	40702a <main+0x6e>
  40702c:	00403a0d 	.word	0x00403a0d
  407030:	0040364d 	.word	0x0040364d
  407034:	00407069 	.word	0x00407069
  407038:	0040b128 	.word	0x0040b128
  40703c:	00400f05 	.word	0x00400f05
  407040:	00405825 	.word	0x00405825
  407044:	0040b12c 	.word	0x0040b12c
  407048:	00406a75 	.word	0x00406a75
  40704c:	0040b134 	.word	0x0040b134
  407050:	004071a5 	.word	0x004071a5
  407054:	00405a45 	.word	0x00405a45

00407058 <vApplicationMallocFailedHook>:
// 	taskDISABLE_INTERRUPTS();
// 	for( ;; );
// }
// 
void vApplicationMallocFailedHook( void )
{
  407058:	b580      	push	{r7, lr}
  40705a:	af00      	add	r7, sp, #0
	/* The heap space has been execeeded. */
	taskDISABLE_INTERRUPTS();
  40705c:	4b01      	ldr	r3, [pc, #4]	; (407064 <vApplicationMallocFailedHook+0xc>)
  40705e:	4798      	blx	r3
	for( ;; );
  407060:	e7fe      	b.n	407060 <vApplicationMallocFailedHook+0x8>
  407062:	bf00      	nop
  407064:	00404ced 	.word	0x00404ced

00407068 <vInitPeripherals>:
}

void vInitPeripherals( void )
{
  407068:	e92d 4ff0 	stmdb	sp!, {r4, r5, r6, r7, r8, r9, sl, fp, lr}
  40706c:	b087      	sub	sp, #28
  40706e:	af00      	add	r7, sp, #0
	#if defined(DEBUG_EN) || defined(LOG_EN)
		Debug_Start();
	#endif
	
	gpio_set_pin_low(PIN_LDOEN_IDX);
  407070:	2001      	movs	r0, #1
  407072:	4b45      	ldr	r3, [pc, #276]	; (407188 <vInitPeripherals+0x120>)
  407074:	4798      	blx	r3
	delay_ms(500);
  407076:	4b45      	ldr	r3, [pc, #276]	; (40718c <vInitPeripherals+0x124>)
  407078:	4798      	blx	r3
  40707a:	4603      	mov	r3, r0
  40707c:	4619      	mov	r1, r3
  40707e:	f04f 0200 	mov.w	r2, #0
  407082:	460b      	mov	r3, r1
  407084:	4614      	mov	r4, r2
  407086:	ea4f 0b84 	mov.w	fp, r4, lsl #2
  40708a:	ea4b 7b93 	orr.w	fp, fp, r3, lsr #30
  40708e:	ea4f 0a83 	mov.w	sl, r3, lsl #2
  407092:	4653      	mov	r3, sl
  407094:	465c      	mov	r4, fp
  407096:	ea4f 1944 	mov.w	r9, r4, lsl #5
  40709a:	ea49 69d3 	orr.w	r9, r9, r3, lsr #27
  40709e:	ea4f 1843 	mov.w	r8, r3, lsl #5
  4070a2:	ebb8 0803 	subs.w	r8, r8, r3
  4070a6:	eb69 0904 	sbc.w	r9, r9, r4
  4070aa:	eb18 0801 	adds.w	r8, r8, r1
  4070ae:	eb49 0902 	adc.w	r9, r9, r2
  4070b2:	ea4f 0389 	mov.w	r3, r9, lsl #2
  4070b6:	617b      	str	r3, [r7, #20]
  4070b8:	697b      	ldr	r3, [r7, #20]
  4070ba:	ea43 7398 	orr.w	r3, r3, r8, lsr #30
  4070be:	617b      	str	r3, [r7, #20]
  4070c0:	ea4f 0388 	mov.w	r3, r8, lsl #2
  4070c4:	613b      	str	r3, [r7, #16]
  4070c6:	e9d7 8904 	ldrd	r8, r9, [r7, #16]
  4070ca:	4641      	mov	r1, r8
  4070cc:	464a      	mov	r2, r9
  4070ce:	f243 63af 	movw	r3, #13999	; 0x36af
  4070d2:	f04f 0400 	mov.w	r4, #0
  4070d6:	eb11 0803 	adds.w	r8, r1, r3
  4070da:	eb42 0904 	adc.w	r9, r2, r4
  4070de:	4640      	mov	r0, r8
  4070e0:	4649      	mov	r1, r9
  4070e2:	4c2b      	ldr	r4, [pc, #172]	; (407190 <vInitPeripherals+0x128>)
  4070e4:	f243 62b0 	movw	r2, #14000	; 0x36b0
  4070e8:	f04f 0300 	mov.w	r3, #0
  4070ec:	47a0      	blx	r4
  4070ee:	4603      	mov	r3, r0
  4070f0:	460c      	mov	r4, r1
  4070f2:	4618      	mov	r0, r3
  4070f4:	4b27      	ldr	r3, [pc, #156]	; (407194 <vInitPeripherals+0x12c>)
  4070f6:	4798      	blx	r3
	/* Enable LDO */
	gpio_set_pin_high(PIN_LDOEN_IDX);
  4070f8:	2001      	movs	r0, #1
  4070fa:	4b27      	ldr	r3, [pc, #156]	; (407198 <vInitPeripherals+0x130>)
  4070fc:	4798      	blx	r3
	delay_ms(1000);
  4070fe:	4b23      	ldr	r3, [pc, #140]	; (40718c <vInitPeripherals+0x124>)
  407100:	4798      	blx	r3
  407102:	4603      	mov	r3, r0
  407104:	4619      	mov	r1, r3
  407106:	f04f 0200 	mov.w	r2, #0
  40710a:	460b      	mov	r3, r1
  40710c:	4614      	mov	r4, r2
  40710e:	00a0      	lsls	r0, r4, #2
  407110:	60f8      	str	r0, [r7, #12]
  407112:	68f8      	ldr	r0, [r7, #12]
  407114:	ea40 7093 	orr.w	r0, r0, r3, lsr #30
  407118:	60f8      	str	r0, [r7, #12]
  40711a:	009b      	lsls	r3, r3, #2
  40711c:	60bb      	str	r3, [r7, #8]
  40711e:	e9d7 3402 	ldrd	r3, r4, [r7, #8]
  407122:	0166      	lsls	r6, r4, #5
  407124:	ea46 66d3 	orr.w	r6, r6, r3, lsr #27
  407128:	015d      	lsls	r5, r3, #5
  40712a:	1aed      	subs	r5, r5, r3
  40712c:	eb66 0604 	sbc.w	r6, r6, r4
  407130:	186d      	adds	r5, r5, r1
  407132:	eb46 0602 	adc.w	r6, r6, r2
  407136:	00f3      	lsls	r3, r6, #3
  407138:	607b      	str	r3, [r7, #4]
  40713a:	687b      	ldr	r3, [r7, #4]
  40713c:	ea43 7355 	orr.w	r3, r3, r5, lsr #29
  407140:	607b      	str	r3, [r7, #4]
  407142:	00eb      	lsls	r3, r5, #3
  407144:	603b      	str	r3, [r7, #0]
  407146:	e9d7 5600 	ldrd	r5, r6, [r7]
  40714a:	4629      	mov	r1, r5
  40714c:	4632      	mov	r2, r6
  40714e:	f243 63af 	movw	r3, #13999	; 0x36af
  407152:	f04f 0400 	mov.w	r4, #0
  407156:	18cd      	adds	r5, r1, r3
  407158:	eb42 0604 	adc.w	r6, r2, r4
  40715c:	4628      	mov	r0, r5
  40715e:	4631      	mov	r1, r6
  407160:	4c0b      	ldr	r4, [pc, #44]	; (407190 <vInitPeripherals+0x128>)
  407162:	f243 62b0 	movw	r2, #14000	; 0x36b0
  407166:	f04f 0300 	mov.w	r3, #0
  40716a:	47a0      	blx	r4
  40716c:	4603      	mov	r3, r0
  40716e:	460c      	mov	r4, r1
  407170:	4618      	mov	r0, r3
  407172:	4b08      	ldr	r3, [pc, #32]	; (407194 <vInitPeripherals+0x12c>)
  407174:	4798      	blx	r3

	/* Initialize all RTOS vars */
	//vCCInit();
	vPvTrackerInit();
  407176:	4b09      	ldr	r3, [pc, #36]	; (40719c <vInitPeripherals+0x134>)
  407178:	4798      	blx	r3
	vCommInit();
  40717a:	4b09      	ldr	r3, [pc, #36]	; (4071a0 <vInitPeripherals+0x138>)
  40717c:	4798      	blx	r3
}
  40717e:	bf00      	nop
  407180:	371c      	adds	r7, #28
  407182:	46bd      	mov	sp, r7
  407184:	e8bd 8ff0 	ldmia.w	sp!, {r4, r5, r6, r7, r8, r9, sl, fp, pc}
  407188:	00403da1 	.word	0x00403da1
  40718c:	00406fa9 	.word	0x00406fa9
  407190:	0040aa29 	.word	0x0040aa29
  407194:	200000f1 	.word	0x200000f1
  407198:	00403d71 	.word	0x00403d71
  40719c:	00400f95 	.word	0x00400f95
  4071a0:	00406bd5 	.word	0x00406bd5

004071a4 <vBlinkTask>:

void vBlinkTask( void *pvParameters )
{
  4071a4:	b580      	push	{r7, lr}
  4071a6:	b082      	sub	sp, #8
  4071a8:	af00      	add	r7, sp, #0
  4071aa:	6078      	str	r0, [r7, #4]
	while(1)
	{
		//gpio_set_pin_high(PIN_DEBUGLED_IDX);
		vTaskDelay(500);
  4071ac:	f44f 70fa 	mov.w	r0, #500	; 0x1f4
  4071b0:	4b03      	ldr	r3, [pc, #12]	; (4071c0 <vBlinkTask+0x1c>)
  4071b2:	4798      	blx	r3
		//gpio_set_pin_low(PIN_DEBUGLED_IDX);
		vTaskDelay(500);
  4071b4:	f44f 70fa 	mov.w	r0, #500	; 0x1f4
  4071b8:	4b01      	ldr	r3, [pc, #4]	; (4071c0 <vBlinkTask+0x1c>)
  4071ba:	4798      	blx	r3
	}
  4071bc:	e7f6      	b.n	4071ac <vBlinkTask+0x8>
  4071be:	bf00      	nop
  4071c0:	004059dd 	.word	0x004059dd

004071c4 <cos>:
  4071c4:	b530      	push	{r4, r5, lr}
  4071c6:	4a22      	ldr	r2, [pc, #136]	; (407250 <cos+0x8c>)
  4071c8:	f021 4300 	bic.w	r3, r1, #2147483648	; 0x80000000
  4071cc:	4293      	cmp	r3, r2
  4071ce:	b087      	sub	sp, #28
  4071d0:	dd1b      	ble.n	40720a <cos+0x46>
  4071d2:	4a20      	ldr	r2, [pc, #128]	; (407254 <cos+0x90>)
  4071d4:	4293      	cmp	r3, r2
  4071d6:	dd05      	ble.n	4071e4 <cos+0x20>
  4071d8:	4602      	mov	r2, r0
  4071da:	460b      	mov	r3, r1
  4071dc:	f002 fc4e 	bl	409a7c <__aeabi_dsub>
  4071e0:	b007      	add	sp, #28
  4071e2:	bd30      	pop	{r4, r5, pc}
  4071e4:	aa02      	add	r2, sp, #8
  4071e6:	f000 ff07 	bl	407ff8 <__ieee754_rem_pio2>
  4071ea:	f000 0303 	and.w	r3, r0, #3
  4071ee:	2b01      	cmp	r3, #1
  4071f0:	d01a      	beq.n	407228 <cos+0x64>
  4071f2:	2b02      	cmp	r3, #2
  4071f4:	d00f      	beq.n	407216 <cos+0x52>
  4071f6:	b31b      	cbz	r3, 407240 <cos+0x7c>
  4071f8:	2401      	movs	r4, #1
  4071fa:	e9dd 2304 	ldrd	r2, r3, [sp, #16]
  4071fe:	e9dd 0102 	ldrd	r0, r1, [sp, #8]
  407202:	9400      	str	r4, [sp, #0]
  407204:	f001 fefc 	bl	409000 <__kernel_sin>
  407208:	e7ea      	b.n	4071e0 <cos+0x1c>
  40720a:	2200      	movs	r2, #0
  40720c:	2300      	movs	r3, #0
  40720e:	f001 f9d7 	bl	4085c0 <__kernel_cos>
  407212:	b007      	add	sp, #28
  407214:	bd30      	pop	{r4, r5, pc}
  407216:	e9dd 2304 	ldrd	r2, r3, [sp, #16]
  40721a:	e9dd 0102 	ldrd	r0, r1, [sp, #8]
  40721e:	f001 f9cf 	bl	4085c0 <__kernel_cos>
  407222:	f101 4100 	add.w	r1, r1, #2147483648	; 0x80000000
  407226:	e7db      	b.n	4071e0 <cos+0x1c>
  407228:	e9dd 4504 	ldrd	r4, r5, [sp, #16]
  40722c:	9300      	str	r3, [sp, #0]
  40722e:	e9dd 0102 	ldrd	r0, r1, [sp, #8]
  407232:	4622      	mov	r2, r4
  407234:	462b      	mov	r3, r5
  407236:	f001 fee3 	bl	409000 <__kernel_sin>
  40723a:	f101 4100 	add.w	r1, r1, #2147483648	; 0x80000000
  40723e:	e7cf      	b.n	4071e0 <cos+0x1c>
  407240:	e9dd 2304 	ldrd	r2, r3, [sp, #16]
  407244:	e9dd 0102 	ldrd	r0, r1, [sp, #8]
  407248:	f001 f9ba 	bl	4085c0 <__kernel_cos>
  40724c:	e7c8      	b.n	4071e0 <cos+0x1c>
  40724e:	bf00      	nop
  407250:	3fe921fb 	.word	0x3fe921fb
  407254:	7fefffff 	.word	0x7fefffff

00407258 <sin>:
  407258:	b530      	push	{r4, r5, lr}
  40725a:	4a1f      	ldr	r2, [pc, #124]	; (4072d8 <sin+0x80>)
  40725c:	f021 4300 	bic.w	r3, r1, #2147483648	; 0x80000000
  407260:	4293      	cmp	r3, r2
  407262:	b087      	sub	sp, #28
  407264:	dd1b      	ble.n	40729e <sin+0x46>
  407266:	4a1d      	ldr	r2, [pc, #116]	; (4072dc <sin+0x84>)
  407268:	4293      	cmp	r3, r2
  40726a:	dd05      	ble.n	407278 <sin+0x20>
  40726c:	4602      	mov	r2, r0
  40726e:	460b      	mov	r3, r1
  407270:	f002 fc04 	bl	409a7c <__aeabi_dsub>
  407274:	b007      	add	sp, #28
  407276:	bd30      	pop	{r4, r5, pc}
  407278:	aa02      	add	r2, sp, #8
  40727a:	f000 febd 	bl	407ff8 <__ieee754_rem_pio2>
  40727e:	f000 0003 	and.w	r0, r0, #3
  407282:	2801      	cmp	r0, #1
  407284:	e9dd 2304 	ldrd	r2, r3, [sp, #16]
  407288:	d01a      	beq.n	4072c0 <sin+0x68>
  40728a:	2802      	cmp	r0, #2
  40728c:	d00f      	beq.n	4072ae <sin+0x56>
  40728e:	b1e0      	cbz	r0, 4072ca <sin+0x72>
  407290:	e9dd 0102 	ldrd	r0, r1, [sp, #8]
  407294:	f001 f994 	bl	4085c0 <__kernel_cos>
  407298:	f101 4100 	add.w	r1, r1, #2147483648	; 0x80000000
  40729c:	e7ea      	b.n	407274 <sin+0x1c>
  40729e:	2300      	movs	r3, #0
  4072a0:	9300      	str	r3, [sp, #0]
  4072a2:	2200      	movs	r2, #0
  4072a4:	2300      	movs	r3, #0
  4072a6:	f001 feab 	bl	409000 <__kernel_sin>
  4072aa:	b007      	add	sp, #28
  4072ac:	bd30      	pop	{r4, r5, pc}
  4072ae:	2401      	movs	r4, #1
  4072b0:	e9dd 0102 	ldrd	r0, r1, [sp, #8]
  4072b4:	9400      	str	r4, [sp, #0]
  4072b6:	f001 fea3 	bl	409000 <__kernel_sin>
  4072ba:	f101 4100 	add.w	r1, r1, #2147483648	; 0x80000000
  4072be:	e7d9      	b.n	407274 <sin+0x1c>
  4072c0:	e9dd 0102 	ldrd	r0, r1, [sp, #8]
  4072c4:	f001 f97c 	bl	4085c0 <__kernel_cos>
  4072c8:	e7d4      	b.n	407274 <sin+0x1c>
  4072ca:	2401      	movs	r4, #1
  4072cc:	e9dd 0102 	ldrd	r0, r1, [sp, #8]
  4072d0:	9400      	str	r4, [sp, #0]
  4072d2:	f001 fe95 	bl	409000 <__kernel_sin>
  4072d6:	e7cd      	b.n	407274 <sin+0x1c>
  4072d8:	3fe921fb 	.word	0x3fe921fb
  4072dc:	7fefffff 	.word	0x7fefffff

004072e0 <tan>:
  4072e0:	b530      	push	{r4, r5, lr}
  4072e2:	4a14      	ldr	r2, [pc, #80]	; (407334 <tan+0x54>)
  4072e4:	f021 4300 	bic.w	r3, r1, #2147483648	; 0x80000000
  4072e8:	4293      	cmp	r3, r2
  4072ea:	b087      	sub	sp, #28
  4072ec:	dd19      	ble.n	407322 <tan+0x42>
  4072ee:	4a12      	ldr	r2, [pc, #72]	; (407338 <tan+0x58>)
  4072f0:	4293      	cmp	r3, r2
  4072f2:	dd05      	ble.n	407300 <tan+0x20>
  4072f4:	4602      	mov	r2, r0
  4072f6:	460b      	mov	r3, r1
  4072f8:	f002 fbc0 	bl	409a7c <__aeabi_dsub>
  4072fc:	b007      	add	sp, #28
  4072fe:	bd30      	pop	{r4, r5, pc}
  407300:	aa02      	add	r2, sp, #8
  407302:	f000 fe79 	bl	407ff8 <__ieee754_rem_pio2>
  407306:	0044      	lsls	r4, r0, #1
  407308:	f004 0402 	and.w	r4, r4, #2
  40730c:	f1c4 0401 	rsb	r4, r4, #1
  407310:	e9dd 2304 	ldrd	r2, r3, [sp, #16]
  407314:	e9dd 0102 	ldrd	r0, r1, [sp, #8]
  407318:	9400      	str	r4, [sp, #0]
  40731a:	f001 ff29 	bl	409170 <__kernel_tan>
  40731e:	b007      	add	sp, #28
  407320:	bd30      	pop	{r4, r5, pc}
  407322:	2301      	movs	r3, #1
  407324:	9300      	str	r3, [sp, #0]
  407326:	2200      	movs	r2, #0
  407328:	2300      	movs	r3, #0
  40732a:	f001 ff21 	bl	409170 <__kernel_tan>
  40732e:	b007      	add	sp, #28
  407330:	bd30      	pop	{r4, r5, pc}
  407332:	bf00      	nop
  407334:	3fe921fb 	.word	0x3fe921fb
  407338:	7fefffff 	.word	0x7fefffff

0040733c <acos>:
  40733c:	e92d 43f0 	stmdb	sp!, {r4, r5, r6, r7, r8, r9, lr}
  407340:	f8df 80a4 	ldr.w	r8, [pc, #164]	; 4073e8 <acos+0xac>
  407344:	b08b      	sub	sp, #44	; 0x2c
  407346:	4604      	mov	r4, r0
  407348:	460d      	mov	r5, r1
  40734a:	f000 f905 	bl	407558 <__ieee754_acos>
  40734e:	f998 3000 	ldrsb.w	r3, [r8]
  407352:	3301      	adds	r3, #1
  407354:	4606      	mov	r6, r0
  407356:	460f      	mov	r7, r1
  407358:	d02e      	beq.n	4073b8 <acos+0x7c>
  40735a:	4622      	mov	r2, r4
  40735c:	462b      	mov	r3, r5
  40735e:	4620      	mov	r0, r4
  407360:	4629      	mov	r1, r5
  407362:	f002 ffd9 	bl	40a318 <__aeabi_dcmpun>
  407366:	4681      	mov	r9, r0
  407368:	bb30      	cbnz	r0, 4073b8 <acos+0x7c>
  40736a:	4620      	mov	r0, r4
  40736c:	4629      	mov	r1, r5
  40736e:	f002 fa65 	bl	40983c <fabs>
  407372:	2200      	movs	r2, #0
  407374:	4b19      	ldr	r3, [pc, #100]	; (4073dc <acos+0xa0>)
  407376:	f002 ffc5 	bl	40a304 <__aeabi_dcmpgt>
  40737a:	b1e8      	cbz	r0, 4073b8 <acos+0x7c>
  40737c:	4b18      	ldr	r3, [pc, #96]	; (4073e0 <acos+0xa4>)
  40737e:	4819      	ldr	r0, [pc, #100]	; (4073e4 <acos+0xa8>)
  407380:	f8cd 9020 	str.w	r9, [sp, #32]
  407384:	2201      	movs	r2, #1
  407386:	e88d 000c 	stmia.w	sp, {r2, r3}
  40738a:	e9cd 4504 	strd	r4, r5, [sp, #16]
  40738e:	e9cd 4502 	strd	r4, r5, [sp, #8]
  407392:	f002 fae3 	bl	40995c <nan>
  407396:	f998 3000 	ldrsb.w	r3, [r8]
  40739a:	2b02      	cmp	r3, #2
  40739c:	e9cd 0106 	strd	r0, r1, [sp, #24]
  4073a0:	d00f      	beq.n	4073c2 <acos+0x86>
  4073a2:	4668      	mov	r0, sp
  4073a4:	f002 fad8 	bl	409958 <matherr>
  4073a8:	b158      	cbz	r0, 4073c2 <acos+0x86>
  4073aa:	9b08      	ldr	r3, [sp, #32]
  4073ac:	b983      	cbnz	r3, 4073d0 <acos+0x94>
  4073ae:	e9dd 0106 	ldrd	r0, r1, [sp, #24]
  4073b2:	b00b      	add	sp, #44	; 0x2c
  4073b4:	e8bd 83f0 	ldmia.w	sp!, {r4, r5, r6, r7, r8, r9, pc}
  4073b8:	4630      	mov	r0, r6
  4073ba:	4639      	mov	r1, r7
  4073bc:	b00b      	add	sp, #44	; 0x2c
  4073be:	e8bd 83f0 	ldmia.w	sp!, {r4, r5, r6, r7, r8, r9, pc}
  4073c2:	f003 fcbd 	bl	40ad40 <__errno>
  4073c6:	2321      	movs	r3, #33	; 0x21
  4073c8:	6003      	str	r3, [r0, #0]
  4073ca:	9b08      	ldr	r3, [sp, #32]
  4073cc:	2b00      	cmp	r3, #0
  4073ce:	d0ee      	beq.n	4073ae <acos+0x72>
  4073d0:	f003 fcb6 	bl	40ad40 <__errno>
  4073d4:	9b08      	ldr	r3, [sp, #32]
  4073d6:	6003      	str	r3, [r0, #0]
  4073d8:	e7e9      	b.n	4073ae <acos+0x72>
  4073da:	bf00      	nop
  4073dc:	3ff00000 	.word	0x3ff00000
  4073e0:	0040b13c 	.word	0x0040b13c
  4073e4:	0040b148 	.word	0x0040b148
  4073e8:	20000129 	.word	0x20000129

004073ec <asin>:
  4073ec:	e92d 43f0 	stmdb	sp!, {r4, r5, r6, r7, r8, r9, lr}
  4073f0:	f8df 80a4 	ldr.w	r8, [pc, #164]	; 407498 <asin+0xac>
  4073f4:	b08b      	sub	sp, #44	; 0x2c
  4073f6:	4604      	mov	r4, r0
  4073f8:	460d      	mov	r5, r1
  4073fa:	f000 fb01 	bl	407a00 <__ieee754_asin>
  4073fe:	f998 3000 	ldrsb.w	r3, [r8]
  407402:	3301      	adds	r3, #1
  407404:	4606      	mov	r6, r0
  407406:	460f      	mov	r7, r1
  407408:	d02e      	beq.n	407468 <asin+0x7c>
  40740a:	4622      	mov	r2, r4
  40740c:	462b      	mov	r3, r5
  40740e:	4620      	mov	r0, r4
  407410:	4629      	mov	r1, r5
  407412:	f002 ff81 	bl	40a318 <__aeabi_dcmpun>
  407416:	4681      	mov	r9, r0
  407418:	bb30      	cbnz	r0, 407468 <asin+0x7c>
  40741a:	4620      	mov	r0, r4
  40741c:	4629      	mov	r1, r5
  40741e:	f002 fa0d 	bl	40983c <fabs>
  407422:	2200      	movs	r2, #0
  407424:	4b19      	ldr	r3, [pc, #100]	; (40748c <asin+0xa0>)
  407426:	f002 ff6d 	bl	40a304 <__aeabi_dcmpgt>
  40742a:	b1e8      	cbz	r0, 407468 <asin+0x7c>
  40742c:	4b18      	ldr	r3, [pc, #96]	; (407490 <asin+0xa4>)
  40742e:	4819      	ldr	r0, [pc, #100]	; (407494 <asin+0xa8>)
  407430:	f8cd 9020 	str.w	r9, [sp, #32]
  407434:	2201      	movs	r2, #1
  407436:	e88d 000c 	stmia.w	sp, {r2, r3}
  40743a:	e9cd 4504 	strd	r4, r5, [sp, #16]
  40743e:	e9cd 4502 	strd	r4, r5, [sp, #8]
  407442:	f002 fa8b 	bl	40995c <nan>
  407446:	f998 3000 	ldrsb.w	r3, [r8]
  40744a:	2b02      	cmp	r3, #2
  40744c:	e9cd 0106 	strd	r0, r1, [sp, #24]
  407450:	d00f      	beq.n	407472 <asin+0x86>
  407452:	4668      	mov	r0, sp
  407454:	f002 fa80 	bl	409958 <matherr>
  407458:	b158      	cbz	r0, 407472 <asin+0x86>
  40745a:	9b08      	ldr	r3, [sp, #32]
  40745c:	b983      	cbnz	r3, 407480 <asin+0x94>
  40745e:	e9dd 0106 	ldrd	r0, r1, [sp, #24]
  407462:	b00b      	add	sp, #44	; 0x2c
  407464:	e8bd 83f0 	ldmia.w	sp!, {r4, r5, r6, r7, r8, r9, pc}
  407468:	4630      	mov	r0, r6
  40746a:	4639      	mov	r1, r7
  40746c:	b00b      	add	sp, #44	; 0x2c
  40746e:	e8bd 83f0 	ldmia.w	sp!, {r4, r5, r6, r7, r8, r9, pc}
  407472:	f003 fc65 	bl	40ad40 <__errno>
  407476:	2321      	movs	r3, #33	; 0x21
  407478:	6003      	str	r3, [r0, #0]
  40747a:	9b08      	ldr	r3, [sp, #32]
  40747c:	2b00      	cmp	r3, #0
  40747e:	d0ee      	beq.n	40745e <asin+0x72>
  407480:	f003 fc5e 	bl	40ad40 <__errno>
  407484:	9b08      	ldr	r3, [sp, #32]
  407486:	6003      	str	r3, [r0, #0]
  407488:	e7e9      	b.n	40745e <asin+0x72>
  40748a:	bf00      	nop
  40748c:	3ff00000 	.word	0x3ff00000
  407490:	0040b144 	.word	0x0040b144
  407494:	0040b148 	.word	0x0040b148
  407498:	20000129 	.word	0x20000129

0040749c <atan2>:
  40749c:	f000 bce0 	b.w	407e60 <__ieee754_atan2>

004074a0 <sqrt>:
  4074a0:	e92d 4ff0 	stmdb	sp!, {r4, r5, r6, r7, r8, r9, sl, fp, lr}
  4074a4:	b08b      	sub	sp, #44	; 0x2c
  4074a6:	4604      	mov	r4, r0
  4074a8:	460d      	mov	r5, r1
  4074aa:	f000 ffc7 	bl	40843c <__ieee754_sqrt>
  4074ae:	4b28      	ldr	r3, [pc, #160]	; (407550 <sqrt+0xb0>)
  4074b0:	f993 a000 	ldrsb.w	sl, [r3]
  4074b4:	f1ba 3fff 	cmp.w	sl, #4294967295
  4074b8:	4606      	mov	r6, r0
  4074ba:	460f      	mov	r7, r1
  4074bc:	d012      	beq.n	4074e4 <sqrt+0x44>
  4074be:	4622      	mov	r2, r4
  4074c0:	462b      	mov	r3, r5
  4074c2:	4620      	mov	r0, r4
  4074c4:	4629      	mov	r1, r5
  4074c6:	f002 ff27 	bl	40a318 <__aeabi_dcmpun>
  4074ca:	4683      	mov	fp, r0
  4074cc:	b950      	cbnz	r0, 4074e4 <sqrt+0x44>
  4074ce:	f04f 0800 	mov.w	r8, #0
  4074d2:	f04f 0900 	mov.w	r9, #0
  4074d6:	4642      	mov	r2, r8
  4074d8:	464b      	mov	r3, r9
  4074da:	4620      	mov	r0, r4
  4074dc:	4629      	mov	r1, r5
  4074de:	f002 fef3 	bl	40a2c8 <__aeabi_dcmplt>
  4074e2:	b920      	cbnz	r0, 4074ee <sqrt+0x4e>
  4074e4:	4630      	mov	r0, r6
  4074e6:	4639      	mov	r1, r7
  4074e8:	b00b      	add	sp, #44	; 0x2c
  4074ea:	e8bd 8ff0 	ldmia.w	sp!, {r4, r5, r6, r7, r8, r9, sl, fp, pc}
  4074ee:	4b19      	ldr	r3, [pc, #100]	; (407554 <sqrt+0xb4>)
  4074f0:	f8cd b020 	str.w	fp, [sp, #32]
  4074f4:	2201      	movs	r2, #1
  4074f6:	e9cd 4504 	strd	r4, r5, [sp, #16]
  4074fa:	e9cd 4502 	strd	r4, r5, [sp, #8]
  4074fe:	e88d 000c 	stmia.w	sp, {r2, r3}
  407502:	f1ba 0f00 	cmp.w	sl, #0
  407506:	d015      	beq.n	407534 <sqrt+0x94>
  407508:	4642      	mov	r2, r8
  40750a:	464b      	mov	r3, r9
  40750c:	4640      	mov	r0, r8
  40750e:	4649      	mov	r1, r9
  407510:	f002 fd92 	bl	40a038 <__aeabi_ddiv>
  407514:	f1ba 0f02 	cmp.w	sl, #2
  407518:	e9cd 0106 	strd	r0, r1, [sp, #24]
  40751c:	d10c      	bne.n	407538 <sqrt+0x98>
  40751e:	f003 fc0f 	bl	40ad40 <__errno>
  407522:	2321      	movs	r3, #33	; 0x21
  407524:	6003      	str	r3, [r0, #0]
  407526:	9b08      	ldr	r3, [sp, #32]
  407528:	b963      	cbnz	r3, 407544 <sqrt+0xa4>
  40752a:	e9dd 0106 	ldrd	r0, r1, [sp, #24]
  40752e:	b00b      	add	sp, #44	; 0x2c
  407530:	e8bd 8ff0 	ldmia.w	sp!, {r4, r5, r6, r7, r8, r9, sl, fp, pc}
  407534:	e9cd 8906 	strd	r8, r9, [sp, #24]
  407538:	4668      	mov	r0, sp
  40753a:	f002 fa0d 	bl	409958 <matherr>
  40753e:	2800      	cmp	r0, #0
  407540:	d1f1      	bne.n	407526 <sqrt+0x86>
  407542:	e7ec      	b.n	40751e <sqrt+0x7e>
  407544:	f003 fbfc 	bl	40ad40 <__errno>
  407548:	9b08      	ldr	r3, [sp, #32]
  40754a:	6003      	str	r3, [r0, #0]
  40754c:	e7ed      	b.n	40752a <sqrt+0x8a>
  40754e:	bf00      	nop
  407550:	20000129 	.word	0x20000129
  407554:	0040b14c 	.word	0x0040b14c

00407558 <__ieee754_acos>:
  407558:	e92d 4ff8 	stmdb	sp!, {r3, r4, r5, r6, r7, r8, r9, sl, fp, lr}
  40755c:	4ec4      	ldr	r6, [pc, #784]	; (407870 <__ieee754_acos+0x318>)
  40755e:	f021 4300 	bic.w	r3, r1, #2147483648	; 0x80000000
  407562:	42b3      	cmp	r3, r6
  407564:	460c      	mov	r4, r1
  407566:	4605      	mov	r5, r0
  407568:	dd0d      	ble.n	407586 <__ieee754_acos+0x2e>
  40756a:	f103 4340 	add.w	r3, r3, #3221225472	; 0xc0000000
  40756e:	f503 1380 	add.w	r3, r3, #1048576	; 0x100000
  407572:	4303      	orrs	r3, r0
  407574:	f040 80b9 	bne.w	4076ea <__ieee754_acos+0x192>
  407578:	2900      	cmp	r1, #0
  40757a:	f340 8140 	ble.w	4077fe <__ieee754_acos+0x2a6>
  40757e:	2000      	movs	r0, #0
  407580:	2100      	movs	r1, #0
  407582:	e8bd 8ff8 	ldmia.w	sp!, {r3, r4, r5, r6, r7, r8, r9, sl, fp, pc}
  407586:	4ebb      	ldr	r6, [pc, #748]	; (407874 <__ieee754_acos+0x31c>)
  407588:	42b3      	cmp	r3, r6
  40758a:	f340 80a6 	ble.w	4076da <__ieee754_acos+0x182>
  40758e:	2900      	cmp	r1, #0
  407590:	f2c0 8178 	blt.w	407884 <__ieee754_acos+0x32c>
  407594:	4602      	mov	r2, r0
  407596:	460b      	mov	r3, r1
  407598:	2000      	movs	r0, #0
  40759a:	49b7      	ldr	r1, [pc, #732]	; (407878 <__ieee754_acos+0x320>)
  40759c:	f002 fa6e 	bl	409a7c <__aeabi_dsub>
  4075a0:	2200      	movs	r2, #0
  4075a2:	4bb6      	ldr	r3, [pc, #728]	; (40787c <__ieee754_acos+0x324>)
  4075a4:	f002 fc1e 	bl	409de4 <__aeabi_dmul>
  4075a8:	4604      	mov	r4, r0
  4075aa:	460d      	mov	r5, r1
  4075ac:	f000 ff46 	bl	40843c <__ieee754_sqrt>
  4075b0:	a395      	add	r3, pc, #596	; (adr r3, 407808 <__ieee754_acos+0x2b0>)
  4075b2:	e9d3 2300 	ldrd	r2, r3, [r3]
  4075b6:	4689      	mov	r9, r1
  4075b8:	4680      	mov	r8, r0
  4075ba:	4629      	mov	r1, r5
  4075bc:	4620      	mov	r0, r4
  4075be:	f002 fc11 	bl	409de4 <__aeabi_dmul>
  4075c2:	a393      	add	r3, pc, #588	; (adr r3, 407810 <__ieee754_acos+0x2b8>)
  4075c4:	e9d3 2300 	ldrd	r2, r3, [r3]
  4075c8:	f002 fa5a 	bl	409a80 <__adddf3>
  4075cc:	4622      	mov	r2, r4
  4075ce:	462b      	mov	r3, r5
  4075d0:	f002 fc08 	bl	409de4 <__aeabi_dmul>
  4075d4:	a390      	add	r3, pc, #576	; (adr r3, 407818 <__ieee754_acos+0x2c0>)
  4075d6:	e9d3 2300 	ldrd	r2, r3, [r3]
  4075da:	f002 fa4f 	bl	409a7c <__aeabi_dsub>
  4075de:	4622      	mov	r2, r4
  4075e0:	462b      	mov	r3, r5
  4075e2:	f002 fbff 	bl	409de4 <__aeabi_dmul>
  4075e6:	a38e      	add	r3, pc, #568	; (adr r3, 407820 <__ieee754_acos+0x2c8>)
  4075e8:	e9d3 2300 	ldrd	r2, r3, [r3]
  4075ec:	f002 fa48 	bl	409a80 <__adddf3>
  4075f0:	4622      	mov	r2, r4
  4075f2:	462b      	mov	r3, r5
  4075f4:	f002 fbf6 	bl	409de4 <__aeabi_dmul>
  4075f8:	a38b      	add	r3, pc, #556	; (adr r3, 407828 <__ieee754_acos+0x2d0>)
  4075fa:	e9d3 2300 	ldrd	r2, r3, [r3]
  4075fe:	f002 fa3d 	bl	409a7c <__aeabi_dsub>
  407602:	4622      	mov	r2, r4
  407604:	462b      	mov	r3, r5
  407606:	f002 fbed 	bl	409de4 <__aeabi_dmul>
  40760a:	a389      	add	r3, pc, #548	; (adr r3, 407830 <__ieee754_acos+0x2d8>)
  40760c:	e9d3 2300 	ldrd	r2, r3, [r3]
  407610:	f002 fa36 	bl	409a80 <__adddf3>
  407614:	4622      	mov	r2, r4
  407616:	462b      	mov	r3, r5
  407618:	f002 fbe4 	bl	409de4 <__aeabi_dmul>
  40761c:	a386      	add	r3, pc, #536	; (adr r3, 407838 <__ieee754_acos+0x2e0>)
  40761e:	e9d3 2300 	ldrd	r2, r3, [r3]
  407622:	4682      	mov	sl, r0
  407624:	468b      	mov	fp, r1
  407626:	4620      	mov	r0, r4
  407628:	4629      	mov	r1, r5
  40762a:	f002 fbdb 	bl	409de4 <__aeabi_dmul>
  40762e:	a384      	add	r3, pc, #528	; (adr r3, 407840 <__ieee754_acos+0x2e8>)
  407630:	e9d3 2300 	ldrd	r2, r3, [r3]
  407634:	f002 fa22 	bl	409a7c <__aeabi_dsub>
  407638:	4622      	mov	r2, r4
  40763a:	462b      	mov	r3, r5
  40763c:	f002 fbd2 	bl	409de4 <__aeabi_dmul>
  407640:	a381      	add	r3, pc, #516	; (adr r3, 407848 <__ieee754_acos+0x2f0>)
  407642:	e9d3 2300 	ldrd	r2, r3, [r3]
  407646:	f002 fa1b 	bl	409a80 <__adddf3>
  40764a:	4622      	mov	r2, r4
  40764c:	462b      	mov	r3, r5
  40764e:	f002 fbc9 	bl	409de4 <__aeabi_dmul>
  407652:	a37f      	add	r3, pc, #508	; (adr r3, 407850 <__ieee754_acos+0x2f8>)
  407654:	e9d3 2300 	ldrd	r2, r3, [r3]
  407658:	f002 fa10 	bl	409a7c <__aeabi_dsub>
  40765c:	4622      	mov	r2, r4
  40765e:	462b      	mov	r3, r5
  407660:	f002 fbc0 	bl	409de4 <__aeabi_dmul>
  407664:	2200      	movs	r2, #0
  407666:	4b84      	ldr	r3, [pc, #528]	; (407878 <__ieee754_acos+0x320>)
  407668:	f002 fa0a 	bl	409a80 <__adddf3>
  40766c:	4602      	mov	r2, r0
  40766e:	460b      	mov	r3, r1
  407670:	4650      	mov	r0, sl
  407672:	4659      	mov	r1, fp
  407674:	f002 fce0 	bl	40a038 <__aeabi_ddiv>
  407678:	4642      	mov	r2, r8
  40767a:	464b      	mov	r3, r9
  40767c:	f002 fbb2 	bl	409de4 <__aeabi_dmul>
  407680:	2600      	movs	r6, #0
  407682:	4682      	mov	sl, r0
  407684:	468b      	mov	fp, r1
  407686:	4632      	mov	r2, r6
  407688:	464b      	mov	r3, r9
  40768a:	4630      	mov	r0, r6
  40768c:	4649      	mov	r1, r9
  40768e:	f002 fba9 	bl	409de4 <__aeabi_dmul>
  407692:	4602      	mov	r2, r0
  407694:	460b      	mov	r3, r1
  407696:	4620      	mov	r0, r4
  407698:	4629      	mov	r1, r5
  40769a:	f002 f9ef 	bl	409a7c <__aeabi_dsub>
  40769e:	4632      	mov	r2, r6
  4076a0:	4604      	mov	r4, r0
  4076a2:	460d      	mov	r5, r1
  4076a4:	464b      	mov	r3, r9
  4076a6:	4640      	mov	r0, r8
  4076a8:	4649      	mov	r1, r9
  4076aa:	f002 f9e9 	bl	409a80 <__adddf3>
  4076ae:	4602      	mov	r2, r0
  4076b0:	460b      	mov	r3, r1
  4076b2:	4620      	mov	r0, r4
  4076b4:	4629      	mov	r1, r5
  4076b6:	f002 fcbf 	bl	40a038 <__aeabi_ddiv>
  4076ba:	4602      	mov	r2, r0
  4076bc:	460b      	mov	r3, r1
  4076be:	4650      	mov	r0, sl
  4076c0:	4659      	mov	r1, fp
  4076c2:	f002 f9dd 	bl	409a80 <__adddf3>
  4076c6:	4632      	mov	r2, r6
  4076c8:	464b      	mov	r3, r9
  4076ca:	f002 f9d9 	bl	409a80 <__adddf3>
  4076ce:	4602      	mov	r2, r0
  4076d0:	460b      	mov	r3, r1
  4076d2:	f002 f9d5 	bl	409a80 <__adddf3>
  4076d6:	e8bd 8ff8 	ldmia.w	sp!, {r3, r4, r5, r6, r7, r8, r9, sl, fp, pc}
  4076da:	4a69      	ldr	r2, [pc, #420]	; (407880 <__ieee754_acos+0x328>)
  4076dc:	4293      	cmp	r3, r2
  4076de:	dc0e      	bgt.n	4076fe <__ieee754_acos+0x1a6>
  4076e0:	a15d      	add	r1, pc, #372	; (adr r1, 407858 <__ieee754_acos+0x300>)
  4076e2:	e9d1 0100 	ldrd	r0, r1, [r1]
  4076e6:	e8bd 8ff8 	ldmia.w	sp!, {r3, r4, r5, r6, r7, r8, r9, sl, fp, pc}
  4076ea:	4602      	mov	r2, r0
  4076ec:	460b      	mov	r3, r1
  4076ee:	f002 f9c5 	bl	409a7c <__aeabi_dsub>
  4076f2:	4602      	mov	r2, r0
  4076f4:	460b      	mov	r3, r1
  4076f6:	f002 fc9f 	bl	40a038 <__aeabi_ddiv>
  4076fa:	e8bd 8ff8 	ldmia.w	sp!, {r3, r4, r5, r6, r7, r8, r9, sl, fp, pc}
  4076fe:	4602      	mov	r2, r0
  407700:	460b      	mov	r3, r1
  407702:	f002 fb6f 	bl	409de4 <__aeabi_dmul>
  407706:	a340      	add	r3, pc, #256	; (adr r3, 407808 <__ieee754_acos+0x2b0>)
  407708:	e9d3 2300 	ldrd	r2, r3, [r3]
  40770c:	4606      	mov	r6, r0
  40770e:	460f      	mov	r7, r1
  407710:	f002 fb68 	bl	409de4 <__aeabi_dmul>
  407714:	a33e      	add	r3, pc, #248	; (adr r3, 407810 <__ieee754_acos+0x2b8>)
  407716:	e9d3 2300 	ldrd	r2, r3, [r3]
  40771a:	f002 f9b1 	bl	409a80 <__adddf3>
  40771e:	4632      	mov	r2, r6
  407720:	463b      	mov	r3, r7
  407722:	f002 fb5f 	bl	409de4 <__aeabi_dmul>
  407726:	a33c      	add	r3, pc, #240	; (adr r3, 407818 <__ieee754_acos+0x2c0>)
  407728:	e9d3 2300 	ldrd	r2, r3, [r3]
  40772c:	f002 f9a6 	bl	409a7c <__aeabi_dsub>
  407730:	4632      	mov	r2, r6
  407732:	463b      	mov	r3, r7
  407734:	f002 fb56 	bl	409de4 <__aeabi_dmul>
  407738:	a339      	add	r3, pc, #228	; (adr r3, 407820 <__ieee754_acos+0x2c8>)
  40773a:	e9d3 2300 	ldrd	r2, r3, [r3]
  40773e:	f002 f99f 	bl	409a80 <__adddf3>
  407742:	4632      	mov	r2, r6
  407744:	463b      	mov	r3, r7
  407746:	f002 fb4d 	bl	409de4 <__aeabi_dmul>
  40774a:	a337      	add	r3, pc, #220	; (adr r3, 407828 <__ieee754_acos+0x2d0>)
  40774c:	e9d3 2300 	ldrd	r2, r3, [r3]
  407750:	f002 f994 	bl	409a7c <__aeabi_dsub>
  407754:	4632      	mov	r2, r6
  407756:	463b      	mov	r3, r7
  407758:	f002 fb44 	bl	409de4 <__aeabi_dmul>
  40775c:	a334      	add	r3, pc, #208	; (adr r3, 407830 <__ieee754_acos+0x2d8>)
  40775e:	e9d3 2300 	ldrd	r2, r3, [r3]
  407762:	f002 f98d 	bl	409a80 <__adddf3>
  407766:	4632      	mov	r2, r6
  407768:	463b      	mov	r3, r7
  40776a:	f002 fb3b 	bl	409de4 <__aeabi_dmul>
  40776e:	a332      	add	r3, pc, #200	; (adr r3, 407838 <__ieee754_acos+0x2e0>)
  407770:	e9d3 2300 	ldrd	r2, r3, [r3]
  407774:	4680      	mov	r8, r0
  407776:	4689      	mov	r9, r1
  407778:	4630      	mov	r0, r6
  40777a:	4639      	mov	r1, r7
  40777c:	f002 fb32 	bl	409de4 <__aeabi_dmul>
  407780:	a32f      	add	r3, pc, #188	; (adr r3, 407840 <__ieee754_acos+0x2e8>)
  407782:	e9d3 2300 	ldrd	r2, r3, [r3]
  407786:	f002 f979 	bl	409a7c <__aeabi_dsub>
  40778a:	4632      	mov	r2, r6
  40778c:	463b      	mov	r3, r7
  40778e:	f002 fb29 	bl	409de4 <__aeabi_dmul>
  407792:	a32d      	add	r3, pc, #180	; (adr r3, 407848 <__ieee754_acos+0x2f0>)
  407794:	e9d3 2300 	ldrd	r2, r3, [r3]
  407798:	f002 f972 	bl	409a80 <__adddf3>
  40779c:	4632      	mov	r2, r6
  40779e:	463b      	mov	r3, r7
  4077a0:	f002 fb20 	bl	409de4 <__aeabi_dmul>
  4077a4:	a32a      	add	r3, pc, #168	; (adr r3, 407850 <__ieee754_acos+0x2f8>)
  4077a6:	e9d3 2300 	ldrd	r2, r3, [r3]
  4077aa:	f002 f967 	bl	409a7c <__aeabi_dsub>
  4077ae:	4632      	mov	r2, r6
  4077b0:	463b      	mov	r3, r7
  4077b2:	f002 fb17 	bl	409de4 <__aeabi_dmul>
  4077b6:	2200      	movs	r2, #0
  4077b8:	4b2f      	ldr	r3, [pc, #188]	; (407878 <__ieee754_acos+0x320>)
  4077ba:	f002 f961 	bl	409a80 <__adddf3>
  4077be:	4602      	mov	r2, r0
  4077c0:	460b      	mov	r3, r1
  4077c2:	4640      	mov	r0, r8
  4077c4:	4649      	mov	r1, r9
  4077c6:	f002 fc37 	bl	40a038 <__aeabi_ddiv>
  4077ca:	462a      	mov	r2, r5
  4077cc:	4623      	mov	r3, r4
  4077ce:	f002 fb09 	bl	409de4 <__aeabi_dmul>
  4077d2:	4602      	mov	r2, r0
  4077d4:	460b      	mov	r3, r1
  4077d6:	a122      	add	r1, pc, #136	; (adr r1, 407860 <__ieee754_acos+0x308>)
  4077d8:	e9d1 0100 	ldrd	r0, r1, [r1]
  4077dc:	f002 f94e 	bl	409a7c <__aeabi_dsub>
  4077e0:	4602      	mov	r2, r0
  4077e2:	460b      	mov	r3, r1
  4077e4:	4628      	mov	r0, r5
  4077e6:	4621      	mov	r1, r4
  4077e8:	f002 f948 	bl	409a7c <__aeabi_dsub>
  4077ec:	4602      	mov	r2, r0
  4077ee:	460b      	mov	r3, r1
  4077f0:	a119      	add	r1, pc, #100	; (adr r1, 407858 <__ieee754_acos+0x300>)
  4077f2:	e9d1 0100 	ldrd	r0, r1, [r1]
  4077f6:	f002 f941 	bl	409a7c <__aeabi_dsub>
  4077fa:	e8bd 8ff8 	ldmia.w	sp!, {r3, r4, r5, r6, r7, r8, r9, sl, fp, pc}
  4077fe:	a11a      	add	r1, pc, #104	; (adr r1, 407868 <__ieee754_acos+0x310>)
  407800:	e9d1 0100 	ldrd	r0, r1, [r1]
  407804:	e8bd 8ff8 	ldmia.w	sp!, {r3, r4, r5, r6, r7, r8, r9, sl, fp, pc}
  407808:	0dfdf709 	.word	0x0dfdf709
  40780c:	3f023de1 	.word	0x3f023de1
  407810:	7501b288 	.word	0x7501b288
  407814:	3f49efe0 	.word	0x3f49efe0
  407818:	b5688f3b 	.word	0xb5688f3b
  40781c:	3fa48228 	.word	0x3fa48228
  407820:	0e884455 	.word	0x0e884455
  407824:	3fc9c155 	.word	0x3fc9c155
  407828:	03eb6f7d 	.word	0x03eb6f7d
  40782c:	3fd4d612 	.word	0x3fd4d612
  407830:	55555555 	.word	0x55555555
  407834:	3fc55555 	.word	0x3fc55555
  407838:	b12e9282 	.word	0xb12e9282
  40783c:	3fb3b8c5 	.word	0x3fb3b8c5
  407840:	1b8d0159 	.word	0x1b8d0159
  407844:	3fe6066c 	.word	0x3fe6066c
  407848:	9c598ac8 	.word	0x9c598ac8
  40784c:	40002ae5 	.word	0x40002ae5
  407850:	1c8a2d4b 	.word	0x1c8a2d4b
  407854:	40033a27 	.word	0x40033a27
  407858:	54442d18 	.word	0x54442d18
  40785c:	3ff921fb 	.word	0x3ff921fb
  407860:	33145c07 	.word	0x33145c07
  407864:	3c91a626 	.word	0x3c91a626
  407868:	54442d18 	.word	0x54442d18
  40786c:	400921fb 	.word	0x400921fb
  407870:	3fefffff 	.word	0x3fefffff
  407874:	3fdfffff 	.word	0x3fdfffff
  407878:	3ff00000 	.word	0x3ff00000
  40787c:	3fe00000 	.word	0x3fe00000
  407880:	3c600000 	.word	0x3c600000
  407884:	2200      	movs	r2, #0
  407886:	4b5c      	ldr	r3, [pc, #368]	; (4079f8 <__ieee754_acos+0x4a0>)
  407888:	f002 f8fa 	bl	409a80 <__adddf3>
  40788c:	2200      	movs	r2, #0
  40788e:	4b5b      	ldr	r3, [pc, #364]	; (4079fc <__ieee754_acos+0x4a4>)
  407890:	f002 faa8 	bl	409de4 <__aeabi_dmul>
  407894:	a340      	add	r3, pc, #256	; (adr r3, 407998 <__ieee754_acos+0x440>)
  407896:	e9d3 2300 	ldrd	r2, r3, [r3]
  40789a:	4604      	mov	r4, r0
  40789c:	460d      	mov	r5, r1
  40789e:	f002 faa1 	bl	409de4 <__aeabi_dmul>
  4078a2:	a33f      	add	r3, pc, #252	; (adr r3, 4079a0 <__ieee754_acos+0x448>)
  4078a4:	e9d3 2300 	ldrd	r2, r3, [r3]
  4078a8:	f002 f8ea 	bl	409a80 <__adddf3>
  4078ac:	4622      	mov	r2, r4
  4078ae:	462b      	mov	r3, r5
  4078b0:	f002 fa98 	bl	409de4 <__aeabi_dmul>
  4078b4:	a33c      	add	r3, pc, #240	; (adr r3, 4079a8 <__ieee754_acos+0x450>)
  4078b6:	e9d3 2300 	ldrd	r2, r3, [r3]
  4078ba:	f002 f8df 	bl	409a7c <__aeabi_dsub>
  4078be:	4622      	mov	r2, r4
  4078c0:	462b      	mov	r3, r5
  4078c2:	f002 fa8f 	bl	409de4 <__aeabi_dmul>
  4078c6:	a33a      	add	r3, pc, #232	; (adr r3, 4079b0 <__ieee754_acos+0x458>)
  4078c8:	e9d3 2300 	ldrd	r2, r3, [r3]
  4078cc:	f002 f8d8 	bl	409a80 <__adddf3>
  4078d0:	4622      	mov	r2, r4
  4078d2:	462b      	mov	r3, r5
  4078d4:	f002 fa86 	bl	409de4 <__aeabi_dmul>
  4078d8:	a337      	add	r3, pc, #220	; (adr r3, 4079b8 <__ieee754_acos+0x460>)
  4078da:	e9d3 2300 	ldrd	r2, r3, [r3]
  4078de:	f002 f8cd 	bl	409a7c <__aeabi_dsub>
  4078e2:	4622      	mov	r2, r4
  4078e4:	462b      	mov	r3, r5
  4078e6:	f002 fa7d 	bl	409de4 <__aeabi_dmul>
  4078ea:	a335      	add	r3, pc, #212	; (adr r3, 4079c0 <__ieee754_acos+0x468>)
  4078ec:	e9d3 2300 	ldrd	r2, r3, [r3]
  4078f0:	f002 f8c6 	bl	409a80 <__adddf3>
  4078f4:	4622      	mov	r2, r4
  4078f6:	462b      	mov	r3, r5
  4078f8:	f002 fa74 	bl	409de4 <__aeabi_dmul>
  4078fc:	4680      	mov	r8, r0
  4078fe:	4689      	mov	r9, r1
  407900:	4620      	mov	r0, r4
  407902:	4629      	mov	r1, r5
  407904:	f000 fd9a 	bl	40843c <__ieee754_sqrt>
  407908:	a32f      	add	r3, pc, #188	; (adr r3, 4079c8 <__ieee754_acos+0x470>)
  40790a:	e9d3 2300 	ldrd	r2, r3, [r3]
  40790e:	4606      	mov	r6, r0
  407910:	460f      	mov	r7, r1
  407912:	4620      	mov	r0, r4
  407914:	4629      	mov	r1, r5
  407916:	f002 fa65 	bl	409de4 <__aeabi_dmul>
  40791a:	a32d      	add	r3, pc, #180	; (adr r3, 4079d0 <__ieee754_acos+0x478>)
  40791c:	e9d3 2300 	ldrd	r2, r3, [r3]
  407920:	f002 f8ac 	bl	409a7c <__aeabi_dsub>
  407924:	4622      	mov	r2, r4
  407926:	462b      	mov	r3, r5
  407928:	f002 fa5c 	bl	409de4 <__aeabi_dmul>
  40792c:	a32a      	add	r3, pc, #168	; (adr r3, 4079d8 <__ieee754_acos+0x480>)
  40792e:	e9d3 2300 	ldrd	r2, r3, [r3]
  407932:	f002 f8a5 	bl	409a80 <__adddf3>
  407936:	4622      	mov	r2, r4
  407938:	462b      	mov	r3, r5
  40793a:	f002 fa53 	bl	409de4 <__aeabi_dmul>
  40793e:	a328      	add	r3, pc, #160	; (adr r3, 4079e0 <__ieee754_acos+0x488>)
  407940:	e9d3 2300 	ldrd	r2, r3, [r3]
  407944:	f002 f89a 	bl	409a7c <__aeabi_dsub>
  407948:	4622      	mov	r2, r4
  40794a:	462b      	mov	r3, r5
  40794c:	f002 fa4a 	bl	409de4 <__aeabi_dmul>
  407950:	2200      	movs	r2, #0
  407952:	4b29      	ldr	r3, [pc, #164]	; (4079f8 <__ieee754_acos+0x4a0>)
  407954:	f002 f894 	bl	409a80 <__adddf3>
  407958:	4602      	mov	r2, r0
  40795a:	460b      	mov	r3, r1
  40795c:	4640      	mov	r0, r8
  40795e:	4649      	mov	r1, r9
  407960:	f002 fb6a 	bl	40a038 <__aeabi_ddiv>
  407964:	4632      	mov	r2, r6
  407966:	463b      	mov	r3, r7
  407968:	f002 fa3c 	bl	409de4 <__aeabi_dmul>
  40796c:	a31e      	add	r3, pc, #120	; (adr r3, 4079e8 <__ieee754_acos+0x490>)
  40796e:	e9d3 2300 	ldrd	r2, r3, [r3]
  407972:	f002 f883 	bl	409a7c <__aeabi_dsub>
  407976:	4632      	mov	r2, r6
  407978:	463b      	mov	r3, r7
  40797a:	f002 f881 	bl	409a80 <__adddf3>
  40797e:	4602      	mov	r2, r0
  407980:	460b      	mov	r3, r1
  407982:	f002 f87d 	bl	409a80 <__adddf3>
  407986:	4602      	mov	r2, r0
  407988:	460b      	mov	r3, r1
  40798a:	a119      	add	r1, pc, #100	; (adr r1, 4079f0 <__ieee754_acos+0x498>)
  40798c:	e9d1 0100 	ldrd	r0, r1, [r1]
  407990:	f002 f874 	bl	409a7c <__aeabi_dsub>
  407994:	e8bd 8ff8 	ldmia.w	sp!, {r3, r4, r5, r6, r7, r8, r9, sl, fp, pc}
  407998:	0dfdf709 	.word	0x0dfdf709
  40799c:	3f023de1 	.word	0x3f023de1
  4079a0:	7501b288 	.word	0x7501b288
  4079a4:	3f49efe0 	.word	0x3f49efe0
  4079a8:	b5688f3b 	.word	0xb5688f3b
  4079ac:	3fa48228 	.word	0x3fa48228
  4079b0:	0e884455 	.word	0x0e884455
  4079b4:	3fc9c155 	.word	0x3fc9c155
  4079b8:	03eb6f7d 	.word	0x03eb6f7d
  4079bc:	3fd4d612 	.word	0x3fd4d612
  4079c0:	55555555 	.word	0x55555555
  4079c4:	3fc55555 	.word	0x3fc55555
  4079c8:	b12e9282 	.word	0xb12e9282
  4079cc:	3fb3b8c5 	.word	0x3fb3b8c5
  4079d0:	1b8d0159 	.word	0x1b8d0159
  4079d4:	3fe6066c 	.word	0x3fe6066c
  4079d8:	9c598ac8 	.word	0x9c598ac8
  4079dc:	40002ae5 	.word	0x40002ae5
  4079e0:	1c8a2d4b 	.word	0x1c8a2d4b
  4079e4:	40033a27 	.word	0x40033a27
  4079e8:	33145c07 	.word	0x33145c07
  4079ec:	3c91a626 	.word	0x3c91a626
  4079f0:	54442d18 	.word	0x54442d18
  4079f4:	400921fb 	.word	0x400921fb
  4079f8:	3ff00000 	.word	0x3ff00000
  4079fc:	3fe00000 	.word	0x3fe00000

00407a00 <__ieee754_asin>:
  407a00:	e92d 47f0 	stmdb	sp!, {r4, r5, r6, r7, r8, r9, sl, lr}
  407a04:	4bc0      	ldr	r3, [pc, #768]	; (407d08 <__ieee754_asin+0x308>)
  407a06:	f021 4800 	bic.w	r8, r1, #2147483648	; 0x80000000
  407a0a:	4598      	cmp	r8, r3
  407a0c:	b084      	sub	sp, #16
  407a0e:	460d      	mov	r5, r1
  407a10:	4604      	mov	r4, r0
  407a12:	dd14      	ble.n	407a3e <__ieee754_asin+0x3e>
  407a14:	f108 4840 	add.w	r8, r8, #3221225472	; 0xc0000000
  407a18:	f508 1880 	add.w	r8, r8, #1048576	; 0x100000
  407a1c:	4603      	mov	r3, r0
  407a1e:	ea58 0303 	orrs.w	r3, r8, r3
  407a22:	d023      	beq.n	407a6c <__ieee754_asin+0x6c>
  407a24:	4602      	mov	r2, r0
  407a26:	460b      	mov	r3, r1
  407a28:	f002 f828 	bl	409a7c <__aeabi_dsub>
  407a2c:	4602      	mov	r2, r0
  407a2e:	460b      	mov	r3, r1
  407a30:	f002 fb02 	bl	40a038 <__aeabi_ddiv>
  407a34:	4604      	mov	r4, r0
  407a36:	4620      	mov	r0, r4
  407a38:	b004      	add	sp, #16
  407a3a:	e8bd 87f0 	ldmia.w	sp!, {r4, r5, r6, r7, r8, r9, sl, pc}
  407a3e:	4bb3      	ldr	r3, [pc, #716]	; (407d0c <__ieee754_asin+0x30c>)
  407a40:	4598      	cmp	r8, r3
  407a42:	468a      	mov	sl, r1
  407a44:	dc2b      	bgt.n	407a9e <__ieee754_asin+0x9e>
  407a46:	f1b8 5f79 	cmp.w	r8, #1044381696	; 0x3e400000
  407a4a:	f280 8167 	bge.w	407d1c <__ieee754_asin+0x31c>
  407a4e:	a392      	add	r3, pc, #584	; (adr r3, 407c98 <__ieee754_asin+0x298>)
  407a50:	e9d3 2300 	ldrd	r2, r3, [r3]
  407a54:	f002 f814 	bl	409a80 <__adddf3>
  407a58:	2200      	movs	r2, #0
  407a5a:	4bad      	ldr	r3, [pc, #692]	; (407d10 <__ieee754_asin+0x310>)
  407a5c:	f002 fc52 	bl	40a304 <__aeabi_dcmpgt>
  407a60:	b1e8      	cbz	r0, 407a9e <__ieee754_asin+0x9e>
  407a62:	4629      	mov	r1, r5
  407a64:	4620      	mov	r0, r4
  407a66:	b004      	add	sp, #16
  407a68:	e8bd 87f0 	ldmia.w	sp!, {r4, r5, r6, r7, r8, r9, sl, pc}
  407a6c:	a38c      	add	r3, pc, #560	; (adr r3, 407ca0 <__ieee754_asin+0x2a0>)
  407a6e:	e9d3 2300 	ldrd	r2, r3, [r3]
  407a72:	f002 f9b7 	bl	409de4 <__aeabi_dmul>
  407a76:	a38c      	add	r3, pc, #560	; (adr r3, 407ca8 <__ieee754_asin+0x2a8>)
  407a78:	e9d3 2300 	ldrd	r2, r3, [r3]
  407a7c:	4606      	mov	r6, r0
  407a7e:	460f      	mov	r7, r1
  407a80:	4620      	mov	r0, r4
  407a82:	4629      	mov	r1, r5
  407a84:	f002 f9ae 	bl	409de4 <__aeabi_dmul>
  407a88:	4602      	mov	r2, r0
  407a8a:	460b      	mov	r3, r1
  407a8c:	4630      	mov	r0, r6
  407a8e:	4639      	mov	r1, r7
  407a90:	f001 fff6 	bl	409a80 <__adddf3>
  407a94:	4604      	mov	r4, r0
  407a96:	4620      	mov	r0, r4
  407a98:	b004      	add	sp, #16
  407a9a:	e8bd 87f0 	ldmia.w	sp!, {r4, r5, r6, r7, r8, r9, sl, pc}
  407a9e:	4620      	mov	r0, r4
  407aa0:	4629      	mov	r1, r5
  407aa2:	f001 fecb 	bl	40983c <fabs>
  407aa6:	4602      	mov	r2, r0
  407aa8:	460b      	mov	r3, r1
  407aaa:	2000      	movs	r0, #0
  407aac:	4998      	ldr	r1, [pc, #608]	; (407d10 <__ieee754_asin+0x310>)
  407aae:	f001 ffe5 	bl	409a7c <__aeabi_dsub>
  407ab2:	2200      	movs	r2, #0
  407ab4:	4b97      	ldr	r3, [pc, #604]	; (407d14 <__ieee754_asin+0x314>)
  407ab6:	f002 f995 	bl	409de4 <__aeabi_dmul>
  407aba:	a37d      	add	r3, pc, #500	; (adr r3, 407cb0 <__ieee754_asin+0x2b0>)
  407abc:	e9d3 2300 	ldrd	r2, r3, [r3]
  407ac0:	4604      	mov	r4, r0
  407ac2:	460d      	mov	r5, r1
  407ac4:	f002 f98e 	bl	409de4 <__aeabi_dmul>
  407ac8:	a37b      	add	r3, pc, #492	; (adr r3, 407cb8 <__ieee754_asin+0x2b8>)
  407aca:	e9d3 2300 	ldrd	r2, r3, [r3]
  407ace:	f001 ffd7 	bl	409a80 <__adddf3>
  407ad2:	4622      	mov	r2, r4
  407ad4:	462b      	mov	r3, r5
  407ad6:	f002 f985 	bl	409de4 <__aeabi_dmul>
  407ada:	a379      	add	r3, pc, #484	; (adr r3, 407cc0 <__ieee754_asin+0x2c0>)
  407adc:	e9d3 2300 	ldrd	r2, r3, [r3]
  407ae0:	f001 ffcc 	bl	409a7c <__aeabi_dsub>
  407ae4:	4622      	mov	r2, r4
  407ae6:	462b      	mov	r3, r5
  407ae8:	f002 f97c 	bl	409de4 <__aeabi_dmul>
  407aec:	a376      	add	r3, pc, #472	; (adr r3, 407cc8 <__ieee754_asin+0x2c8>)
  407aee:	e9d3 2300 	ldrd	r2, r3, [r3]
  407af2:	f001 ffc5 	bl	409a80 <__adddf3>
  407af6:	4622      	mov	r2, r4
  407af8:	462b      	mov	r3, r5
  407afa:	f002 f973 	bl	409de4 <__aeabi_dmul>
  407afe:	a374      	add	r3, pc, #464	; (adr r3, 407cd0 <__ieee754_asin+0x2d0>)
  407b00:	e9d3 2300 	ldrd	r2, r3, [r3]
  407b04:	f001 ffba 	bl	409a7c <__aeabi_dsub>
  407b08:	4622      	mov	r2, r4
  407b0a:	462b      	mov	r3, r5
  407b0c:	f002 f96a 	bl	409de4 <__aeabi_dmul>
  407b10:	a371      	add	r3, pc, #452	; (adr r3, 407cd8 <__ieee754_asin+0x2d8>)
  407b12:	e9d3 2300 	ldrd	r2, r3, [r3]
  407b16:	f001 ffb3 	bl	409a80 <__adddf3>
  407b1a:	4622      	mov	r2, r4
  407b1c:	462b      	mov	r3, r5
  407b1e:	f002 f961 	bl	409de4 <__aeabi_dmul>
  407b22:	a36f      	add	r3, pc, #444	; (adr r3, 407ce0 <__ieee754_asin+0x2e0>)
  407b24:	e9d3 2300 	ldrd	r2, r3, [r3]
  407b28:	e9cd 0100 	strd	r0, r1, [sp]
  407b2c:	4620      	mov	r0, r4
  407b2e:	4629      	mov	r1, r5
  407b30:	f002 f958 	bl	409de4 <__aeabi_dmul>
  407b34:	a36c      	add	r3, pc, #432	; (adr r3, 407ce8 <__ieee754_asin+0x2e8>)
  407b36:	e9d3 2300 	ldrd	r2, r3, [r3]
  407b3a:	f001 ff9f 	bl	409a7c <__aeabi_dsub>
  407b3e:	4622      	mov	r2, r4
  407b40:	462b      	mov	r3, r5
  407b42:	f002 f94f 	bl	409de4 <__aeabi_dmul>
  407b46:	a36a      	add	r3, pc, #424	; (adr r3, 407cf0 <__ieee754_asin+0x2f0>)
  407b48:	e9d3 2300 	ldrd	r2, r3, [r3]
  407b4c:	f001 ff98 	bl	409a80 <__adddf3>
  407b50:	4622      	mov	r2, r4
  407b52:	462b      	mov	r3, r5
  407b54:	f002 f946 	bl	409de4 <__aeabi_dmul>
  407b58:	a367      	add	r3, pc, #412	; (adr r3, 407cf8 <__ieee754_asin+0x2f8>)
  407b5a:	e9d3 2300 	ldrd	r2, r3, [r3]
  407b5e:	f001 ff8d 	bl	409a7c <__aeabi_dsub>
  407b62:	4622      	mov	r2, r4
  407b64:	462b      	mov	r3, r5
  407b66:	f002 f93d 	bl	409de4 <__aeabi_dmul>
  407b6a:	4b69      	ldr	r3, [pc, #420]	; (407d10 <__ieee754_asin+0x310>)
  407b6c:	2200      	movs	r2, #0
  407b6e:	f001 ff87 	bl	409a80 <__adddf3>
  407b72:	e9cd 0102 	strd	r0, r1, [sp, #8]
  407b76:	4620      	mov	r0, r4
  407b78:	4629      	mov	r1, r5
  407b7a:	f000 fc5f 	bl	40843c <__ieee754_sqrt>
  407b7e:	4b66      	ldr	r3, [pc, #408]	; (407d18 <__ieee754_asin+0x318>)
  407b80:	4598      	cmp	r8, r3
  407b82:	4606      	mov	r6, r0
  407b84:	460f      	mov	r7, r1
  407b86:	dc66      	bgt.n	407c56 <__ieee754_asin+0x256>
  407b88:	e9dd 2302 	ldrd	r2, r3, [sp, #8]
  407b8c:	e9dd 0100 	ldrd	r0, r1, [sp]
  407b90:	f002 fa52 	bl	40a038 <__aeabi_ddiv>
  407b94:	4632      	mov	r2, r6
  407b96:	e9cd 0100 	strd	r0, r1, [sp]
  407b9a:	463b      	mov	r3, r7
  407b9c:	4630      	mov	r0, r6
  407b9e:	4639      	mov	r1, r7
  407ba0:	f001 ff6e 	bl	409a80 <__adddf3>
  407ba4:	4602      	mov	r2, r0
  407ba6:	460b      	mov	r3, r1
  407ba8:	e9dd 0100 	ldrd	r0, r1, [sp]
  407bac:	f002 f91a 	bl	409de4 <__aeabi_dmul>
  407bb0:	f04f 0800 	mov.w	r8, #0
  407bb4:	e9cd 0100 	strd	r0, r1, [sp]
  407bb8:	4642      	mov	r2, r8
  407bba:	463b      	mov	r3, r7
  407bbc:	4640      	mov	r0, r8
  407bbe:	4639      	mov	r1, r7
  407bc0:	f002 f910 	bl	409de4 <__aeabi_dmul>
  407bc4:	4602      	mov	r2, r0
  407bc6:	460b      	mov	r3, r1
  407bc8:	4620      	mov	r0, r4
  407bca:	4629      	mov	r1, r5
  407bcc:	f001 ff56 	bl	409a7c <__aeabi_dsub>
  407bd0:	4642      	mov	r2, r8
  407bd2:	4604      	mov	r4, r0
  407bd4:	460d      	mov	r5, r1
  407bd6:	463b      	mov	r3, r7
  407bd8:	4630      	mov	r0, r6
  407bda:	4639      	mov	r1, r7
  407bdc:	f001 ff50 	bl	409a80 <__adddf3>
  407be0:	4602      	mov	r2, r0
  407be2:	460b      	mov	r3, r1
  407be4:	4620      	mov	r0, r4
  407be6:	4629      	mov	r1, r5
  407be8:	f002 fa26 	bl	40a038 <__aeabi_ddiv>
  407bec:	4602      	mov	r2, r0
  407bee:	460b      	mov	r3, r1
  407bf0:	f001 ff46 	bl	409a80 <__adddf3>
  407bf4:	4602      	mov	r2, r0
  407bf6:	460b      	mov	r3, r1
  407bf8:	a12b      	add	r1, pc, #172	; (adr r1, 407ca8 <__ieee754_asin+0x2a8>)
  407bfa:	e9d1 0100 	ldrd	r0, r1, [r1]
  407bfe:	f001 ff3d 	bl	409a7c <__aeabi_dsub>
  407c02:	4602      	mov	r2, r0
  407c04:	460b      	mov	r3, r1
  407c06:	e9dd 0100 	ldrd	r0, r1, [sp]
  407c0a:	f001 ff37 	bl	409a7c <__aeabi_dsub>
  407c0e:	4642      	mov	r2, r8
  407c10:	4604      	mov	r4, r0
  407c12:	460d      	mov	r5, r1
  407c14:	463b      	mov	r3, r7
  407c16:	4640      	mov	r0, r8
  407c18:	4639      	mov	r1, r7
  407c1a:	f001 ff31 	bl	409a80 <__adddf3>
  407c1e:	4602      	mov	r2, r0
  407c20:	460b      	mov	r3, r1
  407c22:	a137      	add	r1, pc, #220	; (adr r1, 407d00 <__ieee754_asin+0x300>)
  407c24:	e9d1 0100 	ldrd	r0, r1, [r1]
  407c28:	f001 ff28 	bl	409a7c <__aeabi_dsub>
  407c2c:	4602      	mov	r2, r0
  407c2e:	460b      	mov	r3, r1
  407c30:	4620      	mov	r0, r4
  407c32:	4629      	mov	r1, r5
  407c34:	f001 ff22 	bl	409a7c <__aeabi_dsub>
  407c38:	4602      	mov	r2, r0
  407c3a:	460b      	mov	r3, r1
  407c3c:	a130      	add	r1, pc, #192	; (adr r1, 407d00 <__ieee754_asin+0x300>)
  407c3e:	e9d1 0100 	ldrd	r0, r1, [r1]
  407c42:	f001 ff1b 	bl	409a7c <__aeabi_dsub>
  407c46:	4604      	mov	r4, r0
  407c48:	f1ba 0f00 	cmp.w	sl, #0
  407c4c:	f73f aef3 	bgt.w	407a36 <__ieee754_asin+0x36>
  407c50:	f101 4100 	add.w	r1, r1, #2147483648	; 0x80000000
  407c54:	e6ef      	b.n	407a36 <__ieee754_asin+0x36>
  407c56:	e9dd 2302 	ldrd	r2, r3, [sp, #8]
  407c5a:	e9dd 0100 	ldrd	r0, r1, [sp]
  407c5e:	f002 f9eb 	bl	40a038 <__aeabi_ddiv>
  407c62:	4632      	mov	r2, r6
  407c64:	463b      	mov	r3, r7
  407c66:	f002 f8bd 	bl	409de4 <__aeabi_dmul>
  407c6a:	4632      	mov	r2, r6
  407c6c:	463b      	mov	r3, r7
  407c6e:	f001 ff07 	bl	409a80 <__adddf3>
  407c72:	4602      	mov	r2, r0
  407c74:	460b      	mov	r3, r1
  407c76:	f001 ff03 	bl	409a80 <__adddf3>
  407c7a:	a30b      	add	r3, pc, #44	; (adr r3, 407ca8 <__ieee754_asin+0x2a8>)
  407c7c:	e9d3 2300 	ldrd	r2, r3, [r3]
  407c80:	f001 fefc 	bl	409a7c <__aeabi_dsub>
  407c84:	4602      	mov	r2, r0
  407c86:	460b      	mov	r3, r1
  407c88:	a105      	add	r1, pc, #20	; (adr r1, 407ca0 <__ieee754_asin+0x2a0>)
  407c8a:	e9d1 0100 	ldrd	r0, r1, [r1]
  407c8e:	f001 fef5 	bl	409a7c <__aeabi_dsub>
  407c92:	4604      	mov	r4, r0
  407c94:	e7d8      	b.n	407c48 <__ieee754_asin+0x248>
  407c96:	bf00      	nop
  407c98:	8800759c 	.word	0x8800759c
  407c9c:	7e37e43c 	.word	0x7e37e43c
  407ca0:	54442d18 	.word	0x54442d18
  407ca4:	3ff921fb 	.word	0x3ff921fb
  407ca8:	33145c07 	.word	0x33145c07
  407cac:	3c91a626 	.word	0x3c91a626
  407cb0:	0dfdf709 	.word	0x0dfdf709
  407cb4:	3f023de1 	.word	0x3f023de1
  407cb8:	7501b288 	.word	0x7501b288
  407cbc:	3f49efe0 	.word	0x3f49efe0
  407cc0:	b5688f3b 	.word	0xb5688f3b
  407cc4:	3fa48228 	.word	0x3fa48228
  407cc8:	0e884455 	.word	0x0e884455
  407ccc:	3fc9c155 	.word	0x3fc9c155
  407cd0:	03eb6f7d 	.word	0x03eb6f7d
  407cd4:	3fd4d612 	.word	0x3fd4d612
  407cd8:	55555555 	.word	0x55555555
  407cdc:	3fc55555 	.word	0x3fc55555
  407ce0:	b12e9282 	.word	0xb12e9282
  407ce4:	3fb3b8c5 	.word	0x3fb3b8c5
  407ce8:	1b8d0159 	.word	0x1b8d0159
  407cec:	3fe6066c 	.word	0x3fe6066c
  407cf0:	9c598ac8 	.word	0x9c598ac8
  407cf4:	40002ae5 	.word	0x40002ae5
  407cf8:	1c8a2d4b 	.word	0x1c8a2d4b
  407cfc:	40033a27 	.word	0x40033a27
  407d00:	54442d18 	.word	0x54442d18
  407d04:	3fe921fb 	.word	0x3fe921fb
  407d08:	3fefffff 	.word	0x3fefffff
  407d0c:	3fdfffff 	.word	0x3fdfffff
  407d10:	3ff00000 	.word	0x3ff00000
  407d14:	3fe00000 	.word	0x3fe00000
  407d18:	3fef3332 	.word	0x3fef3332
  407d1c:	4602      	mov	r2, r0
  407d1e:	460b      	mov	r3, r1
  407d20:	f002 f860 	bl	409de4 <__aeabi_dmul>
  407d24:	a338      	add	r3, pc, #224	; (adr r3, 407e08 <__ieee754_asin+0x408>)
  407d26:	e9d3 2300 	ldrd	r2, r3, [r3]
  407d2a:	4606      	mov	r6, r0
  407d2c:	460f      	mov	r7, r1
  407d2e:	f002 f859 	bl	409de4 <__aeabi_dmul>
  407d32:	a337      	add	r3, pc, #220	; (adr r3, 407e10 <__ieee754_asin+0x410>)
  407d34:	e9d3 2300 	ldrd	r2, r3, [r3]
  407d38:	f001 fea2 	bl	409a80 <__adddf3>
  407d3c:	4632      	mov	r2, r6
  407d3e:	463b      	mov	r3, r7
  407d40:	f002 f850 	bl	409de4 <__aeabi_dmul>
  407d44:	a334      	add	r3, pc, #208	; (adr r3, 407e18 <__ieee754_asin+0x418>)
  407d46:	e9d3 2300 	ldrd	r2, r3, [r3]
  407d4a:	f001 fe97 	bl	409a7c <__aeabi_dsub>
  407d4e:	4632      	mov	r2, r6
  407d50:	463b      	mov	r3, r7
  407d52:	f002 f847 	bl	409de4 <__aeabi_dmul>
  407d56:	a332      	add	r3, pc, #200	; (adr r3, 407e20 <__ieee754_asin+0x420>)
  407d58:	e9d3 2300 	ldrd	r2, r3, [r3]
  407d5c:	f001 fe90 	bl	409a80 <__adddf3>
  407d60:	4632      	mov	r2, r6
  407d62:	463b      	mov	r3, r7
  407d64:	f002 f83e 	bl	409de4 <__aeabi_dmul>
  407d68:	a32f      	add	r3, pc, #188	; (adr r3, 407e28 <__ieee754_asin+0x428>)
  407d6a:	e9d3 2300 	ldrd	r2, r3, [r3]
  407d6e:	f001 fe85 	bl	409a7c <__aeabi_dsub>
  407d72:	4632      	mov	r2, r6
  407d74:	463b      	mov	r3, r7
  407d76:	f002 f835 	bl	409de4 <__aeabi_dmul>
  407d7a:	a32d      	add	r3, pc, #180	; (adr r3, 407e30 <__ieee754_asin+0x430>)
  407d7c:	e9d3 2300 	ldrd	r2, r3, [r3]
  407d80:	f001 fe7e 	bl	409a80 <__adddf3>
  407d84:	4632      	mov	r2, r6
  407d86:	463b      	mov	r3, r7
  407d88:	f002 f82c 	bl	409de4 <__aeabi_dmul>
  407d8c:	a32a      	add	r3, pc, #168	; (adr r3, 407e38 <__ieee754_asin+0x438>)
  407d8e:	e9d3 2300 	ldrd	r2, r3, [r3]
  407d92:	4680      	mov	r8, r0
  407d94:	4689      	mov	r9, r1
  407d96:	4630      	mov	r0, r6
  407d98:	4639      	mov	r1, r7
  407d9a:	f002 f823 	bl	409de4 <__aeabi_dmul>
  407d9e:	a328      	add	r3, pc, #160	; (adr r3, 407e40 <__ieee754_asin+0x440>)
  407da0:	e9d3 2300 	ldrd	r2, r3, [r3]
  407da4:	f001 fe6a 	bl	409a7c <__aeabi_dsub>
  407da8:	4632      	mov	r2, r6
  407daa:	463b      	mov	r3, r7
  407dac:	f002 f81a 	bl	409de4 <__aeabi_dmul>
  407db0:	a325      	add	r3, pc, #148	; (adr r3, 407e48 <__ieee754_asin+0x448>)
  407db2:	e9d3 2300 	ldrd	r2, r3, [r3]
  407db6:	f001 fe63 	bl	409a80 <__adddf3>
  407dba:	4632      	mov	r2, r6
  407dbc:	463b      	mov	r3, r7
  407dbe:	f002 f811 	bl	409de4 <__aeabi_dmul>
  407dc2:	a323      	add	r3, pc, #140	; (adr r3, 407e50 <__ieee754_asin+0x450>)
  407dc4:	e9d3 2300 	ldrd	r2, r3, [r3]
  407dc8:	f001 fe58 	bl	409a7c <__aeabi_dsub>
  407dcc:	4632      	mov	r2, r6
  407dce:	463b      	mov	r3, r7
  407dd0:	f002 f808 	bl	409de4 <__aeabi_dmul>
  407dd4:	2200      	movs	r2, #0
  407dd6:	4b20      	ldr	r3, [pc, #128]	; (407e58 <__ieee754_asin+0x458>)
  407dd8:	f001 fe52 	bl	409a80 <__adddf3>
  407ddc:	4602      	mov	r2, r0
  407dde:	460b      	mov	r3, r1
  407de0:	4640      	mov	r0, r8
  407de2:	4649      	mov	r1, r9
  407de4:	f002 f928 	bl	40a038 <__aeabi_ddiv>
  407de8:	4622      	mov	r2, r4
  407dea:	462b      	mov	r3, r5
  407dec:	f001 fffa 	bl	409de4 <__aeabi_dmul>
  407df0:	4622      	mov	r2, r4
  407df2:	462b      	mov	r3, r5
  407df4:	f001 fe44 	bl	409a80 <__adddf3>
  407df8:	4604      	mov	r4, r0
  407dfa:	4620      	mov	r0, r4
  407dfc:	b004      	add	sp, #16
  407dfe:	e8bd 87f0 	ldmia.w	sp!, {r4, r5, r6, r7, r8, r9, sl, pc}
  407e02:	bf00      	nop
  407e04:	f3af 8000 	nop.w
  407e08:	0dfdf709 	.word	0x0dfdf709
  407e0c:	3f023de1 	.word	0x3f023de1
  407e10:	7501b288 	.word	0x7501b288
  407e14:	3f49efe0 	.word	0x3f49efe0
  407e18:	b5688f3b 	.word	0xb5688f3b
  407e1c:	3fa48228 	.word	0x3fa48228
  407e20:	0e884455 	.word	0x0e884455
  407e24:	3fc9c155 	.word	0x3fc9c155
  407e28:	03eb6f7d 	.word	0x03eb6f7d
  407e2c:	3fd4d612 	.word	0x3fd4d612
  407e30:	55555555 	.word	0x55555555
  407e34:	3fc55555 	.word	0x3fc55555
  407e38:	b12e9282 	.word	0xb12e9282
  407e3c:	3fb3b8c5 	.word	0x3fb3b8c5
  407e40:	1b8d0159 	.word	0x1b8d0159
  407e44:	3fe6066c 	.word	0x3fe6066c
  407e48:	9c598ac8 	.word	0x9c598ac8
  407e4c:	40002ae5 	.word	0x40002ae5
  407e50:	1c8a2d4b 	.word	0x1c8a2d4b
  407e54:	40033a27 	.word	0x40033a27
  407e58:	3ff00000 	.word	0x3ff00000
  407e5c:	00000000 	.word	0x00000000

00407e60 <__ieee754_atan2>:
  407e60:	e92d 4ff8 	stmdb	sp!, {r3, r4, r5, r6, r7, r8, r9, sl, fp, lr}
  407e64:	4254      	negs	r4, r2
  407e66:	4314      	orrs	r4, r2
  407e68:	f023 4900 	bic.w	r9, r3, #2147483648	; 0x80000000
  407e6c:	f8df e180 	ldr.w	lr, [pc, #384]	; 407ff0 <__ieee754_atan2+0x190>
  407e70:	ea49 74d4 	orr.w	r4, r9, r4, lsr #31
  407e74:	4574      	cmp	r4, lr
  407e76:	4606      	mov	r6, r0
  407e78:	460d      	mov	r5, r1
  407e7a:	d83e      	bhi.n	407efa <__ieee754_atan2+0x9a>
  407e7c:	4244      	negs	r4, r0
  407e7e:	4304      	orrs	r4, r0
  407e80:	f021 4b00 	bic.w	fp, r1, #2147483648	; 0x80000000
  407e84:	ea4b 74d4 	orr.w	r4, fp, r4, lsr #31
  407e88:	4574      	cmp	r4, lr
  407e8a:	468a      	mov	sl, r1
  407e8c:	d835      	bhi.n	407efa <__ieee754_atan2+0x9a>
  407e8e:	f103 4440 	add.w	r4, r3, #3221225472	; 0xc0000000
  407e92:	f504 1480 	add.w	r4, r4, #1048576	; 0x100000
  407e96:	4314      	orrs	r4, r2
  407e98:	d044      	beq.n	407f24 <__ieee754_atan2+0xc4>
  407e9a:	179c      	asrs	r4, r3, #30
  407e9c:	f004 0402 	and.w	r4, r4, #2
  407ea0:	ea44 74d1 	orr.w	r4, r4, r1, lsr #31
  407ea4:	ea50 010b 	orrs.w	r1, r0, fp
  407ea8:	d02f      	beq.n	407f0a <__ieee754_atan2+0xaa>
  407eaa:	ea52 0109 	orrs.w	r1, r2, r9
  407eae:	d033      	beq.n	407f18 <__ieee754_atan2+0xb8>
  407eb0:	45f1      	cmp	r9, lr
  407eb2:	d046      	beq.n	407f42 <__ieee754_atan2+0xe2>
  407eb4:	45f3      	cmp	fp, lr
  407eb6:	d02f      	beq.n	407f18 <__ieee754_atan2+0xb8>
  407eb8:	ebc9 090b 	rsb	r9, r9, fp
  407ebc:	ea4f 5929 	mov.w	r9, r9, asr #20
  407ec0:	f1b9 0f3c 	cmp.w	r9, #60	; 0x3c
  407ec4:	dc34      	bgt.n	407f30 <__ieee754_atan2+0xd0>
  407ec6:	2b00      	cmp	r3, #0
  407ec8:	db57      	blt.n	407f7a <__ieee754_atan2+0x11a>
  407eca:	4630      	mov	r0, r6
  407ecc:	4629      	mov	r1, r5
  407ece:	f002 f8b3 	bl	40a038 <__aeabi_ddiv>
  407ed2:	f001 fcb3 	bl	40983c <fabs>
  407ed6:	f001 fb13 	bl	409500 <atan>
  407eda:	2c01      	cmp	r4, #1
  407edc:	d04a      	beq.n	407f74 <__ieee754_atan2+0x114>
  407ede:	2c02      	cmp	r4, #2
  407ee0:	d03b      	beq.n	407f5a <__ieee754_atan2+0xfa>
  407ee2:	b184      	cbz	r4, 407f06 <__ieee754_atan2+0xa6>
  407ee4:	a332      	add	r3, pc, #200	; (adr r3, 407fb0 <__ieee754_atan2+0x150>)
  407ee6:	e9d3 2300 	ldrd	r2, r3, [r3]
  407eea:	f001 fdc7 	bl	409a7c <__aeabi_dsub>
  407eee:	a332      	add	r3, pc, #200	; (adr r3, 407fb8 <__ieee754_atan2+0x158>)
  407ef0:	e9d3 2300 	ldrd	r2, r3, [r3]
  407ef4:	f001 fdc2 	bl	409a7c <__aeabi_dsub>
  407ef8:	e005      	b.n	407f06 <__ieee754_atan2+0xa6>
  407efa:	4610      	mov	r0, r2
  407efc:	4619      	mov	r1, r3
  407efe:	4632      	mov	r2, r6
  407f00:	462b      	mov	r3, r5
  407f02:	f001 fdbd 	bl	409a80 <__adddf3>
  407f06:	e8bd 8ff8 	ldmia.w	sp!, {r3, r4, r5, r6, r7, r8, r9, sl, fp, pc}
  407f0a:	2c02      	cmp	r4, #2
  407f0c:	d014      	beq.n	407f38 <__ieee754_atan2+0xd8>
  407f0e:	2c03      	cmp	r4, #3
  407f10:	d10c      	bne.n	407f2c <__ieee754_atan2+0xcc>
  407f12:	482d      	ldr	r0, [pc, #180]	; (407fc8 <__ieee754_atan2+0x168>)
  407f14:	492d      	ldr	r1, [pc, #180]	; (407fcc <__ieee754_atan2+0x16c>)
  407f16:	e7f6      	b.n	407f06 <__ieee754_atan2+0xa6>
  407f18:	f1ba 0f00 	cmp.w	sl, #0
  407f1c:	482a      	ldr	r0, [pc, #168]	; (407fc8 <__ieee754_atan2+0x168>)
  407f1e:	db0e      	blt.n	407f3e <__ieee754_atan2+0xde>
  407f20:	492b      	ldr	r1, [pc, #172]	; (407fd0 <__ieee754_atan2+0x170>)
  407f22:	e7f0      	b.n	407f06 <__ieee754_atan2+0xa6>
  407f24:	e8bd 4ff8 	ldmia.w	sp!, {r3, r4, r5, r6, r7, r8, r9, sl, fp, lr}
  407f28:	f001 baea 	b.w	409500 <atan>
  407f2c:	4629      	mov	r1, r5
  407f2e:	e7ea      	b.n	407f06 <__ieee754_atan2+0xa6>
  407f30:	a123      	add	r1, pc, #140	; (adr r1, 407fc0 <__ieee754_atan2+0x160>)
  407f32:	e9d1 0100 	ldrd	r0, r1, [r1]
  407f36:	e7d0      	b.n	407eda <__ieee754_atan2+0x7a>
  407f38:	4823      	ldr	r0, [pc, #140]	; (407fc8 <__ieee754_atan2+0x168>)
  407f3a:	4926      	ldr	r1, [pc, #152]	; (407fd4 <__ieee754_atan2+0x174>)
  407f3c:	e7e3      	b.n	407f06 <__ieee754_atan2+0xa6>
  407f3e:	4926      	ldr	r1, [pc, #152]	; (407fd8 <__ieee754_atan2+0x178>)
  407f40:	e7e1      	b.n	407f06 <__ieee754_atan2+0xa6>
  407f42:	45cb      	cmp	fp, r9
  407f44:	d01f      	beq.n	407f86 <__ieee754_atan2+0x126>
  407f46:	2c02      	cmp	r4, #2
  407f48:	d0f6      	beq.n	407f38 <__ieee754_atan2+0xd8>
  407f4a:	2c03      	cmp	r4, #3
  407f4c:	d0e1      	beq.n	407f12 <__ieee754_atan2+0xb2>
  407f4e:	2c01      	cmp	r4, #1
  407f50:	f04f 0000 	mov.w	r0, #0
  407f54:	d020      	beq.n	407f98 <__ieee754_atan2+0x138>
  407f56:	4601      	mov	r1, r0
  407f58:	e7d5      	b.n	407f06 <__ieee754_atan2+0xa6>
  407f5a:	a315      	add	r3, pc, #84	; (adr r3, 407fb0 <__ieee754_atan2+0x150>)
  407f5c:	e9d3 2300 	ldrd	r2, r3, [r3]
  407f60:	f001 fd8c 	bl	409a7c <__aeabi_dsub>
  407f64:	4602      	mov	r2, r0
  407f66:	460b      	mov	r3, r1
  407f68:	a113      	add	r1, pc, #76	; (adr r1, 407fb8 <__ieee754_atan2+0x158>)
  407f6a:	e9d1 0100 	ldrd	r0, r1, [r1]
  407f6e:	f001 fd85 	bl	409a7c <__aeabi_dsub>
  407f72:	e7c8      	b.n	407f06 <__ieee754_atan2+0xa6>
  407f74:	f101 4100 	add.w	r1, r1, #2147483648	; 0x80000000
  407f78:	e7c5      	b.n	407f06 <__ieee754_atan2+0xa6>
  407f7a:	f119 0f3c 	cmn.w	r9, #60	; 0x3c
  407f7e:	daa4      	bge.n	407eca <__ieee754_atan2+0x6a>
  407f80:	2000      	movs	r0, #0
  407f82:	2100      	movs	r1, #0
  407f84:	e7a9      	b.n	407eda <__ieee754_atan2+0x7a>
  407f86:	2c02      	cmp	r4, #2
  407f88:	d00e      	beq.n	407fa8 <__ieee754_atan2+0x148>
  407f8a:	2c03      	cmp	r4, #3
  407f8c:	d009      	beq.n	407fa2 <__ieee754_atan2+0x142>
  407f8e:	2c01      	cmp	r4, #1
  407f90:	480d      	ldr	r0, [pc, #52]	; (407fc8 <__ieee754_atan2+0x168>)
  407f92:	d004      	beq.n	407f9e <__ieee754_atan2+0x13e>
  407f94:	4911      	ldr	r1, [pc, #68]	; (407fdc <__ieee754_atan2+0x17c>)
  407f96:	e7b6      	b.n	407f06 <__ieee754_atan2+0xa6>
  407f98:	f04f 4100 	mov.w	r1, #2147483648	; 0x80000000
  407f9c:	e7b3      	b.n	407f06 <__ieee754_atan2+0xa6>
  407f9e:	4910      	ldr	r1, [pc, #64]	; (407fe0 <__ieee754_atan2+0x180>)
  407fa0:	e7b1      	b.n	407f06 <__ieee754_atan2+0xa6>
  407fa2:	4810      	ldr	r0, [pc, #64]	; (407fe4 <__ieee754_atan2+0x184>)
  407fa4:	4910      	ldr	r1, [pc, #64]	; (407fe8 <__ieee754_atan2+0x188>)
  407fa6:	e7ae      	b.n	407f06 <__ieee754_atan2+0xa6>
  407fa8:	480e      	ldr	r0, [pc, #56]	; (407fe4 <__ieee754_atan2+0x184>)
  407faa:	4910      	ldr	r1, [pc, #64]	; (407fec <__ieee754_atan2+0x18c>)
  407fac:	e7ab      	b.n	407f06 <__ieee754_atan2+0xa6>
  407fae:	bf00      	nop
  407fb0:	33145c07 	.word	0x33145c07
  407fb4:	3ca1a626 	.word	0x3ca1a626
  407fb8:	54442d18 	.word	0x54442d18
  407fbc:	400921fb 	.word	0x400921fb
  407fc0:	54442d18 	.word	0x54442d18
  407fc4:	3ff921fb 	.word	0x3ff921fb
  407fc8:	54442d18 	.word	0x54442d18
  407fcc:	c00921fb 	.word	0xc00921fb
  407fd0:	3ff921fb 	.word	0x3ff921fb
  407fd4:	400921fb 	.word	0x400921fb
  407fd8:	bff921fb 	.word	0xbff921fb
  407fdc:	3fe921fb 	.word	0x3fe921fb
  407fe0:	bfe921fb 	.word	0xbfe921fb
  407fe4:	7f3321d2 	.word	0x7f3321d2
  407fe8:	c002d97c 	.word	0xc002d97c
  407fec:	4002d97c 	.word	0x4002d97c
  407ff0:	7ff00000 	.word	0x7ff00000
  407ff4:	00000000 	.word	0x00000000

00407ff8 <__ieee754_rem_pio2>:
  407ff8:	e92d 4ff0 	stmdb	sp!, {r4, r5, r6, r7, r8, r9, sl, fp, lr}
  407ffc:	4e94      	ldr	r6, [pc, #592]	; (408250 <__ieee754_rem_pio2+0x258>)
  407ffe:	f021 4700 	bic.w	r7, r1, #2147483648	; 0x80000000
  408002:	42b7      	cmp	r7, r6
  408004:	b091      	sub	sp, #68	; 0x44
  408006:	f340 8082 	ble.w	40810e <__ieee754_rem_pio2+0x116>
  40800a:	4692      	mov	sl, r2
  40800c:	4a91      	ldr	r2, [pc, #580]	; (408254 <__ieee754_rem_pio2+0x25c>)
  40800e:	4297      	cmp	r7, r2
  408010:	460c      	mov	r4, r1
  408012:	dc26      	bgt.n	408062 <__ieee754_rem_pio2+0x6a>
  408014:	2900      	cmp	r1, #0
  408016:	a384      	add	r3, pc, #528	; (adr r3, 408228 <__ieee754_rem_pio2+0x230>)
  408018:	e9d3 2300 	ldrd	r2, r3, [r3]
  40801c:	f340 81a8 	ble.w	408370 <__ieee754_rem_pio2+0x378>
  408020:	f001 fd2c 	bl	409a7c <__aeabi_dsub>
  408024:	4b8c      	ldr	r3, [pc, #560]	; (408258 <__ieee754_rem_pio2+0x260>)
  408026:	429f      	cmp	r7, r3
  408028:	4604      	mov	r4, r0
  40802a:	460d      	mov	r5, r1
  40802c:	f000 8084 	beq.w	408138 <__ieee754_rem_pio2+0x140>
  408030:	a37f      	add	r3, pc, #508	; (adr r3, 408230 <__ieee754_rem_pio2+0x238>)
  408032:	e9d3 2300 	ldrd	r2, r3, [r3]
  408036:	f001 fd21 	bl	409a7c <__aeabi_dsub>
  40803a:	4602      	mov	r2, r0
  40803c:	460b      	mov	r3, r1
  40803e:	e9ca 2300 	strd	r2, r3, [sl]
  408042:	4620      	mov	r0, r4
  408044:	4629      	mov	r1, r5
  408046:	f001 fd19 	bl	409a7c <__aeabi_dsub>
  40804a:	a379      	add	r3, pc, #484	; (adr r3, 408230 <__ieee754_rem_pio2+0x238>)
  40804c:	e9d3 2300 	ldrd	r2, r3, [r3]
  408050:	f001 fd14 	bl	409a7c <__aeabi_dsub>
  408054:	2501      	movs	r5, #1
  408056:	e9ca 0102 	strd	r0, r1, [sl, #8]
  40805a:	4628      	mov	r0, r5
  40805c:	b011      	add	sp, #68	; 0x44
  40805e:	e8bd 8ff0 	ldmia.w	sp!, {r4, r5, r6, r7, r8, r9, sl, fp, pc}
  408062:	4a7e      	ldr	r2, [pc, #504]	; (40825c <__ieee754_rem_pio2+0x264>)
  408064:	4297      	cmp	r7, r2
  408066:	f340 8084 	ble.w	408172 <__ieee754_rem_pio2+0x17a>
  40806a:	4a7d      	ldr	r2, [pc, #500]	; (408260 <__ieee754_rem_pio2+0x268>)
  40806c:	4297      	cmp	r7, r2
  40806e:	dc59      	bgt.n	408124 <__ieee754_rem_pio2+0x12c>
  408070:	153d      	asrs	r5, r7, #20
  408072:	f2a5 4516 	subw	r5, r5, #1046	; 0x416
  408076:	eba7 5305 	sub.w	r3, r7, r5, lsl #20
  40807a:	4619      	mov	r1, r3
  40807c:	461f      	mov	r7, r3
  40807e:	4606      	mov	r6, r0
  408080:	f002 f960 	bl	40a344 <__aeabi_d2iz>
  408084:	f001 fe48 	bl	409d18 <__aeabi_i2d>
  408088:	4680      	mov	r8, r0
  40808a:	4689      	mov	r9, r1
  40808c:	4602      	mov	r2, r0
  40808e:	460b      	mov	r3, r1
  408090:	4630      	mov	r0, r6
  408092:	4639      	mov	r1, r7
  408094:	e9cd 890a 	strd	r8, r9, [sp, #40]	; 0x28
  408098:	f001 fcf0 	bl	409a7c <__aeabi_dsub>
  40809c:	2200      	movs	r2, #0
  40809e:	4b71      	ldr	r3, [pc, #452]	; (408264 <__ieee754_rem_pio2+0x26c>)
  4080a0:	f001 fea0 	bl	409de4 <__aeabi_dmul>
  4080a4:	4689      	mov	r9, r1
  4080a6:	4680      	mov	r8, r0
  4080a8:	f002 f94c 	bl	40a344 <__aeabi_d2iz>
  4080ac:	f001 fe34 	bl	409d18 <__aeabi_i2d>
  4080b0:	4602      	mov	r2, r0
  4080b2:	460b      	mov	r3, r1
  4080b4:	4606      	mov	r6, r0
  4080b6:	460f      	mov	r7, r1
  4080b8:	4640      	mov	r0, r8
  4080ba:	4649      	mov	r1, r9
  4080bc:	e9cd 670c 	strd	r6, r7, [sp, #48]	; 0x30
  4080c0:	f001 fcdc 	bl	409a7c <__aeabi_dsub>
  4080c4:	2200      	movs	r2, #0
  4080c6:	4b67      	ldr	r3, [pc, #412]	; (408264 <__ieee754_rem_pio2+0x26c>)
  4080c8:	f001 fe8c 	bl	409de4 <__aeabi_dmul>
  4080cc:	2200      	movs	r2, #0
  4080ce:	2300      	movs	r3, #0
  4080d0:	e9cd 010e 	strd	r0, r1, [sp, #56]	; 0x38
  4080d4:	f002 f8ee 	bl	40a2b4 <__aeabi_dcmpeq>
  4080d8:	2800      	cmp	r0, #0
  4080da:	f000 8175 	beq.w	4083c8 <__ieee754_rem_pio2+0x3d0>
  4080de:	2300      	movs	r3, #0
  4080e0:	4630      	mov	r0, r6
  4080e2:	4639      	mov	r1, r7
  4080e4:	2200      	movs	r2, #0
  4080e6:	f002 f8e5 	bl	40a2b4 <__aeabi_dcmpeq>
  4080ea:	2800      	cmp	r0, #0
  4080ec:	bf14      	ite	ne
  4080ee:	2301      	movne	r3, #1
  4080f0:	2302      	moveq	r3, #2
  4080f2:	4a5d      	ldr	r2, [pc, #372]	; (408268 <__ieee754_rem_pio2+0x270>)
  4080f4:	9201      	str	r2, [sp, #4]
  4080f6:	2102      	movs	r1, #2
  4080f8:	9100      	str	r1, [sp, #0]
  4080fa:	462a      	mov	r2, r5
  4080fc:	4651      	mov	r1, sl
  4080fe:	a80a      	add	r0, sp, #40	; 0x28
  408100:	f000 fb82 	bl	408808 <__kernel_rem_pio2>
  408104:	2c00      	cmp	r4, #0
  408106:	f2c0 8151 	blt.w	4083ac <__ieee754_rem_pio2+0x3b4>
  40810a:	4605      	mov	r5, r0
  40810c:	e006      	b.n	40811c <__ieee754_rem_pio2+0x124>
  40810e:	e9c2 0100 	strd	r0, r1, [r2]
  408112:	2500      	movs	r5, #0
  408114:	2400      	movs	r4, #0
  408116:	e9c2 4502 	strd	r4, r5, [r2, #8]
  40811a:	2500      	movs	r5, #0
  40811c:	4628      	mov	r0, r5
  40811e:	b011      	add	sp, #68	; 0x44
  408120:	e8bd 8ff0 	ldmia.w	sp!, {r4, r5, r6, r7, r8, r9, sl, fp, pc}
  408124:	4602      	mov	r2, r0
  408126:	460b      	mov	r3, r1
  408128:	f001 fca8 	bl	409a7c <__aeabi_dsub>
  40812c:	2500      	movs	r5, #0
  40812e:	e9ca 0102 	strd	r0, r1, [sl, #8]
  408132:	e9ca 0100 	strd	r0, r1, [sl]
  408136:	e7f1      	b.n	40811c <__ieee754_rem_pio2+0x124>
  408138:	a33f      	add	r3, pc, #252	; (adr r3, 408238 <__ieee754_rem_pio2+0x240>)
  40813a:	e9d3 2300 	ldrd	r2, r3, [r3]
  40813e:	f001 fc9d 	bl	409a7c <__aeabi_dsub>
  408142:	a33f      	add	r3, pc, #252	; (adr r3, 408240 <__ieee754_rem_pio2+0x248>)
  408144:	e9d3 2300 	ldrd	r2, r3, [r3]
  408148:	460d      	mov	r5, r1
  40814a:	4604      	mov	r4, r0
  40814c:	f001 fc96 	bl	409a7c <__aeabi_dsub>
  408150:	4602      	mov	r2, r0
  408152:	460b      	mov	r3, r1
  408154:	e9ca 2300 	strd	r2, r3, [sl]
  408158:	4629      	mov	r1, r5
  40815a:	4620      	mov	r0, r4
  40815c:	f001 fc8e 	bl	409a7c <__aeabi_dsub>
  408160:	a337      	add	r3, pc, #220	; (adr r3, 408240 <__ieee754_rem_pio2+0x248>)
  408162:	e9d3 2300 	ldrd	r2, r3, [r3]
  408166:	f001 fc89 	bl	409a7c <__aeabi_dsub>
  40816a:	2501      	movs	r5, #1
  40816c:	e9ca 0102 	strd	r0, r1, [sl, #8]
  408170:	e7d4      	b.n	40811c <__ieee754_rem_pio2+0x124>
  408172:	f001 fb63 	bl	40983c <fabs>
  408176:	a334      	add	r3, pc, #208	; (adr r3, 408248 <__ieee754_rem_pio2+0x250>)
  408178:	e9d3 2300 	ldrd	r2, r3, [r3]
  40817c:	4680      	mov	r8, r0
  40817e:	4689      	mov	r9, r1
  408180:	f001 fe30 	bl	409de4 <__aeabi_dmul>
  408184:	2200      	movs	r2, #0
  408186:	4b39      	ldr	r3, [pc, #228]	; (40826c <__ieee754_rem_pio2+0x274>)
  408188:	f001 fc7a 	bl	409a80 <__adddf3>
  40818c:	f002 f8da 	bl	40a344 <__aeabi_d2iz>
  408190:	4605      	mov	r5, r0
  408192:	f001 fdc1 	bl	409d18 <__aeabi_i2d>
  408196:	a324      	add	r3, pc, #144	; (adr r3, 408228 <__ieee754_rem_pio2+0x230>)
  408198:	e9d3 2300 	ldrd	r2, r3, [r3]
  40819c:	e9cd 0104 	strd	r0, r1, [sp, #16]
  4081a0:	f001 fe20 	bl	409de4 <__aeabi_dmul>
  4081a4:	4602      	mov	r2, r0
  4081a6:	460b      	mov	r3, r1
  4081a8:	4640      	mov	r0, r8
  4081aa:	4649      	mov	r1, r9
  4081ac:	f001 fc66 	bl	409a7c <__aeabi_dsub>
  4081b0:	a31f      	add	r3, pc, #124	; (adr r3, 408230 <__ieee754_rem_pio2+0x238>)
  4081b2:	e9d3 2300 	ldrd	r2, r3, [r3]
  4081b6:	4680      	mov	r8, r0
  4081b8:	4689      	mov	r9, r1
  4081ba:	e9dd 0104 	ldrd	r0, r1, [sp, #16]
  4081be:	f001 fe11 	bl	409de4 <__aeabi_dmul>
  4081c2:	2d1f      	cmp	r5, #31
  4081c4:	e9cd 0102 	strd	r0, r1, [sp, #8]
  4081c8:	dc54      	bgt.n	408274 <__ieee754_rem_pio2+0x27c>
  4081ca:	4b29      	ldr	r3, [pc, #164]	; (408270 <__ieee754_rem_pio2+0x278>)
  4081cc:	1e6a      	subs	r2, r5, #1
  4081ce:	f853 3022 	ldr.w	r3, [r3, r2, lsl #2]
  4081d2:	429f      	cmp	r7, r3
  4081d4:	d04e      	beq.n	408274 <__ieee754_rem_pio2+0x27c>
  4081d6:	4602      	mov	r2, r0
  4081d8:	460b      	mov	r3, r1
  4081da:	4640      	mov	r0, r8
  4081dc:	4649      	mov	r1, r9
  4081de:	f001 fc4d 	bl	409a7c <__aeabi_dsub>
  4081e2:	4602      	mov	r2, r0
  4081e4:	460b      	mov	r3, r1
  4081e6:	e9ca 2300 	strd	r2, r3, [sl]
  4081ea:	4683      	mov	fp, r0
  4081ec:	460e      	mov	r6, r1
  4081ee:	465a      	mov	r2, fp
  4081f0:	4633      	mov	r3, r6
  4081f2:	4640      	mov	r0, r8
  4081f4:	4649      	mov	r1, r9
  4081f6:	f001 fc41 	bl	409a7c <__aeabi_dsub>
  4081fa:	e9dd 2302 	ldrd	r2, r3, [sp, #8]
  4081fe:	f001 fc3d 	bl	409a7c <__aeabi_dsub>
  408202:	2c00      	cmp	r4, #0
  408204:	4602      	mov	r2, r0
  408206:	460b      	mov	r3, r1
  408208:	e9ca 2302 	strd	r2, r3, [sl, #8]
  40820c:	da86      	bge.n	40811c <__ieee754_rem_pio2+0x124>
  40820e:	465b      	mov	r3, fp
  408210:	f106 4600 	add.w	r6, r6, #2147483648	; 0x80000000
  408214:	f101 4100 	add.w	r1, r1, #2147483648	; 0x80000000
  408218:	e88a 0048 	stmia.w	sl, {r3, r6}
  40821c:	f8ca 100c 	str.w	r1, [sl, #12]
  408220:	f8ca 0008 	str.w	r0, [sl, #8]
  408224:	426d      	negs	r5, r5
  408226:	e779      	b.n	40811c <__ieee754_rem_pio2+0x124>
  408228:	54400000 	.word	0x54400000
  40822c:	3ff921fb 	.word	0x3ff921fb
  408230:	1a626331 	.word	0x1a626331
  408234:	3dd0b461 	.word	0x3dd0b461
  408238:	1a600000 	.word	0x1a600000
  40823c:	3dd0b461 	.word	0x3dd0b461
  408240:	2e037073 	.word	0x2e037073
  408244:	3ba3198a 	.word	0x3ba3198a
  408248:	6dc9c883 	.word	0x6dc9c883
  40824c:	3fe45f30 	.word	0x3fe45f30
  408250:	3fe921fb 	.word	0x3fe921fb
  408254:	4002d97b 	.word	0x4002d97b
  408258:	3ff921fb 	.word	0x3ff921fb
  40825c:	413921fb 	.word	0x413921fb
  408260:	7fefffff 	.word	0x7fefffff
  408264:	41700000 	.word	0x41700000
  408268:	0040b1d4 	.word	0x0040b1d4
  40826c:	3fe00000 	.word	0x3fe00000
  408270:	0040b154 	.word	0x0040b154
  408274:	e9dd 2302 	ldrd	r2, r3, [sp, #8]
  408278:	4640      	mov	r0, r8
  40827a:	4649      	mov	r1, r9
  40827c:	f001 fbfe 	bl	409a7c <__aeabi_dsub>
  408280:	153a      	asrs	r2, r7, #20
  408282:	f3c1 530a 	ubfx	r3, r1, #20, #11
  408286:	1ad3      	subs	r3, r2, r3
  408288:	2b10      	cmp	r3, #16
  40828a:	4683      	mov	fp, r0
  40828c:	460e      	mov	r6, r1
  40828e:	9209      	str	r2, [sp, #36]	; 0x24
  408290:	e9ca 0100 	strd	r0, r1, [sl]
  408294:	ddab      	ble.n	4081ee <__ieee754_rem_pio2+0x1f6>
  408296:	a35e      	add	r3, pc, #376	; (adr r3, 408410 <__ieee754_rem_pio2+0x418>)
  408298:	e9d3 2300 	ldrd	r2, r3, [r3]
  40829c:	e9dd 0104 	ldrd	r0, r1, [sp, #16]
  4082a0:	f001 fda0 	bl	409de4 <__aeabi_dmul>
  4082a4:	4606      	mov	r6, r0
  4082a6:	460f      	mov	r7, r1
  4082a8:	4602      	mov	r2, r0
  4082aa:	460b      	mov	r3, r1
  4082ac:	4640      	mov	r0, r8
  4082ae:	4649      	mov	r1, r9
  4082b0:	f001 fbe4 	bl	409a7c <__aeabi_dsub>
  4082b4:	e9cd 0106 	strd	r0, r1, [sp, #24]
  4082b8:	4602      	mov	r2, r0
  4082ba:	460b      	mov	r3, r1
  4082bc:	4640      	mov	r0, r8
  4082be:	4649      	mov	r1, r9
  4082c0:	f001 fbdc 	bl	409a7c <__aeabi_dsub>
  4082c4:	4632      	mov	r2, r6
  4082c6:	463b      	mov	r3, r7
  4082c8:	f001 fbd8 	bl	409a7c <__aeabi_dsub>
  4082cc:	a352      	add	r3, pc, #328	; (adr r3, 408418 <__ieee754_rem_pio2+0x420>)
  4082ce:	e9d3 2300 	ldrd	r2, r3, [r3]
  4082d2:	4606      	mov	r6, r0
  4082d4:	460f      	mov	r7, r1
  4082d6:	e9dd 0104 	ldrd	r0, r1, [sp, #16]
  4082da:	f001 fd83 	bl	409de4 <__aeabi_dmul>
  4082de:	4632      	mov	r2, r6
  4082e0:	463b      	mov	r3, r7
  4082e2:	f001 fbcb 	bl	409a7c <__aeabi_dsub>
  4082e6:	e9dd 8906 	ldrd	r8, r9, [sp, #24]
  4082ea:	e9cd 0102 	strd	r0, r1, [sp, #8]
  4082ee:	4602      	mov	r2, r0
  4082f0:	460b      	mov	r3, r1
  4082f2:	4640      	mov	r0, r8
  4082f4:	4649      	mov	r1, r9
  4082f6:	f001 fbc1 	bl	409a7c <__aeabi_dsub>
  4082fa:	460b      	mov	r3, r1
  4082fc:	f3c1 570a 	ubfx	r7, r1, #20, #11
  408300:	460e      	mov	r6, r1
  408302:	9909      	ldr	r1, [sp, #36]	; 0x24
  408304:	1bcf      	subs	r7, r1, r7
  408306:	4602      	mov	r2, r0
  408308:	2f31      	cmp	r7, #49	; 0x31
  40830a:	4683      	mov	fp, r0
  40830c:	e9ca 2300 	strd	r2, r3, [sl]
  408310:	dd7a      	ble.n	408408 <__ieee754_rem_pio2+0x410>
  408312:	a343      	add	r3, pc, #268	; (adr r3, 408420 <__ieee754_rem_pio2+0x428>)
  408314:	e9d3 2300 	ldrd	r2, r3, [r3]
  408318:	e9dd 0104 	ldrd	r0, r1, [sp, #16]
  40831c:	f001 fd62 	bl	409de4 <__aeabi_dmul>
  408320:	4606      	mov	r6, r0
  408322:	460f      	mov	r7, r1
  408324:	4602      	mov	r2, r0
  408326:	460b      	mov	r3, r1
  408328:	4640      	mov	r0, r8
  40832a:	4649      	mov	r1, r9
  40832c:	e9cd 8906 	strd	r8, r9, [sp, #24]
  408330:	f001 fba4 	bl	409a7c <__aeabi_dsub>
  408334:	4602      	mov	r2, r0
  408336:	460b      	mov	r3, r1
  408338:	4680      	mov	r8, r0
  40833a:	4689      	mov	r9, r1
  40833c:	e9dd 0106 	ldrd	r0, r1, [sp, #24]
  408340:	f001 fb9c 	bl	409a7c <__aeabi_dsub>
  408344:	4632      	mov	r2, r6
  408346:	463b      	mov	r3, r7
  408348:	f001 fb98 	bl	409a7c <__aeabi_dsub>
  40834c:	a336      	add	r3, pc, #216	; (adr r3, 408428 <__ieee754_rem_pio2+0x430>)
  40834e:	e9d3 2300 	ldrd	r2, r3, [r3]
  408352:	4606      	mov	r6, r0
  408354:	460f      	mov	r7, r1
  408356:	e9dd 0104 	ldrd	r0, r1, [sp, #16]
  40835a:	f001 fd43 	bl	409de4 <__aeabi_dmul>
  40835e:	4632      	mov	r2, r6
  408360:	463b      	mov	r3, r7
  408362:	f001 fb8b 	bl	409a7c <__aeabi_dsub>
  408366:	4602      	mov	r2, r0
  408368:	460b      	mov	r3, r1
  40836a:	e9cd 2302 	strd	r2, r3, [sp, #8]
  40836e:	e734      	b.n	4081da <__ieee754_rem_pio2+0x1e2>
  408370:	f001 fb86 	bl	409a80 <__adddf3>
  408374:	4b30      	ldr	r3, [pc, #192]	; (408438 <__ieee754_rem_pio2+0x440>)
  408376:	429f      	cmp	r7, r3
  408378:	4604      	mov	r4, r0
  40837a:	460d      	mov	r5, r1
  40837c:	d026      	beq.n	4083cc <__ieee754_rem_pio2+0x3d4>
  40837e:	a32c      	add	r3, pc, #176	; (adr r3, 408430 <__ieee754_rem_pio2+0x438>)
  408380:	e9d3 2300 	ldrd	r2, r3, [r3]
  408384:	f001 fb7c 	bl	409a80 <__adddf3>
  408388:	4602      	mov	r2, r0
  40838a:	460b      	mov	r3, r1
  40838c:	e9ca 2300 	strd	r2, r3, [sl]
  408390:	4629      	mov	r1, r5
  408392:	4620      	mov	r0, r4
  408394:	f001 fb72 	bl	409a7c <__aeabi_dsub>
  408398:	a325      	add	r3, pc, #148	; (adr r3, 408430 <__ieee754_rem_pio2+0x438>)
  40839a:	e9d3 2300 	ldrd	r2, r3, [r3]
  40839e:	f001 fb6f 	bl	409a80 <__adddf3>
  4083a2:	f04f 35ff 	mov.w	r5, #4294967295
  4083a6:	e9ca 0102 	strd	r0, r1, [sl, #8]
  4083aa:	e6b7      	b.n	40811c <__ieee754_rem_pio2+0x124>
  4083ac:	f8da 2004 	ldr.w	r2, [sl, #4]
  4083b0:	f8da 300c 	ldr.w	r3, [sl, #12]
  4083b4:	f102 4200 	add.w	r2, r2, #2147483648	; 0x80000000
  4083b8:	f103 4300 	add.w	r3, r3, #2147483648	; 0x80000000
  4083bc:	4245      	negs	r5, r0
  4083be:	f8ca 2004 	str.w	r2, [sl, #4]
  4083c2:	f8ca 300c 	str.w	r3, [sl, #12]
  4083c6:	e6a9      	b.n	40811c <__ieee754_rem_pio2+0x124>
  4083c8:	2303      	movs	r3, #3
  4083ca:	e692      	b.n	4080f2 <__ieee754_rem_pio2+0xfa>
  4083cc:	a310      	add	r3, pc, #64	; (adr r3, 408410 <__ieee754_rem_pio2+0x418>)
  4083ce:	e9d3 2300 	ldrd	r2, r3, [r3]
  4083d2:	f001 fb55 	bl	409a80 <__adddf3>
  4083d6:	a310      	add	r3, pc, #64	; (adr r3, 408418 <__ieee754_rem_pio2+0x420>)
  4083d8:	e9d3 2300 	ldrd	r2, r3, [r3]
  4083dc:	460d      	mov	r5, r1
  4083de:	4604      	mov	r4, r0
  4083e0:	f001 fb4e 	bl	409a80 <__adddf3>
  4083e4:	4602      	mov	r2, r0
  4083e6:	460b      	mov	r3, r1
  4083e8:	e9ca 2300 	strd	r2, r3, [sl]
  4083ec:	4629      	mov	r1, r5
  4083ee:	4620      	mov	r0, r4
  4083f0:	f001 fb44 	bl	409a7c <__aeabi_dsub>
  4083f4:	a308      	add	r3, pc, #32	; (adr r3, 408418 <__ieee754_rem_pio2+0x420>)
  4083f6:	e9d3 2300 	ldrd	r2, r3, [r3]
  4083fa:	f001 fb41 	bl	409a80 <__adddf3>
  4083fe:	f04f 35ff 	mov.w	r5, #4294967295
  408402:	e9ca 0102 	strd	r0, r1, [sl, #8]
  408406:	e689      	b.n	40811c <__ieee754_rem_pio2+0x124>
  408408:	e9dd 8906 	ldrd	r8, r9, [sp, #24]
  40840c:	e6ef      	b.n	4081ee <__ieee754_rem_pio2+0x1f6>
  40840e:	bf00      	nop
  408410:	1a600000 	.word	0x1a600000
  408414:	3dd0b461 	.word	0x3dd0b461
  408418:	2e037073 	.word	0x2e037073
  40841c:	3ba3198a 	.word	0x3ba3198a
  408420:	2e000000 	.word	0x2e000000
  408424:	3ba3198a 	.word	0x3ba3198a
  408428:	252049c1 	.word	0x252049c1
  40842c:	397b839a 	.word	0x397b839a
  408430:	1a626331 	.word	0x1a626331
  408434:	3dd0b461 	.word	0x3dd0b461
  408438:	3ff921fb 	.word	0x3ff921fb

0040843c <__ieee754_sqrt>:
  40843c:	e92d 43f8 	stmdb	sp!, {r3, r4, r5, r6, r7, r8, r9, lr}
  408440:	4e5d      	ldr	r6, [pc, #372]	; (4085b8 <__ieee754_sqrt+0x17c>)
  408442:	46b6      	mov	lr, r6
  408444:	400e      	ands	r6, r1
  408446:	4576      	cmp	r6, lr
  408448:	460c      	mov	r4, r1
  40844a:	4605      	mov	r5, r0
  40844c:	f000 8095 	beq.w	40857a <__ieee754_sqrt+0x13e>
  408450:	2900      	cmp	r1, #0
  408452:	460b      	mov	r3, r1
  408454:	4602      	mov	r2, r0
  408456:	dd73      	ble.n	408540 <__ieee754_sqrt+0x104>
  408458:	150f      	asrs	r7, r1, #20
  40845a:	d07e      	beq.n	40855a <__ieee754_sqrt+0x11e>
  40845c:	f2a7 37ff 	subw	r7, r7, #1023	; 0x3ff
  408460:	f3c3 0313 	ubfx	r3, r3, #0, #20
  408464:	07f8      	lsls	r0, r7, #31
  408466:	f443 1380 	orr.w	r3, r3, #1048576	; 0x100000
  40846a:	d464      	bmi.n	408536 <__ieee754_sqrt+0xfa>
  40846c:	eb03 71d2 	add.w	r1, r3, r2, lsr #31
  408470:	2600      	movs	r6, #0
  408472:	440b      	add	r3, r1
  408474:	107f      	asrs	r7, r7, #1
  408476:	0052      	lsls	r2, r2, #1
  408478:	46b6      	mov	lr, r6
  40847a:	2016      	movs	r0, #22
  40847c:	f44f 1100 	mov.w	r1, #2097152	; 0x200000
  408480:	eb0e 0401 	add.w	r4, lr, r1
  408484:	429c      	cmp	r4, r3
  408486:	ea4f 75d2 	mov.w	r5, r2, lsr #31
  40848a:	ea4f 0242 	mov.w	r2, r2, lsl #1
  40848e:	dc03      	bgt.n	408498 <__ieee754_sqrt+0x5c>
  408490:	1b1b      	subs	r3, r3, r4
  408492:	eb04 0e01 	add.w	lr, r4, r1
  408496:	440e      	add	r6, r1
  408498:	3801      	subs	r0, #1
  40849a:	eb05 0343 	add.w	r3, r5, r3, lsl #1
  40849e:	ea4f 0151 	mov.w	r1, r1, lsr #1
  4084a2:	d1ed      	bne.n	408480 <__ieee754_sqrt+0x44>
  4084a4:	4684      	mov	ip, r0
  4084a6:	2420      	movs	r4, #32
  4084a8:	f04f 4100 	mov.w	r1, #2147483648	; 0x80000000
  4084ac:	e009      	b.n	4084c2 <__ieee754_sqrt+0x86>
  4084ae:	d020      	beq.n	4084f2 <__ieee754_sqrt+0xb6>
  4084b0:	eb03 75d2 	add.w	r5, r3, r2, lsr #31
  4084b4:	3c01      	subs	r4, #1
  4084b6:	ea4f 0151 	mov.w	r1, r1, lsr #1
  4084ba:	442b      	add	r3, r5
  4084bc:	ea4f 0242 	mov.w	r2, r2, lsl #1
  4084c0:	d020      	beq.n	408504 <__ieee754_sqrt+0xc8>
  4084c2:	459e      	cmp	lr, r3
  4084c4:	eb01 050c 	add.w	r5, r1, ip
  4084c8:	daf1      	bge.n	4084ae <__ieee754_sqrt+0x72>
  4084ca:	2d00      	cmp	r5, #0
  4084cc:	eb05 0c01 	add.w	ip, r5, r1
  4084d0:	db09      	blt.n	4084e6 <__ieee754_sqrt+0xaa>
  4084d2:	46f0      	mov	r8, lr
  4084d4:	4295      	cmp	r5, r2
  4084d6:	ebce 0303 	rsb	r3, lr, r3
  4084da:	d900      	bls.n	4084de <__ieee754_sqrt+0xa2>
  4084dc:	3b01      	subs	r3, #1
  4084de:	1b52      	subs	r2, r2, r5
  4084e0:	4408      	add	r0, r1
  4084e2:	46c6      	mov	lr, r8
  4084e4:	e7e4      	b.n	4084b0 <__ieee754_sqrt+0x74>
  4084e6:	f1bc 0f00 	cmp.w	ip, #0
  4084ea:	dbf2      	blt.n	4084d2 <__ieee754_sqrt+0x96>
  4084ec:	f10e 0801 	add.w	r8, lr, #1
  4084f0:	e7f0      	b.n	4084d4 <__ieee754_sqrt+0x98>
  4084f2:	4295      	cmp	r5, r2
  4084f4:	d817      	bhi.n	408526 <__ieee754_sqrt+0xea>
  4084f6:	2d00      	cmp	r5, #0
  4084f8:	eb05 0c01 	add.w	ip, r5, r1
  4084fc:	db47      	blt.n	40858e <__ieee754_sqrt+0x152>
  4084fe:	4698      	mov	r8, r3
  408500:	2300      	movs	r3, #0
  408502:	e7ec      	b.n	4084de <__ieee754_sqrt+0xa2>
  408504:	4313      	orrs	r3, r2
  408506:	d110      	bne.n	40852a <__ieee754_sqrt+0xee>
  408508:	0840      	lsrs	r0, r0, #1
  40850a:	1073      	asrs	r3, r6, #1
  40850c:	f103 537f 	add.w	r3, r3, #1069547520	; 0x3fc00000
  408510:	f503 1300 	add.w	r3, r3, #2097152	; 0x200000
  408514:	07f2      	lsls	r2, r6, #31
  408516:	eb03 5907 	add.w	r9, r3, r7, lsl #20
  40851a:	bf48      	it	mi
  40851c:	f040 4000 	orrmi.w	r0, r0, #2147483648	; 0x80000000
  408520:	4649      	mov	r1, r9
  408522:	e8bd 83f8 	ldmia.w	sp!, {r3, r4, r5, r6, r7, r8, r9, pc}
  408526:	4673      	mov	r3, lr
  408528:	e7c2      	b.n	4084b0 <__ieee754_sqrt+0x74>
  40852a:	1c41      	adds	r1, r0, #1
  40852c:	d033      	beq.n	408596 <__ieee754_sqrt+0x15a>
  40852e:	f000 0301 	and.w	r3, r0, #1
  408532:	4418      	add	r0, r3
  408534:	e7e8      	b.n	408508 <__ieee754_sqrt+0xcc>
  408536:	005b      	lsls	r3, r3, #1
  408538:	eb03 73d2 	add.w	r3, r3, r2, lsr #31
  40853c:	0052      	lsls	r2, r2, #1
  40853e:	e795      	b.n	40846c <__ieee754_sqrt+0x30>
  408540:	f021 4600 	bic.w	r6, r1, #2147483648	; 0x80000000
  408544:	4306      	orrs	r6, r0
  408546:	d0ec      	beq.n	408522 <__ieee754_sqrt+0xe6>
  408548:	bb69      	cbnz	r1, 4085a6 <__ieee754_sqrt+0x16a>
  40854a:	460f      	mov	r7, r1
  40854c:	0ad3      	lsrs	r3, r2, #11
  40854e:	3f15      	subs	r7, #21
  408550:	0552      	lsls	r2, r2, #21
  408552:	2b00      	cmp	r3, #0
  408554:	d0fa      	beq.n	40854c <__ieee754_sqrt+0x110>
  408556:	02dd      	lsls	r5, r3, #11
  408558:	d420      	bmi.n	40859c <__ieee754_sqrt+0x160>
  40855a:	2100      	movs	r1, #0
  40855c:	e000      	b.n	408560 <__ieee754_sqrt+0x124>
  40855e:	4601      	mov	r1, r0
  408560:	005b      	lsls	r3, r3, #1
  408562:	02dc      	lsls	r4, r3, #11
  408564:	f101 0001 	add.w	r0, r1, #1
  408568:	d5f9      	bpl.n	40855e <__ieee754_sqrt+0x122>
  40856a:	f1c0 0420 	rsb	r4, r0, #32
  40856e:	fa22 f404 	lsr.w	r4, r2, r4
  408572:	4323      	orrs	r3, r4
  408574:	1a7f      	subs	r7, r7, r1
  408576:	4082      	lsls	r2, r0
  408578:	e770      	b.n	40845c <__ieee754_sqrt+0x20>
  40857a:	4602      	mov	r2, r0
  40857c:	460b      	mov	r3, r1
  40857e:	f001 fc31 	bl	409de4 <__aeabi_dmul>
  408582:	462a      	mov	r2, r5
  408584:	4623      	mov	r3, r4
  408586:	f001 fa7b 	bl	409a80 <__adddf3>
  40858a:	e8bd 83f8 	ldmia.w	sp!, {r3, r4, r5, r6, r7, r8, r9, pc}
  40858e:	f1bc 0f00 	cmp.w	ip, #0
  408592:	daab      	bge.n	4084ec <__ieee754_sqrt+0xb0>
  408594:	e7b3      	b.n	4084fe <__ieee754_sqrt+0xc2>
  408596:	3601      	adds	r6, #1
  408598:	4620      	mov	r0, r4
  40859a:	e7b6      	b.n	40850a <__ieee754_sqrt+0xce>
  40859c:	2420      	movs	r4, #32
  40859e:	f04f 31ff 	mov.w	r1, #4294967295
  4085a2:	2000      	movs	r0, #0
  4085a4:	e7e3      	b.n	40856e <__ieee754_sqrt+0x132>
  4085a6:	4602      	mov	r2, r0
  4085a8:	460b      	mov	r3, r1
  4085aa:	f001 fa67 	bl	409a7c <__aeabi_dsub>
  4085ae:	4602      	mov	r2, r0
  4085b0:	460b      	mov	r3, r1
  4085b2:	f001 fd41 	bl	40a038 <__aeabi_ddiv>
  4085b6:	e7b4      	b.n	408522 <__ieee754_sqrt+0xe6>
  4085b8:	7ff00000 	.word	0x7ff00000
  4085bc:	00000000 	.word	0x00000000

004085c0 <__kernel_cos>:
  4085c0:	e92d 4ff0 	stmdb	sp!, {r4, r5, r6, r7, r8, r9, sl, fp, lr}
  4085c4:	f021 4600 	bic.w	r6, r1, #2147483648	; 0x80000000
  4085c8:	f1b6 5f79 	cmp.w	r6, #1044381696	; 0x3e400000
  4085cc:	b085      	sub	sp, #20
  4085ce:	460c      	mov	r4, r1
  4085d0:	4692      	mov	sl, r2
  4085d2:	469b      	mov	fp, r3
  4085d4:	4605      	mov	r5, r0
  4085d6:	da6b      	bge.n	4086b0 <__kernel_cos+0xf0>
  4085d8:	f001 feb4 	bl	40a344 <__aeabi_d2iz>
  4085dc:	2800      	cmp	r0, #0
  4085de:	f000 80e8 	beq.w	4087b2 <__kernel_cos+0x1f2>
  4085e2:	462a      	mov	r2, r5
  4085e4:	4623      	mov	r3, r4
  4085e6:	4628      	mov	r0, r5
  4085e8:	4621      	mov	r1, r4
  4085ea:	f001 fbfb 	bl	409de4 <__aeabi_dmul>
  4085ee:	a374      	add	r3, pc, #464	; (adr r3, 4087c0 <__kernel_cos+0x200>)
  4085f0:	e9d3 2300 	ldrd	r2, r3, [r3]
  4085f4:	4680      	mov	r8, r0
  4085f6:	4689      	mov	r9, r1
  4085f8:	f001 fbf4 	bl	409de4 <__aeabi_dmul>
  4085fc:	a372      	add	r3, pc, #456	; (adr r3, 4087c8 <__kernel_cos+0x208>)
  4085fe:	e9d3 2300 	ldrd	r2, r3, [r3]
  408602:	f001 fa3d 	bl	409a80 <__adddf3>
  408606:	4642      	mov	r2, r8
  408608:	464b      	mov	r3, r9
  40860a:	f001 fbeb 	bl	409de4 <__aeabi_dmul>
  40860e:	a370      	add	r3, pc, #448	; (adr r3, 4087d0 <__kernel_cos+0x210>)
  408610:	e9d3 2300 	ldrd	r2, r3, [r3]
  408614:	f001 fa32 	bl	409a7c <__aeabi_dsub>
  408618:	4642      	mov	r2, r8
  40861a:	464b      	mov	r3, r9
  40861c:	f001 fbe2 	bl	409de4 <__aeabi_dmul>
  408620:	a36d      	add	r3, pc, #436	; (adr r3, 4087d8 <__kernel_cos+0x218>)
  408622:	e9d3 2300 	ldrd	r2, r3, [r3]
  408626:	f001 fa2b 	bl	409a80 <__adddf3>
  40862a:	4642      	mov	r2, r8
  40862c:	464b      	mov	r3, r9
  40862e:	f001 fbd9 	bl	409de4 <__aeabi_dmul>
  408632:	a36b      	add	r3, pc, #428	; (adr r3, 4087e0 <__kernel_cos+0x220>)
  408634:	e9d3 2300 	ldrd	r2, r3, [r3]
  408638:	f001 fa20 	bl	409a7c <__aeabi_dsub>
  40863c:	4642      	mov	r2, r8
  40863e:	464b      	mov	r3, r9
  408640:	f001 fbd0 	bl	409de4 <__aeabi_dmul>
  408644:	a368      	add	r3, pc, #416	; (adr r3, 4087e8 <__kernel_cos+0x228>)
  408646:	e9d3 2300 	ldrd	r2, r3, [r3]
  40864a:	f001 fa19 	bl	409a80 <__adddf3>
  40864e:	4642      	mov	r2, r8
  408650:	464b      	mov	r3, r9
  408652:	f001 fbc7 	bl	409de4 <__aeabi_dmul>
  408656:	e9cd 0100 	strd	r0, r1, [sp]
  40865a:	2200      	movs	r2, #0
  40865c:	4b64      	ldr	r3, [pc, #400]	; (4087f0 <__kernel_cos+0x230>)
  40865e:	4640      	mov	r0, r8
  408660:	4649      	mov	r1, r9
  408662:	f001 fbbf 	bl	409de4 <__aeabi_dmul>
  408666:	e9dd 2300 	ldrd	r2, r3, [sp]
  40866a:	4606      	mov	r6, r0
  40866c:	460f      	mov	r7, r1
  40866e:	4640      	mov	r0, r8
  408670:	4649      	mov	r1, r9
  408672:	f001 fbb7 	bl	409de4 <__aeabi_dmul>
  408676:	4652      	mov	r2, sl
  408678:	4680      	mov	r8, r0
  40867a:	4689      	mov	r9, r1
  40867c:	465b      	mov	r3, fp
  40867e:	4628      	mov	r0, r5
  408680:	4621      	mov	r1, r4
  408682:	f001 fbaf 	bl	409de4 <__aeabi_dmul>
  408686:	4602      	mov	r2, r0
  408688:	460b      	mov	r3, r1
  40868a:	4640      	mov	r0, r8
  40868c:	4649      	mov	r1, r9
  40868e:	f001 f9f5 	bl	409a7c <__aeabi_dsub>
  408692:	4602      	mov	r2, r0
  408694:	460b      	mov	r3, r1
  408696:	4630      	mov	r0, r6
  408698:	4639      	mov	r1, r7
  40869a:	f001 f9ef 	bl	409a7c <__aeabi_dsub>
  40869e:	4602      	mov	r2, r0
  4086a0:	460b      	mov	r3, r1
  4086a2:	2000      	movs	r0, #0
  4086a4:	4953      	ldr	r1, [pc, #332]	; (4087f4 <__kernel_cos+0x234>)
  4086a6:	f001 f9e9 	bl	409a7c <__aeabi_dsub>
  4086aa:	b005      	add	sp, #20
  4086ac:	e8bd 8ff0 	ldmia.w	sp!, {r4, r5, r6, r7, r8, r9, sl, fp, pc}
  4086b0:	4602      	mov	r2, r0
  4086b2:	460b      	mov	r3, r1
  4086b4:	f001 fb96 	bl	409de4 <__aeabi_dmul>
  4086b8:	a341      	add	r3, pc, #260	; (adr r3, 4087c0 <__kernel_cos+0x200>)
  4086ba:	e9d3 2300 	ldrd	r2, r3, [r3]
  4086be:	4680      	mov	r8, r0
  4086c0:	4689      	mov	r9, r1
  4086c2:	f001 fb8f 	bl	409de4 <__aeabi_dmul>
  4086c6:	a340      	add	r3, pc, #256	; (adr r3, 4087c8 <__kernel_cos+0x208>)
  4086c8:	e9d3 2300 	ldrd	r2, r3, [r3]
  4086cc:	f001 f9d8 	bl	409a80 <__adddf3>
  4086d0:	4642      	mov	r2, r8
  4086d2:	464b      	mov	r3, r9
  4086d4:	f001 fb86 	bl	409de4 <__aeabi_dmul>
  4086d8:	a33d      	add	r3, pc, #244	; (adr r3, 4087d0 <__kernel_cos+0x210>)
  4086da:	e9d3 2300 	ldrd	r2, r3, [r3]
  4086de:	f001 f9cd 	bl	409a7c <__aeabi_dsub>
  4086e2:	4642      	mov	r2, r8
  4086e4:	464b      	mov	r3, r9
  4086e6:	f001 fb7d 	bl	409de4 <__aeabi_dmul>
  4086ea:	a33b      	add	r3, pc, #236	; (adr r3, 4087d8 <__kernel_cos+0x218>)
  4086ec:	e9d3 2300 	ldrd	r2, r3, [r3]
  4086f0:	f001 f9c6 	bl	409a80 <__adddf3>
  4086f4:	4642      	mov	r2, r8
  4086f6:	464b      	mov	r3, r9
  4086f8:	f001 fb74 	bl	409de4 <__aeabi_dmul>
  4086fc:	a338      	add	r3, pc, #224	; (adr r3, 4087e0 <__kernel_cos+0x220>)
  4086fe:	e9d3 2300 	ldrd	r2, r3, [r3]
  408702:	f001 f9bb 	bl	409a7c <__aeabi_dsub>
  408706:	4642      	mov	r2, r8
  408708:	464b      	mov	r3, r9
  40870a:	f001 fb6b 	bl	409de4 <__aeabi_dmul>
  40870e:	a336      	add	r3, pc, #216	; (adr r3, 4087e8 <__kernel_cos+0x228>)
  408710:	e9d3 2300 	ldrd	r2, r3, [r3]
  408714:	f001 f9b4 	bl	409a80 <__adddf3>
  408718:	464b      	mov	r3, r9
  40871a:	4642      	mov	r2, r8
  40871c:	f001 fb62 	bl	409de4 <__aeabi_dmul>
  408720:	4b35      	ldr	r3, [pc, #212]	; (4087f8 <__kernel_cos+0x238>)
  408722:	429e      	cmp	r6, r3
  408724:	e9cd 0100 	strd	r0, r1, [sp]
  408728:	dd97      	ble.n	40865a <__kernel_cos+0x9a>
  40872a:	4b34      	ldr	r3, [pc, #208]	; (4087fc <__kernel_cos+0x23c>)
  40872c:	429e      	cmp	r6, r3
  40872e:	f04f 0200 	mov.w	r2, #0
  408732:	dc38      	bgt.n	4087a6 <__kernel_cos+0x1e6>
  408734:	f5a6 1300 	sub.w	r3, r6, #2097152	; 0x200000
  408738:	2000      	movs	r0, #0
  40873a:	492e      	ldr	r1, [pc, #184]	; (4087f4 <__kernel_cos+0x234>)
  40873c:	4616      	mov	r6, r2
  40873e:	461f      	mov	r7, r3
  408740:	f001 f99c 	bl	409a7c <__aeabi_dsub>
  408744:	e9cd 0102 	strd	r0, r1, [sp, #8]
  408748:	2200      	movs	r2, #0
  40874a:	4b29      	ldr	r3, [pc, #164]	; (4087f0 <__kernel_cos+0x230>)
  40874c:	4640      	mov	r0, r8
  40874e:	4649      	mov	r1, r9
  408750:	f001 fb48 	bl	409de4 <__aeabi_dmul>
  408754:	4632      	mov	r2, r6
  408756:	463b      	mov	r3, r7
  408758:	f001 f990 	bl	409a7c <__aeabi_dsub>
  40875c:	e9dd 2300 	ldrd	r2, r3, [sp]
  408760:	4606      	mov	r6, r0
  408762:	460f      	mov	r7, r1
  408764:	4640      	mov	r0, r8
  408766:	4649      	mov	r1, r9
  408768:	f001 fb3c 	bl	409de4 <__aeabi_dmul>
  40876c:	4652      	mov	r2, sl
  40876e:	4680      	mov	r8, r0
  408770:	4689      	mov	r9, r1
  408772:	465b      	mov	r3, fp
  408774:	4628      	mov	r0, r5
  408776:	4621      	mov	r1, r4
  408778:	f001 fb34 	bl	409de4 <__aeabi_dmul>
  40877c:	4602      	mov	r2, r0
  40877e:	460b      	mov	r3, r1
  408780:	4640      	mov	r0, r8
  408782:	4649      	mov	r1, r9
  408784:	f001 f97a 	bl	409a7c <__aeabi_dsub>
  408788:	4602      	mov	r2, r0
  40878a:	460b      	mov	r3, r1
  40878c:	4630      	mov	r0, r6
  40878e:	4639      	mov	r1, r7
  408790:	f001 f974 	bl	409a7c <__aeabi_dsub>
  408794:	4602      	mov	r2, r0
  408796:	460b      	mov	r3, r1
  408798:	e9dd 0102 	ldrd	r0, r1, [sp, #8]
  40879c:	f001 f96e 	bl	409a7c <__aeabi_dsub>
  4087a0:	b005      	add	sp, #20
  4087a2:	e8bd 8ff0 	ldmia.w	sp!, {r4, r5, r6, r7, r8, r9, sl, fp, pc}
  4087a6:	4b16      	ldr	r3, [pc, #88]	; (408800 <__kernel_cos+0x240>)
  4087a8:	4f16      	ldr	r7, [pc, #88]	; (408804 <__kernel_cos+0x244>)
  4087aa:	e9cd 2302 	strd	r2, r3, [sp, #8]
  4087ae:	2600      	movs	r6, #0
  4087b0:	e7ca      	b.n	408748 <__kernel_cos+0x188>
  4087b2:	4910      	ldr	r1, [pc, #64]	; (4087f4 <__kernel_cos+0x234>)
  4087b4:	2000      	movs	r0, #0
  4087b6:	b005      	add	sp, #20
  4087b8:	e8bd 8ff0 	ldmia.w	sp!, {r4, r5, r6, r7, r8, r9, sl, fp, pc}
  4087bc:	f3af 8000 	nop.w
  4087c0:	be8838d4 	.word	0xbe8838d4
  4087c4:	bda8fae9 	.word	0xbda8fae9
  4087c8:	bdb4b1c4 	.word	0xbdb4b1c4
  4087cc:	3e21ee9e 	.word	0x3e21ee9e
  4087d0:	809c52ad 	.word	0x809c52ad
  4087d4:	3e927e4f 	.word	0x3e927e4f
  4087d8:	19cb1590 	.word	0x19cb1590
  4087dc:	3efa01a0 	.word	0x3efa01a0
  4087e0:	16c15177 	.word	0x16c15177
  4087e4:	3f56c16c 	.word	0x3f56c16c
  4087e8:	5555554c 	.word	0x5555554c
  4087ec:	3fa55555 	.word	0x3fa55555
  4087f0:	3fe00000 	.word	0x3fe00000
  4087f4:	3ff00000 	.word	0x3ff00000
  4087f8:	3fd33332 	.word	0x3fd33332
  4087fc:	3fe90000 	.word	0x3fe90000
  408800:	3fe70000 	.word	0x3fe70000
  408804:	3fd20000 	.word	0x3fd20000

00408808 <__kernel_rem_pio2>:
  408808:	e92d 4ff0 	stmdb	sp!, {r4, r5, r6, r7, r8, r9, sl, fp, lr}
  40880c:	f5ad 7d1d 	sub.w	sp, sp, #628	; 0x274
  408810:	4c79      	ldr	r4, [pc, #484]	; (4089f8 <__kernel_rem_pio2+0x1f0>)
  408812:	9ea6      	ldr	r6, [sp, #664]	; 0x298
  408814:	4d79      	ldr	r5, [pc, #484]	; (4089fc <__kernel_rem_pio2+0x1f4>)
  408816:	f854 4026 	ldr.w	r4, [r4, r6, lsl #2]
  40881a:	9409      	str	r4, [sp, #36]	; 0x24
  40881c:	4626      	mov	r6, r4
  40881e:	1ed4      	subs	r4, r2, #3
  408820:	fb85 7504 	smull	r7, r5, r5, r4
  408824:	17e4      	asrs	r4, r4, #31
  408826:	ebc4 04a5 	rsb	r4, r4, r5, asr #2
  40882a:	ea24 74e4 	bic.w	r4, r4, r4, asr #31
  40882e:	461d      	mov	r5, r3
  408830:	930c      	str	r3, [sp, #48]	; 0x30
  408832:	1c63      	adds	r3, r4, #1
  408834:	eba3 0383 	sub.w	r3, r3, r3, lsl #2
  408838:	3d01      	subs	r5, #1
  40883a:	eb02 03c3 	add.w	r3, r2, r3, lsl #3
  40883e:	9308      	str	r3, [sp, #32]
  408840:	462b      	mov	r3, r5
  408842:	940d      	str	r4, [sp, #52]	; 0x34
  408844:	9502      	str	r5, [sp, #8]
  408846:	1b65      	subs	r5, r4, r5
  408848:	18f4      	adds	r4, r6, r3
  40884a:	9004      	str	r0, [sp, #16]
  40884c:	910a      	str	r1, [sp, #40]	; 0x28
  40884e:	d416      	bmi.n	40887e <__kernel_rem_pio2+0x76>
  408850:	442c      	add	r4, r5
  408852:	3401      	adds	r4, #1
  408854:	ae22      	add	r6, sp, #136	; 0x88
  408856:	9fa7      	ldr	r7, [sp, #668]	; 0x29c
  408858:	e008      	b.n	40886c <__kernel_rem_pio2+0x64>
  40885a:	f857 0025 	ldr.w	r0, [r7, r5, lsl #2]
  40885e:	f001 fa5b 	bl	409d18 <__aeabi_i2d>
  408862:	3501      	adds	r5, #1
  408864:	42a5      	cmp	r5, r4
  408866:	e9e6 0102 	strd	r0, r1, [r6, #8]!
  40886a:	d008      	beq.n	40887e <__kernel_rem_pio2+0x76>
  40886c:	2d00      	cmp	r5, #0
  40886e:	daf4      	bge.n	40885a <__kernel_rem_pio2+0x52>
  408870:	3501      	adds	r5, #1
  408872:	2000      	movs	r0, #0
  408874:	2100      	movs	r1, #0
  408876:	42a5      	cmp	r5, r4
  408878:	e9e6 0102 	strd	r0, r1, [r6, #8]!
  40887c:	d1f6      	bne.n	40886c <__kernel_rem_pio2+0x64>
  40887e:	9b09      	ldr	r3, [sp, #36]	; 0x24
  408880:	2b00      	cmp	r3, #0
  408882:	db31      	blt.n	4088e8 <__kernel_rem_pio2+0xe0>
  408884:	9a09      	ldr	r2, [sp, #36]	; 0x24
  408886:	9b0c      	ldr	r3, [sp, #48]	; 0x30
  408888:	a974      	add	r1, sp, #464	; 0x1d0
  40888a:	eb01 0bc2 	add.w	fp, r1, r2, lsl #3
  40888e:	ebc3 7343 	rsb	r3, r3, r3, lsl #29
  408892:	9a02      	ldr	r2, [sp, #8]
  408894:	a924      	add	r1, sp, #144	; 0x90
  408896:	00db      	lsls	r3, r3, #3
  408898:	eb01 09c2 	add.w	r9, r1, r2, lsl #3
  40889c:	9301      	str	r3, [sp, #4]
  40889e:	f50d 7ae4 	add.w	sl, sp, #456	; 0x1c8
  4088a2:	9b02      	ldr	r3, [sp, #8]
  4088a4:	2b00      	cmp	r3, #0
  4088a6:	f2c0 8190 	blt.w	408bca <__kernel_rem_pio2+0x3c2>
  4088aa:	9b04      	ldr	r3, [sp, #16]
  4088ac:	f1a3 0508 	sub.w	r5, r3, #8
  4088b0:	9b01      	ldr	r3, [sp, #4]
  4088b2:	464c      	mov	r4, r9
  4088b4:	eb09 0803 	add.w	r8, r9, r3
  4088b8:	2600      	movs	r6, #0
  4088ba:	2700      	movs	r7, #0
  4088bc:	e9f5 2302 	ldrd	r2, r3, [r5, #8]!
  4088c0:	e874 0102 	ldrd	r0, r1, [r4], #-8
  4088c4:	f001 fa8e 	bl	409de4 <__aeabi_dmul>
  4088c8:	4602      	mov	r2, r0
  4088ca:	460b      	mov	r3, r1
  4088cc:	4630      	mov	r0, r6
  4088ce:	4639      	mov	r1, r7
  4088d0:	f001 f8d6 	bl	409a80 <__adddf3>
  4088d4:	4544      	cmp	r4, r8
  4088d6:	4606      	mov	r6, r0
  4088d8:	460f      	mov	r7, r1
  4088da:	d1ef      	bne.n	4088bc <__kernel_rem_pio2+0xb4>
  4088dc:	e9ea 6702 	strd	r6, r7, [sl, #8]!
  4088e0:	45da      	cmp	sl, fp
  4088e2:	f109 0908 	add.w	r9, r9, #8
  4088e6:	d1dc      	bne.n	4088a2 <__kernel_rem_pio2+0x9a>
  4088e8:	9d09      	ldr	r5, [sp, #36]	; 0x24
  4088ea:	f105 4380 	add.w	r3, r5, #1073741824	; 0x40000000
  4088ee:	3b02      	subs	r3, #2
  4088f0:	009b      	lsls	r3, r3, #2
  4088f2:	1d1a      	adds	r2, r3, #4
  4088f4:	a910      	add	r1, sp, #64	; 0x40
  4088f6:	440a      	add	r2, r1
  4088f8:	440b      	add	r3, r1
  4088fa:	920f      	str	r2, [sp, #60]	; 0x3c
  4088fc:	930e      	str	r3, [sp, #56]	; 0x38
  4088fe:	ab9c      	add	r3, sp, #624	; 0x270
  408900:	eb03 03c5 	add.w	r3, r3, r5, lsl #3
  408904:	2d00      	cmp	r5, #0
  408906:	e953 6728 	ldrd	r6, r7, [r3, #-160]	; 0xa0
  40890a:	dd2b      	ble.n	408964 <__kernel_rem_pio2+0x15c>
  40890c:	ab9c      	add	r3, sp, #624	; 0x270
  40890e:	eb03 04c5 	add.w	r4, r3, r5, lsl #3
  408912:	3ca8      	subs	r4, #168	; 0xa8
  408914:	f10d 0a3c 	add.w	sl, sp, #60	; 0x3c
  408918:	f50d 7be4 	add.w	fp, sp, #456	; 0x1c8
  40891c:	2200      	movs	r2, #0
  40891e:	4b38      	ldr	r3, [pc, #224]	; (408a00 <__kernel_rem_pio2+0x1f8>)
  408920:	4630      	mov	r0, r6
  408922:	4639      	mov	r1, r7
  408924:	f001 fa5e 	bl	409de4 <__aeabi_dmul>
  408928:	f001 fd0c 	bl	40a344 <__aeabi_d2iz>
  40892c:	f001 f9f4 	bl	409d18 <__aeabi_i2d>
  408930:	2200      	movs	r2, #0
  408932:	4b34      	ldr	r3, [pc, #208]	; (408a04 <__kernel_rem_pio2+0x1fc>)
  408934:	4680      	mov	r8, r0
  408936:	4689      	mov	r9, r1
  408938:	f001 fa54 	bl	409de4 <__aeabi_dmul>
  40893c:	4602      	mov	r2, r0
  40893e:	460b      	mov	r3, r1
  408940:	4630      	mov	r0, r6
  408942:	4639      	mov	r1, r7
  408944:	f001 f89a 	bl	409a7c <__aeabi_dsub>
  408948:	f001 fcfc 	bl	40a344 <__aeabi_d2iz>
  40894c:	e874 2302 	ldrd	r2, r3, [r4], #-8
  408950:	f84a 0f04 	str.w	r0, [sl, #4]!
  408954:	4649      	mov	r1, r9
  408956:	4640      	mov	r0, r8
  408958:	f001 f892 	bl	409a80 <__adddf3>
  40895c:	455c      	cmp	r4, fp
  40895e:	4606      	mov	r6, r0
  408960:	460f      	mov	r7, r1
  408962:	d1db      	bne.n	40891c <__kernel_rem_pio2+0x114>
  408964:	9c08      	ldr	r4, [sp, #32]
  408966:	4630      	mov	r0, r6
  408968:	4639      	mov	r1, r7
  40896a:	4622      	mov	r2, r4
  40896c:	f000 fffc 	bl	409968 <scalbn>
  408970:	2200      	movs	r2, #0
  408972:	f04f 537f 	mov.w	r3, #1069547520	; 0x3fc00000
  408976:	4606      	mov	r6, r0
  408978:	460f      	mov	r7, r1
  40897a:	f001 fa33 	bl	409de4 <__aeabi_dmul>
  40897e:	f000 ff63 	bl	409848 <floor>
  408982:	2200      	movs	r2, #0
  408984:	4b20      	ldr	r3, [pc, #128]	; (408a08 <__kernel_rem_pio2+0x200>)
  408986:	f001 fa2d 	bl	409de4 <__aeabi_dmul>
  40898a:	4602      	mov	r2, r0
  40898c:	460b      	mov	r3, r1
  40898e:	4630      	mov	r0, r6
  408990:	4639      	mov	r1, r7
  408992:	f001 f873 	bl	409a7c <__aeabi_dsub>
  408996:	460f      	mov	r7, r1
  408998:	4606      	mov	r6, r0
  40899a:	f001 fcd3 	bl	40a344 <__aeabi_d2iz>
  40899e:	4681      	mov	r9, r0
  4089a0:	f001 f9ba 	bl	409d18 <__aeabi_i2d>
  4089a4:	4602      	mov	r2, r0
  4089a6:	460b      	mov	r3, r1
  4089a8:	4630      	mov	r0, r6
  4089aa:	4639      	mov	r1, r7
  4089ac:	f001 f866 	bl	409a7c <__aeabi_dsub>
  4089b0:	2c00      	cmp	r4, #0
  4089b2:	4606      	mov	r6, r0
  4089b4:	460f      	mov	r7, r1
  4089b6:	f340 80ef 	ble.w	408b98 <__kernel_rem_pio2+0x390>
  4089ba:	1e69      	subs	r1, r5, #1
  4089bc:	aa10      	add	r2, sp, #64	; 0x40
  4089be:	f1c4 0318 	rsb	r3, r4, #24
  4089c2:	f852 2021 	ldr.w	r2, [r2, r1, lsl #2]
  4089c6:	fa42 f003 	asr.w	r0, r2, r3
  4089ca:	fa00 f303 	lsl.w	r3, r0, r3
  4089ce:	1ad3      	subs	r3, r2, r3
  4089d0:	aa10      	add	r2, sp, #64	; 0x40
  4089d2:	f1c4 0817 	rsb	r8, r4, #23
  4089d6:	f842 3021 	str.w	r3, [r2, r1, lsl #2]
  4089da:	4481      	add	r9, r0
  4089dc:	fa43 f808 	asr.w	r8, r3, r8
  4089e0:	f1b8 0f00 	cmp.w	r8, #0
  4089e4:	dd3d      	ble.n	408a62 <__kernel_rem_pio2+0x25a>
  4089e6:	2d00      	cmp	r5, #0
  4089e8:	f109 0901 	add.w	r9, r9, #1
  4089ec:	f340 82d6 	ble.w	408f9c <__kernel_rem_pio2+0x794>
  4089f0:	2200      	movs	r2, #0
  4089f2:	4614      	mov	r4, r2
  4089f4:	a90f      	add	r1, sp, #60	; 0x3c
  4089f6:	e011      	b.n	408a1c <__kernel_rem_pio2+0x214>
  4089f8:	0040b2dc 	.word	0x0040b2dc
  4089fc:	2aaaaaab 	.word	0x2aaaaaab
  408a00:	3e700000 	.word	0x3e700000
  408a04:	41700000 	.word	0x41700000
  408a08:	40200000 	.word	0x40200000
  408a0c:	f1c3 7080 	rsb	r0, r3, #16777216	; 0x1000000
  408a10:	b10b      	cbz	r3, 408a16 <__kernel_rem_pio2+0x20e>
  408a12:	6008      	str	r0, [r1, #0]
  408a14:	2401      	movs	r4, #1
  408a16:	3201      	adds	r2, #1
  408a18:	4295      	cmp	r5, r2
  408a1a:	dd0d      	ble.n	408a38 <__kernel_rem_pio2+0x230>
  408a1c:	f851 3f04 	ldr.w	r3, [r1, #4]!
  408a20:	2c00      	cmp	r4, #0
  408a22:	d0f3      	beq.n	408a0c <__kernel_rem_pio2+0x204>
  408a24:	f1c3 13ff 	rsb	r3, r3, #16711935	; 0xff00ff
  408a28:	3201      	adds	r2, #1
  408a2a:	f503 437f 	add.w	r3, r3, #65280	; 0xff00
  408a2e:	4295      	cmp	r5, r2
  408a30:	600b      	str	r3, [r1, #0]
  408a32:	f04f 0401 	mov.w	r4, #1
  408a36:	dcf1      	bgt.n	408a1c <__kernel_rem_pio2+0x214>
  408a38:	9b08      	ldr	r3, [sp, #32]
  408a3a:	2b00      	cmp	r3, #0
  408a3c:	dd0d      	ble.n	408a5a <__kernel_rem_pio2+0x252>
  408a3e:	2b01      	cmp	r3, #1
  408a40:	f000 80b2 	beq.w	408ba8 <__kernel_rem_pio2+0x3a0>
  408a44:	2b02      	cmp	r3, #2
  408a46:	d108      	bne.n	408a5a <__kernel_rem_pio2+0x252>
  408a48:	1e6a      	subs	r2, r5, #1
  408a4a:	ab10      	add	r3, sp, #64	; 0x40
  408a4c:	a910      	add	r1, sp, #64	; 0x40
  408a4e:	f853 3022 	ldr.w	r3, [r3, r2, lsl #2]
  408a52:	f3c3 0315 	ubfx	r3, r3, #0, #22
  408a56:	f841 3022 	str.w	r3, [r1, r2, lsl #2]
  408a5a:	f1b8 0f02 	cmp.w	r8, #2
  408a5e:	f000 8082 	beq.w	408b66 <__kernel_rem_pio2+0x35e>
  408a62:	2200      	movs	r2, #0
  408a64:	2300      	movs	r3, #0
  408a66:	4630      	mov	r0, r6
  408a68:	4639      	mov	r1, r7
  408a6a:	f001 fc23 	bl	40a2b4 <__aeabi_dcmpeq>
  408a6e:	2800      	cmp	r0, #0
  408a70:	f000 825e 	beq.w	408f30 <__kernel_rem_pio2+0x728>
  408a74:	9b09      	ldr	r3, [sp, #36]	; 0x24
  408a76:	f105 3bff 	add.w	fp, r5, #4294967295
  408a7a:	455b      	cmp	r3, fp
  408a7c:	dc10      	bgt.n	408aa0 <__kernel_rem_pio2+0x298>
  408a7e:	f105 4380 	add.w	r3, r5, #1073741824	; 0x40000000
  408a82:	aa10      	add	r2, sp, #64	; 0x40
  408a84:	3b01      	subs	r3, #1
  408a86:	980f      	ldr	r0, [sp, #60]	; 0x3c
  408a88:	eb02 0383 	add.w	r3, r2, r3, lsl #2
  408a8c:	2200      	movs	r2, #0
  408a8e:	f853 1904 	ldr.w	r1, [r3], #-4
  408a92:	4283      	cmp	r3, r0
  408a94:	ea42 0201 	orr.w	r2, r2, r1
  408a98:	d1f9      	bne.n	408a8e <__kernel_rem_pio2+0x286>
  408a9a:	2a00      	cmp	r2, #0
  408a9c:	f040 80b2 	bne.w	408c04 <__kernel_rem_pio2+0x3fc>
  408aa0:	9b09      	ldr	r3, [sp, #36]	; 0x24
  408aa2:	aa10      	add	r2, sp, #64	; 0x40
  408aa4:	3b01      	subs	r3, #1
  408aa6:	f852 3023 	ldr.w	r3, [r2, r3, lsl #2]
  408aaa:	2b00      	cmp	r3, #0
  408aac:	f040 8274 	bne.w	408f98 <__kernel_rem_pio2+0x790>
  408ab0:	9a0e      	ldr	r2, [sp, #56]	; 0x38
  408ab2:	2301      	movs	r3, #1
  408ab4:	f852 1904 	ldr.w	r1, [r2], #-4
  408ab8:	3301      	adds	r3, #1
  408aba:	2900      	cmp	r1, #0
  408abc:	d0fa      	beq.n	408ab4 <__kernel_rem_pio2+0x2ac>
  408abe:	18e9      	adds	r1, r5, r3
  408ac0:	1c6a      	adds	r2, r5, #1
  408ac2:	428a      	cmp	r2, r1
  408ac4:	910b      	str	r1, [sp, #44]	; 0x2c
  408ac6:	dc49      	bgt.n	408b5c <__kernel_rem_pio2+0x354>
  408ac8:	990d      	ldr	r1, [sp, #52]	; 0x34
  408aca:	980c      	ldr	r0, [sp, #48]	; 0x30
  408acc:	1851      	adds	r1, r2, r1
  408ace:	00db      	lsls	r3, r3, #3
  408ad0:	f101 4180 	add.w	r1, r1, #1073741824	; 0x40000000
  408ad4:	9305      	str	r3, [sp, #20]
  408ad6:	9ba7      	ldr	r3, [sp, #668]	; 0x29c
  408ad8:	4405      	add	r5, r0
  408ada:	3901      	subs	r1, #1
  408adc:	00e8      	lsls	r0, r5, #3
  408ade:	eb03 0a81 	add.w	sl, r3, r1, lsl #2
  408ae2:	ab24      	add	r3, sp, #144	; 0x90
  408ae4:	00d2      	lsls	r2, r2, #3
  408ae6:	eb03 0b00 	add.w	fp, r3, r0
  408aea:	ab74      	add	r3, sp, #464	; 0x1d0
  408aec:	4413      	add	r3, r2
  408aee:	9301      	str	r3, [sp, #4]
  408af0:	f1a2 0308 	sub.w	r3, r2, #8
  408af4:	9006      	str	r0, [sp, #24]
  408af6:	9307      	str	r3, [sp, #28]
  408af8:	f04f 0900 	mov.w	r9, #0
  408afc:	f85a 0f04 	ldr.w	r0, [sl, #4]!
  408b00:	f001 f90a 	bl	409d18 <__aeabi_i2d>
  408b04:	9b02      	ldr	r3, [sp, #8]
  408b06:	2b00      	cmp	r3, #0
  408b08:	e8eb 0102 	strd	r0, r1, [fp], #8
  408b0c:	db28      	blt.n	408b60 <__kernel_rem_pio2+0x358>
  408b0e:	9b06      	ldr	r3, [sp, #24]
  408b10:	eb03 0409 	add.w	r4, r3, r9
  408b14:	9b07      	ldr	r3, [sp, #28]
  408b16:	eb09 0803 	add.w	r8, r9, r3
  408b1a:	ab24      	add	r3, sp, #144	; 0x90
  408b1c:	441c      	add	r4, r3
  408b1e:	4498      	add	r8, r3
  408b20:	9b04      	ldr	r3, [sp, #16]
  408b22:	2600      	movs	r6, #0
  408b24:	f1a3 0508 	sub.w	r5, r3, #8
  408b28:	2700      	movs	r7, #0
  408b2a:	e9f5 2302 	ldrd	r2, r3, [r5, #8]!
  408b2e:	e874 0102 	ldrd	r0, r1, [r4], #-8
  408b32:	f001 f957 	bl	409de4 <__aeabi_dmul>
  408b36:	4602      	mov	r2, r0
  408b38:	460b      	mov	r3, r1
  408b3a:	4630      	mov	r0, r6
  408b3c:	4639      	mov	r1, r7
  408b3e:	f000 ff9f 	bl	409a80 <__adddf3>
  408b42:	4544      	cmp	r4, r8
  408b44:	4606      	mov	r6, r0
  408b46:	460f      	mov	r7, r1
  408b48:	d1ef      	bne.n	408b2a <__kernel_rem_pio2+0x322>
  408b4a:	9b01      	ldr	r3, [sp, #4]
  408b4c:	e8e3 6702 	strd	r6, r7, [r3], #8
  408b50:	9301      	str	r3, [sp, #4]
  408b52:	9b05      	ldr	r3, [sp, #20]
  408b54:	f109 0908 	add.w	r9, r9, #8
  408b58:	4599      	cmp	r9, r3
  408b5a:	d1cf      	bne.n	408afc <__kernel_rem_pio2+0x2f4>
  408b5c:	9d0b      	ldr	r5, [sp, #44]	; 0x2c
  408b5e:	e6ce      	b.n	4088fe <__kernel_rem_pio2+0xf6>
  408b60:	2600      	movs	r6, #0
  408b62:	2700      	movs	r7, #0
  408b64:	e7f1      	b.n	408b4a <__kernel_rem_pio2+0x342>
  408b66:	4632      	mov	r2, r6
  408b68:	463b      	mov	r3, r7
  408b6a:	2000      	movs	r0, #0
  408b6c:	49b0      	ldr	r1, [pc, #704]	; (408e30 <__kernel_rem_pio2+0x628>)
  408b6e:	f000 ff85 	bl	409a7c <__aeabi_dsub>
  408b72:	4606      	mov	r6, r0
  408b74:	460f      	mov	r7, r1
  408b76:	2c00      	cmp	r4, #0
  408b78:	f43f af73 	beq.w	408a62 <__kernel_rem_pio2+0x25a>
  408b7c:	9a08      	ldr	r2, [sp, #32]
  408b7e:	49ac      	ldr	r1, [pc, #688]	; (408e30 <__kernel_rem_pio2+0x628>)
  408b80:	2000      	movs	r0, #0
  408b82:	f000 fef1 	bl	409968 <scalbn>
  408b86:	4602      	mov	r2, r0
  408b88:	460b      	mov	r3, r1
  408b8a:	4630      	mov	r0, r6
  408b8c:	4639      	mov	r1, r7
  408b8e:	f000 ff75 	bl	409a7c <__aeabi_dsub>
  408b92:	4606      	mov	r6, r0
  408b94:	460f      	mov	r7, r1
  408b96:	e764      	b.n	408a62 <__kernel_rem_pio2+0x25a>
  408b98:	d110      	bne.n	408bbc <__kernel_rem_pio2+0x3b4>
  408b9a:	1e6b      	subs	r3, r5, #1
  408b9c:	aa10      	add	r2, sp, #64	; 0x40
  408b9e:	f852 3023 	ldr.w	r3, [r2, r3, lsl #2]
  408ba2:	ea4f 58e3 	mov.w	r8, r3, asr #23
  408ba6:	e71b      	b.n	4089e0 <__kernel_rem_pio2+0x1d8>
  408ba8:	1e6a      	subs	r2, r5, #1
  408baa:	ab10      	add	r3, sp, #64	; 0x40
  408bac:	a910      	add	r1, sp, #64	; 0x40
  408bae:	f853 3022 	ldr.w	r3, [r3, r2, lsl #2]
  408bb2:	f3c3 0316 	ubfx	r3, r3, #0, #23
  408bb6:	f841 3022 	str.w	r3, [r1, r2, lsl #2]
  408bba:	e74e      	b.n	408a5a <__kernel_rem_pio2+0x252>
  408bbc:	2200      	movs	r2, #0
  408bbe:	4b9d      	ldr	r3, [pc, #628]	; (408e34 <__kernel_rem_pio2+0x62c>)
  408bc0:	f001 fb96 	bl	40a2f0 <__aeabi_dcmpge>
  408bc4:	b958      	cbnz	r0, 408bde <__kernel_rem_pio2+0x3d6>
  408bc6:	4680      	mov	r8, r0
  408bc8:	e74b      	b.n	408a62 <__kernel_rem_pio2+0x25a>
  408bca:	2600      	movs	r6, #0
  408bcc:	2700      	movs	r7, #0
  408bce:	e9ea 6702 	strd	r6, r7, [sl, #8]!
  408bd2:	45da      	cmp	sl, fp
  408bd4:	f109 0908 	add.w	r9, r9, #8
  408bd8:	f47f ae63 	bne.w	4088a2 <__kernel_rem_pio2+0x9a>
  408bdc:	e684      	b.n	4088e8 <__kernel_rem_pio2+0xe0>
  408bde:	2d00      	cmp	r5, #0
  408be0:	f109 0901 	add.w	r9, r9, #1
  408be4:	bfc8      	it	gt
  408be6:	f04f 0802 	movgt.w	r8, #2
  408bea:	f73f af01 	bgt.w	4089f0 <__kernel_rem_pio2+0x1e8>
  408bee:	4632      	mov	r2, r6
  408bf0:	463b      	mov	r3, r7
  408bf2:	2000      	movs	r0, #0
  408bf4:	498e      	ldr	r1, [pc, #568]	; (408e30 <__kernel_rem_pio2+0x628>)
  408bf6:	f000 ff41 	bl	409a7c <__aeabi_dsub>
  408bfa:	f04f 0802 	mov.w	r8, #2
  408bfe:	4606      	mov	r6, r0
  408c00:	460f      	mov	r7, r1
  408c02:	e72e      	b.n	408a62 <__kernel_rem_pio2+0x25a>
  408c04:	ab10      	add	r3, sp, #64	; 0x40
  408c06:	9a08      	ldr	r2, [sp, #32]
  408c08:	f853 302b 	ldr.w	r3, [r3, fp, lsl #2]
  408c0c:	f8cd 9014 	str.w	r9, [sp, #20]
  408c10:	3a18      	subs	r2, #24
  408c12:	f8cd 8004 	str.w	r8, [sp, #4]
  408c16:	9208      	str	r2, [sp, #32]
  408c18:	b96b      	cbnz	r3, 408c36 <__kernel_rem_pio2+0x42e>
  408c1a:	f10b 4380 	add.w	r3, fp, #1073741824	; 0x40000000
  408c1e:	3b01      	subs	r3, #1
  408c20:	a910      	add	r1, sp, #64	; 0x40
  408c22:	eb01 0383 	add.w	r3, r1, r3, lsl #2
  408c26:	f853 1904 	ldr.w	r1, [r3], #-4
  408c2a:	f10b 3bff 	add.w	fp, fp, #4294967295
  408c2e:	3a18      	subs	r2, #24
  408c30:	2900      	cmp	r1, #0
  408c32:	d0f8      	beq.n	408c26 <__kernel_rem_pio2+0x41e>
  408c34:	9208      	str	r2, [sp, #32]
  408c36:	9a08      	ldr	r2, [sp, #32]
  408c38:	497d      	ldr	r1, [pc, #500]	; (408e30 <__kernel_rem_pio2+0x628>)
  408c3a:	2000      	movs	r0, #0
  408c3c:	f000 fe94 	bl	409968 <scalbn>
  408c40:	f1bb 0f00 	cmp.w	fp, #0
  408c44:	4604      	mov	r4, r0
  408c46:	460d      	mov	r5, r1
  408c48:	f2c0 81b8 	blt.w	408fbc <__kernel_rem_pio2+0x7b4>
  408c4c:	ea4f 03cb 	mov.w	r3, fp, lsl #3
  408c50:	f50d 78e8 	add.w	r8, sp, #464	; 0x1d0
  408c54:	aa10      	add	r2, sp, #64	; 0x40
  408c56:	eb02 068b 	add.w	r6, r2, fp, lsl #2
  408c5a:	eb08 0903 	add.w	r9, r8, r3
  408c5e:	9304      	str	r3, [sp, #16]
  408c60:	3604      	adds	r6, #4
  408c62:	f109 0708 	add.w	r7, r9, #8
  408c66:	f856 0d04 	ldr.w	r0, [r6, #-4]!
  408c6a:	f001 f855 	bl	409d18 <__aeabi_i2d>
  408c6e:	4622      	mov	r2, r4
  408c70:	462b      	mov	r3, r5
  408c72:	f001 f8b7 	bl	409de4 <__aeabi_dmul>
  408c76:	2200      	movs	r2, #0
  408c78:	e967 0102 	strd	r0, r1, [r7, #-8]!
  408c7c:	4b6e      	ldr	r3, [pc, #440]	; (408e38 <__kernel_rem_pio2+0x630>)
  408c7e:	4620      	mov	r0, r4
  408c80:	4629      	mov	r1, r5
  408c82:	f001 f8af 	bl	409de4 <__aeabi_dmul>
  408c86:	45b8      	cmp	r8, r7
  408c88:	4604      	mov	r4, r0
  408c8a:	460d      	mov	r5, r1
  408c8c:	d1eb      	bne.n	408c66 <__kernel_rem_pio2+0x45e>
  408c8e:	f50d 7a98 	add.w	sl, sp, #304	; 0x130
  408c92:	464b      	mov	r3, r9
  408c94:	f8cd a008 	str.w	sl, [sp, #8]
  408c98:	f8dd a024 	ldr.w	sl, [sp, #36]	; 0x24
  408c9c:	f8cd b018 	str.w	fp, [sp, #24]
  408ca0:	f04f 0900 	mov.w	r9, #0
  408ca4:	469b      	mov	fp, r3
  408ca6:	f1ba 0f00 	cmp.w	sl, #0
  408caa:	f2c0 812a 	blt.w	408f02 <__kernel_rem_pio2+0x6fa>
  408cae:	f8df 818c 	ldr.w	r8, [pc, #396]	; 408e3c <__kernel_rem_pio2+0x634>
  408cb2:	465d      	mov	r5, fp
  408cb4:	a35c      	add	r3, pc, #368	; (adr r3, 408e28 <__kernel_rem_pio2+0x620>)
  408cb6:	e9d3 2300 	ldrd	r2, r3, [r3]
  408cba:	2600      	movs	r6, #0
  408cbc:	2700      	movs	r7, #0
  408cbe:	2400      	movs	r4, #0
  408cc0:	e003      	b.n	408cca <__kernel_rem_pio2+0x4c2>
  408cc2:	45a1      	cmp	r9, r4
  408cc4:	db10      	blt.n	408ce8 <__kernel_rem_pio2+0x4e0>
  408cc6:	e9f8 2302 	ldrd	r2, r3, [r8, #8]!
  408cca:	e8f5 0102 	ldrd	r0, r1, [r5], #8
  408cce:	f001 f889 	bl	409de4 <__aeabi_dmul>
  408cd2:	4602      	mov	r2, r0
  408cd4:	460b      	mov	r3, r1
  408cd6:	4630      	mov	r0, r6
  408cd8:	4639      	mov	r1, r7
  408cda:	f000 fed1 	bl	409a80 <__adddf3>
  408cde:	3401      	adds	r4, #1
  408ce0:	45a2      	cmp	sl, r4
  408ce2:	4606      	mov	r6, r0
  408ce4:	460f      	mov	r7, r1
  408ce6:	daec      	bge.n	408cc2 <__kernel_rem_pio2+0x4ba>
  408ce8:	9b02      	ldr	r3, [sp, #8]
  408cea:	eb03 03c9 	add.w	r3, r3, r9, lsl #3
  408cee:	f1ab 0b08 	sub.w	fp, fp, #8
  408cf2:	e9c3 6700 	strd	r6, r7, [r3]
  408cf6:	ab72      	add	r3, sp, #456	; 0x1c8
  408cf8:	455b      	cmp	r3, fp
  408cfa:	f109 0901 	add.w	r9, r9, #1
  408cfe:	d1d2      	bne.n	408ca6 <__kernel_rem_pio2+0x49e>
  408d00:	9ba6      	ldr	r3, [sp, #664]	; 0x298
  408d02:	f8dd b018 	ldr.w	fp, [sp, #24]
  408d06:	f8dd a008 	ldr.w	sl, [sp, #8]
  408d0a:	2b03      	cmp	r3, #3
  408d0c:	f200 8083 	bhi.w	408e16 <__kernel_rem_pio2+0x60e>
  408d10:	e8df f013 	tbh	[pc, r3, lsl #1]
  408d14:	009600d5 	.word	0x009600d5
  408d18:	00040096 	.word	0x00040096
  408d1c:	f1bb 0f00 	cmp.w	fp, #0
  408d20:	f340 8156 	ble.w	408fd0 <__kernel_rem_pio2+0x7c8>
  408d24:	9b04      	ldr	r3, [sp, #16]
  408d26:	f8cd b008 	str.w	fp, [sp, #8]
  408d2a:	eb0a 0803 	add.w	r8, sl, r3
  408d2e:	e9d8 6700 	ldrd	r6, r7, [r8]
  408d32:	46d3      	mov	fp, sl
  408d34:	e958 9a02 	ldrd	r9, sl, [r8, #-8]
  408d38:	4632      	mov	r2, r6
  408d3a:	463b      	mov	r3, r7
  408d3c:	4648      	mov	r0, r9
  408d3e:	4651      	mov	r1, sl
  408d40:	f000 fe9e 	bl	409a80 <__adddf3>
  408d44:	4604      	mov	r4, r0
  408d46:	460d      	mov	r5, r1
  408d48:	4602      	mov	r2, r0
  408d4a:	460b      	mov	r3, r1
  408d4c:	4648      	mov	r0, r9
  408d4e:	4651      	mov	r1, sl
  408d50:	f000 fe94 	bl	409a7c <__aeabi_dsub>
  408d54:	4632      	mov	r2, r6
  408d56:	463b      	mov	r3, r7
  408d58:	f000 fe92 	bl	409a80 <__adddf3>
  408d5c:	e9c8 0100 	strd	r0, r1, [r8]
  408d60:	e968 4502 	strd	r4, r5, [r8, #-8]!
  408d64:	45c3      	cmp	fp, r8
  408d66:	4626      	mov	r6, r4
  408d68:	462f      	mov	r7, r5
  408d6a:	d1e3      	bne.n	408d34 <__kernel_rem_pio2+0x52c>
  408d6c:	46da      	mov	sl, fp
  408d6e:	f8dd b008 	ldr.w	fp, [sp, #8]
  408d72:	f1bb 0f01 	cmp.w	fp, #1
  408d76:	f340 812b 	ble.w	408fd0 <__kernel_rem_pio2+0x7c8>
  408d7a:	9b04      	ldr	r3, [sp, #16]
  408d7c:	4453      	add	r3, sl
  408d7e:	e9d3 6700 	ldrd	r6, r7, [r3]
  408d82:	4698      	mov	r8, r3
  408d84:	4699      	mov	r9, r3
  408d86:	f50d 7b9c 	add.w	fp, sp, #312	; 0x138
  408d8a:	e959 3402 	ldrd	r3, r4, [r9, #-8]
  408d8e:	4630      	mov	r0, r6
  408d90:	e9cd 3402 	strd	r3, r4, [sp, #8]
  408d94:	461a      	mov	r2, r3
  408d96:	4639      	mov	r1, r7
  408d98:	4623      	mov	r3, r4
  408d9a:	f000 fe71 	bl	409a80 <__adddf3>
  408d9e:	4604      	mov	r4, r0
  408da0:	460d      	mov	r5, r1
  408da2:	4602      	mov	r2, r0
  408da4:	460b      	mov	r3, r1
  408da6:	e9dd 0102 	ldrd	r0, r1, [sp, #8]
  408daa:	f000 fe67 	bl	409a7c <__aeabi_dsub>
  408dae:	4632      	mov	r2, r6
  408db0:	463b      	mov	r3, r7
  408db2:	f000 fe65 	bl	409a80 <__adddf3>
  408db6:	e9c9 0100 	strd	r0, r1, [r9]
  408dba:	e969 4502 	strd	r4, r5, [r9, #-8]!
  408dbe:	45cb      	cmp	fp, r9
  408dc0:	4626      	mov	r6, r4
  408dc2:	462f      	mov	r7, r5
  408dc4:	d1e1      	bne.n	408d8a <__kernel_rem_pio2+0x582>
  408dc6:	2300      	movs	r3, #0
  408dc8:	f108 0808 	add.w	r8, r8, #8
  408dcc:	461d      	mov	r5, r3
  408dce:	ac50      	add	r4, sp, #320	; 0x140
  408dd0:	4618      	mov	r0, r3
  408dd2:	4629      	mov	r1, r5
  408dd4:	e978 2302 	ldrd	r2, r3, [r8, #-8]!
  408dd8:	f000 fe52 	bl	409a80 <__adddf3>
  408ddc:	4544      	cmp	r4, r8
  408dde:	4603      	mov	r3, r0
  408de0:	460d      	mov	r5, r1
  408de2:	d1f5      	bne.n	408dd0 <__kernel_rem_pio2+0x5c8>
  408de4:	9a01      	ldr	r2, [sp, #4]
  408de6:	2a00      	cmp	r2, #0
  408de8:	f000 80da 	beq.w	408fa0 <__kernel_rem_pio2+0x798>
  408dec:	9f0a      	ldr	r7, [sp, #40]	; 0x28
  408dee:	f8da 4004 	ldr.w	r4, [sl, #4]
  408df2:	f8da 200c 	ldr.w	r2, [sl, #12]
  408df6:	f8da 1000 	ldr.w	r1, [sl]
  408dfa:	f8da 0008 	ldr.w	r0, [sl, #8]
  408dfe:	613b      	str	r3, [r7, #16]
  408e00:	f105 4500 	add.w	r5, r5, #2147483648	; 0x80000000
  408e04:	f104 4400 	add.w	r4, r4, #2147483648	; 0x80000000
  408e08:	f102 4300 	add.w	r3, r2, #2147483648	; 0x80000000
  408e0c:	617d      	str	r5, [r7, #20]
  408e0e:	607c      	str	r4, [r7, #4]
  408e10:	60fb      	str	r3, [r7, #12]
  408e12:	6039      	str	r1, [r7, #0]
  408e14:	60b8      	str	r0, [r7, #8]
  408e16:	9b05      	ldr	r3, [sp, #20]
  408e18:	f003 0007 	and.w	r0, r3, #7
  408e1c:	f50d 7d1d 	add.w	sp, sp, #628	; 0x274
  408e20:	e8bd 8ff0 	ldmia.w	sp!, {r4, r5, r6, r7, r8, r9, sl, fp, pc}
  408e24:	f3af 8000 	nop.w
  408e28:	40000000 	.word	0x40000000
  408e2c:	3ff921fb 	.word	0x3ff921fb
  408e30:	3ff00000 	.word	0x3ff00000
  408e34:	3fe00000 	.word	0x3fe00000
  408e38:	3e700000 	.word	0x3e700000
  408e3c:	0040b2f0 	.word	0x0040b2f0
  408e40:	9c04      	ldr	r4, [sp, #16]
  408e42:	2600      	movs	r6, #0
  408e44:	3408      	adds	r4, #8
  408e46:	4454      	add	r4, sl
  408e48:	4633      	mov	r3, r6
  408e4a:	4630      	mov	r0, r6
  408e4c:	4619      	mov	r1, r3
  408e4e:	e974 2302 	ldrd	r2, r3, [r4, #-8]!
  408e52:	f000 fe15 	bl	409a80 <__adddf3>
  408e56:	4554      	cmp	r4, sl
  408e58:	4606      	mov	r6, r0
  408e5a:	460b      	mov	r3, r1
  408e5c:	d1f5      	bne.n	408e4a <__kernel_rem_pio2+0x642>
  408e5e:	9a01      	ldr	r2, [sp, #4]
  408e60:	4630      	mov	r0, r6
  408e62:	4619      	mov	r1, r3
  408e64:	2a00      	cmp	r2, #0
  408e66:	d04f      	beq.n	408f08 <__kernel_rem_pio2+0x700>
  408e68:	980a      	ldr	r0, [sp, #40]	; 0x28
  408e6a:	f103 4400 	add.w	r4, r3, #2147483648	; 0x80000000
  408e6e:	4632      	mov	r2, r6
  408e70:	6044      	str	r4, [r0, #4]
  408e72:	6006      	str	r6, [r0, #0]
  408e74:	e9da 0100 	ldrd	r0, r1, [sl]
  408e78:	f000 fe00 	bl	409a7c <__aeabi_dsub>
  408e7c:	f1bb 0f00 	cmp.w	fp, #0
  408e80:	4602      	mov	r2, r0
  408e82:	460b      	mov	r3, r1
  408e84:	dd0d      	ble.n	408ea2 <__kernel_rem_pio2+0x69a>
  408e86:	2401      	movs	r4, #1
  408e88:	4610      	mov	r0, r2
  408e8a:	4619      	mov	r1, r3
  408e8c:	e9fa 2302 	ldrd	r2, r3, [sl, #8]!
  408e90:	f000 fdf6 	bl	409a80 <__adddf3>
  408e94:	3401      	adds	r4, #1
  408e96:	45a3      	cmp	fp, r4
  408e98:	4602      	mov	r2, r0
  408e9a:	460b      	mov	r3, r1
  408e9c:	daf4      	bge.n	408e88 <__kernel_rem_pio2+0x680>
  408e9e:	9901      	ldr	r1, [sp, #4]
  408ea0:	b109      	cbz	r1, 408ea6 <__kernel_rem_pio2+0x69e>
  408ea2:	f103 4300 	add.w	r3, r3, #2147483648	; 0x80000000
  408ea6:	4619      	mov	r1, r3
  408ea8:	9b0a      	ldr	r3, [sp, #40]	; 0x28
  408eaa:	4610      	mov	r0, r2
  408eac:	e9c3 0102 	strd	r0, r1, [r3, #8]
  408eb0:	9b05      	ldr	r3, [sp, #20]
  408eb2:	f003 0007 	and.w	r0, r3, #7
  408eb6:	f50d 7d1d 	add.w	sp, sp, #628	; 0x274
  408eba:	e8bd 8ff0 	ldmia.w	sp!, {r4, r5, r6, r7, r8, r9, sl, fp, pc}
  408ebe:	9b04      	ldr	r3, [sp, #16]
  408ec0:	2200      	movs	r2, #0
  408ec2:	3308      	adds	r3, #8
  408ec4:	449a      	add	sl, r3
  408ec6:	4613      	mov	r3, r2
  408ec8:	4610      	mov	r0, r2
  408eca:	4619      	mov	r1, r3
  408ecc:	e97a 2302 	ldrd	r2, r3, [sl, #-8]!
  408ed0:	f000 fdd6 	bl	409a80 <__adddf3>
  408ed4:	f10b 3bff 	add.w	fp, fp, #4294967295
  408ed8:	f1bb 3fff 	cmp.w	fp, #4294967295
  408edc:	4602      	mov	r2, r0
  408ede:	460b      	mov	r3, r1
  408ee0:	d1f2      	bne.n	408ec8 <__kernel_rem_pio2+0x6c0>
  408ee2:	9901      	ldr	r1, [sp, #4]
  408ee4:	b109      	cbz	r1, 408eea <__kernel_rem_pio2+0x6e2>
  408ee6:	f103 4300 	add.w	r3, r3, #2147483648	; 0x80000000
  408eea:	4619      	mov	r1, r3
  408eec:	9b0a      	ldr	r3, [sp, #40]	; 0x28
  408eee:	4610      	mov	r0, r2
  408ef0:	e9c3 0100 	strd	r0, r1, [r3]
  408ef4:	9b05      	ldr	r3, [sp, #20]
  408ef6:	f003 0007 	and.w	r0, r3, #7
  408efa:	f50d 7d1d 	add.w	sp, sp, #628	; 0x274
  408efe:	e8bd 8ff0 	ldmia.w	sp!, {r4, r5, r6, r7, r8, r9, sl, fp, pc}
  408f02:	2600      	movs	r6, #0
  408f04:	2700      	movs	r7, #0
  408f06:	e6ef      	b.n	408ce8 <__kernel_rem_pio2+0x4e0>
  408f08:	9b0a      	ldr	r3, [sp, #40]	; 0x28
  408f0a:	4632      	mov	r2, r6
  408f0c:	e9c3 0100 	strd	r0, r1, [r3]
  408f10:	460b      	mov	r3, r1
  408f12:	e9da 0100 	ldrd	r0, r1, [sl]
  408f16:	f000 fdb1 	bl	409a7c <__aeabi_dsub>
  408f1a:	f1bb 0f00 	cmp.w	fp, #0
  408f1e:	4602      	mov	r2, r0
  408f20:	460b      	mov	r3, r1
  408f22:	dcb0      	bgt.n	408e86 <__kernel_rem_pio2+0x67e>
  408f24:	4619      	mov	r1, r3
  408f26:	9b0a      	ldr	r3, [sp, #40]	; 0x28
  408f28:	4610      	mov	r0, r2
  408f2a:	e9c3 0102 	strd	r0, r1, [r3, #8]
  408f2e:	e7bf      	b.n	408eb0 <__kernel_rem_pio2+0x6a8>
  408f30:	9b08      	ldr	r3, [sp, #32]
  408f32:	f8cd 9014 	str.w	r9, [sp, #20]
  408f36:	425a      	negs	r2, r3
  408f38:	4630      	mov	r0, r6
  408f3a:	4639      	mov	r1, r7
  408f3c:	f8cd 8004 	str.w	r8, [sp, #4]
  408f40:	f000 fd12 	bl	409968 <scalbn>
  408f44:	2200      	movs	r2, #0
  408f46:	4b2c      	ldr	r3, [pc, #176]	; (408ff8 <__kernel_rem_pio2+0x7f0>)
  408f48:	4606      	mov	r6, r0
  408f4a:	460f      	mov	r7, r1
  408f4c:	f001 f9d0 	bl	40a2f0 <__aeabi_dcmpge>
  408f50:	2800      	cmp	r0, #0
  408f52:	d040      	beq.n	408fd6 <__kernel_rem_pio2+0x7ce>
  408f54:	2200      	movs	r2, #0
  408f56:	4b29      	ldr	r3, [pc, #164]	; (408ffc <__kernel_rem_pio2+0x7f4>)
  408f58:	4630      	mov	r0, r6
  408f5a:	4639      	mov	r1, r7
  408f5c:	f000 ff42 	bl	409de4 <__aeabi_dmul>
  408f60:	f001 f9f0 	bl	40a344 <__aeabi_d2iz>
  408f64:	4604      	mov	r4, r0
  408f66:	f000 fed7 	bl	409d18 <__aeabi_i2d>
  408f6a:	2200      	movs	r2, #0
  408f6c:	4b22      	ldr	r3, [pc, #136]	; (408ff8 <__kernel_rem_pio2+0x7f0>)
  408f6e:	f000 ff39 	bl	409de4 <__aeabi_dmul>
  408f72:	460b      	mov	r3, r1
  408f74:	4602      	mov	r2, r0
  408f76:	4639      	mov	r1, r7
  408f78:	4630      	mov	r0, r6
  408f7a:	f000 fd7f 	bl	409a7c <__aeabi_dsub>
  408f7e:	f001 f9e1 	bl	40a344 <__aeabi_d2iz>
  408f82:	9b08      	ldr	r3, [sp, #32]
  408f84:	3318      	adds	r3, #24
  408f86:	f105 0b01 	add.w	fp, r5, #1
  408f8a:	9308      	str	r3, [sp, #32]
  408f8c:	ab10      	add	r3, sp, #64	; 0x40
  408f8e:	f843 0025 	str.w	r0, [r3, r5, lsl #2]
  408f92:	f843 402b 	str.w	r4, [r3, fp, lsl #2]
  408f96:	e64e      	b.n	408c36 <__kernel_rem_pio2+0x42e>
  408f98:	2301      	movs	r3, #1
  408f9a:	e590      	b.n	408abe <__kernel_rem_pio2+0x2b6>
  408f9c:	2400      	movs	r4, #0
  408f9e:	e54b      	b.n	408a38 <__kernel_rem_pio2+0x230>
  408fa0:	4618      	mov	r0, r3
  408fa2:	4629      	mov	r1, r5
  408fa4:	e9da 2300 	ldrd	r2, r3, [sl]
  408fa8:	e9da 4502 	ldrd	r4, r5, [sl, #8]
  408fac:	9f0a      	ldr	r7, [sp, #40]	; 0x28
  408fae:	e9c7 0104 	strd	r0, r1, [r7, #16]
  408fb2:	e9c7 2300 	strd	r2, r3, [r7]
  408fb6:	e9c7 4502 	strd	r4, r5, [r7, #8]
  408fba:	e72c      	b.n	408e16 <__kernel_rem_pio2+0x60e>
  408fbc:	9ba6      	ldr	r3, [sp, #664]	; 0x298
  408fbe:	2b03      	cmp	r3, #3
  408fc0:	f63f af29 	bhi.w	408e16 <__kernel_rem_pio2+0x60e>
  408fc4:	e8df f003 	tbb	[pc, r3]
  408fc8:	02101015 	.word	0x02101015
  408fcc:	f50d 7a98 	add.w	sl, sp, #304	; 0x130
  408fd0:	2300      	movs	r3, #0
  408fd2:	461d      	mov	r5, r3
  408fd4:	e706      	b.n	408de4 <__kernel_rem_pio2+0x5dc>
  408fd6:	4630      	mov	r0, r6
  408fd8:	4639      	mov	r1, r7
  408fda:	f001 f9b3 	bl	40a344 <__aeabi_d2iz>
  408fde:	ab10      	add	r3, sp, #64	; 0x40
  408fe0:	46ab      	mov	fp, r5
  408fe2:	f843 0025 	str.w	r0, [r3, r5, lsl #2]
  408fe6:	e626      	b.n	408c36 <__kernel_rem_pio2+0x42e>
  408fe8:	2600      	movs	r6, #0
  408fea:	4633      	mov	r3, r6
  408fec:	f50d 7a98 	add.w	sl, sp, #304	; 0x130
  408ff0:	e735      	b.n	408e5e <__kernel_rem_pio2+0x656>
  408ff2:	2200      	movs	r2, #0
  408ff4:	4613      	mov	r3, r2
  408ff6:	e774      	b.n	408ee2 <__kernel_rem_pio2+0x6da>
  408ff8:	41700000 	.word	0x41700000
  408ffc:	3e700000 	.word	0x3e700000

00409000 <__kernel_sin>:
  409000:	e92d 4ff0 	stmdb	sp!, {r4, r5, r6, r7, r8, r9, sl, fp, lr}
  409004:	f021 4600 	bic.w	r6, r1, #2147483648	; 0x80000000
  409008:	f1b6 5f79 	cmp.w	r6, #1044381696	; 0x3e400000
  40900c:	b085      	sub	sp, #20
  40900e:	460c      	mov	r4, r1
  409010:	4690      	mov	r8, r2
  409012:	4699      	mov	r9, r3
  409014:	4605      	mov	r5, r0
  409016:	da04      	bge.n	409022 <__kernel_sin+0x22>
  409018:	f001 f994 	bl	40a344 <__aeabi_d2iz>
  40901c:	2800      	cmp	r0, #0
  40901e:	f000 8085 	beq.w	40912c <__kernel_sin+0x12c>
  409022:	462a      	mov	r2, r5
  409024:	4623      	mov	r3, r4
  409026:	4628      	mov	r0, r5
  409028:	4621      	mov	r1, r4
  40902a:	f000 fedb 	bl	409de4 <__aeabi_dmul>
  40902e:	4606      	mov	r6, r0
  409030:	460f      	mov	r7, r1
  409032:	4602      	mov	r2, r0
  409034:	460b      	mov	r3, r1
  409036:	4628      	mov	r0, r5
  409038:	4621      	mov	r1, r4
  40903a:	f000 fed3 	bl	409de4 <__aeabi_dmul>
  40903e:	a33e      	add	r3, pc, #248	; (adr r3, 409138 <__kernel_sin+0x138>)
  409040:	e9d3 2300 	ldrd	r2, r3, [r3]
  409044:	4682      	mov	sl, r0
  409046:	468b      	mov	fp, r1
  409048:	4630      	mov	r0, r6
  40904a:	4639      	mov	r1, r7
  40904c:	f000 feca 	bl	409de4 <__aeabi_dmul>
  409050:	a33b      	add	r3, pc, #236	; (adr r3, 409140 <__kernel_sin+0x140>)
  409052:	e9d3 2300 	ldrd	r2, r3, [r3]
  409056:	f000 fd11 	bl	409a7c <__aeabi_dsub>
  40905a:	4632      	mov	r2, r6
  40905c:	463b      	mov	r3, r7
  40905e:	f000 fec1 	bl	409de4 <__aeabi_dmul>
  409062:	a339      	add	r3, pc, #228	; (adr r3, 409148 <__kernel_sin+0x148>)
  409064:	e9d3 2300 	ldrd	r2, r3, [r3]
  409068:	f000 fd0a 	bl	409a80 <__adddf3>
  40906c:	4632      	mov	r2, r6
  40906e:	463b      	mov	r3, r7
  409070:	f000 feb8 	bl	409de4 <__aeabi_dmul>
  409074:	a336      	add	r3, pc, #216	; (adr r3, 409150 <__kernel_sin+0x150>)
  409076:	e9d3 2300 	ldrd	r2, r3, [r3]
  40907a:	f000 fcff 	bl	409a7c <__aeabi_dsub>
  40907e:	4632      	mov	r2, r6
  409080:	463b      	mov	r3, r7
  409082:	f000 feaf 	bl	409de4 <__aeabi_dmul>
  409086:	a334      	add	r3, pc, #208	; (adr r3, 409158 <__kernel_sin+0x158>)
  409088:	e9d3 2300 	ldrd	r2, r3, [r3]
  40908c:	f000 fcf8 	bl	409a80 <__adddf3>
  409090:	9b0e      	ldr	r3, [sp, #56]	; 0x38
  409092:	e9cd 0100 	strd	r0, r1, [sp]
  409096:	b39b      	cbz	r3, 409100 <__kernel_sin+0x100>
  409098:	2200      	movs	r2, #0
  40909a:	4b33      	ldr	r3, [pc, #204]	; (409168 <__kernel_sin+0x168>)
  40909c:	4640      	mov	r0, r8
  40909e:	4649      	mov	r1, r9
  4090a0:	f000 fea0 	bl	409de4 <__aeabi_dmul>
  4090a4:	e9dd 2300 	ldrd	r2, r3, [sp]
  4090a8:	e9cd 0102 	strd	r0, r1, [sp, #8]
  4090ac:	4650      	mov	r0, sl
  4090ae:	4659      	mov	r1, fp
  4090b0:	f000 fe98 	bl	409de4 <__aeabi_dmul>
  4090b4:	4602      	mov	r2, r0
  4090b6:	460b      	mov	r3, r1
  4090b8:	e9dd 0102 	ldrd	r0, r1, [sp, #8]
  4090bc:	f000 fcde 	bl	409a7c <__aeabi_dsub>
  4090c0:	4632      	mov	r2, r6
  4090c2:	463b      	mov	r3, r7
  4090c4:	f000 fe8e 	bl	409de4 <__aeabi_dmul>
  4090c8:	4642      	mov	r2, r8
  4090ca:	464b      	mov	r3, r9
  4090cc:	f000 fcd6 	bl	409a7c <__aeabi_dsub>
  4090d0:	a323      	add	r3, pc, #140	; (adr r3, 409160 <__kernel_sin+0x160>)
  4090d2:	e9d3 2300 	ldrd	r2, r3, [r3]
  4090d6:	4606      	mov	r6, r0
  4090d8:	460f      	mov	r7, r1
  4090da:	4650      	mov	r0, sl
  4090dc:	4659      	mov	r1, fp
  4090de:	f000 fe81 	bl	409de4 <__aeabi_dmul>
  4090e2:	4602      	mov	r2, r0
  4090e4:	460b      	mov	r3, r1
  4090e6:	4630      	mov	r0, r6
  4090e8:	4639      	mov	r1, r7
  4090ea:	f000 fcc9 	bl	409a80 <__adddf3>
  4090ee:	4602      	mov	r2, r0
  4090f0:	460b      	mov	r3, r1
  4090f2:	4628      	mov	r0, r5
  4090f4:	4621      	mov	r1, r4
  4090f6:	f000 fcc1 	bl	409a7c <__aeabi_dsub>
  4090fa:	b005      	add	sp, #20
  4090fc:	e8bd 8ff0 	ldmia.w	sp!, {r4, r5, r6, r7, r8, r9, sl, fp, pc}
  409100:	4602      	mov	r2, r0
  409102:	460b      	mov	r3, r1
  409104:	4630      	mov	r0, r6
  409106:	4639      	mov	r1, r7
  409108:	f000 fe6c 	bl	409de4 <__aeabi_dmul>
  40910c:	a314      	add	r3, pc, #80	; (adr r3, 409160 <__kernel_sin+0x160>)
  40910e:	e9d3 2300 	ldrd	r2, r3, [r3]
  409112:	f000 fcb3 	bl	409a7c <__aeabi_dsub>
  409116:	4652      	mov	r2, sl
  409118:	465b      	mov	r3, fp
  40911a:	f000 fe63 	bl	409de4 <__aeabi_dmul>
  40911e:	462a      	mov	r2, r5
  409120:	4623      	mov	r3, r4
  409122:	f000 fcad 	bl	409a80 <__adddf3>
  409126:	b005      	add	sp, #20
  409128:	e8bd 8ff0 	ldmia.w	sp!, {r4, r5, r6, r7, r8, r9, sl, fp, pc}
  40912c:	4628      	mov	r0, r5
  40912e:	4621      	mov	r1, r4
  409130:	b005      	add	sp, #20
  409132:	e8bd 8ff0 	ldmia.w	sp!, {r4, r5, r6, r7, r8, r9, sl, fp, pc}
  409136:	bf00      	nop
  409138:	5acfd57c 	.word	0x5acfd57c
  40913c:	3de5d93a 	.word	0x3de5d93a
  409140:	8a2b9ceb 	.word	0x8a2b9ceb
  409144:	3e5ae5e6 	.word	0x3e5ae5e6
  409148:	57b1fe7d 	.word	0x57b1fe7d
  40914c:	3ec71de3 	.word	0x3ec71de3
  409150:	19c161d5 	.word	0x19c161d5
  409154:	3f2a01a0 	.word	0x3f2a01a0
  409158:	1110f8a6 	.word	0x1110f8a6
  40915c:	3f811111 	.word	0x3f811111
  409160:	55555549 	.word	0x55555549
  409164:	3fc55555 	.word	0x3fc55555
  409168:	3fe00000 	.word	0x3fe00000
  40916c:	00000000 	.word	0x00000000

00409170 <__kernel_tan>:
  409170:	e92d 4ff0 	stmdb	sp!, {r4, r5, r6, r7, r8, r9, sl, fp, lr}
  409174:	4cd8      	ldr	r4, [pc, #864]	; (4094d8 <__kernel_tan+0x368>)
  409176:	f021 4600 	bic.w	r6, r1, #2147483648	; 0x80000000
  40917a:	42a6      	cmp	r6, r4
  40917c:	b087      	sub	sp, #28
  40917e:	468a      	mov	sl, r1
  409180:	4689      	mov	r9, r1
  409182:	4617      	mov	r7, r2
  409184:	4698      	mov	r8, r3
  409186:	4683      	mov	fp, r0
  409188:	dc16      	bgt.n	4091b8 <__kernel_tan+0x48>
  40918a:	f001 f8db 	bl	40a344 <__aeabi_d2iz>
  40918e:	bb88      	cbnz	r0, 4091f4 <__kernel_tan+0x84>
  409190:	465b      	mov	r3, fp
  409192:	431e      	orrs	r6, r3
  409194:	9b10      	ldr	r3, [sp, #64]	; 0x40
  409196:	3301      	adds	r3, #1
  409198:	4333      	orrs	r3, r6
  40919a:	f000 8156 	beq.w	40944a <__kernel_tan+0x2da>
  40919e:	9b10      	ldr	r3, [sp, #64]	; 0x40
  4091a0:	2b01      	cmp	r3, #1
  4091a2:	f000 81a8 	beq.w	4094f6 <__kernel_tan+0x386>
  4091a6:	465a      	mov	r2, fp
  4091a8:	4653      	mov	r3, sl
  4091aa:	2000      	movs	r0, #0
  4091ac:	49cb      	ldr	r1, [pc, #812]	; (4094dc <__kernel_tan+0x36c>)
  4091ae:	f000 ff43 	bl	40a038 <__aeabi_ddiv>
  4091b2:	b007      	add	sp, #28
  4091b4:	e8bd 8ff0 	ldmia.w	sp!, {r4, r5, r6, r7, r8, r9, sl, fp, pc}
  4091b8:	4bc9      	ldr	r3, [pc, #804]	; (4094e0 <__kernel_tan+0x370>)
  4091ba:	429e      	cmp	r6, r3
  4091bc:	dd1a      	ble.n	4091f4 <__kernel_tan+0x84>
  4091be:	2900      	cmp	r1, #0
  4091c0:	f2c0 8192 	blt.w	4094e8 <__kernel_tan+0x378>
  4091c4:	465a      	mov	r2, fp
  4091c6:	4653      	mov	r3, sl
  4091c8:	a1a5      	add	r1, pc, #660	; (adr r1, 409460 <__kernel_tan+0x2f0>)
  4091ca:	e9d1 0100 	ldrd	r0, r1, [r1]
  4091ce:	f000 fc55 	bl	409a7c <__aeabi_dsub>
  4091d2:	463a      	mov	r2, r7
  4091d4:	4643      	mov	r3, r8
  4091d6:	4604      	mov	r4, r0
  4091d8:	460d      	mov	r5, r1
  4091da:	a1a3      	add	r1, pc, #652	; (adr r1, 409468 <__kernel_tan+0x2f8>)
  4091dc:	e9d1 0100 	ldrd	r0, r1, [r1]
  4091e0:	f000 fc4c 	bl	409a7c <__aeabi_dsub>
  4091e4:	4622      	mov	r2, r4
  4091e6:	462b      	mov	r3, r5
  4091e8:	f000 fc4a 	bl	409a80 <__adddf3>
  4091ec:	2700      	movs	r7, #0
  4091ee:	4683      	mov	fp, r0
  4091f0:	468a      	mov	sl, r1
  4091f2:	46b8      	mov	r8, r7
  4091f4:	465a      	mov	r2, fp
  4091f6:	4653      	mov	r3, sl
  4091f8:	4658      	mov	r0, fp
  4091fa:	4651      	mov	r1, sl
  4091fc:	f000 fdf2 	bl	409de4 <__aeabi_dmul>
  409200:	4603      	mov	r3, r0
  409202:	460c      	mov	r4, r1
  409204:	e9cd 3400 	strd	r3, r4, [sp]
  409208:	4602      	mov	r2, r0
  40920a:	460b      	mov	r3, r1
  40920c:	f000 fdea 	bl	409de4 <__aeabi_dmul>
  409210:	e9dd 2300 	ldrd	r2, r3, [sp]
  409214:	4604      	mov	r4, r0
  409216:	460d      	mov	r5, r1
  409218:	4658      	mov	r0, fp
  40921a:	4651      	mov	r1, sl
  40921c:	f000 fde2 	bl	409de4 <__aeabi_dmul>
  409220:	a393      	add	r3, pc, #588	; (adr r3, 409470 <__kernel_tan+0x300>)
  409222:	e9d3 2300 	ldrd	r2, r3, [r3]
  409226:	e9cd 0102 	strd	r0, r1, [sp, #8]
  40922a:	4620      	mov	r0, r4
  40922c:	4629      	mov	r1, r5
  40922e:	f000 fdd9 	bl	409de4 <__aeabi_dmul>
  409232:	a391      	add	r3, pc, #580	; (adr r3, 409478 <__kernel_tan+0x308>)
  409234:	e9d3 2300 	ldrd	r2, r3, [r3]
  409238:	f000 fc22 	bl	409a80 <__adddf3>
  40923c:	4622      	mov	r2, r4
  40923e:	462b      	mov	r3, r5
  409240:	f000 fdd0 	bl	409de4 <__aeabi_dmul>
  409244:	a38e      	add	r3, pc, #568	; (adr r3, 409480 <__kernel_tan+0x310>)
  409246:	e9d3 2300 	ldrd	r2, r3, [r3]
  40924a:	f000 fc19 	bl	409a80 <__adddf3>
  40924e:	4622      	mov	r2, r4
  409250:	462b      	mov	r3, r5
  409252:	f000 fdc7 	bl	409de4 <__aeabi_dmul>
  409256:	a38c      	add	r3, pc, #560	; (adr r3, 409488 <__kernel_tan+0x318>)
  409258:	e9d3 2300 	ldrd	r2, r3, [r3]
  40925c:	f000 fc10 	bl	409a80 <__adddf3>
  409260:	4622      	mov	r2, r4
  409262:	462b      	mov	r3, r5
  409264:	f000 fdbe 	bl	409de4 <__aeabi_dmul>
  409268:	a389      	add	r3, pc, #548	; (adr r3, 409490 <__kernel_tan+0x320>)
  40926a:	e9d3 2300 	ldrd	r2, r3, [r3]
  40926e:	f000 fc07 	bl	409a80 <__adddf3>
  409272:	4622      	mov	r2, r4
  409274:	462b      	mov	r3, r5
  409276:	f000 fdb5 	bl	409de4 <__aeabi_dmul>
  40927a:	a387      	add	r3, pc, #540	; (adr r3, 409498 <__kernel_tan+0x328>)
  40927c:	e9d3 2300 	ldrd	r2, r3, [r3]
  409280:	f000 fbfe 	bl	409a80 <__adddf3>
  409284:	e9dd 2300 	ldrd	r2, r3, [sp]
  409288:	f000 fdac 	bl	409de4 <__aeabi_dmul>
  40928c:	a384      	add	r3, pc, #528	; (adr r3, 4094a0 <__kernel_tan+0x330>)
  40928e:	e9d3 2300 	ldrd	r2, r3, [r3]
  409292:	e9cd 0104 	strd	r0, r1, [sp, #16]
  409296:	4620      	mov	r0, r4
  409298:	4629      	mov	r1, r5
  40929a:	f000 fda3 	bl	409de4 <__aeabi_dmul>
  40929e:	a382      	add	r3, pc, #520	; (adr r3, 4094a8 <__kernel_tan+0x338>)
  4092a0:	e9d3 2300 	ldrd	r2, r3, [r3]
  4092a4:	f000 fbec 	bl	409a80 <__adddf3>
  4092a8:	4622      	mov	r2, r4
  4092aa:	462b      	mov	r3, r5
  4092ac:	f000 fd9a 	bl	409de4 <__aeabi_dmul>
  4092b0:	a37f      	add	r3, pc, #508	; (adr r3, 4094b0 <__kernel_tan+0x340>)
  4092b2:	e9d3 2300 	ldrd	r2, r3, [r3]
  4092b6:	f000 fbe3 	bl	409a80 <__adddf3>
  4092ba:	4622      	mov	r2, r4
  4092bc:	462b      	mov	r3, r5
  4092be:	f000 fd91 	bl	409de4 <__aeabi_dmul>
  4092c2:	a37d      	add	r3, pc, #500	; (adr r3, 4094b8 <__kernel_tan+0x348>)
  4092c4:	e9d3 2300 	ldrd	r2, r3, [r3]
  4092c8:	f000 fbda 	bl	409a80 <__adddf3>
  4092cc:	4622      	mov	r2, r4
  4092ce:	462b      	mov	r3, r5
  4092d0:	f000 fd88 	bl	409de4 <__aeabi_dmul>
  4092d4:	a37a      	add	r3, pc, #488	; (adr r3, 4094c0 <__kernel_tan+0x350>)
  4092d6:	e9d3 2300 	ldrd	r2, r3, [r3]
  4092da:	f000 fbd1 	bl	409a80 <__adddf3>
  4092de:	4622      	mov	r2, r4
  4092e0:	462b      	mov	r3, r5
  4092e2:	f000 fd7f 	bl	409de4 <__aeabi_dmul>
  4092e6:	a378      	add	r3, pc, #480	; (adr r3, 4094c8 <__kernel_tan+0x358>)
  4092e8:	e9d3 2300 	ldrd	r2, r3, [r3]
  4092ec:	f000 fbc8 	bl	409a80 <__adddf3>
  4092f0:	4602      	mov	r2, r0
  4092f2:	460b      	mov	r3, r1
  4092f4:	e9dd 0104 	ldrd	r0, r1, [sp, #16]
  4092f8:	f000 fbc2 	bl	409a80 <__adddf3>
  4092fc:	e9dd 2302 	ldrd	r2, r3, [sp, #8]
  409300:	f000 fd70 	bl	409de4 <__aeabi_dmul>
  409304:	463a      	mov	r2, r7
  409306:	4643      	mov	r3, r8
  409308:	f000 fbba 	bl	409a80 <__adddf3>
  40930c:	e9dd 2300 	ldrd	r2, r3, [sp]
  409310:	f000 fd68 	bl	409de4 <__aeabi_dmul>
  409314:	4602      	mov	r2, r0
  409316:	460b      	mov	r3, r1
  409318:	4638      	mov	r0, r7
  40931a:	4641      	mov	r1, r8
  40931c:	f000 fbb0 	bl	409a80 <__adddf3>
  409320:	a36b      	add	r3, pc, #428	; (adr r3, 4094d0 <__kernel_tan+0x360>)
  409322:	e9d3 2300 	ldrd	r2, r3, [r3]
  409326:	4604      	mov	r4, r0
  409328:	460d      	mov	r5, r1
  40932a:	e9dd 0102 	ldrd	r0, r1, [sp, #8]
  40932e:	f000 fd59 	bl	409de4 <__aeabi_dmul>
  409332:	4622      	mov	r2, r4
  409334:	462b      	mov	r3, r5
  409336:	f000 fba3 	bl	409a80 <__adddf3>
  40933a:	460b      	mov	r3, r1
  40933c:	4602      	mov	r2, r0
  40933e:	4651      	mov	r1, sl
  409340:	4658      	mov	r0, fp
  409342:	e9cd 2300 	strd	r2, r3, [sp]
  409346:	f000 fb9b 	bl	409a80 <__adddf3>
  40934a:	4b65      	ldr	r3, [pc, #404]	; (4094e0 <__kernel_tan+0x370>)
  40934c:	429e      	cmp	r6, r3
  40934e:	4604      	mov	r4, r0
  409350:	460d      	mov	r5, r1
  409352:	dc3a      	bgt.n	4093ca <__kernel_tan+0x25a>
  409354:	9b10      	ldr	r3, [sp, #64]	; 0x40
  409356:	2b01      	cmp	r3, #1
  409358:	d034      	beq.n	4093c4 <__kernel_tan+0x254>
  40935a:	4602      	mov	r2, r0
  40935c:	460b      	mov	r3, r1
  40935e:	2000      	movs	r0, #0
  409360:	495e      	ldr	r1, [pc, #376]	; (4094dc <__kernel_tan+0x36c>)
  409362:	f000 fe69 	bl	40a038 <__aeabi_ddiv>
  409366:	2400      	movs	r4, #0
  409368:	460f      	mov	r7, r1
  40936a:	4606      	mov	r6, r0
  40936c:	465a      	mov	r2, fp
  40936e:	4653      	mov	r3, sl
  409370:	4620      	mov	r0, r4
  409372:	4629      	mov	r1, r5
  409374:	f000 fb82 	bl	409a7c <__aeabi_dsub>
  409378:	46a0      	mov	r8, r4
  40937a:	4602      	mov	r2, r0
  40937c:	460b      	mov	r3, r1
  40937e:	e9dd 0100 	ldrd	r0, r1, [sp]
  409382:	f000 fb7b 	bl	409a7c <__aeabi_dsub>
  409386:	4642      	mov	r2, r8
  409388:	463b      	mov	r3, r7
  40938a:	f000 fd2b 	bl	409de4 <__aeabi_dmul>
  40938e:	46a9      	mov	r9, r5
  409390:	4604      	mov	r4, r0
  409392:	460d      	mov	r5, r1
  409394:	4642      	mov	r2, r8
  409396:	463b      	mov	r3, r7
  409398:	4640      	mov	r0, r8
  40939a:	4649      	mov	r1, r9
  40939c:	f000 fd22 	bl	409de4 <__aeabi_dmul>
  4093a0:	2200      	movs	r2, #0
  4093a2:	4b50      	ldr	r3, [pc, #320]	; (4094e4 <__kernel_tan+0x374>)
  4093a4:	f000 fb6c 	bl	409a80 <__adddf3>
  4093a8:	4602      	mov	r2, r0
  4093aa:	460b      	mov	r3, r1
  4093ac:	4620      	mov	r0, r4
  4093ae:	4629      	mov	r1, r5
  4093b0:	f000 fb66 	bl	409a80 <__adddf3>
  4093b4:	4632      	mov	r2, r6
  4093b6:	463b      	mov	r3, r7
  4093b8:	f000 fd14 	bl	409de4 <__aeabi_dmul>
  4093bc:	4642      	mov	r2, r8
  4093be:	463b      	mov	r3, r7
  4093c0:	f000 fb5e 	bl	409a80 <__adddf3>
  4093c4:	b007      	add	sp, #28
  4093c6:	e8bd 8ff0 	ldmia.w	sp!, {r4, r5, r6, r7, r8, r9, sl, fp, pc}
  4093ca:	9810      	ldr	r0, [sp, #64]	; 0x40
  4093cc:	f000 fca4 	bl	409d18 <__aeabi_i2d>
  4093d0:	4622      	mov	r2, r4
  4093d2:	4606      	mov	r6, r0
  4093d4:	460f      	mov	r7, r1
  4093d6:	462b      	mov	r3, r5
  4093d8:	4620      	mov	r0, r4
  4093da:	4629      	mov	r1, r5
  4093dc:	f000 fd02 	bl	409de4 <__aeabi_dmul>
  4093e0:	4632      	mov	r2, r6
  4093e2:	e9cd 0102 	strd	r0, r1, [sp, #8]
  4093e6:	463b      	mov	r3, r7
  4093e8:	4620      	mov	r0, r4
  4093ea:	4629      	mov	r1, r5
  4093ec:	f000 fb48 	bl	409a80 <__adddf3>
  4093f0:	4602      	mov	r2, r0
  4093f2:	460b      	mov	r3, r1
  4093f4:	e9dd 0102 	ldrd	r0, r1, [sp, #8]
  4093f8:	f000 fe1e 	bl	40a038 <__aeabi_ddiv>
  4093fc:	e9dd 2300 	ldrd	r2, r3, [sp]
  409400:	f000 fb3c 	bl	409a7c <__aeabi_dsub>
  409404:	4602      	mov	r2, r0
  409406:	460b      	mov	r3, r1
  409408:	4658      	mov	r0, fp
  40940a:	4651      	mov	r1, sl
  40940c:	f000 fb36 	bl	409a7c <__aeabi_dsub>
  409410:	4602      	mov	r2, r0
  409412:	460b      	mov	r3, r1
  409414:	f000 fb34 	bl	409a80 <__adddf3>
  409418:	4602      	mov	r2, r0
  40941a:	460b      	mov	r3, r1
  40941c:	4630      	mov	r0, r6
  40941e:	4639      	mov	r1, r7
  409420:	f000 fb2c 	bl	409a7c <__aeabi_dsub>
  409424:	4604      	mov	r4, r0
  409426:	ea4f 70a9 	mov.w	r0, r9, asr #30
  40942a:	f000 0002 	and.w	r0, r0, #2
  40942e:	f1c0 0001 	rsb	r0, r0, #1
  409432:	460d      	mov	r5, r1
  409434:	f000 fc70 	bl	409d18 <__aeabi_i2d>
  409438:	4602      	mov	r2, r0
  40943a:	460b      	mov	r3, r1
  40943c:	4620      	mov	r0, r4
  40943e:	4629      	mov	r1, r5
  409440:	f000 fcd0 	bl	409de4 <__aeabi_dmul>
  409444:	b007      	add	sp, #28
  409446:	e8bd 8ff0 	ldmia.w	sp!, {r4, r5, r6, r7, r8, r9, sl, fp, pc}
  40944a:	4658      	mov	r0, fp
  40944c:	4651      	mov	r1, sl
  40944e:	f000 f9f5 	bl	40983c <fabs>
  409452:	4602      	mov	r2, r0
  409454:	460b      	mov	r3, r1
  409456:	2000      	movs	r0, #0
  409458:	4922      	ldr	r1, [pc, #136]	; (4094e4 <__kernel_tan+0x374>)
  40945a:	f000 fded 	bl	40a038 <__aeabi_ddiv>
  40945e:	e7b1      	b.n	4093c4 <__kernel_tan+0x254>
  409460:	54442d18 	.word	0x54442d18
  409464:	3fe921fb 	.word	0x3fe921fb
  409468:	33145c07 	.word	0x33145c07
  40946c:	3c81a626 	.word	0x3c81a626
  409470:	74bf7ad4 	.word	0x74bf7ad4
  409474:	3efb2a70 	.word	0x3efb2a70
  409478:	32f0a7e9 	.word	0x32f0a7e9
  40947c:	3f12b80f 	.word	0x3f12b80f
  409480:	1a8d1068 	.word	0x1a8d1068
  409484:	3f3026f7 	.word	0x3f3026f7
  409488:	fee08315 	.word	0xfee08315
  40948c:	3f57dbc8 	.word	0x3f57dbc8
  409490:	e96e8493 	.word	0xe96e8493
  409494:	3f8226e3 	.word	0x3f8226e3
  409498:	1bb341fe 	.word	0x1bb341fe
  40949c:	3faba1ba 	.word	0x3faba1ba
  4094a0:	db605373 	.word	0xdb605373
  4094a4:	bef375cb 	.word	0xbef375cb
  4094a8:	a03792a6 	.word	0xa03792a6
  4094ac:	3f147e88 	.word	0x3f147e88
  4094b0:	f2f26501 	.word	0xf2f26501
  4094b4:	3f4344d8 	.word	0x3f4344d8
  4094b8:	c9560328 	.word	0xc9560328
  4094bc:	3f6d6d22 	.word	0x3f6d6d22
  4094c0:	8406d637 	.word	0x8406d637
  4094c4:	3f9664f4 	.word	0x3f9664f4
  4094c8:	1110fe7a 	.word	0x1110fe7a
  4094cc:	3fc11111 	.word	0x3fc11111
  4094d0:	55555563 	.word	0x55555563
  4094d4:	3fd55555 	.word	0x3fd55555
  4094d8:	3e2fffff 	.word	0x3e2fffff
  4094dc:	bff00000 	.word	0xbff00000
  4094e0:	3fe59427 	.word	0x3fe59427
  4094e4:	3ff00000 	.word	0x3ff00000
  4094e8:	f101 4300 	add.w	r3, r1, #2147483648	; 0x80000000
  4094ec:	f108 4800 	add.w	r8, r8, #2147483648	; 0x80000000
  4094f0:	4683      	mov	fp, r0
  4094f2:	469a      	mov	sl, r3
  4094f4:	e666      	b.n	4091c4 <__kernel_tan+0x54>
  4094f6:	4658      	mov	r0, fp
  4094f8:	4651      	mov	r1, sl
  4094fa:	e763      	b.n	4093c4 <__kernel_tan+0x254>
  4094fc:	0000      	movs	r0, r0
	...

00409500 <atan>:
  409500:	e92d 4ff8 	stmdb	sp!, {r3, r4, r5, r6, r7, r8, r9, sl, fp, lr}
  409504:	4bc0      	ldr	r3, [pc, #768]	; (409808 <atan+0x308>)
  409506:	f021 4600 	bic.w	r6, r1, #2147483648	; 0x80000000
  40950a:	429e      	cmp	r6, r3
  40950c:	460d      	mov	r5, r1
  40950e:	468a      	mov	sl, r1
  409510:	4604      	mov	r4, r0
  409512:	dd0f      	ble.n	409534 <atan+0x34>
  409514:	4bbd      	ldr	r3, [pc, #756]	; (40980c <atan+0x30c>)
  409516:	429e      	cmp	r6, r3
  409518:	f300 80b2 	bgt.w	409680 <atan+0x180>
  40951c:	f000 80ad 	beq.w	40967a <atan+0x17a>
  409520:	4bbb      	ldr	r3, [pc, #748]	; (409810 <atan+0x310>)
  409522:	49bc      	ldr	r1, [pc, #752]	; (409814 <atan+0x314>)
  409524:	4cbc      	ldr	r4, [pc, #752]	; (409818 <atan+0x318>)
  409526:	f1ba 0f00 	cmp.w	sl, #0
  40952a:	bfc8      	it	gt
  40952c:	4619      	movgt	r1, r3
  40952e:	4620      	mov	r0, r4
  409530:	e8bd 8ff8 	ldmia.w	sp!, {r3, r4, r5, r6, r7, r8, r9, sl, fp, pc}
  409534:	4bb9      	ldr	r3, [pc, #740]	; (40981c <atan+0x31c>)
  409536:	429e      	cmp	r6, r3
  409538:	f300 80bc 	bgt.w	4096b4 <atan+0x1b4>
  40953c:	f1a3 73de 	sub.w	r3, r3, #29097984	; 0x1bc0000
  409540:	429e      	cmp	r6, r3
  409542:	f340 80a7 	ble.w	409694 <atan+0x194>
  409546:	f04f 3bff 	mov.w	fp, #4294967295
  40954a:	4622      	mov	r2, r4
  40954c:	462b      	mov	r3, r5
  40954e:	4620      	mov	r0, r4
  409550:	4629      	mov	r1, r5
  409552:	f000 fc47 	bl	409de4 <__aeabi_dmul>
  409556:	4602      	mov	r2, r0
  409558:	460b      	mov	r3, r1
  40955a:	4680      	mov	r8, r0
  40955c:	4689      	mov	r9, r1
  40955e:	f000 fc41 	bl	409de4 <__aeabi_dmul>
  409562:	a391      	add	r3, pc, #580	; (adr r3, 4097a8 <atan+0x2a8>)
  409564:	e9d3 2300 	ldrd	r2, r3, [r3]
  409568:	4606      	mov	r6, r0
  40956a:	460f      	mov	r7, r1
  40956c:	f000 fc3a 	bl	409de4 <__aeabi_dmul>
  409570:	a38f      	add	r3, pc, #572	; (adr r3, 4097b0 <atan+0x2b0>)
  409572:	e9d3 2300 	ldrd	r2, r3, [r3]
  409576:	f000 fa83 	bl	409a80 <__adddf3>
  40957a:	4632      	mov	r2, r6
  40957c:	463b      	mov	r3, r7
  40957e:	f000 fc31 	bl	409de4 <__aeabi_dmul>
  409582:	a38d      	add	r3, pc, #564	; (adr r3, 4097b8 <atan+0x2b8>)
  409584:	e9d3 2300 	ldrd	r2, r3, [r3]
  409588:	f000 fa7a 	bl	409a80 <__adddf3>
  40958c:	4632      	mov	r2, r6
  40958e:	463b      	mov	r3, r7
  409590:	f000 fc28 	bl	409de4 <__aeabi_dmul>
  409594:	a38a      	add	r3, pc, #552	; (adr r3, 4097c0 <atan+0x2c0>)
  409596:	e9d3 2300 	ldrd	r2, r3, [r3]
  40959a:	f000 fa71 	bl	409a80 <__adddf3>
  40959e:	4632      	mov	r2, r6
  4095a0:	463b      	mov	r3, r7
  4095a2:	f000 fc1f 	bl	409de4 <__aeabi_dmul>
  4095a6:	a388      	add	r3, pc, #544	; (adr r3, 4097c8 <atan+0x2c8>)
  4095a8:	e9d3 2300 	ldrd	r2, r3, [r3]
  4095ac:	f000 fa68 	bl	409a80 <__adddf3>
  4095b0:	4632      	mov	r2, r6
  4095b2:	463b      	mov	r3, r7
  4095b4:	f000 fc16 	bl	409de4 <__aeabi_dmul>
  4095b8:	a385      	add	r3, pc, #532	; (adr r3, 4097d0 <atan+0x2d0>)
  4095ba:	e9d3 2300 	ldrd	r2, r3, [r3]
  4095be:	f000 fa5f 	bl	409a80 <__adddf3>
  4095c2:	4642      	mov	r2, r8
  4095c4:	464b      	mov	r3, r9
  4095c6:	f000 fc0d 	bl	409de4 <__aeabi_dmul>
  4095ca:	a383      	add	r3, pc, #524	; (adr r3, 4097d8 <atan+0x2d8>)
  4095cc:	e9d3 2300 	ldrd	r2, r3, [r3]
  4095d0:	4680      	mov	r8, r0
  4095d2:	4689      	mov	r9, r1
  4095d4:	4630      	mov	r0, r6
  4095d6:	4639      	mov	r1, r7
  4095d8:	f000 fc04 	bl	409de4 <__aeabi_dmul>
  4095dc:	a380      	add	r3, pc, #512	; (adr r3, 4097e0 <atan+0x2e0>)
  4095de:	e9d3 2300 	ldrd	r2, r3, [r3]
  4095e2:	f000 fa4b 	bl	409a7c <__aeabi_dsub>
  4095e6:	4632      	mov	r2, r6
  4095e8:	463b      	mov	r3, r7
  4095ea:	f000 fbfb 	bl	409de4 <__aeabi_dmul>
  4095ee:	a37e      	add	r3, pc, #504	; (adr r3, 4097e8 <atan+0x2e8>)
  4095f0:	e9d3 2300 	ldrd	r2, r3, [r3]
  4095f4:	f000 fa42 	bl	409a7c <__aeabi_dsub>
  4095f8:	4632      	mov	r2, r6
  4095fa:	463b      	mov	r3, r7
  4095fc:	f000 fbf2 	bl	409de4 <__aeabi_dmul>
  409600:	a37b      	add	r3, pc, #492	; (adr r3, 4097f0 <atan+0x2f0>)
  409602:	e9d3 2300 	ldrd	r2, r3, [r3]
  409606:	f000 fa39 	bl	409a7c <__aeabi_dsub>
  40960a:	4632      	mov	r2, r6
  40960c:	463b      	mov	r3, r7
  40960e:	f000 fbe9 	bl	409de4 <__aeabi_dmul>
  409612:	a379      	add	r3, pc, #484	; (adr r3, 4097f8 <atan+0x2f8>)
  409614:	e9d3 2300 	ldrd	r2, r3, [r3]
  409618:	f000 fa30 	bl	409a7c <__aeabi_dsub>
  40961c:	4632      	mov	r2, r6
  40961e:	463b      	mov	r3, r7
  409620:	f000 fbe0 	bl	409de4 <__aeabi_dmul>
  409624:	f1bb 3fff 	cmp.w	fp, #4294967295
  409628:	4602      	mov	r2, r0
  40962a:	460b      	mov	r3, r1
  40962c:	d069      	beq.n	409702 <atan+0x202>
  40962e:	4640      	mov	r0, r8
  409630:	4649      	mov	r1, r9
  409632:	f000 fa25 	bl	409a80 <__adddf3>
  409636:	4622      	mov	r2, r4
  409638:	462b      	mov	r3, r5
  40963a:	f000 fbd3 	bl	409de4 <__aeabi_dmul>
  40963e:	4e78      	ldr	r6, [pc, #480]	; (409820 <atan+0x320>)
  409640:	4b78      	ldr	r3, [pc, #480]	; (409824 <atan+0x324>)
  409642:	ea4f 0bcb 	mov.w	fp, fp, lsl #3
  409646:	445e      	add	r6, fp
  409648:	449b      	add	fp, r3
  40964a:	e9db 2300 	ldrd	r2, r3, [fp]
  40964e:	f000 fa15 	bl	409a7c <__aeabi_dsub>
  409652:	4622      	mov	r2, r4
  409654:	462b      	mov	r3, r5
  409656:	f000 fa11 	bl	409a7c <__aeabi_dsub>
  40965a:	4602      	mov	r2, r0
  40965c:	460b      	mov	r3, r1
  40965e:	e9d6 0100 	ldrd	r0, r1, [r6]
  409662:	f000 fa0b 	bl	409a7c <__aeabi_dsub>
  409666:	f1ba 0f00 	cmp.w	sl, #0
  40966a:	4604      	mov	r4, r0
  40966c:	f6bf af5f 	bge.w	40952e <atan+0x2e>
  409670:	f101 4100 	add.w	r1, r1, #2147483648	; 0x80000000
  409674:	4620      	mov	r0, r4
  409676:	e8bd 8ff8 	ldmia.w	sp!, {r3, r4, r5, r6, r7, r8, r9, sl, fp, pc}
  40967a:	2800      	cmp	r0, #0
  40967c:	f43f af50 	beq.w	409520 <atan+0x20>
  409680:	4622      	mov	r2, r4
  409682:	4620      	mov	r0, r4
  409684:	462b      	mov	r3, r5
  409686:	4629      	mov	r1, r5
  409688:	f000 f9fa 	bl	409a80 <__adddf3>
  40968c:	4604      	mov	r4, r0
  40968e:	4620      	mov	r0, r4
  409690:	e8bd 8ff8 	ldmia.w	sp!, {r3, r4, r5, r6, r7, r8, r9, sl, fp, pc}
  409694:	a35a      	add	r3, pc, #360	; (adr r3, 409800 <atan+0x300>)
  409696:	e9d3 2300 	ldrd	r2, r3, [r3]
  40969a:	f000 f9f1 	bl	409a80 <__adddf3>
  40969e:	2200      	movs	r2, #0
  4096a0:	4b61      	ldr	r3, [pc, #388]	; (409828 <atan+0x328>)
  4096a2:	f000 fe2f 	bl	40a304 <__aeabi_dcmpgt>
  4096a6:	2800      	cmp	r0, #0
  4096a8:	f43f af4d 	beq.w	409546 <atan+0x46>
  4096ac:	4629      	mov	r1, r5
  4096ae:	4620      	mov	r0, r4
  4096b0:	e8bd 8ff8 	ldmia.w	sp!, {r3, r4, r5, r6, r7, r8, r9, sl, fp, pc}
  4096b4:	f000 f8c2 	bl	40983c <fabs>
  4096b8:	4b5c      	ldr	r3, [pc, #368]	; (40982c <atan+0x32c>)
  4096ba:	429e      	cmp	r6, r3
  4096bc:	4604      	mov	r4, r0
  4096be:	460d      	mov	r5, r1
  4096c0:	dc2f      	bgt.n	409722 <atan+0x222>
  4096c2:	f5a3 2350 	sub.w	r3, r3, #851968	; 0xd0000
  4096c6:	429e      	cmp	r6, r3
  4096c8:	dc54      	bgt.n	409774 <atan+0x274>
  4096ca:	4602      	mov	r2, r0
  4096cc:	460b      	mov	r3, r1
  4096ce:	f000 f9d7 	bl	409a80 <__adddf3>
  4096d2:	2200      	movs	r2, #0
  4096d4:	4b54      	ldr	r3, [pc, #336]	; (409828 <atan+0x328>)
  4096d6:	f000 f9d1 	bl	409a7c <__aeabi_dsub>
  4096da:	2200      	movs	r2, #0
  4096dc:	4606      	mov	r6, r0
  4096de:	460f      	mov	r7, r1
  4096e0:	f04f 4380 	mov.w	r3, #1073741824	; 0x40000000
  4096e4:	4620      	mov	r0, r4
  4096e6:	4629      	mov	r1, r5
  4096e8:	f000 f9ca 	bl	409a80 <__adddf3>
  4096ec:	4602      	mov	r2, r0
  4096ee:	460b      	mov	r3, r1
  4096f0:	4630      	mov	r0, r6
  4096f2:	4639      	mov	r1, r7
  4096f4:	f000 fca0 	bl	40a038 <__aeabi_ddiv>
  4096f8:	f04f 0b00 	mov.w	fp, #0
  4096fc:	4604      	mov	r4, r0
  4096fe:	460d      	mov	r5, r1
  409700:	e723      	b.n	40954a <atan+0x4a>
  409702:	4640      	mov	r0, r8
  409704:	4649      	mov	r1, r9
  409706:	f000 f9bb 	bl	409a80 <__adddf3>
  40970a:	4622      	mov	r2, r4
  40970c:	462b      	mov	r3, r5
  40970e:	f000 fb69 	bl	409de4 <__aeabi_dmul>
  409712:	4602      	mov	r2, r0
  409714:	460b      	mov	r3, r1
  409716:	4620      	mov	r0, r4
  409718:	4629      	mov	r1, r5
  40971a:	f000 f9af 	bl	409a7c <__aeabi_dsub>
  40971e:	4604      	mov	r4, r0
  409720:	e705      	b.n	40952e <atan+0x2e>
  409722:	4b43      	ldr	r3, [pc, #268]	; (409830 <atan+0x330>)
  409724:	429e      	cmp	r6, r3
  409726:	dc1a      	bgt.n	40975e <atan+0x25e>
  409728:	2200      	movs	r2, #0
  40972a:	4b42      	ldr	r3, [pc, #264]	; (409834 <atan+0x334>)
  40972c:	f000 f9a6 	bl	409a7c <__aeabi_dsub>
  409730:	2200      	movs	r2, #0
  409732:	4606      	mov	r6, r0
  409734:	460f      	mov	r7, r1
  409736:	4b3f      	ldr	r3, [pc, #252]	; (409834 <atan+0x334>)
  409738:	4620      	mov	r0, r4
  40973a:	4629      	mov	r1, r5
  40973c:	f000 fb52 	bl	409de4 <__aeabi_dmul>
  409740:	2200      	movs	r2, #0
  409742:	4b39      	ldr	r3, [pc, #228]	; (409828 <atan+0x328>)
  409744:	f000 f99c 	bl	409a80 <__adddf3>
  409748:	4602      	mov	r2, r0
  40974a:	460b      	mov	r3, r1
  40974c:	4630      	mov	r0, r6
  40974e:	4639      	mov	r1, r7
  409750:	f000 fc72 	bl	40a038 <__aeabi_ddiv>
  409754:	f04f 0b02 	mov.w	fp, #2
  409758:	4604      	mov	r4, r0
  40975a:	460d      	mov	r5, r1
  40975c:	e6f5      	b.n	40954a <atan+0x4a>
  40975e:	4602      	mov	r2, r0
  409760:	460b      	mov	r3, r1
  409762:	2000      	movs	r0, #0
  409764:	4934      	ldr	r1, [pc, #208]	; (409838 <atan+0x338>)
  409766:	f000 fc67 	bl	40a038 <__aeabi_ddiv>
  40976a:	f04f 0b03 	mov.w	fp, #3
  40976e:	4604      	mov	r4, r0
  409770:	460d      	mov	r5, r1
  409772:	e6ea      	b.n	40954a <atan+0x4a>
  409774:	2200      	movs	r2, #0
  409776:	4b2c      	ldr	r3, [pc, #176]	; (409828 <atan+0x328>)
  409778:	f000 f980 	bl	409a7c <__aeabi_dsub>
  40977c:	2200      	movs	r2, #0
  40977e:	4606      	mov	r6, r0
  409780:	460f      	mov	r7, r1
  409782:	4b29      	ldr	r3, [pc, #164]	; (409828 <atan+0x328>)
  409784:	4620      	mov	r0, r4
  409786:	4629      	mov	r1, r5
  409788:	f000 f97a 	bl	409a80 <__adddf3>
  40978c:	4602      	mov	r2, r0
  40978e:	460b      	mov	r3, r1
  409790:	4630      	mov	r0, r6
  409792:	4639      	mov	r1, r7
  409794:	f000 fc50 	bl	40a038 <__aeabi_ddiv>
  409798:	f04f 0b01 	mov.w	fp, #1
  40979c:	4604      	mov	r4, r0
  40979e:	460d      	mov	r5, r1
  4097a0:	e6d3      	b.n	40954a <atan+0x4a>
  4097a2:	bf00      	nop
  4097a4:	f3af 8000 	nop.w
  4097a8:	e322da11 	.word	0xe322da11
  4097ac:	3f90ad3a 	.word	0x3f90ad3a
  4097b0:	24760deb 	.word	0x24760deb
  4097b4:	3fa97b4b 	.word	0x3fa97b4b
  4097b8:	a0d03d51 	.word	0xa0d03d51
  4097bc:	3fb10d66 	.word	0x3fb10d66
  4097c0:	c54c206e 	.word	0xc54c206e
  4097c4:	3fb745cd 	.word	0x3fb745cd
  4097c8:	920083ff 	.word	0x920083ff
  4097cc:	3fc24924 	.word	0x3fc24924
  4097d0:	5555550d 	.word	0x5555550d
  4097d4:	3fd55555 	.word	0x3fd55555
  4097d8:	2c6a6c2f 	.word	0x2c6a6c2f
  4097dc:	bfa2b444 	.word	0xbfa2b444
  4097e0:	52defd9a 	.word	0x52defd9a
  4097e4:	3fadde2d 	.word	0x3fadde2d
  4097e8:	af749a6d 	.word	0xaf749a6d
  4097ec:	3fb3b0f2 	.word	0x3fb3b0f2
  4097f0:	fe231671 	.word	0xfe231671
  4097f4:	3fbc71c6 	.word	0x3fbc71c6
  4097f8:	9998ebc4 	.word	0x9998ebc4
  4097fc:	3fc99999 	.word	0x3fc99999
  409800:	8800759c 	.word	0x8800759c
  409804:	7e37e43c 	.word	0x7e37e43c
  409808:	440fffff 	.word	0x440fffff
  40980c:	7ff00000 	.word	0x7ff00000
  409810:	3ff921fb 	.word	0x3ff921fb
  409814:	bff921fb 	.word	0xbff921fb
  409818:	54442d18 	.word	0x54442d18
  40981c:	3fdbffff 	.word	0x3fdbffff
  409820:	0040b350 	.word	0x0040b350
  409824:	0040b330 	.word	0x0040b330
  409828:	3ff00000 	.word	0x3ff00000
  40982c:	3ff2ffff 	.word	0x3ff2ffff
  409830:	40037fff 	.word	0x40037fff
  409834:	3ff80000 	.word	0x3ff80000
  409838:	bff00000 	.word	0xbff00000

0040983c <fabs>:
  40983c:	f021 4100 	bic.w	r1, r1, #2147483648	; 0x80000000
  409840:	4770      	bx	lr
  409842:	bf00      	nop
  409844:	0000      	movs	r0, r0
	...

00409848 <floor>:
  409848:	f3c1 520a 	ubfx	r2, r1, #20, #11
  40984c:	e92d 43f8 	stmdb	sp!, {r3, r4, r5, r6, r7, r8, r9, lr}
  409850:	f2a2 36ff 	subw	r6, r2, #1023	; 0x3ff
  409854:	2e13      	cmp	r6, #19
  409856:	460b      	mov	r3, r1
  409858:	460d      	mov	r5, r1
  40985a:	4604      	mov	r4, r0
  40985c:	4688      	mov	r8, r1
  40985e:	4607      	mov	r7, r0
  409860:	dc1c      	bgt.n	40989c <floor+0x54>
  409862:	2e00      	cmp	r6, #0
  409864:	db3f      	blt.n	4098e6 <floor+0x9e>
  409866:	4a3a      	ldr	r2, [pc, #232]	; (409950 <floor+0x108>)
  409868:	fa42 f906 	asr.w	r9, r2, r6
  40986c:	ea01 0209 	and.w	r2, r1, r9
  409870:	4302      	orrs	r2, r0
  409872:	4686      	mov	lr, r0
  409874:	d017      	beq.n	4098a6 <floor+0x5e>
  409876:	a334      	add	r3, pc, #208	; (adr r3, 409948 <floor+0x100>)
  409878:	e9d3 2300 	ldrd	r2, r3, [r3]
  40987c:	f000 f900 	bl	409a80 <__adddf3>
  409880:	2200      	movs	r2, #0
  409882:	2300      	movs	r3, #0
  409884:	f000 fd3e 	bl	40a304 <__aeabi_dcmpgt>
  409888:	b120      	cbz	r0, 409894 <floor+0x4c>
  40988a:	2d00      	cmp	r5, #0
  40988c:	db40      	blt.n	409910 <floor+0xc8>
  40988e:	ea28 0509 	bic.w	r5, r8, r9
  409892:	2700      	movs	r7, #0
  409894:	4638      	mov	r0, r7
  409896:	4629      	mov	r1, r5
  409898:	e8bd 83f8 	ldmia.w	sp!, {r3, r4, r5, r6, r7, r8, r9, pc}
  40989c:	2e33      	cmp	r6, #51	; 0x33
  40989e:	dd06      	ble.n	4098ae <floor+0x66>
  4098a0:	f5b6 6f80 	cmp.w	r6, #1024	; 0x400
  4098a4:	d02f      	beq.n	409906 <floor+0xbe>
  4098a6:	4620      	mov	r0, r4
  4098a8:	4619      	mov	r1, r3
  4098aa:	e8bd 83f8 	ldmia.w	sp!, {r3, r4, r5, r6, r7, r8, r9, pc}
  4098ae:	f2a2 4213 	subw	r2, r2, #1043	; 0x413
  4098b2:	f04f 39ff 	mov.w	r9, #4294967295
  4098b6:	fa29 f902 	lsr.w	r9, r9, r2
  4098ba:	ea10 0f09 	tst.w	r0, r9
  4098be:	d0f2      	beq.n	4098a6 <floor+0x5e>
  4098c0:	a321      	add	r3, pc, #132	; (adr r3, 409948 <floor+0x100>)
  4098c2:	e9d3 2300 	ldrd	r2, r3, [r3]
  4098c6:	f000 f8db 	bl	409a80 <__adddf3>
  4098ca:	2200      	movs	r2, #0
  4098cc:	2300      	movs	r3, #0
  4098ce:	f000 fd19 	bl	40a304 <__aeabi_dcmpgt>
  4098d2:	2800      	cmp	r0, #0
  4098d4:	d0de      	beq.n	409894 <floor+0x4c>
  4098d6:	2d00      	cmp	r5, #0
  4098d8:	db20      	blt.n	40991c <floor+0xd4>
  4098da:	4645      	mov	r5, r8
  4098dc:	ea27 0709 	bic.w	r7, r7, r9
  4098e0:	4638      	mov	r0, r7
  4098e2:	4629      	mov	r1, r5
  4098e4:	e7d8      	b.n	409898 <floor+0x50>
  4098e6:	a318      	add	r3, pc, #96	; (adr r3, 409948 <floor+0x100>)
  4098e8:	e9d3 2300 	ldrd	r2, r3, [r3]
  4098ec:	f000 f8c8 	bl	409a80 <__adddf3>
  4098f0:	2200      	movs	r2, #0
  4098f2:	2300      	movs	r3, #0
  4098f4:	f000 fd06 	bl	40a304 <__aeabi_dcmpgt>
  4098f8:	2800      	cmp	r0, #0
  4098fa:	d0cb      	beq.n	409894 <floor+0x4c>
  4098fc:	2d00      	cmp	r5, #0
  4098fe:	db18      	blt.n	409932 <floor+0xea>
  409900:	2700      	movs	r7, #0
  409902:	463d      	mov	r5, r7
  409904:	e7c6      	b.n	409894 <floor+0x4c>
  409906:	4602      	mov	r2, r0
  409908:	460b      	mov	r3, r1
  40990a:	f000 f8b9 	bl	409a80 <__adddf3>
  40990e:	e7cc      	b.n	4098aa <floor+0x62>
  409910:	f44f 1380 	mov.w	r3, #1048576	; 0x100000
  409914:	fa43 f606 	asr.w	r6, r3, r6
  409918:	44b0      	add	r8, r6
  40991a:	e7b8      	b.n	40988e <floor+0x46>
  40991c:	2e14      	cmp	r6, #20
  40991e:	d010      	beq.n	409942 <floor+0xfa>
  409920:	2301      	movs	r3, #1
  409922:	f1c6 0634 	rsb	r6, r6, #52	; 0x34
  409926:	fa03 f606 	lsl.w	r6, r3, r6
  40992a:	1937      	adds	r7, r6, r4
  40992c:	bf28      	it	cs
  40992e:	4498      	addcs	r8, r3
  409930:	e7d3      	b.n	4098da <floor+0x92>
  409932:	f025 4200 	bic.w	r2, r5, #2147483648	; 0x80000000
  409936:	4b07      	ldr	r3, [pc, #28]	; (409954 <floor+0x10c>)
  409938:	4322      	orrs	r2, r4
  40993a:	bf18      	it	ne
  40993c:	461d      	movne	r5, r3
  40993e:	2700      	movs	r7, #0
  409940:	e7a8      	b.n	409894 <floor+0x4c>
  409942:	f105 0801 	add.w	r8, r5, #1
  409946:	e7c8      	b.n	4098da <floor+0x92>
  409948:	8800759c 	.word	0x8800759c
  40994c:	7e37e43c 	.word	0x7e37e43c
  409950:	000fffff 	.word	0x000fffff
  409954:	bff00000 	.word	0xbff00000

00409958 <matherr>:
  409958:	2000      	movs	r0, #0
  40995a:	4770      	bx	lr

0040995c <nan>:
  40995c:	2000      	movs	r0, #0
  40995e:	4901      	ldr	r1, [pc, #4]	; (409964 <nan+0x8>)
  409960:	4770      	bx	lr
  409962:	bf00      	nop
  409964:	7ff80000 	.word	0x7ff80000

00409968 <scalbn>:
  409968:	b5f8      	push	{r3, r4, r5, r6, r7, lr}
  40996a:	f3c1 560a 	ubfx	r6, r1, #20, #11
  40996e:	4604      	mov	r4, r0
  409970:	460d      	mov	r5, r1
  409972:	460b      	mov	r3, r1
  409974:	4617      	mov	r7, r2
  409976:	bb06      	cbnz	r6, 4099ba <scalbn+0x52>
  409978:	f021 4300 	bic.w	r3, r1, #2147483648	; 0x80000000
  40997c:	4303      	orrs	r3, r0
  40997e:	d025      	beq.n	4099cc <scalbn+0x64>
  409980:	2200      	movs	r2, #0
  409982:	4b35      	ldr	r3, [pc, #212]	; (409a58 <scalbn+0xf0>)
  409984:	f000 fa2e 	bl	409de4 <__aeabi_dmul>
  409988:	4a34      	ldr	r2, [pc, #208]	; (409a5c <scalbn+0xf4>)
  40998a:	4297      	cmp	r7, r2
  40998c:	4604      	mov	r4, r0
  40998e:	460d      	mov	r5, r1
  409990:	460b      	mov	r3, r1
  409992:	db2a      	blt.n	4099ea <scalbn+0x82>
  409994:	f3c1 560a 	ubfx	r6, r1, #20, #11
  409998:	3e36      	subs	r6, #54	; 0x36
  40999a:	443e      	add	r6, r7
  40999c:	f240 72fe 	movw	r2, #2046	; 0x7fe
  4099a0:	4296      	cmp	r6, r2
  4099a2:	dc28      	bgt.n	4099f6 <scalbn+0x8e>
  4099a4:	2e00      	cmp	r6, #0
  4099a6:	dd12      	ble.n	4099ce <scalbn+0x66>
  4099a8:	f023 43ff 	bic.w	r3, r3, #2139095040	; 0x7f800000
  4099ac:	f423 03e0 	bic.w	r3, r3, #7340032	; 0x700000
  4099b0:	ea43 5506 	orr.w	r5, r3, r6, lsl #20
  4099b4:	4620      	mov	r0, r4
  4099b6:	4629      	mov	r1, r5
  4099b8:	bdf8      	pop	{r3, r4, r5, r6, r7, pc}
  4099ba:	f240 72ff 	movw	r2, #2047	; 0x7ff
  4099be:	4296      	cmp	r6, r2
  4099c0:	d1eb      	bne.n	40999a <scalbn+0x32>
  4099c2:	4602      	mov	r2, r0
  4099c4:	460b      	mov	r3, r1
  4099c6:	f000 f85b 	bl	409a80 <__adddf3>
  4099ca:	bdf8      	pop	{r3, r4, r5, r6, r7, pc}
  4099cc:	bdf8      	pop	{r3, r4, r5, r6, r7, pc}
  4099ce:	f116 0f35 	cmn.w	r6, #53	; 0x35
  4099d2:	da1d      	bge.n	409a10 <scalbn+0xa8>
  4099d4:	f24c 3350 	movw	r3, #50000	; 0xc350
  4099d8:	429f      	cmp	r7, r3
  4099da:	4622      	mov	r2, r4
  4099dc:	462b      	mov	r3, r5
  4099de:	dc25      	bgt.n	409a2c <scalbn+0xc4>
  4099e0:	a119      	add	r1, pc, #100	; (adr r1, 409a48 <scalbn+0xe0>)
  4099e2:	e9d1 0100 	ldrd	r0, r1, [r1]
  4099e6:	f000 f83d 	bl	409a64 <copysign>
  4099ea:	a317      	add	r3, pc, #92	; (adr r3, 409a48 <scalbn+0xe0>)
  4099ec:	e9d3 2300 	ldrd	r2, r3, [r3]
  4099f0:	f000 f9f8 	bl	409de4 <__aeabi_dmul>
  4099f4:	bdf8      	pop	{r3, r4, r5, r6, r7, pc}
  4099f6:	4622      	mov	r2, r4
  4099f8:	462b      	mov	r3, r5
  4099fa:	a115      	add	r1, pc, #84	; (adr r1, 409a50 <scalbn+0xe8>)
  4099fc:	e9d1 0100 	ldrd	r0, r1, [r1]
  409a00:	f000 f830 	bl	409a64 <copysign>
  409a04:	a312      	add	r3, pc, #72	; (adr r3, 409a50 <scalbn+0xe8>)
  409a06:	e9d3 2300 	ldrd	r2, r3, [r3]
  409a0a:	f000 f9eb 	bl	409de4 <__aeabi_dmul>
  409a0e:	bdf8      	pop	{r3, r4, r5, r6, r7, pc}
  409a10:	f023 43ff 	bic.w	r3, r3, #2139095040	; 0x7f800000
  409a14:	f423 03e0 	bic.w	r3, r3, #7340032	; 0x700000
  409a18:	3636      	adds	r6, #54	; 0x36
  409a1a:	ea43 5506 	orr.w	r5, r3, r6, lsl #20
  409a1e:	4620      	mov	r0, r4
  409a20:	4629      	mov	r1, r5
  409a22:	2200      	movs	r2, #0
  409a24:	4b0e      	ldr	r3, [pc, #56]	; (409a60 <scalbn+0xf8>)
  409a26:	f000 f9dd 	bl	409de4 <__aeabi_dmul>
  409a2a:	bdf8      	pop	{r3, r4, r5, r6, r7, pc}
  409a2c:	a108      	add	r1, pc, #32	; (adr r1, 409a50 <scalbn+0xe8>)
  409a2e:	e9d1 0100 	ldrd	r0, r1, [r1]
  409a32:	f000 f817 	bl	409a64 <copysign>
  409a36:	a306      	add	r3, pc, #24	; (adr r3, 409a50 <scalbn+0xe8>)
  409a38:	e9d3 2300 	ldrd	r2, r3, [r3]
  409a3c:	f000 f9d2 	bl	409de4 <__aeabi_dmul>
  409a40:	bdf8      	pop	{r3, r4, r5, r6, r7, pc}
  409a42:	bf00      	nop
  409a44:	f3af 8000 	nop.w
  409a48:	c2f8f359 	.word	0xc2f8f359
  409a4c:	01a56e1f 	.word	0x01a56e1f
  409a50:	8800759c 	.word	0x8800759c
  409a54:	7e37e43c 	.word	0x7e37e43c
  409a58:	43500000 	.word	0x43500000
  409a5c:	ffff3cb0 	.word	0xffff3cb0
  409a60:	3c900000 	.word	0x3c900000

00409a64 <copysign>:
  409a64:	f003 4300 	and.w	r3, r3, #2147483648	; 0x80000000
  409a68:	f021 4200 	bic.w	r2, r1, #2147483648	; 0x80000000
  409a6c:	ea42 0103 	orr.w	r1, r2, r3
  409a70:	4770      	bx	lr
  409a72:	bf00      	nop

00409a74 <__aeabi_drsub>:
  409a74:	f081 4100 	eor.w	r1, r1, #2147483648	; 0x80000000
  409a78:	e002      	b.n	409a80 <__adddf3>
  409a7a:	bf00      	nop

00409a7c <__aeabi_dsub>:
  409a7c:	f083 4300 	eor.w	r3, r3, #2147483648	; 0x80000000

00409a80 <__adddf3>:
  409a80:	b530      	push	{r4, r5, lr}
  409a82:	ea4f 0441 	mov.w	r4, r1, lsl #1
  409a86:	ea4f 0543 	mov.w	r5, r3, lsl #1
  409a8a:	ea94 0f05 	teq	r4, r5
  409a8e:	bf08      	it	eq
  409a90:	ea90 0f02 	teqeq	r0, r2
  409a94:	bf1f      	itttt	ne
  409a96:	ea54 0c00 	orrsne.w	ip, r4, r0
  409a9a:	ea55 0c02 	orrsne.w	ip, r5, r2
  409a9e:	ea7f 5c64 	mvnsne.w	ip, r4, asr #21
  409aa2:	ea7f 5c65 	mvnsne.w	ip, r5, asr #21
  409aa6:	f000 80e2 	beq.w	409c6e <__adddf3+0x1ee>
  409aaa:	ea4f 5454 	mov.w	r4, r4, lsr #21
  409aae:	ebd4 5555 	rsbs	r5, r4, r5, lsr #21
  409ab2:	bfb8      	it	lt
  409ab4:	426d      	neglt	r5, r5
  409ab6:	dd0c      	ble.n	409ad2 <__adddf3+0x52>
  409ab8:	442c      	add	r4, r5
  409aba:	ea80 0202 	eor.w	r2, r0, r2
  409abe:	ea81 0303 	eor.w	r3, r1, r3
  409ac2:	ea82 0000 	eor.w	r0, r2, r0
  409ac6:	ea83 0101 	eor.w	r1, r3, r1
  409aca:	ea80 0202 	eor.w	r2, r0, r2
  409ace:	ea81 0303 	eor.w	r3, r1, r3
  409ad2:	2d36      	cmp	r5, #54	; 0x36
  409ad4:	bf88      	it	hi
  409ad6:	bd30      	pophi	{r4, r5, pc}
  409ad8:	f011 4f00 	tst.w	r1, #2147483648	; 0x80000000
  409adc:	ea4f 3101 	mov.w	r1, r1, lsl #12
  409ae0:	f44f 1c80 	mov.w	ip, #1048576	; 0x100000
  409ae4:	ea4c 3111 	orr.w	r1, ip, r1, lsr #12
  409ae8:	d002      	beq.n	409af0 <__adddf3+0x70>
  409aea:	4240      	negs	r0, r0
  409aec:	eb61 0141 	sbc.w	r1, r1, r1, lsl #1
  409af0:	f013 4f00 	tst.w	r3, #2147483648	; 0x80000000
  409af4:	ea4f 3303 	mov.w	r3, r3, lsl #12
  409af8:	ea4c 3313 	orr.w	r3, ip, r3, lsr #12
  409afc:	d002      	beq.n	409b04 <__adddf3+0x84>
  409afe:	4252      	negs	r2, r2
  409b00:	eb63 0343 	sbc.w	r3, r3, r3, lsl #1
  409b04:	ea94 0f05 	teq	r4, r5
  409b08:	f000 80a7 	beq.w	409c5a <__adddf3+0x1da>
  409b0c:	f1a4 0401 	sub.w	r4, r4, #1
  409b10:	f1d5 0e20 	rsbs	lr, r5, #32
  409b14:	db0d      	blt.n	409b32 <__adddf3+0xb2>
  409b16:	fa02 fc0e 	lsl.w	ip, r2, lr
  409b1a:	fa22 f205 	lsr.w	r2, r2, r5
  409b1e:	1880      	adds	r0, r0, r2
  409b20:	f141 0100 	adc.w	r1, r1, #0
  409b24:	fa03 f20e 	lsl.w	r2, r3, lr
  409b28:	1880      	adds	r0, r0, r2
  409b2a:	fa43 f305 	asr.w	r3, r3, r5
  409b2e:	4159      	adcs	r1, r3
  409b30:	e00e      	b.n	409b50 <__adddf3+0xd0>
  409b32:	f1a5 0520 	sub.w	r5, r5, #32
  409b36:	f10e 0e20 	add.w	lr, lr, #32
  409b3a:	2a01      	cmp	r2, #1
  409b3c:	fa03 fc0e 	lsl.w	ip, r3, lr
  409b40:	bf28      	it	cs
  409b42:	f04c 0c02 	orrcs.w	ip, ip, #2
  409b46:	fa43 f305 	asr.w	r3, r3, r5
  409b4a:	18c0      	adds	r0, r0, r3
  409b4c:	eb51 71e3 	adcs.w	r1, r1, r3, asr #31
  409b50:	f001 4500 	and.w	r5, r1, #2147483648	; 0x80000000
  409b54:	d507      	bpl.n	409b66 <__adddf3+0xe6>
  409b56:	f04f 0e00 	mov.w	lr, #0
  409b5a:	f1dc 0c00 	rsbs	ip, ip, #0
  409b5e:	eb7e 0000 	sbcs.w	r0, lr, r0
  409b62:	eb6e 0101 	sbc.w	r1, lr, r1
  409b66:	f5b1 1f80 	cmp.w	r1, #1048576	; 0x100000
  409b6a:	d31b      	bcc.n	409ba4 <__adddf3+0x124>
  409b6c:	f5b1 1f00 	cmp.w	r1, #2097152	; 0x200000
  409b70:	d30c      	bcc.n	409b8c <__adddf3+0x10c>
  409b72:	0849      	lsrs	r1, r1, #1
  409b74:	ea5f 0030 	movs.w	r0, r0, rrx
  409b78:	ea4f 0c3c 	mov.w	ip, ip, rrx
  409b7c:	f104 0401 	add.w	r4, r4, #1
  409b80:	ea4f 5244 	mov.w	r2, r4, lsl #21
  409b84:	f512 0f80 	cmn.w	r2, #4194304	; 0x400000
  409b88:	f080 809a 	bcs.w	409cc0 <__adddf3+0x240>
  409b8c:	f1bc 4f00 	cmp.w	ip, #2147483648	; 0x80000000
  409b90:	bf08      	it	eq
  409b92:	ea5f 0c50 	movseq.w	ip, r0, lsr #1
  409b96:	f150 0000 	adcs.w	r0, r0, #0
  409b9a:	eb41 5104 	adc.w	r1, r1, r4, lsl #20
  409b9e:	ea41 0105 	orr.w	r1, r1, r5
  409ba2:	bd30      	pop	{r4, r5, pc}
  409ba4:	ea5f 0c4c 	movs.w	ip, ip, lsl #1
  409ba8:	4140      	adcs	r0, r0
  409baa:	eb41 0101 	adc.w	r1, r1, r1
  409bae:	f411 1f80 	tst.w	r1, #1048576	; 0x100000
  409bb2:	f1a4 0401 	sub.w	r4, r4, #1
  409bb6:	d1e9      	bne.n	409b8c <__adddf3+0x10c>
  409bb8:	f091 0f00 	teq	r1, #0
  409bbc:	bf04      	itt	eq
  409bbe:	4601      	moveq	r1, r0
  409bc0:	2000      	moveq	r0, #0
  409bc2:	fab1 f381 	clz	r3, r1
  409bc6:	bf08      	it	eq
  409bc8:	3320      	addeq	r3, #32
  409bca:	f1a3 030b 	sub.w	r3, r3, #11
  409bce:	f1b3 0220 	subs.w	r2, r3, #32
  409bd2:	da0c      	bge.n	409bee <__adddf3+0x16e>
  409bd4:	320c      	adds	r2, #12
  409bd6:	dd08      	ble.n	409bea <__adddf3+0x16a>
  409bd8:	f102 0c14 	add.w	ip, r2, #20
  409bdc:	f1c2 020c 	rsb	r2, r2, #12
  409be0:	fa01 f00c 	lsl.w	r0, r1, ip
  409be4:	fa21 f102 	lsr.w	r1, r1, r2
  409be8:	e00c      	b.n	409c04 <__adddf3+0x184>
  409bea:	f102 0214 	add.w	r2, r2, #20
  409bee:	bfd8      	it	le
  409bf0:	f1c2 0c20 	rsble	ip, r2, #32
  409bf4:	fa01 f102 	lsl.w	r1, r1, r2
  409bf8:	fa20 fc0c 	lsr.w	ip, r0, ip
  409bfc:	bfdc      	itt	le
  409bfe:	ea41 010c 	orrle.w	r1, r1, ip
  409c02:	4090      	lslle	r0, r2
  409c04:	1ae4      	subs	r4, r4, r3
  409c06:	bfa2      	ittt	ge
  409c08:	eb01 5104 	addge.w	r1, r1, r4, lsl #20
  409c0c:	4329      	orrge	r1, r5
  409c0e:	bd30      	popge	{r4, r5, pc}
  409c10:	ea6f 0404 	mvn.w	r4, r4
  409c14:	3c1f      	subs	r4, #31
  409c16:	da1c      	bge.n	409c52 <__adddf3+0x1d2>
  409c18:	340c      	adds	r4, #12
  409c1a:	dc0e      	bgt.n	409c3a <__adddf3+0x1ba>
  409c1c:	f104 0414 	add.w	r4, r4, #20
  409c20:	f1c4 0220 	rsb	r2, r4, #32
  409c24:	fa20 f004 	lsr.w	r0, r0, r4
  409c28:	fa01 f302 	lsl.w	r3, r1, r2
  409c2c:	ea40 0003 	orr.w	r0, r0, r3
  409c30:	fa21 f304 	lsr.w	r3, r1, r4
  409c34:	ea45 0103 	orr.w	r1, r5, r3
  409c38:	bd30      	pop	{r4, r5, pc}
  409c3a:	f1c4 040c 	rsb	r4, r4, #12
  409c3e:	f1c4 0220 	rsb	r2, r4, #32
  409c42:	fa20 f002 	lsr.w	r0, r0, r2
  409c46:	fa01 f304 	lsl.w	r3, r1, r4
  409c4a:	ea40 0003 	orr.w	r0, r0, r3
  409c4e:	4629      	mov	r1, r5
  409c50:	bd30      	pop	{r4, r5, pc}
  409c52:	fa21 f004 	lsr.w	r0, r1, r4
  409c56:	4629      	mov	r1, r5
  409c58:	bd30      	pop	{r4, r5, pc}
  409c5a:	f094 0f00 	teq	r4, #0
  409c5e:	f483 1380 	eor.w	r3, r3, #1048576	; 0x100000
  409c62:	bf06      	itte	eq
  409c64:	f481 1180 	eoreq.w	r1, r1, #1048576	; 0x100000
  409c68:	3401      	addeq	r4, #1
  409c6a:	3d01      	subne	r5, #1
  409c6c:	e74e      	b.n	409b0c <__adddf3+0x8c>
  409c6e:	ea7f 5c64 	mvns.w	ip, r4, asr #21
  409c72:	bf18      	it	ne
  409c74:	ea7f 5c65 	mvnsne.w	ip, r5, asr #21
  409c78:	d029      	beq.n	409cce <__adddf3+0x24e>
  409c7a:	ea94 0f05 	teq	r4, r5
  409c7e:	bf08      	it	eq
  409c80:	ea90 0f02 	teqeq	r0, r2
  409c84:	d005      	beq.n	409c92 <__adddf3+0x212>
  409c86:	ea54 0c00 	orrs.w	ip, r4, r0
  409c8a:	bf04      	itt	eq
  409c8c:	4619      	moveq	r1, r3
  409c8e:	4610      	moveq	r0, r2
  409c90:	bd30      	pop	{r4, r5, pc}
  409c92:	ea91 0f03 	teq	r1, r3
  409c96:	bf1e      	ittt	ne
  409c98:	2100      	movne	r1, #0
  409c9a:	2000      	movne	r0, #0
  409c9c:	bd30      	popne	{r4, r5, pc}
  409c9e:	ea5f 5c54 	movs.w	ip, r4, lsr #21
  409ca2:	d105      	bne.n	409cb0 <__adddf3+0x230>
  409ca4:	0040      	lsls	r0, r0, #1
  409ca6:	4149      	adcs	r1, r1
  409ca8:	bf28      	it	cs
  409caa:	f041 4100 	orrcs.w	r1, r1, #2147483648	; 0x80000000
  409cae:	bd30      	pop	{r4, r5, pc}
  409cb0:	f514 0480 	adds.w	r4, r4, #4194304	; 0x400000
  409cb4:	bf3c      	itt	cc
  409cb6:	f501 1180 	addcc.w	r1, r1, #1048576	; 0x100000
  409cba:	bd30      	popcc	{r4, r5, pc}
  409cbc:	f001 4500 	and.w	r5, r1, #2147483648	; 0x80000000
  409cc0:	f045 41fe 	orr.w	r1, r5, #2130706432	; 0x7f000000
  409cc4:	f441 0170 	orr.w	r1, r1, #15728640	; 0xf00000
  409cc8:	f04f 0000 	mov.w	r0, #0
  409ccc:	bd30      	pop	{r4, r5, pc}
  409cce:	ea7f 5c64 	mvns.w	ip, r4, asr #21
  409cd2:	bf1a      	itte	ne
  409cd4:	4619      	movne	r1, r3
  409cd6:	4610      	movne	r0, r2
  409cd8:	ea7f 5c65 	mvnseq.w	ip, r5, asr #21
  409cdc:	bf1c      	itt	ne
  409cde:	460b      	movne	r3, r1
  409ce0:	4602      	movne	r2, r0
  409ce2:	ea50 3401 	orrs.w	r4, r0, r1, lsl #12
  409ce6:	bf06      	itte	eq
  409ce8:	ea52 3503 	orrseq.w	r5, r2, r3, lsl #12
  409cec:	ea91 0f03 	teqeq	r1, r3
  409cf0:	f441 2100 	orrne.w	r1, r1, #524288	; 0x80000
  409cf4:	bd30      	pop	{r4, r5, pc}
  409cf6:	bf00      	nop

00409cf8 <__aeabi_ui2d>:
  409cf8:	f090 0f00 	teq	r0, #0
  409cfc:	bf04      	itt	eq
  409cfe:	2100      	moveq	r1, #0
  409d00:	4770      	bxeq	lr
  409d02:	b530      	push	{r4, r5, lr}
  409d04:	f44f 6480 	mov.w	r4, #1024	; 0x400
  409d08:	f104 0432 	add.w	r4, r4, #50	; 0x32
  409d0c:	f04f 0500 	mov.w	r5, #0
  409d10:	f04f 0100 	mov.w	r1, #0
  409d14:	e750      	b.n	409bb8 <__adddf3+0x138>
  409d16:	bf00      	nop

00409d18 <__aeabi_i2d>:
  409d18:	f090 0f00 	teq	r0, #0
  409d1c:	bf04      	itt	eq
  409d1e:	2100      	moveq	r1, #0
  409d20:	4770      	bxeq	lr
  409d22:	b530      	push	{r4, r5, lr}
  409d24:	f44f 6480 	mov.w	r4, #1024	; 0x400
  409d28:	f104 0432 	add.w	r4, r4, #50	; 0x32
  409d2c:	f010 4500 	ands.w	r5, r0, #2147483648	; 0x80000000
  409d30:	bf48      	it	mi
  409d32:	4240      	negmi	r0, r0
  409d34:	f04f 0100 	mov.w	r1, #0
  409d38:	e73e      	b.n	409bb8 <__adddf3+0x138>
  409d3a:	bf00      	nop

00409d3c <__aeabi_f2d>:
  409d3c:	0042      	lsls	r2, r0, #1
  409d3e:	ea4f 01e2 	mov.w	r1, r2, asr #3
  409d42:	ea4f 0131 	mov.w	r1, r1, rrx
  409d46:	ea4f 7002 	mov.w	r0, r2, lsl #28
  409d4a:	bf1f      	itttt	ne
  409d4c:	f012 437f 	andsne.w	r3, r2, #4278190080	; 0xff000000
  409d50:	f093 4f7f 	teqne	r3, #4278190080	; 0xff000000
  409d54:	f081 5160 	eorne.w	r1, r1, #939524096	; 0x38000000
  409d58:	4770      	bxne	lr
  409d5a:	f092 0f00 	teq	r2, #0
  409d5e:	bf14      	ite	ne
  409d60:	f093 4f7f 	teqne	r3, #4278190080	; 0xff000000
  409d64:	4770      	bxeq	lr
  409d66:	b530      	push	{r4, r5, lr}
  409d68:	f44f 7460 	mov.w	r4, #896	; 0x380
  409d6c:	f001 4500 	and.w	r5, r1, #2147483648	; 0x80000000
  409d70:	f021 4100 	bic.w	r1, r1, #2147483648	; 0x80000000
  409d74:	e720      	b.n	409bb8 <__adddf3+0x138>
  409d76:	bf00      	nop

00409d78 <__aeabi_ul2d>:
  409d78:	ea50 0201 	orrs.w	r2, r0, r1
  409d7c:	bf08      	it	eq
  409d7e:	4770      	bxeq	lr
  409d80:	b530      	push	{r4, r5, lr}
  409d82:	f04f 0500 	mov.w	r5, #0
  409d86:	e00a      	b.n	409d9e <__aeabi_l2d+0x16>

00409d88 <__aeabi_l2d>:
  409d88:	ea50 0201 	orrs.w	r2, r0, r1
  409d8c:	bf08      	it	eq
  409d8e:	4770      	bxeq	lr
  409d90:	b530      	push	{r4, r5, lr}
  409d92:	f011 4500 	ands.w	r5, r1, #2147483648	; 0x80000000
  409d96:	d502      	bpl.n	409d9e <__aeabi_l2d+0x16>
  409d98:	4240      	negs	r0, r0
  409d9a:	eb61 0141 	sbc.w	r1, r1, r1, lsl #1
  409d9e:	f44f 6480 	mov.w	r4, #1024	; 0x400
  409da2:	f104 0432 	add.w	r4, r4, #50	; 0x32
  409da6:	ea5f 5c91 	movs.w	ip, r1, lsr #22
  409daa:	f43f aedc 	beq.w	409b66 <__adddf3+0xe6>
  409dae:	f04f 0203 	mov.w	r2, #3
  409db2:	ea5f 0cdc 	movs.w	ip, ip, lsr #3
  409db6:	bf18      	it	ne
  409db8:	3203      	addne	r2, #3
  409dba:	ea5f 0cdc 	movs.w	ip, ip, lsr #3
  409dbe:	bf18      	it	ne
  409dc0:	3203      	addne	r2, #3
  409dc2:	eb02 02dc 	add.w	r2, r2, ip, lsr #3
  409dc6:	f1c2 0320 	rsb	r3, r2, #32
  409dca:	fa00 fc03 	lsl.w	ip, r0, r3
  409dce:	fa20 f002 	lsr.w	r0, r0, r2
  409dd2:	fa01 fe03 	lsl.w	lr, r1, r3
  409dd6:	ea40 000e 	orr.w	r0, r0, lr
  409dda:	fa21 f102 	lsr.w	r1, r1, r2
  409dde:	4414      	add	r4, r2
  409de0:	e6c1      	b.n	409b66 <__adddf3+0xe6>
  409de2:	bf00      	nop

00409de4 <__aeabi_dmul>:
  409de4:	b570      	push	{r4, r5, r6, lr}
  409de6:	f04f 0cff 	mov.w	ip, #255	; 0xff
  409dea:	f44c 6ce0 	orr.w	ip, ip, #1792	; 0x700
  409dee:	ea1c 5411 	ands.w	r4, ip, r1, lsr #20
  409df2:	bf1d      	ittte	ne
  409df4:	ea1c 5513 	andsne.w	r5, ip, r3, lsr #20
  409df8:	ea94 0f0c 	teqne	r4, ip
  409dfc:	ea95 0f0c 	teqne	r5, ip
  409e00:	f000 f8de 	bleq	409fc0 <__aeabi_dmul+0x1dc>
  409e04:	442c      	add	r4, r5
  409e06:	ea81 0603 	eor.w	r6, r1, r3
  409e0a:	ea21 514c 	bic.w	r1, r1, ip, lsl #21
  409e0e:	ea23 534c 	bic.w	r3, r3, ip, lsl #21
  409e12:	ea50 3501 	orrs.w	r5, r0, r1, lsl #12
  409e16:	bf18      	it	ne
  409e18:	ea52 3503 	orrsne.w	r5, r2, r3, lsl #12
  409e1c:	f441 1180 	orr.w	r1, r1, #1048576	; 0x100000
  409e20:	f443 1380 	orr.w	r3, r3, #1048576	; 0x100000
  409e24:	d038      	beq.n	409e98 <__aeabi_dmul+0xb4>
  409e26:	fba0 ce02 	umull	ip, lr, r0, r2
  409e2a:	f04f 0500 	mov.w	r5, #0
  409e2e:	fbe1 e502 	umlal	lr, r5, r1, r2
  409e32:	f006 4200 	and.w	r2, r6, #2147483648	; 0x80000000
  409e36:	fbe0 e503 	umlal	lr, r5, r0, r3
  409e3a:	f04f 0600 	mov.w	r6, #0
  409e3e:	fbe1 5603 	umlal	r5, r6, r1, r3
  409e42:	f09c 0f00 	teq	ip, #0
  409e46:	bf18      	it	ne
  409e48:	f04e 0e01 	orrne.w	lr, lr, #1
  409e4c:	f1a4 04ff 	sub.w	r4, r4, #255	; 0xff
  409e50:	f5b6 7f00 	cmp.w	r6, #512	; 0x200
  409e54:	f564 7440 	sbc.w	r4, r4, #768	; 0x300
  409e58:	d204      	bcs.n	409e64 <__aeabi_dmul+0x80>
  409e5a:	ea5f 0e4e 	movs.w	lr, lr, lsl #1
  409e5e:	416d      	adcs	r5, r5
  409e60:	eb46 0606 	adc.w	r6, r6, r6
  409e64:	ea42 21c6 	orr.w	r1, r2, r6, lsl #11
  409e68:	ea41 5155 	orr.w	r1, r1, r5, lsr #21
  409e6c:	ea4f 20c5 	mov.w	r0, r5, lsl #11
  409e70:	ea40 505e 	orr.w	r0, r0, lr, lsr #21
  409e74:	ea4f 2ece 	mov.w	lr, lr, lsl #11
  409e78:	f1b4 0cfd 	subs.w	ip, r4, #253	; 0xfd
  409e7c:	bf88      	it	hi
  409e7e:	f5bc 6fe0 	cmphi.w	ip, #1792	; 0x700
  409e82:	d81e      	bhi.n	409ec2 <__aeabi_dmul+0xde>
  409e84:	f1be 4f00 	cmp.w	lr, #2147483648	; 0x80000000
  409e88:	bf08      	it	eq
  409e8a:	ea5f 0e50 	movseq.w	lr, r0, lsr #1
  409e8e:	f150 0000 	adcs.w	r0, r0, #0
  409e92:	eb41 5104 	adc.w	r1, r1, r4, lsl #20
  409e96:	bd70      	pop	{r4, r5, r6, pc}
  409e98:	f006 4600 	and.w	r6, r6, #2147483648	; 0x80000000
  409e9c:	ea46 0101 	orr.w	r1, r6, r1
  409ea0:	ea40 0002 	orr.w	r0, r0, r2
  409ea4:	ea81 0103 	eor.w	r1, r1, r3
  409ea8:	ebb4 045c 	subs.w	r4, r4, ip, lsr #1
  409eac:	bfc2      	ittt	gt
  409eae:	ebd4 050c 	rsbsgt	r5, r4, ip
  409eb2:	ea41 5104 	orrgt.w	r1, r1, r4, lsl #20
  409eb6:	bd70      	popgt	{r4, r5, r6, pc}
  409eb8:	f441 1180 	orr.w	r1, r1, #1048576	; 0x100000
  409ebc:	f04f 0e00 	mov.w	lr, #0
  409ec0:	3c01      	subs	r4, #1
  409ec2:	f300 80ab 	bgt.w	40a01c <__aeabi_dmul+0x238>
  409ec6:	f114 0f36 	cmn.w	r4, #54	; 0x36
  409eca:	bfde      	ittt	le
  409ecc:	2000      	movle	r0, #0
  409ece:	f001 4100 	andle.w	r1, r1, #2147483648	; 0x80000000
  409ed2:	bd70      	pople	{r4, r5, r6, pc}
  409ed4:	f1c4 0400 	rsb	r4, r4, #0
  409ed8:	3c20      	subs	r4, #32
  409eda:	da35      	bge.n	409f48 <__aeabi_dmul+0x164>
  409edc:	340c      	adds	r4, #12
  409ede:	dc1b      	bgt.n	409f18 <__aeabi_dmul+0x134>
  409ee0:	f104 0414 	add.w	r4, r4, #20
  409ee4:	f1c4 0520 	rsb	r5, r4, #32
  409ee8:	fa00 f305 	lsl.w	r3, r0, r5
  409eec:	fa20 f004 	lsr.w	r0, r0, r4
  409ef0:	fa01 f205 	lsl.w	r2, r1, r5
  409ef4:	ea40 0002 	orr.w	r0, r0, r2
  409ef8:	f001 4200 	and.w	r2, r1, #2147483648	; 0x80000000
  409efc:	f021 4100 	bic.w	r1, r1, #2147483648	; 0x80000000
  409f00:	eb10 70d3 	adds.w	r0, r0, r3, lsr #31
  409f04:	fa21 f604 	lsr.w	r6, r1, r4
  409f08:	eb42 0106 	adc.w	r1, r2, r6
  409f0c:	ea5e 0e43 	orrs.w	lr, lr, r3, lsl #1
  409f10:	bf08      	it	eq
  409f12:	ea20 70d3 	biceq.w	r0, r0, r3, lsr #31
  409f16:	bd70      	pop	{r4, r5, r6, pc}
  409f18:	f1c4 040c 	rsb	r4, r4, #12
  409f1c:	f1c4 0520 	rsb	r5, r4, #32
  409f20:	fa00 f304 	lsl.w	r3, r0, r4
  409f24:	fa20 f005 	lsr.w	r0, r0, r5
  409f28:	fa01 f204 	lsl.w	r2, r1, r4
  409f2c:	ea40 0002 	orr.w	r0, r0, r2
  409f30:	f001 4100 	and.w	r1, r1, #2147483648	; 0x80000000
  409f34:	eb10 70d3 	adds.w	r0, r0, r3, lsr #31
  409f38:	f141 0100 	adc.w	r1, r1, #0
  409f3c:	ea5e 0e43 	orrs.w	lr, lr, r3, lsl #1
  409f40:	bf08      	it	eq
  409f42:	ea20 70d3 	biceq.w	r0, r0, r3, lsr #31
  409f46:	bd70      	pop	{r4, r5, r6, pc}
  409f48:	f1c4 0520 	rsb	r5, r4, #32
  409f4c:	fa00 f205 	lsl.w	r2, r0, r5
  409f50:	ea4e 0e02 	orr.w	lr, lr, r2
  409f54:	fa20 f304 	lsr.w	r3, r0, r4
  409f58:	fa01 f205 	lsl.w	r2, r1, r5
  409f5c:	ea43 0302 	orr.w	r3, r3, r2
  409f60:	fa21 f004 	lsr.w	r0, r1, r4
  409f64:	f001 4100 	and.w	r1, r1, #2147483648	; 0x80000000
  409f68:	fa21 f204 	lsr.w	r2, r1, r4
  409f6c:	ea20 0002 	bic.w	r0, r0, r2
  409f70:	eb00 70d3 	add.w	r0, r0, r3, lsr #31
  409f74:	ea5e 0e43 	orrs.w	lr, lr, r3, lsl #1
  409f78:	bf08      	it	eq
  409f7a:	ea20 70d3 	biceq.w	r0, r0, r3, lsr #31
  409f7e:	bd70      	pop	{r4, r5, r6, pc}
  409f80:	f094 0f00 	teq	r4, #0
  409f84:	d10f      	bne.n	409fa6 <__aeabi_dmul+0x1c2>
  409f86:	f001 4600 	and.w	r6, r1, #2147483648	; 0x80000000
  409f8a:	0040      	lsls	r0, r0, #1
  409f8c:	eb41 0101 	adc.w	r1, r1, r1
  409f90:	f411 1f80 	tst.w	r1, #1048576	; 0x100000
  409f94:	bf08      	it	eq
  409f96:	3c01      	subeq	r4, #1
  409f98:	d0f7      	beq.n	409f8a <__aeabi_dmul+0x1a6>
  409f9a:	ea41 0106 	orr.w	r1, r1, r6
  409f9e:	f095 0f00 	teq	r5, #0
  409fa2:	bf18      	it	ne
  409fa4:	4770      	bxne	lr
  409fa6:	f003 4600 	and.w	r6, r3, #2147483648	; 0x80000000
  409faa:	0052      	lsls	r2, r2, #1
  409fac:	eb43 0303 	adc.w	r3, r3, r3
  409fb0:	f413 1f80 	tst.w	r3, #1048576	; 0x100000
  409fb4:	bf08      	it	eq
  409fb6:	3d01      	subeq	r5, #1
  409fb8:	d0f7      	beq.n	409faa <__aeabi_dmul+0x1c6>
  409fba:	ea43 0306 	orr.w	r3, r3, r6
  409fbe:	4770      	bx	lr
  409fc0:	ea94 0f0c 	teq	r4, ip
  409fc4:	ea0c 5513 	and.w	r5, ip, r3, lsr #20
  409fc8:	bf18      	it	ne
  409fca:	ea95 0f0c 	teqne	r5, ip
  409fce:	d00c      	beq.n	409fea <__aeabi_dmul+0x206>
  409fd0:	ea50 0641 	orrs.w	r6, r0, r1, lsl #1
  409fd4:	bf18      	it	ne
  409fd6:	ea52 0643 	orrsne.w	r6, r2, r3, lsl #1
  409fda:	d1d1      	bne.n	409f80 <__aeabi_dmul+0x19c>
  409fdc:	ea81 0103 	eor.w	r1, r1, r3
  409fe0:	f001 4100 	and.w	r1, r1, #2147483648	; 0x80000000
  409fe4:	f04f 0000 	mov.w	r0, #0
  409fe8:	bd70      	pop	{r4, r5, r6, pc}
  409fea:	ea50 0641 	orrs.w	r6, r0, r1, lsl #1
  409fee:	bf06      	itte	eq
  409ff0:	4610      	moveq	r0, r2
  409ff2:	4619      	moveq	r1, r3
  409ff4:	ea52 0643 	orrsne.w	r6, r2, r3, lsl #1
  409ff8:	d019      	beq.n	40a02e <__aeabi_dmul+0x24a>
  409ffa:	ea94 0f0c 	teq	r4, ip
  409ffe:	d102      	bne.n	40a006 <__aeabi_dmul+0x222>
  40a000:	ea50 3601 	orrs.w	r6, r0, r1, lsl #12
  40a004:	d113      	bne.n	40a02e <__aeabi_dmul+0x24a>
  40a006:	ea95 0f0c 	teq	r5, ip
  40a00a:	d105      	bne.n	40a018 <__aeabi_dmul+0x234>
  40a00c:	ea52 3603 	orrs.w	r6, r2, r3, lsl #12
  40a010:	bf1c      	itt	ne
  40a012:	4610      	movne	r0, r2
  40a014:	4619      	movne	r1, r3
  40a016:	d10a      	bne.n	40a02e <__aeabi_dmul+0x24a>
  40a018:	ea81 0103 	eor.w	r1, r1, r3
  40a01c:	f001 4100 	and.w	r1, r1, #2147483648	; 0x80000000
  40a020:	f041 41fe 	orr.w	r1, r1, #2130706432	; 0x7f000000
  40a024:	f441 0170 	orr.w	r1, r1, #15728640	; 0xf00000
  40a028:	f04f 0000 	mov.w	r0, #0
  40a02c:	bd70      	pop	{r4, r5, r6, pc}
  40a02e:	f041 41fe 	orr.w	r1, r1, #2130706432	; 0x7f000000
  40a032:	f441 0178 	orr.w	r1, r1, #16252928	; 0xf80000
  40a036:	bd70      	pop	{r4, r5, r6, pc}

0040a038 <__aeabi_ddiv>:
  40a038:	b570      	push	{r4, r5, r6, lr}
  40a03a:	f04f 0cff 	mov.w	ip, #255	; 0xff
  40a03e:	f44c 6ce0 	orr.w	ip, ip, #1792	; 0x700
  40a042:	ea1c 5411 	ands.w	r4, ip, r1, lsr #20
  40a046:	bf1d      	ittte	ne
  40a048:	ea1c 5513 	andsne.w	r5, ip, r3, lsr #20
  40a04c:	ea94 0f0c 	teqne	r4, ip
  40a050:	ea95 0f0c 	teqne	r5, ip
  40a054:	f000 f8a7 	bleq	40a1a6 <__aeabi_ddiv+0x16e>
  40a058:	eba4 0405 	sub.w	r4, r4, r5
  40a05c:	ea81 0e03 	eor.w	lr, r1, r3
  40a060:	ea52 3503 	orrs.w	r5, r2, r3, lsl #12
  40a064:	ea4f 3101 	mov.w	r1, r1, lsl #12
  40a068:	f000 8088 	beq.w	40a17c <__aeabi_ddiv+0x144>
  40a06c:	ea4f 3303 	mov.w	r3, r3, lsl #12
  40a070:	f04f 5580 	mov.w	r5, #268435456	; 0x10000000
  40a074:	ea45 1313 	orr.w	r3, r5, r3, lsr #4
  40a078:	ea43 6312 	orr.w	r3, r3, r2, lsr #24
  40a07c:	ea4f 2202 	mov.w	r2, r2, lsl #8
  40a080:	ea45 1511 	orr.w	r5, r5, r1, lsr #4
  40a084:	ea45 6510 	orr.w	r5, r5, r0, lsr #24
  40a088:	ea4f 2600 	mov.w	r6, r0, lsl #8
  40a08c:	f00e 4100 	and.w	r1, lr, #2147483648	; 0x80000000
  40a090:	429d      	cmp	r5, r3
  40a092:	bf08      	it	eq
  40a094:	4296      	cmpeq	r6, r2
  40a096:	f144 04fd 	adc.w	r4, r4, #253	; 0xfd
  40a09a:	f504 7440 	add.w	r4, r4, #768	; 0x300
  40a09e:	d202      	bcs.n	40a0a6 <__aeabi_ddiv+0x6e>
  40a0a0:	085b      	lsrs	r3, r3, #1
  40a0a2:	ea4f 0232 	mov.w	r2, r2, rrx
  40a0a6:	1ab6      	subs	r6, r6, r2
  40a0a8:	eb65 0503 	sbc.w	r5, r5, r3
  40a0ac:	085b      	lsrs	r3, r3, #1
  40a0ae:	ea4f 0232 	mov.w	r2, r2, rrx
  40a0b2:	f44f 1080 	mov.w	r0, #1048576	; 0x100000
  40a0b6:	f44f 2c00 	mov.w	ip, #524288	; 0x80000
  40a0ba:	ebb6 0e02 	subs.w	lr, r6, r2
  40a0be:	eb75 0e03 	sbcs.w	lr, r5, r3
  40a0c2:	bf22      	ittt	cs
  40a0c4:	1ab6      	subcs	r6, r6, r2
  40a0c6:	4675      	movcs	r5, lr
  40a0c8:	ea40 000c 	orrcs.w	r0, r0, ip
  40a0cc:	085b      	lsrs	r3, r3, #1
  40a0ce:	ea4f 0232 	mov.w	r2, r2, rrx
  40a0d2:	ebb6 0e02 	subs.w	lr, r6, r2
  40a0d6:	eb75 0e03 	sbcs.w	lr, r5, r3
  40a0da:	bf22      	ittt	cs
  40a0dc:	1ab6      	subcs	r6, r6, r2
  40a0de:	4675      	movcs	r5, lr
  40a0e0:	ea40 005c 	orrcs.w	r0, r0, ip, lsr #1
  40a0e4:	085b      	lsrs	r3, r3, #1
  40a0e6:	ea4f 0232 	mov.w	r2, r2, rrx
  40a0ea:	ebb6 0e02 	subs.w	lr, r6, r2
  40a0ee:	eb75 0e03 	sbcs.w	lr, r5, r3
  40a0f2:	bf22      	ittt	cs
  40a0f4:	1ab6      	subcs	r6, r6, r2
  40a0f6:	4675      	movcs	r5, lr
  40a0f8:	ea40 009c 	orrcs.w	r0, r0, ip, lsr #2
  40a0fc:	085b      	lsrs	r3, r3, #1
  40a0fe:	ea4f 0232 	mov.w	r2, r2, rrx
  40a102:	ebb6 0e02 	subs.w	lr, r6, r2
  40a106:	eb75 0e03 	sbcs.w	lr, r5, r3
  40a10a:	bf22      	ittt	cs
  40a10c:	1ab6      	subcs	r6, r6, r2
  40a10e:	4675      	movcs	r5, lr
  40a110:	ea40 00dc 	orrcs.w	r0, r0, ip, lsr #3
  40a114:	ea55 0e06 	orrs.w	lr, r5, r6
  40a118:	d018      	beq.n	40a14c <__aeabi_ddiv+0x114>
  40a11a:	ea4f 1505 	mov.w	r5, r5, lsl #4
  40a11e:	ea45 7516 	orr.w	r5, r5, r6, lsr #28
  40a122:	ea4f 1606 	mov.w	r6, r6, lsl #4
  40a126:	ea4f 03c3 	mov.w	r3, r3, lsl #3
  40a12a:	ea43 7352 	orr.w	r3, r3, r2, lsr #29
  40a12e:	ea4f 02c2 	mov.w	r2, r2, lsl #3
  40a132:	ea5f 1c1c 	movs.w	ip, ip, lsr #4
  40a136:	d1c0      	bne.n	40a0ba <__aeabi_ddiv+0x82>
  40a138:	f411 1f80 	tst.w	r1, #1048576	; 0x100000
  40a13c:	d10b      	bne.n	40a156 <__aeabi_ddiv+0x11e>
  40a13e:	ea41 0100 	orr.w	r1, r1, r0
  40a142:	f04f 0000 	mov.w	r0, #0
  40a146:	f04f 4c00 	mov.w	ip, #2147483648	; 0x80000000
  40a14a:	e7b6      	b.n	40a0ba <__aeabi_ddiv+0x82>
  40a14c:	f411 1f80 	tst.w	r1, #1048576	; 0x100000
  40a150:	bf04      	itt	eq
  40a152:	4301      	orreq	r1, r0
  40a154:	2000      	moveq	r0, #0
  40a156:	f1b4 0cfd 	subs.w	ip, r4, #253	; 0xfd
  40a15a:	bf88      	it	hi
  40a15c:	f5bc 6fe0 	cmphi.w	ip, #1792	; 0x700
  40a160:	f63f aeaf 	bhi.w	409ec2 <__aeabi_dmul+0xde>
  40a164:	ebb5 0c03 	subs.w	ip, r5, r3
  40a168:	bf04      	itt	eq
  40a16a:	ebb6 0c02 	subseq.w	ip, r6, r2
  40a16e:	ea5f 0c50 	movseq.w	ip, r0, lsr #1
  40a172:	f150 0000 	adcs.w	r0, r0, #0
  40a176:	eb41 5104 	adc.w	r1, r1, r4, lsl #20
  40a17a:	bd70      	pop	{r4, r5, r6, pc}
  40a17c:	f00e 4e00 	and.w	lr, lr, #2147483648	; 0x80000000
  40a180:	ea4e 3111 	orr.w	r1, lr, r1, lsr #12
  40a184:	eb14 045c 	adds.w	r4, r4, ip, lsr #1
  40a188:	bfc2      	ittt	gt
  40a18a:	ebd4 050c 	rsbsgt	r5, r4, ip
  40a18e:	ea41 5104 	orrgt.w	r1, r1, r4, lsl #20
  40a192:	bd70      	popgt	{r4, r5, r6, pc}
  40a194:	f441 1180 	orr.w	r1, r1, #1048576	; 0x100000
  40a198:	f04f 0e00 	mov.w	lr, #0
  40a19c:	3c01      	subs	r4, #1
  40a19e:	e690      	b.n	409ec2 <__aeabi_dmul+0xde>
  40a1a0:	ea45 0e06 	orr.w	lr, r5, r6
  40a1a4:	e68d      	b.n	409ec2 <__aeabi_dmul+0xde>
  40a1a6:	ea0c 5513 	and.w	r5, ip, r3, lsr #20
  40a1aa:	ea94 0f0c 	teq	r4, ip
  40a1ae:	bf08      	it	eq
  40a1b0:	ea95 0f0c 	teqeq	r5, ip
  40a1b4:	f43f af3b 	beq.w	40a02e <__aeabi_dmul+0x24a>
  40a1b8:	ea94 0f0c 	teq	r4, ip
  40a1bc:	d10a      	bne.n	40a1d4 <__aeabi_ddiv+0x19c>
  40a1be:	ea50 3401 	orrs.w	r4, r0, r1, lsl #12
  40a1c2:	f47f af34 	bne.w	40a02e <__aeabi_dmul+0x24a>
  40a1c6:	ea95 0f0c 	teq	r5, ip
  40a1ca:	f47f af25 	bne.w	40a018 <__aeabi_dmul+0x234>
  40a1ce:	4610      	mov	r0, r2
  40a1d0:	4619      	mov	r1, r3
  40a1d2:	e72c      	b.n	40a02e <__aeabi_dmul+0x24a>
  40a1d4:	ea95 0f0c 	teq	r5, ip
  40a1d8:	d106      	bne.n	40a1e8 <__aeabi_ddiv+0x1b0>
  40a1da:	ea52 3503 	orrs.w	r5, r2, r3, lsl #12
  40a1de:	f43f aefd 	beq.w	409fdc <__aeabi_dmul+0x1f8>
  40a1e2:	4610      	mov	r0, r2
  40a1e4:	4619      	mov	r1, r3
  40a1e6:	e722      	b.n	40a02e <__aeabi_dmul+0x24a>
  40a1e8:	ea50 0641 	orrs.w	r6, r0, r1, lsl #1
  40a1ec:	bf18      	it	ne
  40a1ee:	ea52 0643 	orrsne.w	r6, r2, r3, lsl #1
  40a1f2:	f47f aec5 	bne.w	409f80 <__aeabi_dmul+0x19c>
  40a1f6:	ea50 0441 	orrs.w	r4, r0, r1, lsl #1
  40a1fa:	f47f af0d 	bne.w	40a018 <__aeabi_dmul+0x234>
  40a1fe:	ea52 0543 	orrs.w	r5, r2, r3, lsl #1
  40a202:	f47f aeeb 	bne.w	409fdc <__aeabi_dmul+0x1f8>
  40a206:	e712      	b.n	40a02e <__aeabi_dmul+0x24a>

0040a208 <__gedf2>:
  40a208:	f04f 3cff 	mov.w	ip, #4294967295
  40a20c:	e006      	b.n	40a21c <__cmpdf2+0x4>
  40a20e:	bf00      	nop

0040a210 <__ledf2>:
  40a210:	f04f 0c01 	mov.w	ip, #1
  40a214:	e002      	b.n	40a21c <__cmpdf2+0x4>
  40a216:	bf00      	nop

0040a218 <__cmpdf2>:
  40a218:	f04f 0c01 	mov.w	ip, #1
  40a21c:	f84d cd04 	str.w	ip, [sp, #-4]!
  40a220:	ea4f 0c41 	mov.w	ip, r1, lsl #1
  40a224:	ea7f 5c6c 	mvns.w	ip, ip, asr #21
  40a228:	ea4f 0c43 	mov.w	ip, r3, lsl #1
  40a22c:	bf18      	it	ne
  40a22e:	ea7f 5c6c 	mvnsne.w	ip, ip, asr #21
  40a232:	d01b      	beq.n	40a26c <__cmpdf2+0x54>
  40a234:	b001      	add	sp, #4
  40a236:	ea50 0c41 	orrs.w	ip, r0, r1, lsl #1
  40a23a:	bf0c      	ite	eq
  40a23c:	ea52 0c43 	orrseq.w	ip, r2, r3, lsl #1
  40a240:	ea91 0f03 	teqne	r1, r3
  40a244:	bf02      	ittt	eq
  40a246:	ea90 0f02 	teqeq	r0, r2
  40a24a:	2000      	moveq	r0, #0
  40a24c:	4770      	bxeq	lr
  40a24e:	f110 0f00 	cmn.w	r0, #0
  40a252:	ea91 0f03 	teq	r1, r3
  40a256:	bf58      	it	pl
  40a258:	4299      	cmppl	r1, r3
  40a25a:	bf08      	it	eq
  40a25c:	4290      	cmpeq	r0, r2
  40a25e:	bf2c      	ite	cs
  40a260:	17d8      	asrcs	r0, r3, #31
  40a262:	ea6f 70e3 	mvncc.w	r0, r3, asr #31
  40a266:	f040 0001 	orr.w	r0, r0, #1
  40a26a:	4770      	bx	lr
  40a26c:	ea4f 0c41 	mov.w	ip, r1, lsl #1
  40a270:	ea7f 5c6c 	mvns.w	ip, ip, asr #21
  40a274:	d102      	bne.n	40a27c <__cmpdf2+0x64>
  40a276:	ea50 3c01 	orrs.w	ip, r0, r1, lsl #12
  40a27a:	d107      	bne.n	40a28c <__cmpdf2+0x74>
  40a27c:	ea4f 0c43 	mov.w	ip, r3, lsl #1
  40a280:	ea7f 5c6c 	mvns.w	ip, ip, asr #21
  40a284:	d1d6      	bne.n	40a234 <__cmpdf2+0x1c>
  40a286:	ea52 3c03 	orrs.w	ip, r2, r3, lsl #12
  40a28a:	d0d3      	beq.n	40a234 <__cmpdf2+0x1c>
  40a28c:	f85d 0b04 	ldr.w	r0, [sp], #4
  40a290:	4770      	bx	lr
  40a292:	bf00      	nop

0040a294 <__aeabi_cdrcmple>:
  40a294:	4684      	mov	ip, r0
  40a296:	4610      	mov	r0, r2
  40a298:	4662      	mov	r2, ip
  40a29a:	468c      	mov	ip, r1
  40a29c:	4619      	mov	r1, r3
  40a29e:	4663      	mov	r3, ip
  40a2a0:	e000      	b.n	40a2a4 <__aeabi_cdcmpeq>
  40a2a2:	bf00      	nop

0040a2a4 <__aeabi_cdcmpeq>:
  40a2a4:	b501      	push	{r0, lr}
  40a2a6:	f7ff ffb7 	bl	40a218 <__cmpdf2>
  40a2aa:	2800      	cmp	r0, #0
  40a2ac:	bf48      	it	mi
  40a2ae:	f110 0f00 	cmnmi.w	r0, #0
  40a2b2:	bd01      	pop	{r0, pc}

0040a2b4 <__aeabi_dcmpeq>:
  40a2b4:	f84d ed08 	str.w	lr, [sp, #-8]!
  40a2b8:	f7ff fff4 	bl	40a2a4 <__aeabi_cdcmpeq>
  40a2bc:	bf0c      	ite	eq
  40a2be:	2001      	moveq	r0, #1
  40a2c0:	2000      	movne	r0, #0
  40a2c2:	f85d fb08 	ldr.w	pc, [sp], #8
  40a2c6:	bf00      	nop

0040a2c8 <__aeabi_dcmplt>:
  40a2c8:	f84d ed08 	str.w	lr, [sp, #-8]!
  40a2cc:	f7ff ffea 	bl	40a2a4 <__aeabi_cdcmpeq>
  40a2d0:	bf34      	ite	cc
  40a2d2:	2001      	movcc	r0, #1
  40a2d4:	2000      	movcs	r0, #0
  40a2d6:	f85d fb08 	ldr.w	pc, [sp], #8
  40a2da:	bf00      	nop

0040a2dc <__aeabi_dcmple>:
  40a2dc:	f84d ed08 	str.w	lr, [sp, #-8]!
  40a2e0:	f7ff ffe0 	bl	40a2a4 <__aeabi_cdcmpeq>
  40a2e4:	bf94      	ite	ls
  40a2e6:	2001      	movls	r0, #1
  40a2e8:	2000      	movhi	r0, #0
  40a2ea:	f85d fb08 	ldr.w	pc, [sp], #8
  40a2ee:	bf00      	nop

0040a2f0 <__aeabi_dcmpge>:
  40a2f0:	f84d ed08 	str.w	lr, [sp, #-8]!
  40a2f4:	f7ff ffce 	bl	40a294 <__aeabi_cdrcmple>
  40a2f8:	bf94      	ite	ls
  40a2fa:	2001      	movls	r0, #1
  40a2fc:	2000      	movhi	r0, #0
  40a2fe:	f85d fb08 	ldr.w	pc, [sp], #8
  40a302:	bf00      	nop

0040a304 <__aeabi_dcmpgt>:
  40a304:	f84d ed08 	str.w	lr, [sp, #-8]!
  40a308:	f7ff ffc4 	bl	40a294 <__aeabi_cdrcmple>
  40a30c:	bf34      	ite	cc
  40a30e:	2001      	movcc	r0, #1
  40a310:	2000      	movcs	r0, #0
  40a312:	f85d fb08 	ldr.w	pc, [sp], #8
  40a316:	bf00      	nop

0040a318 <__aeabi_dcmpun>:
  40a318:	ea4f 0c41 	mov.w	ip, r1, lsl #1
  40a31c:	ea7f 5c6c 	mvns.w	ip, ip, asr #21
  40a320:	d102      	bne.n	40a328 <__aeabi_dcmpun+0x10>
  40a322:	ea50 3c01 	orrs.w	ip, r0, r1, lsl #12
  40a326:	d10a      	bne.n	40a33e <__aeabi_dcmpun+0x26>
  40a328:	ea4f 0c43 	mov.w	ip, r3, lsl #1
  40a32c:	ea7f 5c6c 	mvns.w	ip, ip, asr #21
  40a330:	d102      	bne.n	40a338 <__aeabi_dcmpun+0x20>
  40a332:	ea52 3c03 	orrs.w	ip, r2, r3, lsl #12
  40a336:	d102      	bne.n	40a33e <__aeabi_dcmpun+0x26>
  40a338:	f04f 0000 	mov.w	r0, #0
  40a33c:	4770      	bx	lr
  40a33e:	f04f 0001 	mov.w	r0, #1
  40a342:	4770      	bx	lr

0040a344 <__aeabi_d2iz>:
  40a344:	ea4f 0241 	mov.w	r2, r1, lsl #1
  40a348:	f512 1200 	adds.w	r2, r2, #2097152	; 0x200000
  40a34c:	d215      	bcs.n	40a37a <__aeabi_d2iz+0x36>
  40a34e:	d511      	bpl.n	40a374 <__aeabi_d2iz+0x30>
  40a350:	f46f 7378 	mvn.w	r3, #992	; 0x3e0
  40a354:	ebb3 5262 	subs.w	r2, r3, r2, asr #21
  40a358:	d912      	bls.n	40a380 <__aeabi_d2iz+0x3c>
  40a35a:	ea4f 23c1 	mov.w	r3, r1, lsl #11
  40a35e:	f043 4300 	orr.w	r3, r3, #2147483648	; 0x80000000
  40a362:	ea43 5350 	orr.w	r3, r3, r0, lsr #21
  40a366:	f011 4f00 	tst.w	r1, #2147483648	; 0x80000000
  40a36a:	fa23 f002 	lsr.w	r0, r3, r2
  40a36e:	bf18      	it	ne
  40a370:	4240      	negne	r0, r0
  40a372:	4770      	bx	lr
  40a374:	f04f 0000 	mov.w	r0, #0
  40a378:	4770      	bx	lr
  40a37a:	ea50 3001 	orrs.w	r0, r0, r1, lsl #12
  40a37e:	d105      	bne.n	40a38c <__aeabi_d2iz+0x48>
  40a380:	f011 4000 	ands.w	r0, r1, #2147483648	; 0x80000000
  40a384:	bf08      	it	eq
  40a386:	f06f 4000 	mvneq.w	r0, #2147483648	; 0x80000000
  40a38a:	4770      	bx	lr
  40a38c:	f04f 0000 	mov.w	r0, #0
  40a390:	4770      	bx	lr
  40a392:	bf00      	nop

0040a394 <__aeabi_d2f>:
  40a394:	ea4f 0241 	mov.w	r2, r1, lsl #1
  40a398:	f1b2 43e0 	subs.w	r3, r2, #1879048192	; 0x70000000
  40a39c:	bf24      	itt	cs
  40a39e:	f5b3 1c00 	subscs.w	ip, r3, #2097152	; 0x200000
  40a3a2:	f1dc 5cfe 	rsbscs	ip, ip, #532676608	; 0x1fc00000
  40a3a6:	d90d      	bls.n	40a3c4 <__aeabi_d2f+0x30>
  40a3a8:	f001 4c00 	and.w	ip, r1, #2147483648	; 0x80000000
  40a3ac:	ea4f 02c0 	mov.w	r2, r0, lsl #3
  40a3b0:	ea4c 7050 	orr.w	r0, ip, r0, lsr #29
  40a3b4:	f1b2 4f00 	cmp.w	r2, #2147483648	; 0x80000000
  40a3b8:	eb40 0083 	adc.w	r0, r0, r3, lsl #2
  40a3bc:	bf08      	it	eq
  40a3be:	f020 0001 	biceq.w	r0, r0, #1
  40a3c2:	4770      	bx	lr
  40a3c4:	f011 4f80 	tst.w	r1, #1073741824	; 0x40000000
  40a3c8:	d121      	bne.n	40a40e <__aeabi_d2f+0x7a>
  40a3ca:	f113 7238 	adds.w	r2, r3, #48234496	; 0x2e00000
  40a3ce:	bfbc      	itt	lt
  40a3d0:	f001 4000 	andlt.w	r0, r1, #2147483648	; 0x80000000
  40a3d4:	4770      	bxlt	lr
  40a3d6:	f441 1180 	orr.w	r1, r1, #1048576	; 0x100000
  40a3da:	ea4f 5252 	mov.w	r2, r2, lsr #21
  40a3de:	f1c2 0218 	rsb	r2, r2, #24
  40a3e2:	f1c2 0c20 	rsb	ip, r2, #32
  40a3e6:	fa10 f30c 	lsls.w	r3, r0, ip
  40a3ea:	fa20 f002 	lsr.w	r0, r0, r2
  40a3ee:	bf18      	it	ne
  40a3f0:	f040 0001 	orrne.w	r0, r0, #1
  40a3f4:	ea4f 23c1 	mov.w	r3, r1, lsl #11
  40a3f8:	ea4f 23d3 	mov.w	r3, r3, lsr #11
  40a3fc:	fa03 fc0c 	lsl.w	ip, r3, ip
  40a400:	ea40 000c 	orr.w	r0, r0, ip
  40a404:	fa23 f302 	lsr.w	r3, r3, r2
  40a408:	ea4f 0343 	mov.w	r3, r3, lsl #1
  40a40c:	e7cc      	b.n	40a3a8 <__aeabi_d2f+0x14>
  40a40e:	ea7f 5362 	mvns.w	r3, r2, asr #21
  40a412:	d107      	bne.n	40a424 <__aeabi_d2f+0x90>
  40a414:	ea50 3301 	orrs.w	r3, r0, r1, lsl #12
  40a418:	bf1e      	ittt	ne
  40a41a:	f04f 40fe 	movne.w	r0, #2130706432	; 0x7f000000
  40a41e:	f440 0040 	orrne.w	r0, r0, #12582912	; 0xc00000
  40a422:	4770      	bxne	lr
  40a424:	f001 4000 	and.w	r0, r1, #2147483648	; 0x80000000
  40a428:	f040 40fe 	orr.w	r0, r0, #2130706432	; 0x7f000000
  40a42c:	f440 0000 	orr.w	r0, r0, #8388608	; 0x800000
  40a430:	4770      	bx	lr
  40a432:	bf00      	nop

0040a434 <__aeabi_frsub>:
  40a434:	f080 4000 	eor.w	r0, r0, #2147483648	; 0x80000000
  40a438:	e002      	b.n	40a440 <__addsf3>
  40a43a:	bf00      	nop

0040a43c <__aeabi_fsub>:
  40a43c:	f081 4100 	eor.w	r1, r1, #2147483648	; 0x80000000

0040a440 <__addsf3>:
  40a440:	0042      	lsls	r2, r0, #1
  40a442:	bf1f      	itttt	ne
  40a444:	ea5f 0341 	movsne.w	r3, r1, lsl #1
  40a448:	ea92 0f03 	teqne	r2, r3
  40a44c:	ea7f 6c22 	mvnsne.w	ip, r2, asr #24
  40a450:	ea7f 6c23 	mvnsne.w	ip, r3, asr #24
  40a454:	d06a      	beq.n	40a52c <__addsf3+0xec>
  40a456:	ea4f 6212 	mov.w	r2, r2, lsr #24
  40a45a:	ebd2 6313 	rsbs	r3, r2, r3, lsr #24
  40a45e:	bfc1      	itttt	gt
  40a460:	18d2      	addgt	r2, r2, r3
  40a462:	4041      	eorgt	r1, r0
  40a464:	4048      	eorgt	r0, r1
  40a466:	4041      	eorgt	r1, r0
  40a468:	bfb8      	it	lt
  40a46a:	425b      	neglt	r3, r3
  40a46c:	2b19      	cmp	r3, #25
  40a46e:	bf88      	it	hi
  40a470:	4770      	bxhi	lr
  40a472:	f010 4f00 	tst.w	r0, #2147483648	; 0x80000000
  40a476:	f440 0000 	orr.w	r0, r0, #8388608	; 0x800000
  40a47a:	f020 407f 	bic.w	r0, r0, #4278190080	; 0xff000000
  40a47e:	bf18      	it	ne
  40a480:	4240      	negne	r0, r0
  40a482:	f011 4f00 	tst.w	r1, #2147483648	; 0x80000000
  40a486:	f441 0100 	orr.w	r1, r1, #8388608	; 0x800000
  40a48a:	f021 417f 	bic.w	r1, r1, #4278190080	; 0xff000000
  40a48e:	bf18      	it	ne
  40a490:	4249      	negne	r1, r1
  40a492:	ea92 0f03 	teq	r2, r3
  40a496:	d03f      	beq.n	40a518 <__addsf3+0xd8>
  40a498:	f1a2 0201 	sub.w	r2, r2, #1
  40a49c:	fa41 fc03 	asr.w	ip, r1, r3
  40a4a0:	eb10 000c 	adds.w	r0, r0, ip
  40a4a4:	f1c3 0320 	rsb	r3, r3, #32
  40a4a8:	fa01 f103 	lsl.w	r1, r1, r3
  40a4ac:	f000 4300 	and.w	r3, r0, #2147483648	; 0x80000000
  40a4b0:	d502      	bpl.n	40a4b8 <__addsf3+0x78>
  40a4b2:	4249      	negs	r1, r1
  40a4b4:	eb60 0040 	sbc.w	r0, r0, r0, lsl #1
  40a4b8:	f5b0 0f00 	cmp.w	r0, #8388608	; 0x800000
  40a4bc:	d313      	bcc.n	40a4e6 <__addsf3+0xa6>
  40a4be:	f1b0 7f80 	cmp.w	r0, #16777216	; 0x1000000
  40a4c2:	d306      	bcc.n	40a4d2 <__addsf3+0x92>
  40a4c4:	0840      	lsrs	r0, r0, #1
  40a4c6:	ea4f 0131 	mov.w	r1, r1, rrx
  40a4ca:	f102 0201 	add.w	r2, r2, #1
  40a4ce:	2afe      	cmp	r2, #254	; 0xfe
  40a4d0:	d251      	bcs.n	40a576 <__addsf3+0x136>
  40a4d2:	f1b1 4f00 	cmp.w	r1, #2147483648	; 0x80000000
  40a4d6:	eb40 50c2 	adc.w	r0, r0, r2, lsl #23
  40a4da:	bf08      	it	eq
  40a4dc:	f020 0001 	biceq.w	r0, r0, #1
  40a4e0:	ea40 0003 	orr.w	r0, r0, r3
  40a4e4:	4770      	bx	lr
  40a4e6:	0049      	lsls	r1, r1, #1
  40a4e8:	eb40 0000 	adc.w	r0, r0, r0
  40a4ec:	f410 0f00 	tst.w	r0, #8388608	; 0x800000
  40a4f0:	f1a2 0201 	sub.w	r2, r2, #1
  40a4f4:	d1ed      	bne.n	40a4d2 <__addsf3+0x92>
  40a4f6:	fab0 fc80 	clz	ip, r0
  40a4fa:	f1ac 0c08 	sub.w	ip, ip, #8
  40a4fe:	ebb2 020c 	subs.w	r2, r2, ip
  40a502:	fa00 f00c 	lsl.w	r0, r0, ip
  40a506:	bfaa      	itet	ge
  40a508:	eb00 50c2 	addge.w	r0, r0, r2, lsl #23
  40a50c:	4252      	neglt	r2, r2
  40a50e:	4318      	orrge	r0, r3
  40a510:	bfbc      	itt	lt
  40a512:	40d0      	lsrlt	r0, r2
  40a514:	4318      	orrlt	r0, r3
  40a516:	4770      	bx	lr
  40a518:	f092 0f00 	teq	r2, #0
  40a51c:	f481 0100 	eor.w	r1, r1, #8388608	; 0x800000
  40a520:	bf06      	itte	eq
  40a522:	f480 0000 	eoreq.w	r0, r0, #8388608	; 0x800000
  40a526:	3201      	addeq	r2, #1
  40a528:	3b01      	subne	r3, #1
  40a52a:	e7b5      	b.n	40a498 <__addsf3+0x58>
  40a52c:	ea4f 0341 	mov.w	r3, r1, lsl #1
  40a530:	ea7f 6c22 	mvns.w	ip, r2, asr #24
  40a534:	bf18      	it	ne
  40a536:	ea7f 6c23 	mvnsne.w	ip, r3, asr #24
  40a53a:	d021      	beq.n	40a580 <__addsf3+0x140>
  40a53c:	ea92 0f03 	teq	r2, r3
  40a540:	d004      	beq.n	40a54c <__addsf3+0x10c>
  40a542:	f092 0f00 	teq	r2, #0
  40a546:	bf08      	it	eq
  40a548:	4608      	moveq	r0, r1
  40a54a:	4770      	bx	lr
  40a54c:	ea90 0f01 	teq	r0, r1
  40a550:	bf1c      	itt	ne
  40a552:	2000      	movne	r0, #0
  40a554:	4770      	bxne	lr
  40a556:	f012 4f7f 	tst.w	r2, #4278190080	; 0xff000000
  40a55a:	d104      	bne.n	40a566 <__addsf3+0x126>
  40a55c:	0040      	lsls	r0, r0, #1
  40a55e:	bf28      	it	cs
  40a560:	f040 4000 	orrcs.w	r0, r0, #2147483648	; 0x80000000
  40a564:	4770      	bx	lr
  40a566:	f112 7200 	adds.w	r2, r2, #33554432	; 0x2000000
  40a56a:	bf3c      	itt	cc
  40a56c:	f500 0000 	addcc.w	r0, r0, #8388608	; 0x800000
  40a570:	4770      	bxcc	lr
  40a572:	f000 4300 	and.w	r3, r0, #2147483648	; 0x80000000
  40a576:	f043 40fe 	orr.w	r0, r3, #2130706432	; 0x7f000000
  40a57a:	f440 0000 	orr.w	r0, r0, #8388608	; 0x800000
  40a57e:	4770      	bx	lr
  40a580:	ea7f 6222 	mvns.w	r2, r2, asr #24
  40a584:	bf16      	itet	ne
  40a586:	4608      	movne	r0, r1
  40a588:	ea7f 6323 	mvnseq.w	r3, r3, asr #24
  40a58c:	4601      	movne	r1, r0
  40a58e:	0242      	lsls	r2, r0, #9
  40a590:	bf06      	itte	eq
  40a592:	ea5f 2341 	movseq.w	r3, r1, lsl #9
  40a596:	ea90 0f01 	teqeq	r0, r1
  40a59a:	f440 0080 	orrne.w	r0, r0, #4194304	; 0x400000
  40a59e:	4770      	bx	lr

0040a5a0 <__aeabi_ui2f>:
  40a5a0:	f04f 0300 	mov.w	r3, #0
  40a5a4:	e004      	b.n	40a5b0 <__aeabi_i2f+0x8>
  40a5a6:	bf00      	nop

0040a5a8 <__aeabi_i2f>:
  40a5a8:	f010 4300 	ands.w	r3, r0, #2147483648	; 0x80000000
  40a5ac:	bf48      	it	mi
  40a5ae:	4240      	negmi	r0, r0
  40a5b0:	ea5f 0c00 	movs.w	ip, r0
  40a5b4:	bf08      	it	eq
  40a5b6:	4770      	bxeq	lr
  40a5b8:	f043 4396 	orr.w	r3, r3, #1258291200	; 0x4b000000
  40a5bc:	4601      	mov	r1, r0
  40a5be:	f04f 0000 	mov.w	r0, #0
  40a5c2:	e01c      	b.n	40a5fe <__aeabi_l2f+0x2a>

0040a5c4 <__aeabi_ul2f>:
  40a5c4:	ea50 0201 	orrs.w	r2, r0, r1
  40a5c8:	bf08      	it	eq
  40a5ca:	4770      	bxeq	lr
  40a5cc:	f04f 0300 	mov.w	r3, #0
  40a5d0:	e00a      	b.n	40a5e8 <__aeabi_l2f+0x14>
  40a5d2:	bf00      	nop

0040a5d4 <__aeabi_l2f>:
  40a5d4:	ea50 0201 	orrs.w	r2, r0, r1
  40a5d8:	bf08      	it	eq
  40a5da:	4770      	bxeq	lr
  40a5dc:	f011 4300 	ands.w	r3, r1, #2147483648	; 0x80000000
  40a5e0:	d502      	bpl.n	40a5e8 <__aeabi_l2f+0x14>
  40a5e2:	4240      	negs	r0, r0
  40a5e4:	eb61 0141 	sbc.w	r1, r1, r1, lsl #1
  40a5e8:	ea5f 0c01 	movs.w	ip, r1
  40a5ec:	bf02      	ittt	eq
  40a5ee:	4684      	moveq	ip, r0
  40a5f0:	4601      	moveq	r1, r0
  40a5f2:	2000      	moveq	r0, #0
  40a5f4:	f043 43b6 	orr.w	r3, r3, #1526726656	; 0x5b000000
  40a5f8:	bf08      	it	eq
  40a5fa:	f1a3 5380 	subeq.w	r3, r3, #268435456	; 0x10000000
  40a5fe:	f5a3 0300 	sub.w	r3, r3, #8388608	; 0x800000
  40a602:	fabc f28c 	clz	r2, ip
  40a606:	3a08      	subs	r2, #8
  40a608:	eba3 53c2 	sub.w	r3, r3, r2, lsl #23
  40a60c:	db10      	blt.n	40a630 <__aeabi_l2f+0x5c>
  40a60e:	fa01 fc02 	lsl.w	ip, r1, r2
  40a612:	4463      	add	r3, ip
  40a614:	fa00 fc02 	lsl.w	ip, r0, r2
  40a618:	f1c2 0220 	rsb	r2, r2, #32
  40a61c:	f1bc 4f00 	cmp.w	ip, #2147483648	; 0x80000000
  40a620:	fa20 f202 	lsr.w	r2, r0, r2
  40a624:	eb43 0002 	adc.w	r0, r3, r2
  40a628:	bf08      	it	eq
  40a62a:	f020 0001 	biceq.w	r0, r0, #1
  40a62e:	4770      	bx	lr
  40a630:	f102 0220 	add.w	r2, r2, #32
  40a634:	fa01 fc02 	lsl.w	ip, r1, r2
  40a638:	f1c2 0220 	rsb	r2, r2, #32
  40a63c:	ea50 004c 	orrs.w	r0, r0, ip, lsl #1
  40a640:	fa21 f202 	lsr.w	r2, r1, r2
  40a644:	eb43 0002 	adc.w	r0, r3, r2
  40a648:	bf08      	it	eq
  40a64a:	ea20 70dc 	biceq.w	r0, r0, ip, lsr #31
  40a64e:	4770      	bx	lr

0040a650 <__aeabi_fmul>:
  40a650:	f04f 0cff 	mov.w	ip, #255	; 0xff
  40a654:	ea1c 52d0 	ands.w	r2, ip, r0, lsr #23
  40a658:	bf1e      	ittt	ne
  40a65a:	ea1c 53d1 	andsne.w	r3, ip, r1, lsr #23
  40a65e:	ea92 0f0c 	teqne	r2, ip
  40a662:	ea93 0f0c 	teqne	r3, ip
  40a666:	d06f      	beq.n	40a748 <__aeabi_fmul+0xf8>
  40a668:	441a      	add	r2, r3
  40a66a:	ea80 0c01 	eor.w	ip, r0, r1
  40a66e:	0240      	lsls	r0, r0, #9
  40a670:	bf18      	it	ne
  40a672:	ea5f 2141 	movsne.w	r1, r1, lsl #9
  40a676:	d01e      	beq.n	40a6b6 <__aeabi_fmul+0x66>
  40a678:	f04f 6300 	mov.w	r3, #134217728	; 0x8000000
  40a67c:	ea43 1050 	orr.w	r0, r3, r0, lsr #5
  40a680:	ea43 1151 	orr.w	r1, r3, r1, lsr #5
  40a684:	fba0 3101 	umull	r3, r1, r0, r1
  40a688:	f00c 4000 	and.w	r0, ip, #2147483648	; 0x80000000
  40a68c:	f5b1 0f00 	cmp.w	r1, #8388608	; 0x800000
  40a690:	bf3e      	ittt	cc
  40a692:	0049      	lslcc	r1, r1, #1
  40a694:	ea41 71d3 	orrcc.w	r1, r1, r3, lsr #31
  40a698:	005b      	lslcc	r3, r3, #1
  40a69a:	ea40 0001 	orr.w	r0, r0, r1
  40a69e:	f162 027f 	sbc.w	r2, r2, #127	; 0x7f
  40a6a2:	2afd      	cmp	r2, #253	; 0xfd
  40a6a4:	d81d      	bhi.n	40a6e2 <__aeabi_fmul+0x92>
  40a6a6:	f1b3 4f00 	cmp.w	r3, #2147483648	; 0x80000000
  40a6aa:	eb40 50c2 	adc.w	r0, r0, r2, lsl #23
  40a6ae:	bf08      	it	eq
  40a6b0:	f020 0001 	biceq.w	r0, r0, #1
  40a6b4:	4770      	bx	lr
  40a6b6:	f090 0f00 	teq	r0, #0
  40a6ba:	f00c 4c00 	and.w	ip, ip, #2147483648	; 0x80000000
  40a6be:	bf08      	it	eq
  40a6c0:	0249      	lsleq	r1, r1, #9
  40a6c2:	ea4c 2050 	orr.w	r0, ip, r0, lsr #9
  40a6c6:	ea40 2051 	orr.w	r0, r0, r1, lsr #9
  40a6ca:	3a7f      	subs	r2, #127	; 0x7f
  40a6cc:	bfc2      	ittt	gt
  40a6ce:	f1d2 03ff 	rsbsgt	r3, r2, #255	; 0xff
  40a6d2:	ea40 50c2 	orrgt.w	r0, r0, r2, lsl #23
  40a6d6:	4770      	bxgt	lr
  40a6d8:	f440 0000 	orr.w	r0, r0, #8388608	; 0x800000
  40a6dc:	f04f 0300 	mov.w	r3, #0
  40a6e0:	3a01      	subs	r2, #1
  40a6e2:	dc5d      	bgt.n	40a7a0 <__aeabi_fmul+0x150>
  40a6e4:	f112 0f19 	cmn.w	r2, #25
  40a6e8:	bfdc      	itt	le
  40a6ea:	f000 4000 	andle.w	r0, r0, #2147483648	; 0x80000000
  40a6ee:	4770      	bxle	lr
  40a6f0:	f1c2 0200 	rsb	r2, r2, #0
  40a6f4:	0041      	lsls	r1, r0, #1
  40a6f6:	fa21 f102 	lsr.w	r1, r1, r2
  40a6fa:	f1c2 0220 	rsb	r2, r2, #32
  40a6fe:	fa00 fc02 	lsl.w	ip, r0, r2
  40a702:	ea5f 0031 	movs.w	r0, r1, rrx
  40a706:	f140 0000 	adc.w	r0, r0, #0
  40a70a:	ea53 034c 	orrs.w	r3, r3, ip, lsl #1
  40a70e:	bf08      	it	eq
  40a710:	ea20 70dc 	biceq.w	r0, r0, ip, lsr #31
  40a714:	4770      	bx	lr
  40a716:	f092 0f00 	teq	r2, #0
  40a71a:	f000 4c00 	and.w	ip, r0, #2147483648	; 0x80000000
  40a71e:	bf02      	ittt	eq
  40a720:	0040      	lsleq	r0, r0, #1
  40a722:	f410 0f00 	tsteq.w	r0, #8388608	; 0x800000
  40a726:	3a01      	subeq	r2, #1
  40a728:	d0f9      	beq.n	40a71e <__aeabi_fmul+0xce>
  40a72a:	ea40 000c 	orr.w	r0, r0, ip
  40a72e:	f093 0f00 	teq	r3, #0
  40a732:	f001 4c00 	and.w	ip, r1, #2147483648	; 0x80000000
  40a736:	bf02      	ittt	eq
  40a738:	0049      	lsleq	r1, r1, #1
  40a73a:	f411 0f00 	tsteq.w	r1, #8388608	; 0x800000
  40a73e:	3b01      	subeq	r3, #1
  40a740:	d0f9      	beq.n	40a736 <__aeabi_fmul+0xe6>
  40a742:	ea41 010c 	orr.w	r1, r1, ip
  40a746:	e78f      	b.n	40a668 <__aeabi_fmul+0x18>
  40a748:	ea0c 53d1 	and.w	r3, ip, r1, lsr #23
  40a74c:	ea92 0f0c 	teq	r2, ip
  40a750:	bf18      	it	ne
  40a752:	ea93 0f0c 	teqne	r3, ip
  40a756:	d00a      	beq.n	40a76e <__aeabi_fmul+0x11e>
  40a758:	f030 4c00 	bics.w	ip, r0, #2147483648	; 0x80000000
  40a75c:	bf18      	it	ne
  40a75e:	f031 4c00 	bicsne.w	ip, r1, #2147483648	; 0x80000000
  40a762:	d1d8      	bne.n	40a716 <__aeabi_fmul+0xc6>
  40a764:	ea80 0001 	eor.w	r0, r0, r1
  40a768:	f000 4000 	and.w	r0, r0, #2147483648	; 0x80000000
  40a76c:	4770      	bx	lr
  40a76e:	f090 0f00 	teq	r0, #0
  40a772:	bf17      	itett	ne
  40a774:	f090 4f00 	teqne	r0, #2147483648	; 0x80000000
  40a778:	4608      	moveq	r0, r1
  40a77a:	f091 0f00 	teqne	r1, #0
  40a77e:	f091 4f00 	teqne	r1, #2147483648	; 0x80000000
  40a782:	d014      	beq.n	40a7ae <__aeabi_fmul+0x15e>
  40a784:	ea92 0f0c 	teq	r2, ip
  40a788:	d101      	bne.n	40a78e <__aeabi_fmul+0x13e>
  40a78a:	0242      	lsls	r2, r0, #9
  40a78c:	d10f      	bne.n	40a7ae <__aeabi_fmul+0x15e>
  40a78e:	ea93 0f0c 	teq	r3, ip
  40a792:	d103      	bne.n	40a79c <__aeabi_fmul+0x14c>
  40a794:	024b      	lsls	r3, r1, #9
  40a796:	bf18      	it	ne
  40a798:	4608      	movne	r0, r1
  40a79a:	d108      	bne.n	40a7ae <__aeabi_fmul+0x15e>
  40a79c:	ea80 0001 	eor.w	r0, r0, r1
  40a7a0:	f000 4000 	and.w	r0, r0, #2147483648	; 0x80000000
  40a7a4:	f040 40fe 	orr.w	r0, r0, #2130706432	; 0x7f000000
  40a7a8:	f440 0000 	orr.w	r0, r0, #8388608	; 0x800000
  40a7ac:	4770      	bx	lr
  40a7ae:	f040 40fe 	orr.w	r0, r0, #2130706432	; 0x7f000000
  40a7b2:	f440 0040 	orr.w	r0, r0, #12582912	; 0xc00000
  40a7b6:	4770      	bx	lr

0040a7b8 <__aeabi_fdiv>:
  40a7b8:	f04f 0cff 	mov.w	ip, #255	; 0xff
  40a7bc:	ea1c 52d0 	ands.w	r2, ip, r0, lsr #23
  40a7c0:	bf1e      	ittt	ne
  40a7c2:	ea1c 53d1 	andsne.w	r3, ip, r1, lsr #23
  40a7c6:	ea92 0f0c 	teqne	r2, ip
  40a7ca:	ea93 0f0c 	teqne	r3, ip
  40a7ce:	d069      	beq.n	40a8a4 <__aeabi_fdiv+0xec>
  40a7d0:	eba2 0203 	sub.w	r2, r2, r3
  40a7d4:	ea80 0c01 	eor.w	ip, r0, r1
  40a7d8:	0249      	lsls	r1, r1, #9
  40a7da:	ea4f 2040 	mov.w	r0, r0, lsl #9
  40a7de:	d037      	beq.n	40a850 <__aeabi_fdiv+0x98>
  40a7e0:	f04f 5380 	mov.w	r3, #268435456	; 0x10000000
  40a7e4:	ea43 1111 	orr.w	r1, r3, r1, lsr #4
  40a7e8:	ea43 1310 	orr.w	r3, r3, r0, lsr #4
  40a7ec:	f00c 4000 	and.w	r0, ip, #2147483648	; 0x80000000
  40a7f0:	428b      	cmp	r3, r1
  40a7f2:	bf38      	it	cc
  40a7f4:	005b      	lslcc	r3, r3, #1
  40a7f6:	f142 027d 	adc.w	r2, r2, #125	; 0x7d
  40a7fa:	f44f 0c00 	mov.w	ip, #8388608	; 0x800000
  40a7fe:	428b      	cmp	r3, r1
  40a800:	bf24      	itt	cs
  40a802:	1a5b      	subcs	r3, r3, r1
  40a804:	ea40 000c 	orrcs.w	r0, r0, ip
  40a808:	ebb3 0f51 	cmp.w	r3, r1, lsr #1
  40a80c:	bf24      	itt	cs
  40a80e:	eba3 0351 	subcs.w	r3, r3, r1, lsr #1
  40a812:	ea40 005c 	orrcs.w	r0, r0, ip, lsr #1
  40a816:	ebb3 0f91 	cmp.w	r3, r1, lsr #2
  40a81a:	bf24      	itt	cs
  40a81c:	eba3 0391 	subcs.w	r3, r3, r1, lsr #2
  40a820:	ea40 009c 	orrcs.w	r0, r0, ip, lsr #2
  40a824:	ebb3 0fd1 	cmp.w	r3, r1, lsr #3
  40a828:	bf24      	itt	cs
  40a82a:	eba3 03d1 	subcs.w	r3, r3, r1, lsr #3
  40a82e:	ea40 00dc 	orrcs.w	r0, r0, ip, lsr #3
  40a832:	011b      	lsls	r3, r3, #4
  40a834:	bf18      	it	ne
  40a836:	ea5f 1c1c 	movsne.w	ip, ip, lsr #4
  40a83a:	d1e0      	bne.n	40a7fe <__aeabi_fdiv+0x46>
  40a83c:	2afd      	cmp	r2, #253	; 0xfd
  40a83e:	f63f af50 	bhi.w	40a6e2 <__aeabi_fmul+0x92>
  40a842:	428b      	cmp	r3, r1
  40a844:	eb40 50c2 	adc.w	r0, r0, r2, lsl #23
  40a848:	bf08      	it	eq
  40a84a:	f020 0001 	biceq.w	r0, r0, #1
  40a84e:	4770      	bx	lr
  40a850:	f00c 4c00 	and.w	ip, ip, #2147483648	; 0x80000000
  40a854:	ea4c 2050 	orr.w	r0, ip, r0, lsr #9
  40a858:	327f      	adds	r2, #127	; 0x7f
  40a85a:	bfc2      	ittt	gt
  40a85c:	f1d2 03ff 	rsbsgt	r3, r2, #255	; 0xff
  40a860:	ea40 50c2 	orrgt.w	r0, r0, r2, lsl #23
  40a864:	4770      	bxgt	lr
  40a866:	f440 0000 	orr.w	r0, r0, #8388608	; 0x800000
  40a86a:	f04f 0300 	mov.w	r3, #0
  40a86e:	3a01      	subs	r2, #1
  40a870:	e737      	b.n	40a6e2 <__aeabi_fmul+0x92>
  40a872:	f092 0f00 	teq	r2, #0
  40a876:	f000 4c00 	and.w	ip, r0, #2147483648	; 0x80000000
  40a87a:	bf02      	ittt	eq
  40a87c:	0040      	lsleq	r0, r0, #1
  40a87e:	f410 0f00 	tsteq.w	r0, #8388608	; 0x800000
  40a882:	3a01      	subeq	r2, #1
  40a884:	d0f9      	beq.n	40a87a <__aeabi_fdiv+0xc2>
  40a886:	ea40 000c 	orr.w	r0, r0, ip
  40a88a:	f093 0f00 	teq	r3, #0
  40a88e:	f001 4c00 	and.w	ip, r1, #2147483648	; 0x80000000
  40a892:	bf02      	ittt	eq
  40a894:	0049      	lsleq	r1, r1, #1
  40a896:	f411 0f00 	tsteq.w	r1, #8388608	; 0x800000
  40a89a:	3b01      	subeq	r3, #1
  40a89c:	d0f9      	beq.n	40a892 <__aeabi_fdiv+0xda>
  40a89e:	ea41 010c 	orr.w	r1, r1, ip
  40a8a2:	e795      	b.n	40a7d0 <__aeabi_fdiv+0x18>
  40a8a4:	ea0c 53d1 	and.w	r3, ip, r1, lsr #23
  40a8a8:	ea92 0f0c 	teq	r2, ip
  40a8ac:	d108      	bne.n	40a8c0 <__aeabi_fdiv+0x108>
  40a8ae:	0242      	lsls	r2, r0, #9
  40a8b0:	f47f af7d 	bne.w	40a7ae <__aeabi_fmul+0x15e>
  40a8b4:	ea93 0f0c 	teq	r3, ip
  40a8b8:	f47f af70 	bne.w	40a79c <__aeabi_fmul+0x14c>
  40a8bc:	4608      	mov	r0, r1
  40a8be:	e776      	b.n	40a7ae <__aeabi_fmul+0x15e>
  40a8c0:	ea93 0f0c 	teq	r3, ip
  40a8c4:	d104      	bne.n	40a8d0 <__aeabi_fdiv+0x118>
  40a8c6:	024b      	lsls	r3, r1, #9
  40a8c8:	f43f af4c 	beq.w	40a764 <__aeabi_fmul+0x114>
  40a8cc:	4608      	mov	r0, r1
  40a8ce:	e76e      	b.n	40a7ae <__aeabi_fmul+0x15e>
  40a8d0:	f030 4c00 	bics.w	ip, r0, #2147483648	; 0x80000000
  40a8d4:	bf18      	it	ne
  40a8d6:	f031 4c00 	bicsne.w	ip, r1, #2147483648	; 0x80000000
  40a8da:	d1ca      	bne.n	40a872 <__aeabi_fdiv+0xba>
  40a8dc:	f030 4200 	bics.w	r2, r0, #2147483648	; 0x80000000
  40a8e0:	f47f af5c 	bne.w	40a79c <__aeabi_fmul+0x14c>
  40a8e4:	f031 4300 	bics.w	r3, r1, #2147483648	; 0x80000000
  40a8e8:	f47f af3c 	bne.w	40a764 <__aeabi_fmul+0x114>
  40a8ec:	e75f      	b.n	40a7ae <__aeabi_fmul+0x15e>
  40a8ee:	bf00      	nop

0040a8f0 <__gesf2>:
  40a8f0:	f04f 3cff 	mov.w	ip, #4294967295
  40a8f4:	e006      	b.n	40a904 <__cmpsf2+0x4>
  40a8f6:	bf00      	nop

0040a8f8 <__lesf2>:
  40a8f8:	f04f 0c01 	mov.w	ip, #1
  40a8fc:	e002      	b.n	40a904 <__cmpsf2+0x4>
  40a8fe:	bf00      	nop

0040a900 <__cmpsf2>:
  40a900:	f04f 0c01 	mov.w	ip, #1
  40a904:	f84d cd04 	str.w	ip, [sp, #-4]!
  40a908:	ea4f 0240 	mov.w	r2, r0, lsl #1
  40a90c:	ea4f 0341 	mov.w	r3, r1, lsl #1
  40a910:	ea7f 6c22 	mvns.w	ip, r2, asr #24
  40a914:	bf18      	it	ne
  40a916:	ea7f 6c23 	mvnsne.w	ip, r3, asr #24
  40a91a:	d011      	beq.n	40a940 <__cmpsf2+0x40>
  40a91c:	b001      	add	sp, #4
  40a91e:	ea52 0c53 	orrs.w	ip, r2, r3, lsr #1
  40a922:	bf18      	it	ne
  40a924:	ea90 0f01 	teqne	r0, r1
  40a928:	bf58      	it	pl
  40a92a:	ebb2 0003 	subspl.w	r0, r2, r3
  40a92e:	bf88      	it	hi
  40a930:	17c8      	asrhi	r0, r1, #31
  40a932:	bf38      	it	cc
  40a934:	ea6f 70e1 	mvncc.w	r0, r1, asr #31
  40a938:	bf18      	it	ne
  40a93a:	f040 0001 	orrne.w	r0, r0, #1
  40a93e:	4770      	bx	lr
  40a940:	ea7f 6c22 	mvns.w	ip, r2, asr #24
  40a944:	d102      	bne.n	40a94c <__cmpsf2+0x4c>
  40a946:	ea5f 2c40 	movs.w	ip, r0, lsl #9
  40a94a:	d105      	bne.n	40a958 <__cmpsf2+0x58>
  40a94c:	ea7f 6c23 	mvns.w	ip, r3, asr #24
  40a950:	d1e4      	bne.n	40a91c <__cmpsf2+0x1c>
  40a952:	ea5f 2c41 	movs.w	ip, r1, lsl #9
  40a956:	d0e1      	beq.n	40a91c <__cmpsf2+0x1c>
  40a958:	f85d 0b04 	ldr.w	r0, [sp], #4
  40a95c:	4770      	bx	lr
  40a95e:	bf00      	nop

0040a960 <__aeabi_cfrcmple>:
  40a960:	4684      	mov	ip, r0
  40a962:	4608      	mov	r0, r1
  40a964:	4661      	mov	r1, ip
  40a966:	e7ff      	b.n	40a968 <__aeabi_cfcmpeq>

0040a968 <__aeabi_cfcmpeq>:
  40a968:	b50f      	push	{r0, r1, r2, r3, lr}
  40a96a:	f7ff ffc9 	bl	40a900 <__cmpsf2>
  40a96e:	2800      	cmp	r0, #0
  40a970:	bf48      	it	mi
  40a972:	f110 0f00 	cmnmi.w	r0, #0
  40a976:	bd0f      	pop	{r0, r1, r2, r3, pc}

0040a978 <__aeabi_fcmpeq>:
  40a978:	f84d ed08 	str.w	lr, [sp, #-8]!
  40a97c:	f7ff fff4 	bl	40a968 <__aeabi_cfcmpeq>
  40a980:	bf0c      	ite	eq
  40a982:	2001      	moveq	r0, #1
  40a984:	2000      	movne	r0, #0
  40a986:	f85d fb08 	ldr.w	pc, [sp], #8
  40a98a:	bf00      	nop

0040a98c <__aeabi_fcmplt>:
  40a98c:	f84d ed08 	str.w	lr, [sp, #-8]!
  40a990:	f7ff ffea 	bl	40a968 <__aeabi_cfcmpeq>
  40a994:	bf34      	ite	cc
  40a996:	2001      	movcc	r0, #1
  40a998:	2000      	movcs	r0, #0
  40a99a:	f85d fb08 	ldr.w	pc, [sp], #8
  40a99e:	bf00      	nop

0040a9a0 <__aeabi_fcmple>:
  40a9a0:	f84d ed08 	str.w	lr, [sp, #-8]!
  40a9a4:	f7ff ffe0 	bl	40a968 <__aeabi_cfcmpeq>
  40a9a8:	bf94      	ite	ls
  40a9aa:	2001      	movls	r0, #1
  40a9ac:	2000      	movhi	r0, #0
  40a9ae:	f85d fb08 	ldr.w	pc, [sp], #8
  40a9b2:	bf00      	nop

0040a9b4 <__aeabi_fcmpge>:
  40a9b4:	f84d ed08 	str.w	lr, [sp, #-8]!
  40a9b8:	f7ff ffd2 	bl	40a960 <__aeabi_cfrcmple>
  40a9bc:	bf94      	ite	ls
  40a9be:	2001      	movls	r0, #1
  40a9c0:	2000      	movhi	r0, #0
  40a9c2:	f85d fb08 	ldr.w	pc, [sp], #8
  40a9c6:	bf00      	nop

0040a9c8 <__aeabi_fcmpgt>:
  40a9c8:	f84d ed08 	str.w	lr, [sp, #-8]!
  40a9cc:	f7ff ffc8 	bl	40a960 <__aeabi_cfrcmple>
  40a9d0:	bf34      	ite	cc
  40a9d2:	2001      	movcc	r0, #1
  40a9d4:	2000      	movcs	r0, #0
  40a9d6:	f85d fb08 	ldr.w	pc, [sp], #8
  40a9da:	bf00      	nop

0040a9dc <__aeabi_f2iz>:
  40a9dc:	ea4f 0240 	mov.w	r2, r0, lsl #1
  40a9e0:	f1b2 4ffe 	cmp.w	r2, #2130706432	; 0x7f000000
  40a9e4:	d30f      	bcc.n	40aa06 <__aeabi_f2iz+0x2a>
  40a9e6:	f04f 039e 	mov.w	r3, #158	; 0x9e
  40a9ea:	ebb3 6212 	subs.w	r2, r3, r2, lsr #24
  40a9ee:	d90d      	bls.n	40aa0c <__aeabi_f2iz+0x30>
  40a9f0:	ea4f 2300 	mov.w	r3, r0, lsl #8
  40a9f4:	f043 4300 	orr.w	r3, r3, #2147483648	; 0x80000000
  40a9f8:	f010 4f00 	tst.w	r0, #2147483648	; 0x80000000
  40a9fc:	fa23 f002 	lsr.w	r0, r3, r2
  40aa00:	bf18      	it	ne
  40aa02:	4240      	negne	r0, r0
  40aa04:	4770      	bx	lr
  40aa06:	f04f 0000 	mov.w	r0, #0
  40aa0a:	4770      	bx	lr
  40aa0c:	f112 0f61 	cmn.w	r2, #97	; 0x61
  40aa10:	d101      	bne.n	40aa16 <__aeabi_f2iz+0x3a>
  40aa12:	0242      	lsls	r2, r0, #9
  40aa14:	d105      	bne.n	40aa22 <__aeabi_f2iz+0x46>
  40aa16:	f010 4000 	ands.w	r0, r0, #2147483648	; 0x80000000
  40aa1a:	bf08      	it	eq
  40aa1c:	f06f 4000 	mvneq.w	r0, #2147483648	; 0x80000000
  40aa20:	4770      	bx	lr
  40aa22:	f04f 0000 	mov.w	r0, #0
  40aa26:	4770      	bx	lr

0040aa28 <__aeabi_uldivmod>:
  40aa28:	b953      	cbnz	r3, 40aa40 <__aeabi_uldivmod+0x18>
  40aa2a:	b94a      	cbnz	r2, 40aa40 <__aeabi_uldivmod+0x18>
  40aa2c:	2900      	cmp	r1, #0
  40aa2e:	bf08      	it	eq
  40aa30:	2800      	cmpeq	r0, #0
  40aa32:	bf1c      	itt	ne
  40aa34:	f04f 31ff 	movne.w	r1, #4294967295
  40aa38:	f04f 30ff 	movne.w	r0, #4294967295
  40aa3c:	f000 b97e 	b.w	40ad3c <__aeabi_idiv0>
  40aa40:	f1ad 0c08 	sub.w	ip, sp, #8
  40aa44:	e96d ce04 	strd	ip, lr, [sp, #-16]!
  40aa48:	f000 f806 	bl	40aa58 <__udivmoddi4>
  40aa4c:	f8dd e004 	ldr.w	lr, [sp, #4]
  40aa50:	e9dd 2302 	ldrd	r2, r3, [sp, #8]
  40aa54:	b004      	add	sp, #16
  40aa56:	4770      	bx	lr

0040aa58 <__udivmoddi4>:
  40aa58:	e92d 47f0 	stmdb	sp!, {r4, r5, r6, r7, r8, r9, sl, lr}
  40aa5c:	468c      	mov	ip, r1
  40aa5e:	460e      	mov	r6, r1
  40aa60:	4604      	mov	r4, r0
  40aa62:	9d08      	ldr	r5, [sp, #32]
  40aa64:	2b00      	cmp	r3, #0
  40aa66:	d150      	bne.n	40ab0a <__udivmoddi4+0xb2>
  40aa68:	428a      	cmp	r2, r1
  40aa6a:	4617      	mov	r7, r2
  40aa6c:	d96c      	bls.n	40ab48 <__udivmoddi4+0xf0>
  40aa6e:	fab2 fe82 	clz	lr, r2
  40aa72:	f1be 0f00 	cmp.w	lr, #0
  40aa76:	d00b      	beq.n	40aa90 <__udivmoddi4+0x38>
  40aa78:	f1ce 0420 	rsb	r4, lr, #32
  40aa7c:	fa20 f404 	lsr.w	r4, r0, r4
  40aa80:	fa01 f60e 	lsl.w	r6, r1, lr
  40aa84:	ea44 0c06 	orr.w	ip, r4, r6
  40aa88:	fa02 f70e 	lsl.w	r7, r2, lr
  40aa8c:	fa00 f40e 	lsl.w	r4, r0, lr
  40aa90:	ea4f 4917 	mov.w	r9, r7, lsr #16
  40aa94:	0c22      	lsrs	r2, r4, #16
  40aa96:	fbbc f0f9 	udiv	r0, ip, r9
  40aa9a:	fa1f f887 	uxth.w	r8, r7
  40aa9e:	fb09 c610 	mls	r6, r9, r0, ip
  40aaa2:	ea42 4606 	orr.w	r6, r2, r6, lsl #16
  40aaa6:	fb00 f308 	mul.w	r3, r0, r8
  40aaaa:	42b3      	cmp	r3, r6
  40aaac:	d909      	bls.n	40aac2 <__udivmoddi4+0x6a>
  40aaae:	19f6      	adds	r6, r6, r7
  40aab0:	f100 32ff 	add.w	r2, r0, #4294967295
  40aab4:	f080 8122 	bcs.w	40acfc <__udivmoddi4+0x2a4>
  40aab8:	42b3      	cmp	r3, r6
  40aaba:	f240 811f 	bls.w	40acfc <__udivmoddi4+0x2a4>
  40aabe:	3802      	subs	r0, #2
  40aac0:	443e      	add	r6, r7
  40aac2:	1af6      	subs	r6, r6, r3
  40aac4:	b2a2      	uxth	r2, r4
  40aac6:	fbb6 f3f9 	udiv	r3, r6, r9
  40aaca:	fb09 6613 	mls	r6, r9, r3, r6
  40aace:	ea42 4406 	orr.w	r4, r2, r6, lsl #16
  40aad2:	fb03 f808 	mul.w	r8, r3, r8
  40aad6:	45a0      	cmp	r8, r4
  40aad8:	d909      	bls.n	40aaee <__udivmoddi4+0x96>
  40aada:	19e4      	adds	r4, r4, r7
  40aadc:	f103 32ff 	add.w	r2, r3, #4294967295
  40aae0:	f080 810a 	bcs.w	40acf8 <__udivmoddi4+0x2a0>
  40aae4:	45a0      	cmp	r8, r4
  40aae6:	f240 8107 	bls.w	40acf8 <__udivmoddi4+0x2a0>
  40aaea:	3b02      	subs	r3, #2
  40aaec:	443c      	add	r4, r7
  40aaee:	ebc8 0404 	rsb	r4, r8, r4
  40aaf2:	ea43 4000 	orr.w	r0, r3, r0, lsl #16
  40aaf6:	2100      	movs	r1, #0
  40aaf8:	2d00      	cmp	r5, #0
  40aafa:	d062      	beq.n	40abc2 <__udivmoddi4+0x16a>
  40aafc:	fa24 f40e 	lsr.w	r4, r4, lr
  40ab00:	2300      	movs	r3, #0
  40ab02:	602c      	str	r4, [r5, #0]
  40ab04:	606b      	str	r3, [r5, #4]
  40ab06:	e8bd 87f0 	ldmia.w	sp!, {r4, r5, r6, r7, r8, r9, sl, pc}
  40ab0a:	428b      	cmp	r3, r1
  40ab0c:	d907      	bls.n	40ab1e <__udivmoddi4+0xc6>
  40ab0e:	2d00      	cmp	r5, #0
  40ab10:	d055      	beq.n	40abbe <__udivmoddi4+0x166>
  40ab12:	2100      	movs	r1, #0
  40ab14:	e885 0041 	stmia.w	r5, {r0, r6}
  40ab18:	4608      	mov	r0, r1
  40ab1a:	e8bd 87f0 	ldmia.w	sp!, {r4, r5, r6, r7, r8, r9, sl, pc}
  40ab1e:	fab3 f183 	clz	r1, r3
  40ab22:	2900      	cmp	r1, #0
  40ab24:	f040 8090 	bne.w	40ac48 <__udivmoddi4+0x1f0>
  40ab28:	42b3      	cmp	r3, r6
  40ab2a:	d302      	bcc.n	40ab32 <__udivmoddi4+0xda>
  40ab2c:	4282      	cmp	r2, r0
  40ab2e:	f200 80f8 	bhi.w	40ad22 <__udivmoddi4+0x2ca>
  40ab32:	1a84      	subs	r4, r0, r2
  40ab34:	eb66 0603 	sbc.w	r6, r6, r3
  40ab38:	2001      	movs	r0, #1
  40ab3a:	46b4      	mov	ip, r6
  40ab3c:	2d00      	cmp	r5, #0
  40ab3e:	d040      	beq.n	40abc2 <__udivmoddi4+0x16a>
  40ab40:	e885 1010 	stmia.w	r5, {r4, ip}
  40ab44:	e8bd 87f0 	ldmia.w	sp!, {r4, r5, r6, r7, r8, r9, sl, pc}
  40ab48:	b912      	cbnz	r2, 40ab50 <__udivmoddi4+0xf8>
  40ab4a:	2701      	movs	r7, #1
  40ab4c:	fbb7 f7f2 	udiv	r7, r7, r2
  40ab50:	fab7 fe87 	clz	lr, r7
  40ab54:	f1be 0f00 	cmp.w	lr, #0
  40ab58:	d135      	bne.n	40abc6 <__udivmoddi4+0x16e>
  40ab5a:	1bf3      	subs	r3, r6, r7
  40ab5c:	ea4f 4817 	mov.w	r8, r7, lsr #16
  40ab60:	fa1f fc87 	uxth.w	ip, r7
  40ab64:	2101      	movs	r1, #1
  40ab66:	fbb3 f0f8 	udiv	r0, r3, r8
  40ab6a:	0c22      	lsrs	r2, r4, #16
  40ab6c:	fb08 3610 	mls	r6, r8, r0, r3
  40ab70:	ea42 4606 	orr.w	r6, r2, r6, lsl #16
  40ab74:	fb0c f300 	mul.w	r3, ip, r0
  40ab78:	42b3      	cmp	r3, r6
  40ab7a:	d907      	bls.n	40ab8c <__udivmoddi4+0x134>
  40ab7c:	19f6      	adds	r6, r6, r7
  40ab7e:	f100 32ff 	add.w	r2, r0, #4294967295
  40ab82:	d202      	bcs.n	40ab8a <__udivmoddi4+0x132>
  40ab84:	42b3      	cmp	r3, r6
  40ab86:	f200 80ce 	bhi.w	40ad26 <__udivmoddi4+0x2ce>
  40ab8a:	4610      	mov	r0, r2
  40ab8c:	1af6      	subs	r6, r6, r3
  40ab8e:	b2a2      	uxth	r2, r4
  40ab90:	fbb6 f3f8 	udiv	r3, r6, r8
  40ab94:	fb08 6613 	mls	r6, r8, r3, r6
  40ab98:	ea42 4406 	orr.w	r4, r2, r6, lsl #16
  40ab9c:	fb0c fc03 	mul.w	ip, ip, r3
  40aba0:	45a4      	cmp	ip, r4
  40aba2:	d907      	bls.n	40abb4 <__udivmoddi4+0x15c>
  40aba4:	19e4      	adds	r4, r4, r7
  40aba6:	f103 32ff 	add.w	r2, r3, #4294967295
  40abaa:	d202      	bcs.n	40abb2 <__udivmoddi4+0x15a>
  40abac:	45a4      	cmp	ip, r4
  40abae:	f200 80b5 	bhi.w	40ad1c <__udivmoddi4+0x2c4>
  40abb2:	4613      	mov	r3, r2
  40abb4:	ebcc 0404 	rsb	r4, ip, r4
  40abb8:	ea43 4000 	orr.w	r0, r3, r0, lsl #16
  40abbc:	e79c      	b.n	40aaf8 <__udivmoddi4+0xa0>
  40abbe:	4629      	mov	r1, r5
  40abc0:	4628      	mov	r0, r5
  40abc2:	e8bd 87f0 	ldmia.w	sp!, {r4, r5, r6, r7, r8, r9, sl, pc}
  40abc6:	f1ce 0120 	rsb	r1, lr, #32
  40abca:	fa06 f30e 	lsl.w	r3, r6, lr
  40abce:	fa07 f70e 	lsl.w	r7, r7, lr
  40abd2:	fa20 f901 	lsr.w	r9, r0, r1
  40abd6:	ea4f 4817 	mov.w	r8, r7, lsr #16
  40abda:	40ce      	lsrs	r6, r1
  40abdc:	ea49 0903 	orr.w	r9, r9, r3
  40abe0:	fbb6 faf8 	udiv	sl, r6, r8
  40abe4:	ea4f 4419 	mov.w	r4, r9, lsr #16
  40abe8:	fb08 661a 	mls	r6, r8, sl, r6
  40abec:	fa1f fc87 	uxth.w	ip, r7
  40abf0:	ea44 4306 	orr.w	r3, r4, r6, lsl #16
  40abf4:	fb0a f20c 	mul.w	r2, sl, ip
  40abf8:	429a      	cmp	r2, r3
  40abfa:	fa00 f40e 	lsl.w	r4, r0, lr
  40abfe:	d90a      	bls.n	40ac16 <__udivmoddi4+0x1be>
  40ac00:	19db      	adds	r3, r3, r7
  40ac02:	f10a 31ff 	add.w	r1, sl, #4294967295
  40ac06:	f080 8087 	bcs.w	40ad18 <__udivmoddi4+0x2c0>
  40ac0a:	429a      	cmp	r2, r3
  40ac0c:	f240 8084 	bls.w	40ad18 <__udivmoddi4+0x2c0>
  40ac10:	f1aa 0a02 	sub.w	sl, sl, #2
  40ac14:	443b      	add	r3, r7
  40ac16:	1a9b      	subs	r3, r3, r2
  40ac18:	fa1f f989 	uxth.w	r9, r9
  40ac1c:	fbb3 f1f8 	udiv	r1, r3, r8
  40ac20:	fb08 3311 	mls	r3, r8, r1, r3
  40ac24:	ea49 4303 	orr.w	r3, r9, r3, lsl #16
  40ac28:	fb01 f60c 	mul.w	r6, r1, ip
  40ac2c:	429e      	cmp	r6, r3
  40ac2e:	d907      	bls.n	40ac40 <__udivmoddi4+0x1e8>
  40ac30:	19db      	adds	r3, r3, r7
  40ac32:	f101 32ff 	add.w	r2, r1, #4294967295
  40ac36:	d26b      	bcs.n	40ad10 <__udivmoddi4+0x2b8>
  40ac38:	429e      	cmp	r6, r3
  40ac3a:	d969      	bls.n	40ad10 <__udivmoddi4+0x2b8>
  40ac3c:	3902      	subs	r1, #2
  40ac3e:	443b      	add	r3, r7
  40ac40:	1b9b      	subs	r3, r3, r6
  40ac42:	ea41 410a 	orr.w	r1, r1, sl, lsl #16
  40ac46:	e78e      	b.n	40ab66 <__udivmoddi4+0x10e>
  40ac48:	f1c1 0e20 	rsb	lr, r1, #32
  40ac4c:	fa22 f40e 	lsr.w	r4, r2, lr
  40ac50:	408b      	lsls	r3, r1
  40ac52:	4323      	orrs	r3, r4
  40ac54:	fa20 f70e 	lsr.w	r7, r0, lr
  40ac58:	fa06 f401 	lsl.w	r4, r6, r1
  40ac5c:	ea4f 4c13 	mov.w	ip, r3, lsr #16
  40ac60:	fa26 f60e 	lsr.w	r6, r6, lr
  40ac64:	433c      	orrs	r4, r7
  40ac66:	fbb6 f9fc 	udiv	r9, r6, ip
  40ac6a:	0c27      	lsrs	r7, r4, #16
  40ac6c:	fb0c 6619 	mls	r6, ip, r9, r6
  40ac70:	fa1f f883 	uxth.w	r8, r3
  40ac74:	ea47 4606 	orr.w	r6, r7, r6, lsl #16
  40ac78:	fb09 f708 	mul.w	r7, r9, r8
  40ac7c:	42b7      	cmp	r7, r6
  40ac7e:	fa02 f201 	lsl.w	r2, r2, r1
  40ac82:	fa00 fa01 	lsl.w	sl, r0, r1
  40ac86:	d908      	bls.n	40ac9a <__udivmoddi4+0x242>
  40ac88:	18f6      	adds	r6, r6, r3
  40ac8a:	f109 30ff 	add.w	r0, r9, #4294967295
  40ac8e:	d241      	bcs.n	40ad14 <__udivmoddi4+0x2bc>
  40ac90:	42b7      	cmp	r7, r6
  40ac92:	d93f      	bls.n	40ad14 <__udivmoddi4+0x2bc>
  40ac94:	f1a9 0902 	sub.w	r9, r9, #2
  40ac98:	441e      	add	r6, r3
  40ac9a:	1bf6      	subs	r6, r6, r7
  40ac9c:	b2a0      	uxth	r0, r4
  40ac9e:	fbb6 f4fc 	udiv	r4, r6, ip
  40aca2:	fb0c 6614 	mls	r6, ip, r4, r6
  40aca6:	ea40 4706 	orr.w	r7, r0, r6, lsl #16
  40acaa:	fb04 f808 	mul.w	r8, r4, r8
  40acae:	45b8      	cmp	r8, r7
  40acb0:	d907      	bls.n	40acc2 <__udivmoddi4+0x26a>
  40acb2:	18ff      	adds	r7, r7, r3
  40acb4:	f104 30ff 	add.w	r0, r4, #4294967295
  40acb8:	d228      	bcs.n	40ad0c <__udivmoddi4+0x2b4>
  40acba:	45b8      	cmp	r8, r7
  40acbc:	d926      	bls.n	40ad0c <__udivmoddi4+0x2b4>
  40acbe:	3c02      	subs	r4, #2
  40acc0:	441f      	add	r7, r3
  40acc2:	ea44 4009 	orr.w	r0, r4, r9, lsl #16
  40acc6:	ebc8 0707 	rsb	r7, r8, r7
  40acca:	fba0 8902 	umull	r8, r9, r0, r2
  40acce:	454f      	cmp	r7, r9
  40acd0:	4644      	mov	r4, r8
  40acd2:	464e      	mov	r6, r9
  40acd4:	d314      	bcc.n	40ad00 <__udivmoddi4+0x2a8>
  40acd6:	d029      	beq.n	40ad2c <__udivmoddi4+0x2d4>
  40acd8:	b365      	cbz	r5, 40ad34 <__udivmoddi4+0x2dc>
  40acda:	ebba 0304 	subs.w	r3, sl, r4
  40acde:	eb67 0706 	sbc.w	r7, r7, r6
  40ace2:	fa07 fe0e 	lsl.w	lr, r7, lr
  40ace6:	40cb      	lsrs	r3, r1
  40ace8:	40cf      	lsrs	r7, r1
  40acea:	ea4e 0303 	orr.w	r3, lr, r3
  40acee:	e885 0088 	stmia.w	r5, {r3, r7}
  40acf2:	2100      	movs	r1, #0
  40acf4:	e8bd 87f0 	ldmia.w	sp!, {r4, r5, r6, r7, r8, r9, sl, pc}
  40acf8:	4613      	mov	r3, r2
  40acfa:	e6f8      	b.n	40aaee <__udivmoddi4+0x96>
  40acfc:	4610      	mov	r0, r2
  40acfe:	e6e0      	b.n	40aac2 <__udivmoddi4+0x6a>
  40ad00:	ebb8 0402 	subs.w	r4, r8, r2
  40ad04:	eb69 0603 	sbc.w	r6, r9, r3
  40ad08:	3801      	subs	r0, #1
  40ad0a:	e7e5      	b.n	40acd8 <__udivmoddi4+0x280>
  40ad0c:	4604      	mov	r4, r0
  40ad0e:	e7d8      	b.n	40acc2 <__udivmoddi4+0x26a>
  40ad10:	4611      	mov	r1, r2
  40ad12:	e795      	b.n	40ac40 <__udivmoddi4+0x1e8>
  40ad14:	4681      	mov	r9, r0
  40ad16:	e7c0      	b.n	40ac9a <__udivmoddi4+0x242>
  40ad18:	468a      	mov	sl, r1
  40ad1a:	e77c      	b.n	40ac16 <__udivmoddi4+0x1be>
  40ad1c:	3b02      	subs	r3, #2
  40ad1e:	443c      	add	r4, r7
  40ad20:	e748      	b.n	40abb4 <__udivmoddi4+0x15c>
  40ad22:	4608      	mov	r0, r1
  40ad24:	e70a      	b.n	40ab3c <__udivmoddi4+0xe4>
  40ad26:	3802      	subs	r0, #2
  40ad28:	443e      	add	r6, r7
  40ad2a:	e72f      	b.n	40ab8c <__udivmoddi4+0x134>
  40ad2c:	45c2      	cmp	sl, r8
  40ad2e:	d3e7      	bcc.n	40ad00 <__udivmoddi4+0x2a8>
  40ad30:	463e      	mov	r6, r7
  40ad32:	e7d1      	b.n	40acd8 <__udivmoddi4+0x280>
  40ad34:	4629      	mov	r1, r5
  40ad36:	e8bd 87f0 	ldmia.w	sp!, {r4, r5, r6, r7, r8, r9, sl, pc}
  40ad3a:	bf00      	nop

0040ad3c <__aeabi_idiv0>:
  40ad3c:	4770      	bx	lr
  40ad3e:	bf00      	nop

0040ad40 <__errno>:
  40ad40:	4b01      	ldr	r3, [pc, #4]	; (40ad48 <__errno+0x8>)
  40ad42:	6818      	ldr	r0, [r3, #0]
  40ad44:	4770      	bx	lr
  40ad46:	bf00      	nop
  40ad48:	20000558 	.word	0x20000558

0040ad4c <__libc_init_array>:
  40ad4c:	b570      	push	{r4, r5, r6, lr}
  40ad4e:	4e0f      	ldr	r6, [pc, #60]	; (40ad8c <__libc_init_array+0x40>)
  40ad50:	4d0f      	ldr	r5, [pc, #60]	; (40ad90 <__libc_init_array+0x44>)
  40ad52:	1b76      	subs	r6, r6, r5
  40ad54:	10b6      	asrs	r6, r6, #2
  40ad56:	bf18      	it	ne
  40ad58:	2400      	movne	r4, #0
  40ad5a:	d005      	beq.n	40ad68 <__libc_init_array+0x1c>
  40ad5c:	3401      	adds	r4, #1
  40ad5e:	f855 3b04 	ldr.w	r3, [r5], #4
  40ad62:	4798      	blx	r3
  40ad64:	42a6      	cmp	r6, r4
  40ad66:	d1f9      	bne.n	40ad5c <__libc_init_array+0x10>
  40ad68:	4e0a      	ldr	r6, [pc, #40]	; (40ad94 <__libc_init_array+0x48>)
  40ad6a:	4d0b      	ldr	r5, [pc, #44]	; (40ad98 <__libc_init_array+0x4c>)
  40ad6c:	1b76      	subs	r6, r6, r5
  40ad6e:	f000 fb03 	bl	40b378 <_init>
  40ad72:	10b6      	asrs	r6, r6, #2
  40ad74:	bf18      	it	ne
  40ad76:	2400      	movne	r4, #0
  40ad78:	d006      	beq.n	40ad88 <__libc_init_array+0x3c>
  40ad7a:	3401      	adds	r4, #1
  40ad7c:	f855 3b04 	ldr.w	r3, [r5], #4
  40ad80:	4798      	blx	r3
  40ad82:	42a6      	cmp	r6, r4
  40ad84:	d1f9      	bne.n	40ad7a <__libc_init_array+0x2e>
  40ad86:	bd70      	pop	{r4, r5, r6, pc}
  40ad88:	bd70      	pop	{r4, r5, r6, pc}
  40ad8a:	bf00      	nop
  40ad8c:	0040b384 	.word	0x0040b384
  40ad90:	0040b384 	.word	0x0040b384
  40ad94:	0040b38c 	.word	0x0040b38c
  40ad98:	0040b384 	.word	0x0040b384

0040ad9c <memcpy>:
  40ad9c:	4684      	mov	ip, r0
  40ad9e:	ea41 0300 	orr.w	r3, r1, r0
  40ada2:	f013 0303 	ands.w	r3, r3, #3
  40ada6:	d16d      	bne.n	40ae84 <memcpy+0xe8>
  40ada8:	3a40      	subs	r2, #64	; 0x40
  40adaa:	d341      	bcc.n	40ae30 <memcpy+0x94>
  40adac:	f851 3b04 	ldr.w	r3, [r1], #4
  40adb0:	f840 3b04 	str.w	r3, [r0], #4
  40adb4:	f851 3b04 	ldr.w	r3, [r1], #4
  40adb8:	f840 3b04 	str.w	r3, [r0], #4
  40adbc:	f851 3b04 	ldr.w	r3, [r1], #4
  40adc0:	f840 3b04 	str.w	r3, [r0], #4
  40adc4:	f851 3b04 	ldr.w	r3, [r1], #4
  40adc8:	f840 3b04 	str.w	r3, [r0], #4
  40adcc:	f851 3b04 	ldr.w	r3, [r1], #4
  40add0:	f840 3b04 	str.w	r3, [r0], #4
  40add4:	f851 3b04 	ldr.w	r3, [r1], #4
  40add8:	f840 3b04 	str.w	r3, [r0], #4
  40addc:	f851 3b04 	ldr.w	r3, [r1], #4
  40ade0:	f840 3b04 	str.w	r3, [r0], #4
  40ade4:	f851 3b04 	ldr.w	r3, [r1], #4
  40ade8:	f840 3b04 	str.w	r3, [r0], #4
  40adec:	f851 3b04 	ldr.w	r3, [r1], #4
  40adf0:	f840 3b04 	str.w	r3, [r0], #4
  40adf4:	f851 3b04 	ldr.w	r3, [r1], #4
  40adf8:	f840 3b04 	str.w	r3, [r0], #4
  40adfc:	f851 3b04 	ldr.w	r3, [r1], #4
  40ae00:	f840 3b04 	str.w	r3, [r0], #4
  40ae04:	f851 3b04 	ldr.w	r3, [r1], #4
  40ae08:	f840 3b04 	str.w	r3, [r0], #4
  40ae0c:	f851 3b04 	ldr.w	r3, [r1], #4
  40ae10:	f840 3b04 	str.w	r3, [r0], #4
  40ae14:	f851 3b04 	ldr.w	r3, [r1], #4
  40ae18:	f840 3b04 	str.w	r3, [r0], #4
  40ae1c:	f851 3b04 	ldr.w	r3, [r1], #4
  40ae20:	f840 3b04 	str.w	r3, [r0], #4
  40ae24:	f851 3b04 	ldr.w	r3, [r1], #4
  40ae28:	f840 3b04 	str.w	r3, [r0], #4
  40ae2c:	3a40      	subs	r2, #64	; 0x40
  40ae2e:	d2bd      	bcs.n	40adac <memcpy+0x10>
  40ae30:	3230      	adds	r2, #48	; 0x30
  40ae32:	d311      	bcc.n	40ae58 <memcpy+0xbc>
  40ae34:	f851 3b04 	ldr.w	r3, [r1], #4
  40ae38:	f840 3b04 	str.w	r3, [r0], #4
  40ae3c:	f851 3b04 	ldr.w	r3, [r1], #4
  40ae40:	f840 3b04 	str.w	r3, [r0], #4
  40ae44:	f851 3b04 	ldr.w	r3, [r1], #4
  40ae48:	f840 3b04 	str.w	r3, [r0], #4
  40ae4c:	f851 3b04 	ldr.w	r3, [r1], #4
  40ae50:	f840 3b04 	str.w	r3, [r0], #4
  40ae54:	3a10      	subs	r2, #16
  40ae56:	d2ed      	bcs.n	40ae34 <memcpy+0x98>
  40ae58:	320c      	adds	r2, #12
  40ae5a:	d305      	bcc.n	40ae68 <memcpy+0xcc>
  40ae5c:	f851 3b04 	ldr.w	r3, [r1], #4
  40ae60:	f840 3b04 	str.w	r3, [r0], #4
  40ae64:	3a04      	subs	r2, #4
  40ae66:	d2f9      	bcs.n	40ae5c <memcpy+0xc0>
  40ae68:	3204      	adds	r2, #4
  40ae6a:	d008      	beq.n	40ae7e <memcpy+0xe2>
  40ae6c:	07d2      	lsls	r2, r2, #31
  40ae6e:	bf1c      	itt	ne
  40ae70:	f811 3b01 	ldrbne.w	r3, [r1], #1
  40ae74:	f800 3b01 	strbne.w	r3, [r0], #1
  40ae78:	d301      	bcc.n	40ae7e <memcpy+0xe2>
  40ae7a:	880b      	ldrh	r3, [r1, #0]
  40ae7c:	8003      	strh	r3, [r0, #0]
  40ae7e:	4660      	mov	r0, ip
  40ae80:	4770      	bx	lr
  40ae82:	bf00      	nop
  40ae84:	2a08      	cmp	r2, #8
  40ae86:	d313      	bcc.n	40aeb0 <memcpy+0x114>
  40ae88:	078b      	lsls	r3, r1, #30
  40ae8a:	d08d      	beq.n	40ada8 <memcpy+0xc>
  40ae8c:	f010 0303 	ands.w	r3, r0, #3
  40ae90:	d08a      	beq.n	40ada8 <memcpy+0xc>
  40ae92:	f1c3 0304 	rsb	r3, r3, #4
  40ae96:	1ad2      	subs	r2, r2, r3
  40ae98:	07db      	lsls	r3, r3, #31
  40ae9a:	bf1c      	itt	ne
  40ae9c:	f811 3b01 	ldrbne.w	r3, [r1], #1
  40aea0:	f800 3b01 	strbne.w	r3, [r0], #1
  40aea4:	d380      	bcc.n	40ada8 <memcpy+0xc>
  40aea6:	f831 3b02 	ldrh.w	r3, [r1], #2
  40aeaa:	f820 3b02 	strh.w	r3, [r0], #2
  40aeae:	e77b      	b.n	40ada8 <memcpy+0xc>
  40aeb0:	3a04      	subs	r2, #4
  40aeb2:	d3d9      	bcc.n	40ae68 <memcpy+0xcc>
  40aeb4:	3a01      	subs	r2, #1
  40aeb6:	f811 3b01 	ldrb.w	r3, [r1], #1
  40aeba:	f800 3b01 	strb.w	r3, [r0], #1
  40aebe:	d2f9      	bcs.n	40aeb4 <memcpy+0x118>
  40aec0:	780b      	ldrb	r3, [r1, #0]
  40aec2:	7003      	strb	r3, [r0, #0]
  40aec4:	784b      	ldrb	r3, [r1, #1]
  40aec6:	7043      	strb	r3, [r0, #1]
  40aec8:	788b      	ldrb	r3, [r1, #2]
  40aeca:	7083      	strb	r3, [r0, #2]
  40aecc:	4660      	mov	r0, ip
  40aece:	4770      	bx	lr

0040aed0 <memset>:
  40aed0:	b470      	push	{r4, r5, r6}
  40aed2:	0784      	lsls	r4, r0, #30
  40aed4:	d046      	beq.n	40af64 <memset+0x94>
  40aed6:	1e54      	subs	r4, r2, #1
  40aed8:	2a00      	cmp	r2, #0
  40aeda:	d041      	beq.n	40af60 <memset+0x90>
  40aedc:	b2cd      	uxtb	r5, r1
  40aede:	4603      	mov	r3, r0
  40aee0:	e002      	b.n	40aee8 <memset+0x18>
  40aee2:	1e62      	subs	r2, r4, #1
  40aee4:	b3e4      	cbz	r4, 40af60 <memset+0x90>
  40aee6:	4614      	mov	r4, r2
  40aee8:	f803 5b01 	strb.w	r5, [r3], #1
  40aeec:	079a      	lsls	r2, r3, #30
  40aeee:	d1f8      	bne.n	40aee2 <memset+0x12>
  40aef0:	2c03      	cmp	r4, #3
  40aef2:	d92e      	bls.n	40af52 <memset+0x82>
  40aef4:	b2cd      	uxtb	r5, r1
  40aef6:	ea45 2505 	orr.w	r5, r5, r5, lsl #8
  40aefa:	2c0f      	cmp	r4, #15
  40aefc:	ea45 4505 	orr.w	r5, r5, r5, lsl #16
  40af00:	d919      	bls.n	40af36 <memset+0x66>
  40af02:	f103 0210 	add.w	r2, r3, #16
  40af06:	4626      	mov	r6, r4
  40af08:	3e10      	subs	r6, #16
  40af0a:	2e0f      	cmp	r6, #15
  40af0c:	f842 5c10 	str.w	r5, [r2, #-16]
  40af10:	f842 5c0c 	str.w	r5, [r2, #-12]
  40af14:	f842 5c08 	str.w	r5, [r2, #-8]
  40af18:	f842 5c04 	str.w	r5, [r2, #-4]
  40af1c:	f102 0210 	add.w	r2, r2, #16
  40af20:	d8f2      	bhi.n	40af08 <memset+0x38>
  40af22:	f1a4 0210 	sub.w	r2, r4, #16
  40af26:	f022 020f 	bic.w	r2, r2, #15
  40af2a:	f004 040f 	and.w	r4, r4, #15
  40af2e:	3210      	adds	r2, #16
  40af30:	2c03      	cmp	r4, #3
  40af32:	4413      	add	r3, r2
  40af34:	d90d      	bls.n	40af52 <memset+0x82>
  40af36:	461e      	mov	r6, r3
  40af38:	4622      	mov	r2, r4
  40af3a:	3a04      	subs	r2, #4
  40af3c:	2a03      	cmp	r2, #3
  40af3e:	f846 5b04 	str.w	r5, [r6], #4
  40af42:	d8fa      	bhi.n	40af3a <memset+0x6a>
  40af44:	1f22      	subs	r2, r4, #4
  40af46:	f022 0203 	bic.w	r2, r2, #3
  40af4a:	3204      	adds	r2, #4
  40af4c:	4413      	add	r3, r2
  40af4e:	f004 0403 	and.w	r4, r4, #3
  40af52:	b12c      	cbz	r4, 40af60 <memset+0x90>
  40af54:	b2c9      	uxtb	r1, r1
  40af56:	441c      	add	r4, r3
  40af58:	f803 1b01 	strb.w	r1, [r3], #1
  40af5c:	42a3      	cmp	r3, r4
  40af5e:	d1fb      	bne.n	40af58 <memset+0x88>
  40af60:	bc70      	pop	{r4, r5, r6}
  40af62:	4770      	bx	lr
  40af64:	4614      	mov	r4, r2
  40af66:	4603      	mov	r3, r0
  40af68:	e7c2      	b.n	40aef0 <memset+0x20>
  40af6a:	bf00      	nop

0040af6c <strncpy>:
  40af6c:	ea40 0301 	orr.w	r3, r0, r1
  40af70:	079b      	lsls	r3, r3, #30
  40af72:	b470      	push	{r4, r5, r6}
  40af74:	d12b      	bne.n	40afce <strncpy+0x62>
  40af76:	2a03      	cmp	r2, #3
  40af78:	d929      	bls.n	40afce <strncpy+0x62>
  40af7a:	460c      	mov	r4, r1
  40af7c:	4603      	mov	r3, r0
  40af7e:	4621      	mov	r1, r4
  40af80:	f854 6b04 	ldr.w	r6, [r4], #4
  40af84:	f1a6 3501 	sub.w	r5, r6, #16843009	; 0x1010101
  40af88:	ea25 0506 	bic.w	r5, r5, r6
  40af8c:	f015 3f80 	tst.w	r5, #2155905152	; 0x80808080
  40af90:	d106      	bne.n	40afa0 <strncpy+0x34>
  40af92:	3a04      	subs	r2, #4
  40af94:	2a03      	cmp	r2, #3
  40af96:	f843 6b04 	str.w	r6, [r3], #4
  40af9a:	4621      	mov	r1, r4
  40af9c:	d8ef      	bhi.n	40af7e <strncpy+0x12>
  40af9e:	b1a2      	cbz	r2, 40afca <strncpy+0x5e>
  40afa0:	780c      	ldrb	r4, [r1, #0]
  40afa2:	701c      	strb	r4, [r3, #0]
  40afa4:	3a01      	subs	r2, #1
  40afa6:	3301      	adds	r3, #1
  40afa8:	3101      	adds	r1, #1
  40afaa:	b13c      	cbz	r4, 40afbc <strncpy+0x50>
  40afac:	b16a      	cbz	r2, 40afca <strncpy+0x5e>
  40afae:	f811 4b01 	ldrb.w	r4, [r1], #1
  40afb2:	f803 4b01 	strb.w	r4, [r3], #1
  40afb6:	3a01      	subs	r2, #1
  40afb8:	2c00      	cmp	r4, #0
  40afba:	d1f7      	bne.n	40afac <strncpy+0x40>
  40afbc:	b12a      	cbz	r2, 40afca <strncpy+0x5e>
  40afbe:	441a      	add	r2, r3
  40afc0:	2100      	movs	r1, #0
  40afc2:	f803 1b01 	strb.w	r1, [r3], #1
  40afc6:	429a      	cmp	r2, r3
  40afc8:	d1fb      	bne.n	40afc2 <strncpy+0x56>
  40afca:	bc70      	pop	{r4, r5, r6}
  40afcc:	4770      	bx	lr
  40afce:	4603      	mov	r3, r0
  40afd0:	e7e5      	b.n	40af9e <strncpy+0x32>
  40afd2:	bf00      	nop

0040afd4 <register_fini>:
  40afd4:	4b02      	ldr	r3, [pc, #8]	; (40afe0 <register_fini+0xc>)
  40afd6:	b113      	cbz	r3, 40afde <register_fini+0xa>
  40afd8:	4802      	ldr	r0, [pc, #8]	; (40afe4 <register_fini+0x10>)
  40afda:	f000 b805 	b.w	40afe8 <atexit>
  40afde:	4770      	bx	lr
  40afe0:	00000000 	.word	0x00000000
  40afe4:	0040aff5 	.word	0x0040aff5

0040afe8 <atexit>:
  40afe8:	2300      	movs	r3, #0
  40afea:	4601      	mov	r1, r0
  40afec:	461a      	mov	r2, r3
  40afee:	4618      	mov	r0, r3
  40aff0:	f000 b814 	b.w	40b01c <__register_exitproc>

0040aff4 <__libc_fini_array>:
  40aff4:	b538      	push	{r3, r4, r5, lr}
  40aff6:	4d07      	ldr	r5, [pc, #28]	; (40b014 <__libc_fini_array+0x20>)
  40aff8:	4c07      	ldr	r4, [pc, #28]	; (40b018 <__libc_fini_array+0x24>)
  40affa:	1b2c      	subs	r4, r5, r4
  40affc:	10a4      	asrs	r4, r4, #2
  40affe:	d005      	beq.n	40b00c <__libc_fini_array+0x18>
  40b000:	3c01      	subs	r4, #1
  40b002:	f855 3d04 	ldr.w	r3, [r5, #-4]!
  40b006:	4798      	blx	r3
  40b008:	2c00      	cmp	r4, #0
  40b00a:	d1f9      	bne.n	40b000 <__libc_fini_array+0xc>
  40b00c:	e8bd 4038 	ldmia.w	sp!, {r3, r4, r5, lr}
  40b010:	f000 b9bc 	b.w	40b38c <_fini>
  40b014:	0040b39c 	.word	0x0040b39c
  40b018:	0040b398 	.word	0x0040b398

0040b01c <__register_exitproc>:
  40b01c:	e92d 47f0 	stmdb	sp!, {r4, r5, r6, r7, r8, r9, sl, lr}
  40b020:	4c25      	ldr	r4, [pc, #148]	; (40b0b8 <__register_exitproc+0x9c>)
  40b022:	6825      	ldr	r5, [r4, #0]
  40b024:	f8d5 4148 	ldr.w	r4, [r5, #328]	; 0x148
  40b028:	4606      	mov	r6, r0
  40b02a:	4688      	mov	r8, r1
  40b02c:	4692      	mov	sl, r2
  40b02e:	4699      	mov	r9, r3
  40b030:	b3c4      	cbz	r4, 40b0a4 <__register_exitproc+0x88>
  40b032:	6860      	ldr	r0, [r4, #4]
  40b034:	281f      	cmp	r0, #31
  40b036:	dc17      	bgt.n	40b068 <__register_exitproc+0x4c>
  40b038:	1c43      	adds	r3, r0, #1
  40b03a:	b176      	cbz	r6, 40b05a <__register_exitproc+0x3e>
  40b03c:	eb04 0580 	add.w	r5, r4, r0, lsl #2
  40b040:	2201      	movs	r2, #1
  40b042:	f8c5 a088 	str.w	sl, [r5, #136]	; 0x88
  40b046:	f8d4 1188 	ldr.w	r1, [r4, #392]	; 0x188
  40b04a:	4082      	lsls	r2, r0
  40b04c:	4311      	orrs	r1, r2
  40b04e:	2e02      	cmp	r6, #2
  40b050:	f8c4 1188 	str.w	r1, [r4, #392]	; 0x188
  40b054:	f8c5 9108 	str.w	r9, [r5, #264]	; 0x108
  40b058:	d01e      	beq.n	40b098 <__register_exitproc+0x7c>
  40b05a:	3002      	adds	r0, #2
  40b05c:	6063      	str	r3, [r4, #4]
  40b05e:	f844 8020 	str.w	r8, [r4, r0, lsl #2]
  40b062:	2000      	movs	r0, #0
  40b064:	e8bd 87f0 	ldmia.w	sp!, {r4, r5, r6, r7, r8, r9, sl, pc}
  40b068:	4b14      	ldr	r3, [pc, #80]	; (40b0bc <__register_exitproc+0xa0>)
  40b06a:	b303      	cbz	r3, 40b0ae <__register_exitproc+0x92>
  40b06c:	f44f 70c8 	mov.w	r0, #400	; 0x190
  40b070:	f3af 8000 	nop.w
  40b074:	4604      	mov	r4, r0
  40b076:	b1d0      	cbz	r0, 40b0ae <__register_exitproc+0x92>
  40b078:	f8d5 3148 	ldr.w	r3, [r5, #328]	; 0x148
  40b07c:	2700      	movs	r7, #0
  40b07e:	e880 0088 	stmia.w	r0, {r3, r7}
  40b082:	f8c5 4148 	str.w	r4, [r5, #328]	; 0x148
  40b086:	4638      	mov	r0, r7
  40b088:	2301      	movs	r3, #1
  40b08a:	f8c4 7188 	str.w	r7, [r4, #392]	; 0x188
  40b08e:	f8c4 718c 	str.w	r7, [r4, #396]	; 0x18c
  40b092:	2e00      	cmp	r6, #0
  40b094:	d0e1      	beq.n	40b05a <__register_exitproc+0x3e>
  40b096:	e7d1      	b.n	40b03c <__register_exitproc+0x20>
  40b098:	f8d4 118c 	ldr.w	r1, [r4, #396]	; 0x18c
  40b09c:	430a      	orrs	r2, r1
  40b09e:	f8c4 218c 	str.w	r2, [r4, #396]	; 0x18c
  40b0a2:	e7da      	b.n	40b05a <__register_exitproc+0x3e>
  40b0a4:	f505 74a6 	add.w	r4, r5, #332	; 0x14c
  40b0a8:	f8c5 4148 	str.w	r4, [r5, #328]	; 0x148
  40b0ac:	e7c1      	b.n	40b032 <__register_exitproc+0x16>
  40b0ae:	f04f 30ff 	mov.w	r0, #4294967295
  40b0b2:	e8bd 87f0 	ldmia.w	sp!, {r4, r5, r6, r7, r8, r9, sl, pc}
  40b0b6:	bf00      	nop
  40b0b8:	0040b374 	.word	0x0040b374
  40b0bc:	00000000 	.word	0x00000000
  40b0c0:	00002580 	.word	0x00002580
  40b0c4:	000000c0 	.word	0x000000c0
  40b0c8:	00000800 	.word	0x00000800
	...

0040b0d8 <all_twi_definitions>:
  40b0d8:	40018000 40018100 00000013 00000013     ...@...@........
  40b0e8:	4001c000 4001c100 00000014 00000014     ...@...@........

0040b0f8 <all_usart_definitions>:
  40b0f8:	40024000 40024100 0000000e 0000000e     .@.@.A.@........
  40b108:	40028000 40028100 0000000f 0000000f     ...@...@........
  40b118:	454c4449 00000000 20726d54 00637653     IDLE....Tmr Svc.
  40b128:	00007650 6d6d6f43 00000000 6e696c42     Pv..Comm....Blin
  40b138:	0000796b 736f6361 00000000 6e697361     ky..acos....asin
  40b148:	00000000 74727173 00000000              ....sqrt....

0040b154 <npio2_hw>:
  40b154:	3ff921fb 400921fb 4012d97c 401921fb     .!.?.!.@|..@.!.@
  40b164:	401f6a7a 4022d97c 4025fdbb 402921fb     zj.@|."@..%@.!)@
  40b174:	402c463a 402f6a7a 4031475c 4032d97c     :F,@zj/@\G1@|.2@
  40b184:	40346b9c 4035fdbb 40378fdb 403921fb     .k4@..5@..7@.!9@
  40b194:	403ab41b 403c463a 403dd85a 403f6a7a     ..:@:F<@Z.=@zj?@
  40b1a4:	40407e4c 4041475c 4042106c 4042d97c     L~@@\GA@l.B@|.B@
  40b1b4:	4043a28c 40446b9c 404534ac 4045fdbb     ..C@.kD@.4E@..E@
  40b1c4:	4046c6cb 40478fdb 404858eb 404921fb     ..F@..G@.XH@.!I@

0040b1d4 <two_over_pi>:
  40b1d4:	00a2f983 006e4e44 001529fc 002757d1     ....DNn..)...W'.
  40b1e4:	00f534dd 00c0db62 0095993c 00439041     .4..b...<...A.C.
  40b1f4:	00fe5163 00abdebb 00c561b7 00246e3a     cQ.......a..:n$.
  40b204:	00424dd2 00e00649 002eea09 00d1921c     .MB.I...........
  40b214:	00fe1deb 001cb129 00a73ee8 008235f5     ....)....>...5..
  40b224:	002ebb44 0084e99c 007026b4 005f7e41     D........&p.A~_.
  40b234:	003991d6 00398353 0039f49c 00845f8b     ..9.S.9...9.._..
  40b244:	00bdf928 003b1ff8 0097ffde 0005980f     (.....;.........
  40b254:	00ef2f11 008b5a0a 006d1f6d 00367ecf     ./...Z..m.m..~6.
  40b264:	0027cb09 00b74f46 003f669e 005fea2d     ..'.FO...f?.-._.
  40b274:	007527ba 00c7ebe5 00f17b3d 000739f7     .'u.....={...9..
  40b284:	008a5292 00ea6bfb 005fb11f 008d5d08     .R...k...._..]..
  40b294:	00560330 0046fc7b 006babf0 00cfbc20     0.V.{.F...k. ...
  40b2a4:	009af436 001da9e3 0091615e 00e61b08     6.......^a......
  40b2b4:	00659985 005f14a0 0068408d 00ffd880     ..e..._..@h.....
  40b2c4:	004d7327 00310606 001556ca 0073a8c9     'sM...1..V....s.
  40b2d4:	0060e27b 00c08c6b                       {.`.k...

0040b2dc <init_jk>:
  40b2dc:	00000002 00000003 00000004 00000006     ................
  40b2ec:	00000000                                ....

0040b2f0 <PIo2>:
  40b2f0:	40000000 3ff921fb 00000000 3e74442d     ...@.!.?....-Dt>
  40b300:	80000000 3cf84698 60000000 3b78cc51     .....F.<...`Q.x;
  40b310:	80000000 39f01b83 40000000 387a2520     .......9...@ %z8
  40b320:	80000000 36e38222 00000000 3569f31d     ...."..6......i5

0040b330 <atanlo>:
  40b330:	222f65e2 3c7a2b7f 33145c07 3c81a626     .e/".+z<.\.3&..<
  40b340:	7af0cbbd 3c700788 33145c07 3c91a626     ...z..p<.\.3&..<

0040b350 <atanhi>:
  40b350:	0561bb4f 3fddac67 54442d18 3fe921fb     O.a.g..?.-DT.!.?
  40b360:	d281f69b 3fef730b 54442d18 3ff921fb     .....s.?.-DT.!.?
  40b370:	00000043                                C...

0040b374 <_global_impure_ptr>:
  40b374:	20000130                                0.. 

0040b378 <_init>:
  40b378:	b5f8      	push	{r3, r4, r5, r6, r7, lr}
  40b37a:	bf00      	nop
  40b37c:	bcf8      	pop	{r3, r4, r5, r6, r7}
  40b37e:	bc08      	pop	{r3}
  40b380:	469e      	mov	lr, r3
  40b382:	4770      	bx	lr

0040b384 <__init_array_start>:
  40b384:	0040afd5 	.word	0x0040afd5

0040b388 <__frame_dummy_init_array_entry>:
  40b388:	004000f1                                ..@.

0040b38c <_fini>:
  40b38c:	b5f8      	push	{r3, r4, r5, r6, r7, lr}
  40b38e:	bf00      	nop
  40b390:	bcf8      	pop	{r3, r4, r5, r6, r7}
  40b392:	bc08      	pop	{r3}
  40b394:	469e      	mov	lr, r3
  40b396:	4770      	bx	lr

0040b398 <__fini_array_start>:
  40b398:	004000cd 	.word	0x004000cd

Disassembly of section .relocate:

20000000 <efc_perform_read_sequence>:
20000000:	b480      	push	{r7}
20000002:	b089      	sub	sp, #36	; 0x24
20000004:	af00      	add	r7, sp, #0
20000006:	60f8      	str	r0, [r7, #12]
20000008:	60b9      	str	r1, [r7, #8]
2000000a:	607a      	str	r2, [r7, #4]
2000000c:	603b      	str	r3, [r7, #0]
2000000e:	f44f 0380 	mov.w	r3, #4194304	; 0x400000
20000012:	61bb      	str	r3, [r7, #24]
20000014:	683b      	ldr	r3, [r7, #0]
20000016:	2b00      	cmp	r3, #0
20000018:	d101      	bne.n	2000001e <efc_perform_read_sequence+0x1e>
2000001a:	2302      	movs	r3, #2
2000001c:	e03c      	b.n	20000098 <efc_perform_read_sequence+0x98>
2000001e:	68fb      	ldr	r3, [r7, #12]
20000020:	681b      	ldr	r3, [r3, #0]
20000022:	f443 3280 	orr.w	r2, r3, #65536	; 0x10000
20000026:	68fb      	ldr	r3, [r7, #12]
20000028:	601a      	str	r2, [r3, #0]
2000002a:	68bb      	ldr	r3, [r7, #8]
2000002c:	b2db      	uxtb	r3, r3
2000002e:	f043 42b4 	orr.w	r2, r3, #1509949440	; 0x5a000000
20000032:	68fb      	ldr	r3, [r7, #12]
20000034:	605a      	str	r2, [r3, #4]
20000036:	68fb      	ldr	r3, [r7, #12]
20000038:	689b      	ldr	r3, [r3, #8]
2000003a:	617b      	str	r3, [r7, #20]
2000003c:	697b      	ldr	r3, [r7, #20]
2000003e:	f003 0301 	and.w	r3, r3, #1
20000042:	2b00      	cmp	r3, #0
20000044:	d1f7      	bne.n	20000036 <efc_perform_read_sequence+0x36>
20000046:	2300      	movs	r3, #0
20000048:	61fb      	str	r3, [r7, #28]
2000004a:	e00c      	b.n	20000066 <efc_perform_read_sequence+0x66>
2000004c:	69fb      	ldr	r3, [r7, #28]
2000004e:	009b      	lsls	r3, r3, #2
20000050:	683a      	ldr	r2, [r7, #0]
20000052:	4413      	add	r3, r2
20000054:	69fa      	ldr	r2, [r7, #28]
20000056:	0092      	lsls	r2, r2, #2
20000058:	69b9      	ldr	r1, [r7, #24]
2000005a:	440a      	add	r2, r1
2000005c:	6812      	ldr	r2, [r2, #0]
2000005e:	601a      	str	r2, [r3, #0]
20000060:	69fb      	ldr	r3, [r7, #28]
20000062:	3301      	adds	r3, #1
20000064:	61fb      	str	r3, [r7, #28]
20000066:	69fa      	ldr	r2, [r7, #28]
20000068:	6abb      	ldr	r3, [r7, #40]	; 0x28
2000006a:	429a      	cmp	r2, r3
2000006c:	d3ee      	bcc.n	2000004c <efc_perform_read_sequence+0x4c>
2000006e:	687b      	ldr	r3, [r7, #4]
20000070:	b2db      	uxtb	r3, r3
20000072:	f043 42b4 	orr.w	r2, r3, #1509949440	; 0x5a000000
20000076:	68fb      	ldr	r3, [r7, #12]
20000078:	605a      	str	r2, [r3, #4]
2000007a:	68fb      	ldr	r3, [r7, #12]
2000007c:	689b      	ldr	r3, [r3, #8]
2000007e:	617b      	str	r3, [r7, #20]
20000080:	697b      	ldr	r3, [r7, #20]
20000082:	f003 0301 	and.w	r3, r3, #1
20000086:	2b00      	cmp	r3, #0
20000088:	d0f7      	beq.n	2000007a <efc_perform_read_sequence+0x7a>
2000008a:	68fb      	ldr	r3, [r7, #12]
2000008c:	681b      	ldr	r3, [r3, #0]
2000008e:	f423 3280 	bic.w	r2, r3, #65536	; 0x10000
20000092:	68fb      	ldr	r3, [r7, #12]
20000094:	601a      	str	r2, [r3, #0]
20000096:	2300      	movs	r3, #0
20000098:	4618      	mov	r0, r3
2000009a:	3724      	adds	r7, #36	; 0x24
2000009c:	46bd      	mov	sp, r7
2000009e:	bc80      	pop	{r7}
200000a0:	4770      	bx	lr
200000a2:	bf00      	nop

200000a4 <efc_write_fmr>:
200000a4:	b480      	push	{r7}
200000a6:	b083      	sub	sp, #12
200000a8:	af00      	add	r7, sp, #0
200000aa:	6078      	str	r0, [r7, #4]
200000ac:	6039      	str	r1, [r7, #0]
200000ae:	687b      	ldr	r3, [r7, #4]
200000b0:	683a      	ldr	r2, [r7, #0]
200000b2:	601a      	str	r2, [r3, #0]
200000b4:	bf00      	nop
200000b6:	370c      	adds	r7, #12
200000b8:	46bd      	mov	sp, r7
200000ba:	bc80      	pop	{r7}
200000bc:	4770      	bx	lr
200000be:	bf00      	nop

200000c0 <efc_perform_fcr>:
200000c0:	b480      	push	{r7}
200000c2:	b085      	sub	sp, #20
200000c4:	af00      	add	r7, sp, #0
200000c6:	6078      	str	r0, [r7, #4]
200000c8:	6039      	str	r1, [r7, #0]
200000ca:	687b      	ldr	r3, [r7, #4]
200000cc:	683a      	ldr	r2, [r7, #0]
200000ce:	605a      	str	r2, [r3, #4]
200000d0:	687b      	ldr	r3, [r7, #4]
200000d2:	689b      	ldr	r3, [r3, #8]
200000d4:	60fb      	str	r3, [r7, #12]
200000d6:	68fb      	ldr	r3, [r7, #12]
200000d8:	f003 0301 	and.w	r3, r3, #1
200000dc:	2b00      	cmp	r3, #0
200000de:	d0f7      	beq.n	200000d0 <efc_perform_fcr+0x10>
200000e0:	68fb      	ldr	r3, [r7, #12]
200000e2:	f003 030e 	and.w	r3, r3, #14
200000e6:	4618      	mov	r0, r3
200000e8:	3714      	adds	r7, #20
200000ea:	46bd      	mov	sp, r7
200000ec:	bc80      	pop	{r7}
200000ee:	4770      	bx	lr

200000f0 <portable_delay_cycles>:
200000f0:	f3bf 8f5f 	dmb	sy
200000f4:	3801      	subs	r0, #1
200000f6:	d1fb      	bne.n	200000f0 <portable_delay_cycles>
200000f8:	4770      	bx	lr
200000fa:	bf00      	nop

200000fc <lat>:
200000fc:	ba88 418b                                   ...A

20000100 <lon>:
20000100:	e153 429c                                   S..B

20000104 <timeZone>:
20000104:	0000 40b0                                   ...@

20000108 <dist>:
20000108:	0000 40a0                                   ...@

2000010c <width>:
2000010c:	0000 4000                                   ...@

20000110 <pvAngleRng>:
20000110:	0000 422c                                   ..,B

20000114 <g_interrupt_enabled>:
20000114:	0001 0000                                   ....

20000118 <SystemCoreClock>:
20000118:	0900 003d                                   ..=.

2000011c <uxCriticalNesting>:
2000011c:	aaaa aaaa                                   ....

20000120 <xFreeBytesRemaining>:
20000120:	2000 0000                                   . ..

20000124 <xNextTaskUnblockTime>:
20000124:	ffff ffff                                   ....

20000128 <slaveAddr>:
20000128:	0101                                             .

20000129 <__fdlib_version>:
20000129:	0001 0000 0000 0000                              .......

20000130 <impure_data>:
20000130:	0000 0000 041c 2000 0484 2000 04ec 2000     ....... ... ... 
	...
20000164:	b370 0040 0000 0000 0000 0000 0000 0000     p.@.............
	...
200001d8:	0001 0000 0000 0000 330e abcd 1234 e66d     .........3..4.m.
200001e8:	deec 0005 000b 0000 0000 0000 0000 0000     ................
	...

20000558 <_impure_ptr>:
20000558:	0130 2000                                   0.. 
